(ifile_types
ParseObject
p0
(dp1
S'antagonists'
p2
c__builtin__
set
p3
((lp4
S"(38, u'\\\\bsb ?216641')"
p5
aS"(14, u'\\\\bmethiothepin')"
p6
aS"(45, u'\\\\bgr ?127935')"
p7
aS"(39, u'\\\\bsb ?224289')"
p8
atp9
Rp10
sS'methods'
p11
g3
((lp12
S'Method.ANTAGONIST'
p13
aS'Method.AGONIST'
p14
atp15
Rp16
sS'topics'
p17
g3
((lp18
tp19
Rp20
sS'receptors'
p21
g3
((lp22
S'5ht1b'
p23
aS'5ht1d'
p24
atp25
Rp26
sS'regions'
p27
g3
((lp28
tp29
Rp30
sS'year'
p31
V1997
p32
sS'agonists'
p33
g3
((lp34
tp35
Rp36
sS'species'
p37
g3
((lp38
S"(6753, u'(?i)(da|das)')"
p39
aS"(5958, u'(?i)(rats|rat)')"
p40
aS"(6356, u'(?i)(ais|ai)')"
p41
aS"(5743, u'(?i)(bots|bot)')"
p42
aS"(3051, u'(?i)(pigs|pig)')"
p43
aS"(1055, u'(?i)(men|man)')"
p44
aS"(3062, u'(?i)(guineas|guinea)')"
p45
aS"(2334, u'(?i)(eels|eel)')"
p46
aS"(853, u'(?i)(minas|mina)')"
p47
aS"(6249, u'(?i)(ants|ant)')"
p48
aS"(3812, u'(?i)(studs|stud)')"
p49
aS"(4480, u'(?i)(guineas|guinea)(-|\\\\s+)?(pigs|pig)')"
p50
aS"(821, u'(?i)(lice|louse)')"
p51
atp52
Rp53
sb.