(ifile_types
ParseObject
p0
(dp1
S'methods'
p2
c__builtin__
set
p3
((lp4
S'Method.AGONIST'
p5
atp6
Rp7
sS'topics'
p8
g3
((lp9
S"(14, u'\\\\bcogniti')"
p10
aS"(5, u'\\\\btherap')"
p11
aS"(3, u'\\\\bclinical')"
p12
aS"(4, u'\\\\btreatment')"
p13
aS"(2, u'\\\\bdisorder')"
p14
atp15
Rp16
sS'receptors'
p17
g3
((lp18
(S'5ht2a'
p19
I28
I34
tp20
a(S'5ht2a'
p21
I656
I662
tp22
atp23
Rp24
sS'raw_text_methods'
p25
g3
((lp26
S"(13, u'\\\\bagonist')"
p27
atp28
Rp29
sS'regions'
p30
g3
((lp31
tp32
Rp33
sS'year'
p34
V2017
p35
sS'species'
p36
g3
((lp37
tp38
Rp39
sb.