(ifile_types
ParseObject
p0
(dp1
S'methods'
p2
c__builtin__
set
p3
((lp4
tp5
Rp6
sS'topics'
p7
g3
((lp8
tp9
Rp10
sS'receptors'
p11
g3
((lp12
(S'5ht3'
p13
I1042
I1046
tp14
atp15
Rp16
sS'raw_text_methods'
p17
g3
((lp18
tp19
Rp20
sS'regions'
p21
g3
((lp22
tp23
Rp24
sS'year'
p25
V2008
p26
sS'species'
p27
g3
((lp28
S"(1, u'(?i)\\\\b(mice|mouse)\\\\b')"
p29
atp30
Rp31
sb.