(ifile_types
ParseObject
p0
(dp1
S'antagonists'
p2
c__builtin__
set
p3
((lp4
S"(67, u'\\\\bhaloperidol')"
p5
atp6
Rp7
sS'methods'
p8
g3
((lp9
tp10
Rp11
sS'topics'
p12
g3
((lp13
S"(4, u'\\\\blocomot')"
p14
atp15
Rp16
sS'receptors'
p17
g3
((lp18
S'5ht1a'
p19
atp20
Rp21
sS'regions'
p22
g3
((lp23
S"(34, u'(?i)(pon|pons)')"
p24
atp25
Rp26
sS'year'
p27
V2000
p28
sS'agonists'
p29
g3
((lp30
S"(92, u'\\\\b8 ?oh ?dpat')"
p31
aS"(48, u'\\\\bhaloperidol')"
p32
atp33
Rp34
sS'species'
p35
g3
((lp36
S"(5958, u'(?i)(rats|rat)')"
p37
aS"(6753, u'(?i)(da|das)')"
p38
aS"(468, u'(?i)(oxen|ox)')"
p39
aS"(1055, u'(?i)(men|man)')"
p40
aS"(6249, u'(?i)(ants|ant)')"
p41
aS"(4979, u'(?i)(cats|cat)')"
p42
aS"(3550, u'(?i)(anis|ani)')"
p43
aS"(1961, u'(?i)(pens|pen)')"
p44
aS"(6356, u'(?i)(ais|ai)')"
p45
atp46
Rp47
sb.