(ifile_types
ParseObject
p0
(dp1
S'methods'
p2
c__builtin__
set
p3
((lp4
S'Method.AGONIST'
p5
atp6
Rp7
sS'topics'
p8
g3
((lp9
S"(26, u'\\\\bbehav')"
p10
aS"(20, u'\\\\bmood')"
p11
atp12
Rp13
sS'receptors'
p14
g3
((lp15
(S'5ht1a'
p16
I989
I995
tp17
atp18
Rp19
sS'raw_text_methods'
p20
g3
((lp21
S"(13, u'\\\\bagonist')"
p22
aS"(15, u'\\\\b8ohdpat')"
p23
atp24
Rp25
sS'regions'
p26
g3
((lp27
S"(1, u'(?i)\\\\b(neocortexes|neocortex)\\\\b')"
p28
aS"(19, u'(?i)\\\\b(cortexes|cortex)\\\\b')"
p29
aS"(11, u'(?i)\\\\b(cerebrals|cerebral)\\\\b')"
p30
atp31
Rp32
sS'year'
p33
V1994
p34
sS'species'
p35
g3
((lp36
S"(4, u'(?i)\\\\b(rats|rat)\\\\b')"
p37
atp38
Rp39
sb.