(ifile_types
ParseObject
p0
(dp1
S'antagonists'
p2
c__builtin__
set
p3
((lp4
tp5
Rp6
sS'methods'
p7
g3
((lp8
tp9
Rp10
sS'topics'
p11
g3
((lp12
tp13
Rp14
sS'receptors'
p15
g3
((lp16
S'5ht7'
p17
atp18
Rp19
sS'regions'
p20
g3
((lp21
S"(220, u'(?i)\\\\b(striatums|striatum)\\\\b')"
p22
aS"(294, u'(?i)\\\\b(retrosplenials|retrosplenial)(-|\\\\s+)?(cortexes|cortex)\\\\b')"
p23
aS"(203, u'(?i)\\\\b(dentates|dentate)(-|\\\\s+)?(gyruses|gyrus)\\\\b')"
p24
atp25
Rp26
sS'year'
p27
V1997
p28
sS'agonists'
p29
g3
((lp30
tp31
Rp32
sS'species'
p33
g3
((lp34
S"(3152, u'(?i)\\\\b(layers|layer)\\\\b')"
p35
aS"(4091, u'(?i)\\\\b(adults|adult)\\\\b')"
p36
aS"(4177, u'(?i)\\\\b(grays|gray)\\\\b')"
p37
aS"(5958, u'(?i)\\\\b(rats|rat)\\\\b')"
p38
atp39
Rp40
sb.