(ifile_types
ParseObject
p0
(dp1
S'antagonists'
p2
c__builtin__
set
p3
((lp4
S"(104, u'\\\\bimipramine')"
p5
atp6
Rp7
sS'methods'
p8
g3
((lp9
tp10
Rp11
sS'topics'
p12
g3
((lp13
tp14
Rp15
sS'receptors'
p16
g3
((lp17
S'5ht2a'
p18
atp19
Rp20
sS'regions'
p21
g3
((lp22
tp23
Rp24
sS'year'
p25
V2008
p26
sS'agonists'
p27
g3
((lp28
S"(189, u'\\\\bethanol')"
p29
atp30
Rp31
sS'species'
p32
g3
((lp33
S"(5799, u'(?i)\\\\b(rodents|rodent)\\\\b')"
p34
aS"(2054, u'(?i)\\\\b(heads|head)\\\\b')"
p35
aS"(5958, u'(?i)\\\\b(rats|rat)\\\\b')"
p36
atp37
Rp38
sb.