(ifile_types
ParseObject
p0
(dp1
S'antagonists'
p2
c__builtin__
set
p3
((lp4
tp5
Rp6
sS'methods'
p7
g3
((lp8
S'Method.AGONIST'
p9
atp10
Rp11
sS'topics'
p12
g3
((lp13
S"(35, u'\\\\bstress')"
p14
atp15
Rp16
sS'receptors'
p17
g3
((lp18
S'5ht5'
p19
aS'5ht2a'
p20
atp21
Rp22
sS'regions'
p23
g3
((lp24
S"(220, u'(?i)(striatums|striatum)')"
p25
aS"(254, u'(?i)(prefrontals|prefrontal)(-|\\\\s+)?(cortexes|cortex)')"
p26
aS"(255, u'(?i)(pres|pre)(-|\\\\s+)?(frontals|frontal)(-|\\\\s+)?(cortexes|cortex)')"
p27
aS"(209, u'(?i)(amygdalas|amygdala)')"
p28
aS"(34, u'(?i)(pon|pons)')"
p29
atp30
Rp31
sS'year'
p32
V2013
p33
sS'agonists'
p34
g3
((lp35
tp36
Rp37
sS'species'
p38
g3
((lp39
S"(5958, u'(?i)(rats|rat)')"
p40
aS"(6356, u'(?i)(ais|ai)')"
p41
aS"(7609, u'(?i)(erns|ern)')"
p42
aS"(6753, u'(?i)(da|das)')"
p43
aS"(4091, u'(?i)(adults|adult)')"
p44
aS"(1055, u'(?i)(men|man)')"
p45
aS"(3726, u'(?i)(mates|mate)')"
p46
aS"(1349, u'(?i)(rams|ram)')"
p47
aS"(4979, u'(?i)(cats|cat)')"
p48
aS"(3550, u'(?i)(anis|ani)')"
p49
aS"(1961, u'(?i)(pens|pen)')"
p50
aS"(3812, u'(?i)(studs|stud)')"
p51
aS"(6391, u'(?i)(asses|ass)')"
p52
aS"(1683, u'(?i)(terns|tern)')"
p53
atp54
Rp55
sb.