(ifile_types
ParseObject
p0
(dp1
S'antagonists'
p2
c__builtin__
set
p3
((lp4
tp5
Rp6
sS'methods'
p7
g3
((lp8
tp9
Rp10
sS'topics'
p11
g3
((lp12
tp13
Rp14
sS'receptors'
p15
g3
((lp16
S'5ht2'
p17
aS'5ht2a'
p18
atp19
Rp20
sS'regions'
p21
g3
((lp22
S"(223, u'(?i)\\\\b(putamens|putamen)\\\\b')"
p23
aS"(220, u'(?i)\\\\b(striatums|striatum)\\\\b')"
p24
aS"(226, u'(?i)\\\\b(nuclei|nucleus)(-|\\\\s+)?(accumben|accumbens)\\\\b')"
p25
atp26
Rp27
sS'year'
p28
V1999
p29
sS'agonists'
p30
g3
((lp31
S"(149, u'\\\\bmem')"
p32
atp33
Rp34
sS'species'
p35
g3
((lp36
S"(6325, u'(?i)\\\\b(caudates|caudate)\\\\b')"
p37
aS"(5958, u'(?i)\\\\b(rats|rat)\\\\b')"
p38
atp39
Rp40
sb.