(ifile_types
ParseObject
p0
(dp1
S'methods'
p2
c__builtin__
set
p3
((lp4
S'Method.ANTAGONIST'
p5
atp6
Rp7
sS'topics'
p8
g3
((lp9
tp10
Rp11
sS'receptors'
p12
g3
((lp13
(S'5ht3'
p14
I1654
I1659
tp15
a(S'5ht2a'
p16
I1646
I1652
tp17
atp18
Rp19
sS'raw_text_methods'
p20
g3
((lp21
S"(12, u'\\\\bantagonist')"
p22
atp23
Rp24
sS'regions'
p25
g3
((lp26
S"(11, u'(?i)\\\\b(cerebrals|cerebral)\\\\b')"
p27
aS"(19, u'(?i)\\\\b(cortexes|cortex)\\\\b')"
p28
atp29
Rp30
sS'year'
p31
V1998
p32
sS'species'
p33
g3
((lp34
S"(1, u'(?i)\\\\b(mice|mouse)\\\\b')"
p35
aS"(5, u'(?i)\\\\b(mices|mice)\\\\b')"
p36
aS"(4, u'(?i)\\\\b(rats|rat)\\\\b')"
p37
atp38
Rp39
sb.