(ifile_types
ParseObject
p0
(dp1
S'antagonists'
p2
c__builtin__
set
p3
((lp4
S"(129, u'\\\\brenzapride')"
p5
aS"(144, u'\\\\bgr ?113808')"
p6
atp7
Rp8
sS'methods'
p9
g3
((lp10
S'Method.ANTAGONIST'
p11
aS'Method.AGONIST'
p12
atp13
Rp14
sS'topics'
p15
g3
((lp16
tp17
Rp18
sS'receptors'
p19
g3
((lp20
S'5ht4'
p21
aS'5ht3'
p22
aS'5ht1'
p23
atp24
Rp25
sS'regions'
p26
g3
((lp27
S"(220, u'(?i)\\\\b(striatums|striatum)\\\\b')"
p28
atp29
Rp30
sS'year'
p31
V1996
p32
sS'agonists'
p33
g3
((lp34
S"(220, u'\\\\b5 ?methoxytryptamine')"
p35
aS"(203, u'\\\\brenzapride')"
p36
aS"(222, u'\\\\b5 ?meot')"
p37
atp38
Rp39
sS'species'
p40
g3
((lp41
S"(5958, u'(?i)\\\\b(rats|rat)\\\\b')"
p42
atp43
Rp44
sb.