(ifile_types
ParseObject
p0
(dp1
S'methods'
p2
c__builtin__
set
p3
((lp4
tp5
Rp6
sS'topics'
p7
g3
((lp8
S"(14, u'\\\\bcogniti')"
p9
aS"(26, u'\\\\bbehav')"
p10
aS"(11, u'\\\\bobsessive compulsive disorder')"
p11
aS"(2, u'\\\\bdisorder')"
p12
aS"(8, u'\\\\banxi')"
p13
aS"(10, u'\\\\bocd')"
p14
aS"(4, u'\\\\btreatment')"
p15
atp16
Rp17
sS'receptors'
p18
g3
((lp19
tp20
Rp21
sS'raw_text_methods'
p22
g3
((lp23
tp24
Rp25
sS'regions'
p26
g3
((lp27
tp28
Rp29
sS'year'
p30
V2016
p31
sS'species'
p32
g3
((lp33
tp34
Rp35
sb.