(ifile_types
ParseObject
p0
(dp1
S'antagonists'
p2
c__builtin__
set
p3
((lp4
S"(117, u'\\\\bketanserin')"
p5
aS"(58, u'\\\\bhaloperidol')"
p6
atp7
Rp8
sS'methods'
p9
g3
((lp10
S'Method.ANTAGONIST'
p11
aS'Method.AGONIST'
p12
atp13
Rp14
sS'topics'
p15
g3
((lp16
tp17
Rp18
sS'receptors'
p19
g3
((lp20
S'5ht2a'
p21
atp22
Rp23
sS'regions'
p24
g3
((lp25
S"(221, u'(?i)\\\\b(dorsals|dorsal)(-|\\\\s+)?(striatums|striatum)\\\\b')"
p26
aS"(220, u'(?i)\\\\b(striatums|striatum)\\\\b')"
p27
aS"(225, u'(?i)\\\\b(ventrals|ventral)(-|\\\\s+)?(striatums|striatum)\\\\b')"
p28
atp29
Rp30
sS'year'
p31
V2014
p32
sS'agonists'
p33
g3
((lp34
S"(175, u'\\\\bdoi')"
p35
aS"(125, u'\\\\btcb ?2')"
p36
aS"(158, u'\\\\blsd')"
p37
aS"(43, u'\\\\bhaloperidol')"
p38
atp39
Rp40
sS'species'
p41
g3
((lp42
S"(6753, u'(?i)\\\\b(da|das)\\\\b')"
p43
atp44
Rp45
sb.