(ifile_types
ParseObject
p0
(dp1
S'antagonists'
p2
c__builtin__
set
p3
((lp4
S"(31, u'\\\\bway ?100635')"
p5
atp6
Rp7
sS'methods'
p8
g3
((lp9
S'Method.ANTAGONIST'
p10
aS'Method.AGONIST'
p11
atp12
Rp13
sS'topics'
p14
g3
((lp15
S"(10, u'\\\\banxiety')"
p16
atp17
Rp18
sS'receptors'
p19
g3
((lp20
S'5ht1a'
p21
aS'5ht2c'
p22
aS'5ht2a'
p23
atp24
Rp25
sS'regions'
p26
g3
((lp27
S"(94, u'(?i)\\\\b(dorsals|dorsal)(-|\\\\s+)?(raphes|raphe)(-|\\\\s+)?(nuclei|nucleus)\\\\b')"
p28
aS"(91, u'(?i)\\\\b(periaqueductals|periaqueductal)(-|\\\\s+)?(grays|gray)\\\\b')"
p29
aS"(318, u'(?i)\\\\b(raphes|raphe)(-|\\\\s+)?(nuclei|nucleus)\\\\b')"
p30
atp31
Rp32
sS'year'
p33
V2011
p34
sS'agonists'
p35
g3
((lp36
S"(85, u'\\\\b8 ?oh ?dpat')"
p37
aS"(175, u'\\\\bdoi')"
p38
atp39
Rp40
sS'species'
p41
g3
((lp42
S"(5799, u'(?i)\\\\b(rodents|rodent)\\\\b')"
p43
aS"(163, u'(?i)\\\\b(mice|mouse)\\\\b')"
p44
aS"(6115, u'(?i)\\\\b(predators|predator)\\\\b')"
p45
aS"(5958, u'(?i)\\\\b(rats|rat)\\\\b')"
p46
aS"(5967, u'(?i)\\\\b(males|male)\\\\b')"
p47
aS"(4177, u'(?i)\\\\b(grays|gray)\\\\b')"
p48
atp49
Rp50
sb.