(ifile_types
ParseObject
p0
(dp1
S'antagonists'
p2
c__builtin__
set
p3
((lp4
S"(110, u'\\\\bclozapine')"
p5
aS"(108, u'\\\\bfluphenazine')"
p6
aS"(113, u'\\\\brisperidone')"
p7
aS"(58, u'\\\\bhaloperidol')"
p8
atp9
Rp10
sS'methods'
p11
g3
((lp12
S'Method.ANTAGONIST'
p13
atp14
Rp15
sS'topics'
p16
g3
((lp17
tp18
Rp19
sS'receptors'
p20
g3
((lp21
S'5ht3'
p22
aS'5ht2'
p23
aS'5ht1'
p24
atp25
Rp26
sS'regions'
p27
g3
((lp28
tp29
Rp30
sS'year'
p31
V2004
p32
sS'agonists'
p33
g3
((lp34
S"(23, u'\\\\bclozapine')"
p35
aS"(149, u'\\\\bmem')"
p36
aS"(43, u'\\\\bhaloperidol')"
p37
atp38
Rp39
sS'species'
p40
g3
((lp41
S"(1057, u'(?i)\\\\b(humans|human)\\\\b')"
p42
aS"(7003, u'(?i)\\\\b(murines|murine)\\\\b')"
p43
aS"(3196, u'(?i)\\\\b(human|humans)\\\\b')"
p44
atp45
Rp46
sb.