(ifile_types
ParseObject
p0
(dp1
S'antagonists'
p2
c__builtin__
set
p3
((lp4
tp5
Rp6
sS'methods'
p7
g3
((lp8
tp9
Rp10
sS'topics'
p11
g3
((lp12
tp13
Rp14
sS'receptors'
p15
g3
((lp16
S'5ht5'
p17
atp18
Rp19
sS'regions'
p20
g3
((lp21
S"(96, u'(?i)(ventrals|ventral)(-|\\\\s+)?(tegmentals|tegmental)(-|\\\\s+)?(areas|area)')"
p22
aS"(226, u'(?i)(nuclei|nucleus)(-|\\\\s+)?(accumben|accumbens)')"
p23
atp24
Rp25
sS'year'
p26
V1994
p27
sS'agonists'
p28
g3
((lp29
S"(155, u'\\\\bmem')"
p30
atp31
Rp32
sS'species'
p33
g3
((lp34
S"(2323, u'(?i)(bees|bee)')"
p35
aS"(2670, u'(?i)(arabs|arab)')"
p36
aS"(5176, u'(?i)(tegs|teg)')"
p37
aS"(5958, u'(?i)(rats|rat)')"
p38
aS"(931, u'(?i)(divers|diver)')"
p39
aS"(4979, u'(?i)(cats|cat)')"
p40
aS"(6753, u'(?i)(da|das)')"
p41
aS"(479, u'(?i)(lings|ling)')"
p42
aS"(4091, u'(?i)(adults|adult)')"
p43
aS"(1169, u'(?i)(grades|grade)')"
p44
aS"(468, u'(?i)(oxen|ox)')"
p45
aS"(1055, u'(?i)(men|man)')"
p46
aS"(6215, u'(?i)(racers|racer)')"
p47
aS"(853, u'(?i)(minas|mina)')"
p48
aS"(3550, u'(?i)(anis|ani)')"
p49
aS"(6682, u'(?i)(tera|teras)')"
p50
aS"(4371, u'(?i)(lizas|liza)')"
p51
aS"(3812, u'(?i)(studs|stud)')"
p52
aS"(5743, u'(?i)(bots|bot)')"
p53
aS"(6356, u'(?i)(ais|ai)')"
p54
aS"(2794, u'(?i)(horses|horse)')"
p55
atp56
Rp57
sb.