(ifile_types
ParseObject
p0
(dp1
S'antagonists'
p2
c__builtin__
set
p3
((lp4
S"(13, u'\\\\bmefway')"
p5
atp6
Rp7
sS'methods'
p8
g3
((lp9
S'Method.PET'
p10
atp11
Rp12
sS'topics'
p13
g3
((lp14
tp15
Rp16
sS'receptors'
p17
g3
((lp18
S'5ht5'
p19
aS'5ht1a'
p20
atp21
Rp22
sS'regions'
p23
g3
((lp24
tp25
Rp26
sS'year'
p27
V2015
p28
sS'agonists'
p29
g3
((lp30
tp31
Rp32
sS'species'
p33
g3
((lp34
S"(1070, u'(?i)(pets|pet)')"
p35
aS"(6215, u'(?i)(racers|racer)')"
p36
aS"(2568, u'(?i)(hens|hen)')"
p37
aS"(867, u'(?i)(tits|tit)')"
p38
aS"(468, u'(?i)(oxen|ox)')"
p39
aS"(1054, u'(?i)(homoes|homo)')"
p40
aS"(6356, u'(?i)(ais|ai)')"
p41
aS"(5958, u'(?i)(rats|rat)')"
p42
aS"(3812, u'(?i)(studs|stud)')"
p43
atp44
Rp45
sb.