(ifile_types
ParseObject
p0
(dp1
S'methods'
p2
c__builtin__
set
p3
((lp4
S'Method.ANTAGONIST'
p5
aS'Method.AGONIST'
p6
atp7
Rp8
sS'topics'
p9
g3
((lp10
tp11
Rp12
sS'receptors'
p13
g3
((lp14
(S'5ht2c'
p15
I977
I983
tp16
a(S'5ht2c'
p17
I1702
I1708
tp18
a(S'5ht2'
p19
I201
I206
tp20
a(S'5ht2a'
p21
I1146
I1152
tp22
a(S'5ht2c'
p23
I1038
I1044
tp24
a(S'5ht2'
p25
I887
I892
tp26
a(S'5ht2'
p27
I1333
I1338
tp28
a(S'5ht2b'
p29
I1157
I1163
tp30
a(S'5ht2'
p31
I36
I41
tp32
atp33
Rp34
sS'raw_text_methods'
p35
g3
((lp36
S"(13, u'\\\\bagonist')"
p37
aS"(49, u'\\\\bdoi')"
p38
aS"(12, u'\\\\bantagonist')"
p39
atp40
Rp41
sS'regions'
p42
g3
((lp43
tp44
Rp45
sS'year'
p46
V2009
p47
sS'species'
p48
g3
((lp49
S"(2, u'(?i)\\\\b(females|female)\\\\b')"
p50
aS"(3, u'(?i)\\\\b(males|male)\\\\b')"
p51
atp52
Rp53
sb.