(ifile_types
ParseObject
p0
(dp1
S'antagonists'
p2
c__builtin__
set
p3
((lp4
tp5
Rp6
sS'methods'
p7
g3
((lp8
S'Method.STIMULATION'
p9
aS'Method.AGONIST'
p10
atp11
Rp12
sS'topics'
p13
g3
((lp14
S"(11, u'\\\\banxiolyt')"
p15
atp16
Rp17
sS'receptors'
p18
g3
((lp19
S'5ht1a'
p20
atp21
Rp22
sS'regions'
p23
g3
((lp24
S"(34, u'(?i)(pon|pons)')"
p25
atp26
Rp27
sS'year'
p28
V1987
p29
sS'agonists'
p30
g3
((lp31
S"(47, u'\\\\bgepirone')"
p32
aS"(56, u'\\\\blsd')"
p33
aS"(55, u'\\\\blysergic acid diethylamide')"
p34
aS"(92, u'\\\\b8 ?oh ?dpat')"
p35
atp36
Rp37
sS'species'
p38
g3
((lp39
S"(5537, u'(?i)(hippos|hippo)')"
p40
aS"(6753, u'(?i)(da|das)')"
p41
aS"(2568, u'(?i)(hens|hen)')"
p42
aS"(6356, u'(?i)(ais|ai)')"
p43
aS"(4979, u'(?i)(cats|cat)')"
p44
aS"(468, u'(?i)(oxen|ox)')"
p45
aS"(1055, u'(?i)(men|man)')"
p46
aS"(6249, u'(?i)(ants|ant)')"
p47
aS"(1349, u'(?i)(rams|ram)')"
p48
aS"(853, u'(?i)(minas|mina)')"
p49
aS"(5958, u'(?i)(rats|rat)')"
p50
aS"(3522, u'(?i)(tetras|tetra)')"
p51
aS"(3592, u'(?i)(ravens|raven)')"
p52
aS"(3812, u'(?i)(studs|stud)')"
p53
atp54
Rp55
sb.