(ifile_types
ParseObject
p0
(dp1
S'antagonists'
p2
c__builtin__
set
p3
((lp4
S"(31, u'\\\\bway ?100635')"
p5
atp6
Rp7
sS'methods'
p8
g3
((lp9
S'Method.ANTAGONIST'
p10
atp11
Rp12
sS'topics'
p13
g3
((lp14
S"(26, u'\\\\bcardiovascular')"
p15
aS"(12, u'\\\\banxiogen')"
p16
aS"(35, u'\\\\bstress')"
p17
aS"(11, u'\\\\banxiolyt')"
p18
aS"(10, u'\\\\banxiety')"
p19
atp20
Rp21
sS'receptors'
p22
g3
((lp23
S'5ht1a'
p24
atp25
Rp26
sS'regions'
p27
g3
((lp28
tp29
Rp30
sS'year'
p31
V2009
p32
sS'agonists'
p33
g3
((lp34
S"(21, u'\\\\bcannabidiol')"
p35
atp36
Rp37
sS'species'
p38
g3
((lp39
S"(5799, u'(?i)\\\\b(rodents|rodent)\\\\b')"
p40
aS"(5967, u'(?i)\\\\b(males|male)\\\\b')"
p41
aS"(5958, u'(?i)\\\\b(rats|rat)\\\\b')"
p42
atp43
Rp44
sb.