(ifile_types
ParseObject
p0
(dp1
S'antagonists'
p2
c__builtin__
set
p3
((lp4
tp5
Rp6
sS'methods'
p7
g3
((lp8
tp9
Rp10
sS'topics'
p11
g3
((lp12
tp13
Rp14
sS'receptors'
p15
g3
((lp16
S'5ht7'
p17
atp18
Rp19
sS'regions'
p20
g3
((lp21
S"(203, u'(?i)(dentates|dentate)(-|\\\\s+)?(gyruses|gyrus)')"
p22
aS"(220, u'(?i)(striatums|striatum)')"
p23
aS"(294, u'(?i)(retrosplenials|retrosplenial)(-|\\\\s+)?(cortexes|cortex)')"
p24
atp25
Rp26
sS'year'
p27
V1997
p28
sS'agonists'
p29
g3
((lp30
tp31
Rp32
sS'species'
p33
g3
((lp34
S"(5958, u'(?i)(rats|rat)')"
p35
aS"(867, u'(?i)(tits|tit)')"
p36
aS"(1055, u'(?i)(men|man)')"
p37
aS"(6753, u'(?i)(da|das)')"
p38
aS"(479, u'(?i)(lings|ling)')"
p39
aS"(4091, u'(?i)(adults|adult)')"
p40
aS"(4177, u'(?i)(grays|gray)')"
p41
aS"(3152, u'(?i)(layers|layer)')"
p42
aS"(1349, u'(?i)(rams|ram)')"
p43
aS"(2665, u'(?i)(rays|ray)')"
p44
aS"(6356, u'(?i)(ais|ai)')"
p45
aS"(6249, u'(?i)(ants|ant)')"
p46
aS"(6682, u'(?i)(tera|teras)')"
p47
aS"(3812, u'(?i)(studs|stud)')"
p48
aS"(107, u'(?i)(stags|stag)')"
p49
atp50
Rp51
sb.