(ifile_types
ParseObject
p0
(dp1
S'antagonists'
p2
c__builtin__
set
p3
((lp4
tp5
Rp6
sS'methods'
p7
g3
((lp8
tp9
Rp10
sS'topics'
p11
g3
((lp12
S"(29, u'\\\\bsex')"
p13
aS"(9, u'\\\\bdepress')"
p14
atp15
Rp16
sS'receptors'
p17
g3
((lp18
S'5ht1a'
p19
aS'5ht2'
p20
atp21
Rp22
sS'regions'
p23
g3
((lp24
S"(362, u'(?i)(brains|brain)(-|\\\\s+)?(stems|stem)')"
p25
aS"(248, u'(?i)(cerebrals|cerebral)(-|\\\\s+)?(cortexes|cortex)')"
p26
aS"(34, u'(?i)(pon|pons)')"
p27
atp28
Rp29
sS'year'
p30
V2002
p31
sS'agonists'
p32
g3
((lp33
tp34
Rp35
sS'species'
p36
g3
((lp37
S"(5537, u'(?i)(hippos|hippo)')"
p38
aS"(1688, u'(?i)(ounces|ounce)')"
p39
aS"(5958, u'(?i)(rats|rat)')"
p40
aS"(6125, u'(?i)(females|female)')"
p41
aS"(6753, u'(?i)(da|das)')"
p42
aS"(479, u'(?i)(lings|ling)')"
p43
aS"(2725, u'(?i)(mokes|moke)')"
p44
aS"(5967, u'(?i)(males|male)')"
p45
aS"(6682, u'(?i)(tera|teras)')"
p46
aS"(1055, u'(?i)(men|man)')"
p47
aS"(107, u'(?i)(stags|stag)')"
p48
aS"(4979, u'(?i)(cats|cat)')"
p49
aS"(6249, u'(?i)(ants|ant)')"
p50
aS"(3812, u'(?i)(studs|stud)')"
p51
aS"(6356, u'(?i)(ais|ai)')"
p52
atp53
Rp54
sb.