(ifile_types
ParseObject
p0
(dp1
S'antagonists'
p2
c__builtin__
set
p3
((lp4
tp5
Rp6
sS'methods'
p7
g3
((lp8
tp9
Rp10
sS'topics'
p11
g3
((lp12
S"(29, u'\\\\bsex')"
p13
aS"(6, u'\\\\bcognit')"
p14
atp15
Rp16
sS'receptors'
p17
g3
((lp18
S'5ht1b'
p19
aS'5ht1a'
p20
aS'5ht2c'
p21
aS'5ht2'
p22
aS'5ht2a'
p23
atp24
Rp25
sS'regions'
p26
g3
((lp27
S"(220, u'(?i)\\\\b(striatums|striatum)\\\\b')"
p28
atp29
Rp30
sS'year'
p31
V2018
p32
sS'agonists'
p33
g3
((lp34
tp35
Rp36
sS'species'
p37
g3
((lp38
S"(5967, u'(?i)\\\\b(males|male)\\\\b')"
p39
aS"(2054, u'(?i)\\\\b(heads|head)\\\\b')"
p40
aS"(163, u'(?i)\\\\b(mice|mouse)\\\\b')"
p41
aS"(6125, u'(?i)\\\\b(females|female)\\\\b')"
p42
atp43
Rp44
sb.