(ifile_types
ParseObject
p0
(dp1
S'antagonists'
p2
c__builtin__
set
p3
((lp4
tp5
Rp6
sS'methods'
p7
g3
((lp8
tp9
Rp10
sS'topics'
p11
g3
((lp12
tp13
Rp14
sS'receptors'
p15
g3
((lp16
S'5ht7'
p17
aS'5ht5'
p18
aS'5ht4'
p19
aS'5ht7b'
p20
aS'5ht1a'
p21
aS'5ht4a'
p22
aS'5ht4b'
p23
atp24
Rp25
sS'regions'
p26
g3
((lp27
S"(277, u'(?i)(temporals|temporal)(-|\\\\s+)?(lobes|lobe)')"
p28
atp29
Rp30
sS'year'
p31
V2007
p32
sS'agonists'
p33
g3
((lp34
tp35
Rp36
sS'species'
p37
g3
((lp38
S"(5958, u'(?i)(rats|rat)')"
p39
aS"(7609, u'(?i)(erns|ern)')"
p40
aS"(6753, u'(?i)(da|das)')"
p41
aS"(4163, u'(?i)(ermines|ermine)')"
p42
aS"(1055, u'(?i)(men|man)')"
p43
aS"(3726, u'(?i)(mates|mate)')"
p44
aS"(3152, u'(?i)(layers|layer)')"
p45
aS"(6356, u'(?i)(ais|ai)')"
p46
aS"(6249, u'(?i)(ants|ant)')"
p47
aS"(3812, u'(?i)(studs|stud)')"
p48
atp49
Rp50
sb.