(ifile_types
ParseObject
p0
(dp1
S'methods'
p2
c__builtin__
set
p3
((lp4
S'Method.ANTAGONIST'
p5
aS'Method.AGONIST'
p6
atp7
Rp8
sS'topics'
p9
g3
((lp10
S"(5, u'\\\\btherap')"
p11
aS"(26, u'\\\\bbehav')"
p12
aS"(33, u'\\\\blocomot')"
p13
aS"(4, u'\\\\btreatment')"
p14
aS"(2, u'\\\\bdisorder')"
p15
atp16
Rp17
sS'receptors'
p18
g3
((lp19
(S'5ht2c'
p20
I578
I584
tp21
a(S'5ht2c'
p22
I1698
I1704
tp23
a(S'5ht2c'
p24
I61
I67
tp25
a(S'5ht2c'
p26
I1863
I1869
tp27
a(S'5ht2c'
p28
I365
I371
tp29
a(S'5ht2c'
p30
I878
I884
tp31
a(S'5ht2c'
p32
I1942
I1948
tp33
atp34
Rp35
sS'raw_text_methods'
p36
g3
((lp37
S"(13, u'\\\\bagonist')"
p38
aS"(12, u'\\\\bantagonist')"
p39
atp40
Rp41
sS'regions'
p42
g3
((lp43
tp44
Rp45
sS'year'
p46
V2017
p47
sS'species'
p48
g3
((lp49
S"(1, u'(?i)\\\\b(mice|mouse)\\\\b')"
p50
aS"(5, u'(?i)\\\\b(mices|mice)\\\\b')"
p51
atp52
Rp53
sb.