(ifile_types
ParseObject
p0
(dp1
S'antagonists'
p2
c__builtin__
set
p3
((lp4
S"(84, u'\\\\bsb ?206553')"
p5
atp6
Rp7
sS'methods'
p8
g3
((lp9
S'Method.AGONIST'
p10
atp11
Rp12
sS'topics'
p13
g3
((lp14
tp15
Rp16
sS'receptors'
p17
g3
((lp18
S'5ht2c'
p19
aS'5ht1'
p20
atp21
Rp22
sS'regions'
p23
g3
((lp24
tp25
Rp26
sS'year'
p27
V2000
p28
sS'agonists'
p29
g3
((lp30
S"(192, u'\\\\bquipazine')"
p31
aS"(175, u'\\\\bdoi')"
p32
atp33
Rp34
sS'species'
p35
g3
((lp36
S"(2395, u'(?i)\\\\b(mutants|mutant)\\\\b')"
p37
atp38
Rp39
sb.