(ifile_types
ParseObject
p0
(dp1
S'methods'
p2
c__builtin__
set
p3
((lp4
S'Method.AGONIST'
p5
atp6
Rp7
sS'topics'
p8
g3
((lp9
S"(13, u'\\\\bantidepress')"
p10
aS"(4, u'\\\\btreatment')"
p11
atp12
Rp13
sS'receptors'
p14
g3
((lp15
(S'5ht3'
p16
I621
I626
tp17
a(S'5ht3'
p18
I2497
I2502
tp19
atp20
Rp21
sS'raw_text_methods'
p22
g3
((lp23
S"(13, u'\\\\bagonist')"
p24
aS"(30, u'\\\\b2methyl')"
p25
atp26
Rp27
sS'regions'
p28
g3
((lp29
S"(19, u'(?i)\\\\b(cortexes|cortex)\\\\b')"
p30
atp31
Rp32
sS'year'
p33
V1994
p34
sS'species'
p35
g3
((lp36
S"(7, u'(?i)\\\\b(guineas|guinea)(-|\\\\s+)?(pigs|pig)\\\\b')"
p37
atp38
Rp39
sb.