(ifile_types
ParseObject
p0
(dp1
S'methods'
p2
c__builtin__
set
p3
((lp4
S'Method.ANTAGONIST'
p5
atp6
Rp7
sS'topics'
p8
g3
((lp9
S"(2, u'\\\\bdisorder')"
p10
atp11
Rp12
sS'receptors'
p13
g3
((lp14
(S'5ht3'
p15
I489
I494
tp16
a(S'5ht3'
p17
I1586
I1591
tp18
a(S'5ht3'
p19
I1296
I1301
tp20
a(S'5ht3'
p21
I1992
I1997
tp22
a(S'5ht3'
p23
I1760
I1765
tp24
a(S'5ht3'
p25
I1888
I1893
tp26
a(S'5ht3'
p27
I1155
I1160
tp28
a(S'5ht3'
p29
I1011
I1016
tp30
a(S'5ht3'
p31
I583
I588
tp32
a(S'5ht3'
p33
I872
I877
tp34
atp35
Rp36
sS'raw_text_methods'
p37
g3
((lp38
S"(12, u'\\\\bantagonist')"
p39
atp40
Rp41
sS'regions'
p42
g3
((lp43
tp44
Rp45
sS'year'
p46
V1998
p47
sS'species'
p48
g3
((lp49
tp50
Rp51
sb.