(ifile_types
ParseObject
p0
(dp1
S'antagonists'
p2
c__builtin__
set
p3
((lp4
tp5
Rp6
sS'methods'
p7
g3
((lp8
S'Method.PET'
p9
aS'Method.ANTAGONIST'
p10
aS'Method.AGONIST'
p11
atp12
Rp13
sS'topics'
p14
g3
((lp15
S"(6, u'\\\\bcognit')"
p16
aS"(7, u'\\\\bmemory')"
p17
atp18
Rp19
sS'receptors'
p20
g3
((lp21
S'5ht1a'
p22
atp23
Rp24
sS'regions'
p25
g3
((lp26
S"(34, u'(?i)(pon|pons)')"
p27
atp28
Rp29
sS'year'
p30
V2003
p31
sS'agonists'
p32
g3
((lp33
S"(80, u'\\\\btandospirone')"
p34
aS"(155, u'\\\\bmem')"
p35
atp36
Rp37
sS'species'
p38
g3
((lp39
S"(1070, u'(?i)(pets|pet)')"
p40
aS"(5537, u'(?i)(hippos|hippo)')"
p41
aS"(2568, u'(?i)(hens|hen)')"
p42
aS"(6391, u'(?i)(asses|ass)')"
p43
aS"(6682, u'(?i)(tera|teras)')"
p44
aS"(4163, u'(?i)(ermines|ermine)')"
p45
aS"(1055, u'(?i)(men|man)')"
p46
aS"(6249, u'(?i)(ants|ant)')"
p47
aS"(4979, u'(?i)(cats|cat)')"
p48
aS"(5958, u'(?i)(rats|rat)')"
p49
aS"(1057, u'(?i)(humans|human)')"
p50
aS"(1961, u'(?i)(pens|pen)')"
p51
aS"(3812, u'(?i)(studs|stud)')"
p52
aS"(3196, u'(?i)(human|humans)')"
p53
aS"(2809, u'(?i)(toms|tom)')"
p54
aS"(6356, u'(?i)(ais|ai)')"
p55
atp56
Rp57
sb.