(ifile_types
ParseObject
p0
(dp1
S'antagonists'
p2
c__builtin__
set
p3
((lp4
S"(53, u'\\\\bketanserin')"
p5
aS"(128, u'\\\\bketanserin')"
p6
aS"(95, u'\\\\bsb ?206553')"
p7
atp8
Rp9
sS'methods'
p10
g3
((lp11
S'Method.ANTAGONIST'
p12
atp13
Rp14
sS'topics'
p15
g3
((lp16
tp17
Rp18
sS'receptors'
p19
g3
((lp20
S'5ht2b'
p21
aS'5ht2c'
p22
aS'5ht2a'
p23
atp24
Rp25
sS'regions'
p26
g3
((lp27
S"(254, u'(?i)(prefrontals|prefrontal)(-|\\\\s+)?(cortexes|cortex)')"
p28
aS"(255, u'(?i)(pres|pre)(-|\\\\s+)?(frontals|frontal)(-|\\\\s+)?(cortexes|cortex)')"
p29
aS"(34, u'(?i)(pon|pons)')"
p30
atp31
Rp32
sS'year'
p33
V2013
p34
sS'agonists'
p35
g3
((lp36
S"(56, u'\\\\blsd')"
p37
aS"(55, u'\\\\blysergic acid diethylamide')"
p38
aS"(33, u'\\\\bdoi')"
p39
atp40
Rp41
sS'species'
p42
g3
((lp43
S"(2054, u'(?i)(heads|head)')"
p44
aS"(2568, u'(?i)(hens|hen)')"
p45
aS"(5958, u'(?i)(rats|rat)')"
p46
aS"(5743, u'(?i)(bots|bot)')"
p47
aS"(479, u'(?i)(lings|ling)')"
p48
aS"(473, u'(?i)(rabbits|rabbit)')"
p49
aS"(468, u'(?i)(oxen|ox)')"
p50
aS"(1055, u'(?i)(men|man)')"
p51
aS"(6249, u'(?i)(ants|ant)')"
p52
aS"(4964, u'(?i)(serins|serin)')"
p53
aS"(3550, u'(?i)(anis|ani)')"
p54
aS"(204, u'(?i)(moas|moa)')"
p55
aS"(1961, u'(?i)(pens|pen)')"
p56
aS"(3812, u'(?i)(studs|stud)')"
p57
aS"(6391, u'(?i)(asses|ass)')"
p58
aS"(5783, u'(?i)(hinds|hind)')"
p59
aS"(6356, u'(?i)(ais|ai)')"
p60
aS"(3426, u'(?i)(hares|hare)')"
p61
atp62
Rp63
sb.