(ifile_types
ParseObject
p0
(dp1
S'antagonists'
p2
c__builtin__
set
p3
((lp4
tp5
Rp6
sS'methods'
p7
g3
((lp8
tp9
Rp10
sS'topics'
p11
g3
((lp12
tp13
Rp14
sS'receptors'
p15
g3
((lp16
S'5ht2a'
p17
aS'5ht2c'
p18
aS'5ht2'
p19
atp20
Rp21
sS'regions'
p22
g3
((lp23
S"(227, u'(?i)\\\\b(olfactories|olfactory)(-|\\\\s+)?(tubercles|tubercle)\\\\b')"
p24
aS"(220, u'(?i)\\\\b(striatums|striatum)\\\\b')"
p25
atp26
Rp27
sS'year'
p28
V1996
p29
sS'agonists'
p30
g3
((lp31
S"(176, u'\\\\bdom')"
p32
atp33
Rp34
sS'species'
p35
g3
((lp36
S"(1057, u'(?i)\\\\b(humans|human)\\\\b')"
p37
aS"(163, u'(?i)\\\\b(mice|mouse)\\\\b')"
p38
aS"(5958, u'(?i)\\\\b(rats|rat)\\\\b')"
p39
aS"(3196, u'(?i)\\\\b(human|humans)\\\\b')"
p40
atp41
Rp42
sb.