(ifile_types
ParseObject
p0
(dp1
S'methods'
p2
c__builtin__
set
p3
((lp4
tp5
Rp6
sS'topics'
p7
g3
((lp8
S"(2, u'\\\\bdisorder')"
p9
aS"(5, u'\\\\btherap')"
p10
aS"(8, u'\\\\banxi')"
p11
aS"(1, u'\\\\bpatient')"
p12
aS"(10, u'\\\\bocd')"
p13
aS"(4, u'\\\\btreatment')"
p14
aS"(3, u'\\\\bclinical')"
p15
atp16
Rp17
sS'receptors'
p18
g3
((lp19
(S'5ht1a'
p20
I715
I721
tp21
a(S'5ht1a'
p22
I852
I858
tp23
atp24
Rp25
sS'raw_text_methods'
p26
g3
((lp27
S"(38, u'\\\\bssri')"
p28
aS"(39, u'\\\\bselective serotonin reuptake inhibitor')"
p29
atp30
Rp31
sS'regions'
p32
g3
((lp33
S"(19, u'(?i)\\\\b(cortexes|cortex)\\\\b')"
p34
atp35
Rp36
sS'year'
p37
V2007
p38
sS'species'
p39
g3
((lp40
tp41
Rp42
sb.