(ifile_types
ParseObject
p0
(dp1
S'antagonists'
p2
c__builtin__
set
p3
((lp4
S"(102, u'\\\\bfluoxetine')"
p5
atp6
Rp7
sS'methods'
p8
g3
((lp9
S'Method.AGONIST'
p10
atp11
Rp12
sS'topics'
p13
g3
((lp14
tp15
Rp16
sS'receptors'
p17
g3
((lp18
S'5ht5'
p19
aS'5ht1a'
p20
atp21
Rp22
sS'regions'
p23
g3
((lp24
S"(362, u'(?i)(brains|brain)(-|\\\\s+)?(stems|stem)')"
p25
atp26
Rp27
sS'year'
p28
V1999
p29
sS'agonists'
p30
g3
((lp31
S"(45, u'\\\\bflibanserin')"
p32
aS"(92, u'\\\\b8 ?oh ?dpat')"
p33
aS"(24, u'\\\\bbuspirone')"
p34
atp35
Rp36
sS'species'
p37
g3
((lp38
S"(5537, u'(?i)(hippos|hippo)')"
p39
aS"(4301, u'(?i)(hydras|hydra)')"
p40
aS"(5958, u'(?i)(rats|rat)')"
p41
aS"(5743, u'(?i)(bots|bot)')"
p42
aS"(5967, u'(?i)(males|male)')"
p43
aS"(468, u'(?i)(oxen|ox)')"
p44
aS"(1055, u'(?i)(men|man)')"
p45
aS"(1349, u'(?i)(rams|ram)')"
p46
aS"(4964, u'(?i)(serins|serin)')"
p47
aS"(3522, u'(?i)(tetras|tetra)')"
p48
aS"(6356, u'(?i)(ais|ai)')"
p49
aS"(6391, u'(?i)(asses|ass)')"
p50
aS"(5497, u'(?i)(fices|fice)')"
p51
atp52
Rp53
sb.