(ifile_types
ParseObject
p0
(dp1
S'antagonists'
p2
c__builtin__
set
p3
((lp4
S"(102, u'\\\\bfluoxetine')"
p5
atp6
Rp7
sS'methods'
p8
g3
((lp9
tp10
Rp11
sS'topics'
p12
g3
((lp13
S"(22, u'\\\\bsuicide')"
p14
aS"(9, u'\\\\bdepress')"
p15
aS"(10, u'\\\\banxiety')"
p16
atp17
Rp18
sS'receptors'
p19
g3
((lp20
S'5ht1a'
p21
atp22
Rp23
sS'regions'
p24
g3
((lp25
S"(34, u'(?i)(pon|pons)')"
p26
atp27
Rp28
sS'year'
p29
V2017
p30
sS'agonists'
p31
g3
((lp32
tp33
Rp34
sS'species'
p35
g3
((lp36
S"(2323, u'(?i)(bees|bee)')"
p37
aS"(5176, u'(?i)(tegs|teg)')"
p38
aS"(5958, u'(?i)(rats|rat)')"
p39
aS"(702, u'(?i)(genets|genet)')"
p40
aS"(163, u'(?i)(mice|mouse)')"
p41
aS"(4091, u'(?i)(adults|adult)')"
p42
aS"(468, u'(?i)(oxen|ox)')"
p43
aS"(1055, u'(?i)(men|man)')"
p44
aS"(4979, u'(?i)(cats|cat)')"
p45
aS"(6249, u'(?i)(ants|ant)')"
p46
aS"(1057, u'(?i)(humans|human)')"
p47
aS"(3812, u'(?i)(studs|stud)')"
p48
aS"(3196, u'(?i)(human|humans)')"
p49
aS"(5743, u'(?i)(bots|bot)')"
p50
aS"(6356, u'(?i)(ais|ai)')"
p51
atp52
Rp53
sb.