(ifile_types
ParseObject
p0
(dp1
S'antagonists'
p2
c__builtin__
set
p3
((lp4
S"(134, u'\\\\bgranisetron')"
p5
atp6
Rp7
sS'methods'
p8
g3
((lp9
S'Method.ANTAGONIST'
p10
atp11
Rp12
sS'topics'
p13
g3
((lp14
tp15
Rp16
sS'receptors'
p17
g3
((lp18
S'5ht3a'
p19
atp20
Rp21
sS'regions'
p22
g3
((lp23
S"(34, u'(?i)(pon|pons)')"
p24
atp25
Rp26
sS'year'
p27
V2008
p28
sS'agonists'
p29
g3
((lp30
S"(33, u'\\\\bdoi')"
p31
atp32
Rp33
sS'species'
p34
g3
((lp35
S"(2568, u'(?i)(hens|hen)')"
p36
aS"(7609, u'(?i)(erns|ern)')"
p37
aS"(5958, u'(?i)(rats|rat)')"
p38
aS"(6682, u'(?i)(tera|teras)')"
p39
aS"(1725, u'(?i)(clams|clam)')"
p40
aS"(468, u'(?i)(oxen|ox)')"
p41
aS"(1055, u'(?i)(men|man)')"
p42
aS"(6249, u'(?i)(ants|ant)')"
p43
aS"(3592, u'(?i)(ravens|raven)')"
p44
aS"(4979, u'(?i)(cats|cat)')"
p45
aS"(3550, u'(?i)(anis|ani)')"
p46
aS"(1961, u'(?i)(pens|pen)')"
p47
aS"(6356, u'(?i)(ais|ai)')"
p48
aS"(2809, u'(?i)(toms|tom)')"
p49
aS"(1683, u'(?i)(terns|tern)')"
p50
atp51
Rp52
sb.