(ifile_types
ParseObject
p0
(dp1
S'methods'
p2
c__builtin__
set
p3
((lp4
S'Method.ANTAGONIST'
p5
atp6
Rp7
sS'topics'
p8
g3
((lp9
tp10
Rp11
sS'receptors'
p12
g3
((lp13
(S'5ht3'
p14
I222
I227
tp15
a(S'5ht3'
p16
I986
I991
tp17
a(S'5ht2'
p18
I361
I371
tp19
a(S'5ht3'
p20
I1089
I1094
tp21
atp22
Rp23
sS'raw_text_methods'
p24
g3
((lp25
S"(30, u'\\\\b2methyl')"
p26
aS"(28, u'\\\\bzacopride')"
p27
aS"(12, u'\\\\bantagonist')"
p28
atp29
Rp30
sS'regions'
p31
g3
((lp32
tp33
Rp34
sS'year'
p35
V1992
p36
sS'species'
p37
g3
((lp38
S"(4, u'(?i)\\\\b(rats|rat)\\\\b')"
p39
atp40
Rp41
sb.