(ifile_types
ParseObject
p0
(dp1
S'methods'
p2
c__builtin__
set
p3
((lp4
S'Method.IMMUNOHISTOCHEMISTRY'
p5
atp6
Rp7
sS'topics'
p8
g3
((lp9
S"(26, u'\\\\bbehav')"
p10
atp11
Rp12
sS'receptors'
p13
g3
((lp14
(S'5ht5'
p15
I476
I486
tp16
a(S'5ht1a'
p17
I1192
I1198
tp18
a(S'5ht1a'
p19
I1247
I1253
tp20
a(S'5ht1a'
p21
I536
I542
tp22
atp23
Rp24
sS'raw_text_methods'
p25
g3
((lp26
S"(3, u'\\\\bimmunoreactiv')"
p27
aS"(17, u'\\\\bpet')"
p28
atp29
Rp30
sS'regions'
p31
g3
((lp32
S"(23, u'(?i)\\\\b(forebrains|forebrain)\\\\b')"
p33
atp34
Rp35
sS'year'
p36
V2015
p37
sS'species'
p38
g3
((lp39
S"(2, u'(?i)\\\\b(females|female)\\\\b')"
p40
aS"(3, u'(?i)\\\\b(males|male)\\\\b')"
p41
atp42
Rp43
sb.