(ifile_types
ParseObject
p0
(dp1
S'antagonists'
p2
c__builtin__
set
p3
((lp4
tp5
Rp6
sS'methods'
p7
g3
((lp8
S'Method.ANTAGONIST'
p9
aS'Method.AGONIST'
p10
atp11
Rp12
sS'topics'
p13
g3
((lp14
S"(15, u'\\\\bschizophreni')"
p15
aS"(6, u'\\\\bcognit')"
p16
aS"(14, u'\\\\bpsychosis')"
p17
aS"(7, u'\\\\bmemory')"
p18
aS"(1, u'\\\\bmood')"
p19
atp20
Rp21
sS'receptors'
p22
g3
((lp23
S'5ht1a'
p24
aS'5ht2c'
p25
aS'5ht2a'
p26
atp27
Rp28
sS'regions'
p29
g3
((lp30
S"(287, u'(?i)\\\\b(parahippocampals|parahippocampal)(-|\\\\s+)?(gyruses|gyrus)\\\\b')"
p31
aS"(254, u'(?i)\\\\b(prefrontals|prefrontal)(-|\\\\s+)?(cortexes|cortex)\\\\b')"
p32
aS"(255, u'(?i)\\\\b(pres|pre)(-|\\\\s+)?(frontals|frontal)(-|\\\\s+)?(cortexes|cortex)\\\\b')"
p33
atp34
Rp35
sS'year'
p36
V2008
p37
sS'agonists'
p38
g3
((lp39
S"(149, u'\\\\bmem')"
p40
atp41
Rp42
sS'species'
p43
g3
((lp44
S"(163, u'(?i)\\\\b(mice|mouse)\\\\b')"
p45
atp46
Rp47
sb.