(ifile_types
ParseObject
p0
(dp1
S'methods'
p2
c__builtin__
set
p3
((lp4
S'Method.ANTAGONIST'
p5
atp6
Rp7
sS'topics'
p8
g3
((lp9
S"(26, u'\\\\bbehav')"
p10
atp11
Rp12
sS'receptors'
p13
g3
((lp14
(S'5ht1d'
p15
I644
I650
tp16
a(S'5ht1d'
p17
I681
I687
tp18
a(S'5ht1d'
p19
I313
I319
tp20
a(S'5ht1d'
p21
I1389
I1395
tp22
a(S'5ht2'
p23
I733
I739
tp24
a(S'5ht1d'
p25
I330
I336
tp26
a(S'5ht2a'
p27
I442
I448
tp28
a(S'5ht1'
p29
I115
I120
tp30
a(S'5ht1d'
p31
I1507
I1513
tp32
a(S'5ht1d'
p33
I1083
I1089
tp34
a(S'5ht1'
p35
I98
I103
tp36
a(S'5ht1d'
p37
I1067
I1073
tp38
a(S'5ht1d'
p39
I854
I860
tp40
a(S'5ht1'
p41
I733
I738
tp42
a(S'5ht1d'
p43
I1490
I1496
tp44
atp45
Rp46
sS'raw_text_methods'
p47
g3
((lp48
S"(53, u'\\\\bketanserin')"
p49
aS"(9, u'\\\\britanserin')"
p50
aS"(12, u'\\\\bantagonist')"
p51
atp52
Rp53
sS'regions'
p54
g3
((lp55
tp56
Rp57
sS'year'
p58
V1995
p59
sS'species'
p60
g3
((lp61
tp62
Rp63
sb.