(ifile_types
ParseObject
p0
(dp1
S'antagonists'
p2
c__builtin__
set
p3
((lp4
S"(174, u'\\\\bsb ?258585')"
p5
atp6
Rp7
sS'methods'
p8
g3
((lp9
tp10
Rp11
sS'topics'
p12
g3
((lp13
S"(11, u'\\\\banxiolyt')"
p14
aS"(10, u'\\\\banxiety')"
p15
aS"(30, u'\\\\bparkinsons')"
p16
atp17
Rp18
sS'receptors'
p19
g3
((lp20
S'5ht6'
p21
atp22
Rp23
sS'regions'
p24
g3
((lp25
S"(310, u'(?i)\\\\b(medials|medial)(-|\\\\s+)?(forebrains|forebrain)(-|\\\\s+)?(bundles|bundle)\\\\b')"
p26
aS"(215, u'(?i)\\\\b(basolaterals|basolateral)(-|\\\\s+)?(amygdalas|amygdala)\\\\b')"
p27
aS"(254, u'(?i)\\\\b(prefrontals|prefrontal)(-|\\\\s+)?(cortexes|cortex)\\\\b')"
p28
aS"(209, u'(?i)\\\\b(amygdalas|amygdala)\\\\b')"
p29
aS"(255, u'(?i)\\\\b(pres|pre)(-|\\\\s+)?(frontals|frontal)(-|\\\\s+)?(cortexes|cortex)\\\\b')"
p30
atp31
Rp32
sS'year'
p33
V2018
p34
sS'agonists'
p35
g3
((lp36
S"(214, u'\\\\bway ?208466')"
p37
atp38
Rp39
sS'species'
p40
g3
((lp41
S"(6753, u'(?i)\\\\b(da|das)\\\\b')"
p42
aS"(5958, u'(?i)\\\\b(rats|rat)\\\\b')"
p43
atp44
Rp45
sb.