(ifile_types
ParseObject
p0
(dp1
S'methods'
p2
c__builtin__
set
p3
((lp4
S'Method.IMMUNOHISTOCHEMISTRY'
p5
atp6
Rp7
sS'topics'
p8
g3
((lp9
tp10
Rp11
sS'receptors'
p12
g3
((lp13
(S'5ht1a'
p14
I785
I791
tp15
a(S'5ht1a'
p16
I1107
I1113
tp17
a(S'5ht1a'
p18
I394
I400
tp19
a(S'5ht1a'
p20
I196
I202
tp21
a(S'5ht1a'
p22
I1302
I1308
tp23
a(S'5ht1a'
p24
I43
I49
tp25
a(S'5ht1a'
p26
I724
I730
tp27
a(S'5ht1a'
p28
I1017
I1023
tp29
atp30
Rp31
sS'raw_text_methods'
p32
g3
((lp33
S"(54, u'\\\\bautoradiography')"
p34
atp35
Rp36
sS'regions'
p37
g3
((lp38
S"(9, u'(?i)\\\\b(cerebellums|cerebellum)\\\\b')"
p39
atp40
Rp41
sS'year'
p42
V1991
p43
sS'species'
p44
g3
((lp45
S"(4, u'(?i)\\\\b(rats|rat)\\\\b')"
p46
atp47
Rp48
sb.