(ifile_types
ParseObject
p0
(dp1
S'methods'
p2
c__builtin__
set
p3
((lp4
S'Method.AGONIST'
p5
atp6
Rp7
sS'topics'
p8
g3
((lp9
S"(6, u'\\\\baggressi')"
p10
aS"(33, u'\\\\blocomot')"
p11
aS"(12, u'\\\\bsleep')"
p12
aS"(26, u'\\\\bbehav')"
p13
atp14
Rp15
sS'receptors'
p16
g3
((lp17
(S'5ht7'
p18
I1040
I1045
tp19
a(S'5ht1a'
p20
I1085
I1091
tp21
a(S'5ht1a'
p22
I1461
I1467
tp23
a(S'5ht1a'
p24
I1246
I1252
tp25
atp26
Rp27
sS'raw_text_methods'
p28
g3
((lp29
S"(13, u'\\\\bagonist')"
p30
atp31
Rp32
sS'regions'
p33
g3
((lp34
tp35
Rp36
sS'year'
p37
V2014
p38
sS'species'
p39
g3
((lp40
S"(3, u'(?i)\\\\b(males|male)\\\\b')"
p41
atp42
Rp43
sb.