(ifile_types
ParseObject
p0
(dp1
S'antagonists'
p2
c__builtin__
set
p3
((lp4
tp5
Rp6
sS'methods'
p7
g3
((lp8
S'Method.AGONIST'
p9
atp10
Rp11
sS'topics'
p12
g3
((lp13
tp14
Rp15
sS'receptors'
p16
g3
((lp17
S'5ht6'
p18
aS'5ht2a'
p19
atp20
Rp21
sS'regions'
p22
g3
((lp23
tp24
Rp25
sS'year'
p26
V2001
p27
sS'agonists'
p28
g3
((lp29
S"(50, u'\\\\bmescaline')"
p30
atp31
Rp32
sS'species'
p33
g3
((lp34
S"(1057, u'(?i)\\\\b(humans|human)\\\\b')"
p35
aS"(2054, u'(?i)\\\\b(heads|head)\\\\b')"
p36
aS"(3196, u'(?i)\\\\b(human|humans)\\\\b')"
p37
atp38
Rp39
sb.