(ifile_types
ParseObject
p0
(dp1
S'methods'
p2
c__builtin__
set
p3
((lp4
S'Method.ANTAGONIST'
p5
aS'Method.AGONIST'
p6
aS'Method.IMMUNOHISTOCHEMISTRY'
p7
aS'Method.STAINING'
p8
atp9
Rp10
sS'topics'
p11
g3
((lp12
S"(31, u'\\\\brespiratory')"
p13
aS"(3, u'\\\\bclinical')"
p14
atp15
Rp16
sS'receptors'
p17
g3
((lp18
(S'5ht2a'
p19
I596
I602
tp20
a(S'5ht2c'
p21
I31
I39
tp22
a(S'5ht2'
p23
I1176
I1181
tp24
a(S'5ht2c'
p25
I596
I604
tp26
a(S'5ht2a'
p27
I31
I37
tp28
a(S'5ht2'
p29
I259
I264
tp30
atp31
Rp32
sS'raw_text_methods'
p33
g3
((lp34
S"(13, u'\\\\bagonist')"
p35
aS"(3, u'\\\\bimmunoreactiv')"
p36
aS"(9, u'\\\\britanserin')"
p37
aS"(49, u'\\\\bdoi')"
p38
aS"(12, u'\\\\bantagonist')"
p39
atp40
Rp41
sS'regions'
p42
g3
((lp43
tp44
Rp45
sS'year'
p46
V2001
p47
sS'species'
p48
g3
((lp49
S"(4, u'(?i)\\\\b(rats|rat)\\\\b')"
p50
atp51
Rp52
sb.