(ifile_types
ParseObject
p0
(dp1
S'antagonists'
p2
c__builtin__
set
p3
((lp4
S"(54, u'\\\\britanserin')"
p5
aS"(130, u'\\\\britanserin')"
p6
atp7
Rp8
sS'methods'
p9
g3
((lp10
S'Method.ANTAGONIST'
p11
aS'Method.AGONIST'
p12
atp13
Rp14
sS'topics'
p15
g3
((lp16
S"(3, u'\\\\bsleep')"
p17
atp18
Rp19
sS'receptors'
p20
g3
((lp21
S'5ht1b'
p22
aS'5ht1a'
p23
aS'5ht2'
p24
aS'5ht1'
p25
aS'5ht2a'
p26
atp27
Rp28
sS'regions'
p29
g3
((lp30
S"(32, u'(?i)(hypoglossals|hypoglossal)(-|\\\\s+)?(nuclei|nucleus)')"
p31
aS"(34, u'(?i)(pon|pons)')"
p32
atp33
Rp34
sS'year'
p35
V2003
p36
sS'agonists'
p37
g3
((lp38
S"(92, u'\\\\b8 ?oh ?dpat')"
p39
aS"(155, u'\\\\bmem')"
p40
aS"(107, u'\\\\bcp ?93129')"
p41
atp42
Rp43
sS'species'
p44
g3
((lp45
S"(6753, u'(?i)(da|das)')"
p46
aS"(5958, u'(?i)(rats|rat)')"
p47
aS"(6356, u'(?i)(ais|ai)')"
p48
aS"(4964, u'(?i)(serins|serin)')"
p49
aS"(3726, u'(?i)(mates|mate)')"
p50
aS"(853, u'(?i)(minas|mina)')"
p51
aS"(6249, u'(?i)(ants|ant)')"
p52
aS"(4979, u'(?i)(cats|cat)')"
p53
aS"(1414, u'(?i)(chars|char)')"
p54
aS"(391, u'(?i)(alli|allis)')"
p55
aS"(3812, u'(?i)(studs|stud)')"
p56
atp57
Rp58
sb.