(ifile_types
ParseObject
p0
(dp1
S'antagonists'
p2
c__builtin__
set
p3
((lp4
tp5
Rp6
sS'methods'
p7
g3
((lp8
S'Method.AGONIST'
p9
aS'Method.IMMUNOHISTOCHEMISTRY'
p10
aS'Method.ANTAGONIST'
p11
atp12
Rp13
sS'topics'
p14
g3
((lp15
S"(28, u'\\\\bemesis')"
p16
atp17
Rp18
sS'receptors'
p19
g3
((lp20
S'5ht3'
p21
aS'5ht2'
p22
atp23
Rp24
sS'regions'
p25
g3
((lp26
S"(362, u'(?i)\\\\b(brains|brain)(-|\\\\s+)?(stems|stem)\\\\b')"
p27
aS"(27, u'(?i)\\\\b(areas|area)(-|\\\\s+)?(postremas|postrema)\\\\b')"
p28
atp29
Rp30
sS'year'
p31
V2014
p32
sS'agonists'
p33
g3
((lp34
S"(149, u'\\\\bmem')"
p35
atp36
Rp37
sS'species'
p38
g3
((lp39
S"(5544, u'(?i)\\\\b(leasts|least)(-|\\\\s+)?(shrews|shrew)\\\\b')"
p40
aS"(1280, u'(?i)\\\\b(shrews|shrew)\\\\b')"
p41
aS"(5545, u'(?i)\\\\b(cryptoti|cryptotis)(-|\\\\s+)?(parvas|parva)\\\\b')"
p42
atp43
Rp44
sb.