(ifile_types
ParseObject
p0
(dp1
S'antagonists'
p2
c__builtin__
set
p3
((lp4
tp5
Rp6
sS'methods'
p7
g3
((lp8
S'Method.PET'
p9
aS'Method.AGONIST'
p10
atp11
Rp12
sS'topics'
p13
g3
((lp14
tp15
Rp16
sS'receptors'
p17
g3
((lp18
S'5ht3'
p19
atp20
Rp21
sS'regions'
p22
g3
((lp23
S"(27, u'(?i)(areas|area)(-|\\\\s+)?(postremas|postrema)')"
p24
atp25
Rp26
sS'year'
p27
V1997
p28
sS'agonists'
p29
g3
((lp30
tp31
Rp32
sS'species'
p33
g3
((lp34
S"(1070, u'(?i)(pets|pet)')"
p35
aS"(5537, u'(?i)(hippos|hippo)')"
p36
aS"(5958, u'(?i)(rats|rat)')"
p37
aS"(6356, u'(?i)(ais|ai)')"
p38
aS"(4635, u'(?i)(baboons|baboon)')"
p39
aS"(2401, u'(?i)(primates|primate)')"
p40
aS"(4201, u'(?i)(kines|kine)')"
p41
aS"(1055, u'(?i)(men|man)')"
p42
aS"(3726, u'(?i)(mates|mate)')"
p43
aS"(3812, u'(?i)(studs|stud)')"
p44
aS"(6249, u'(?i)(ants|ant)')"
p45
aS"(5917, u'(?i)(roaches|roach)')"
p46
aS"(4371, u'(?i)(lizas|liza)')"
p47
aS"(1414, u'(?i)(chars|char)')"
p48
aS"(2809, u'(?i)(toms|tom)')"
p49
aS"(1795, u'(?i)(mounts|mount)')"
p50
aS"(4979, u'(?i)(cats|cat)')"
p51
atp52
Rp53
sb.