(ifile_types
ParseObject
p0
(dp1
S'methods'
p2
c__builtin__
set
p3
((lp4
S'Method.ANTAGONIST'
p5
aS'Method.AGONIST'
p6
atp7
Rp8
sS'topics'
p9
g3
((lp10
S"(7, u'\\\\bdepressi')"
p11
aS"(13, u'\\\\bantidepress')"
p12
aS"(4, u'\\\\btreatment')"
p13
aS"(3, u'\\\\bclinical')"
p14
atp15
Rp16
sS'receptors'
p17
g3
((lp18
(S'5ht2c'
p19
I1883
I1889
tp20
a(S'5ht2c'
p21
I2329
I2335
tp22
a(S'5ht2c'
p23
I312
I318
tp24
a(S'5ht2c'
p25
I1640
I1646
tp26
a(S'5ht2'
p27
I556
I561
tp28
atp29
Rp30
sS'raw_text_methods'
p31
g3
((lp32
S"(13, u'\\\\bagonist')"
p33
aS"(11, u'\\\\bfluoxetine')"
p34
aS"(12, u'\\\\bantagonist')"
p35
atp36
Rp37
sS'regions'
p38
g3
((lp39
tp40
Rp41
sS'year'
p42
V2008
p43
sS'species'
p44
g3
((lp45
S"(1, u'(?i)\\\\b(mice|mouse)\\\\b')"
p46
atp47
Rp48
sb.