(ifile_types
ParseObject
p0
(dp1
S'antagonists'
p2
c__builtin__
set
p3
((lp4
S"(32, u'\\\\bway ?100635')"
p5
aS"(102, u'\\\\bfluoxetine')"
p6
atp7
Rp8
sS'methods'
p9
g3
((lp10
S'Method.ANTAGONIST'
p11
aS'Method.AGONIST'
p12
atp13
Rp14
sS'topics'
p15
g3
((lp16
S"(3, u'\\\\bsleep')"
p17
aS"(1, u'\\\\bmood')"
p18
atp19
Rp20
sS'receptors'
p21
g3
((lp22
S'5ht7'
p23
aS'5ht1a'
p24
atp25
Rp26
sS'regions'
p27
g3
((lp28
S"(34, u'(?i)(pon|pons)')"
p29
atp30
Rp31
sS'year'
p32
V2009
p33
sS'agonists'
p34
g3
((lp35
S"(50, u'\\\\bipsapirone')"
p36
atp37
Rp38
sS'species'
p39
g3
((lp40
S"(2323, u'(?i)(bees|bee)')"
p41
aS"(5799, u'(?i)(rodents|rodent)')"
p42
aS"(5958, u'(?i)(rats|rat)')"
p43
aS"(163, u'(?i)(mice|mouse)')"
p44
aS"(468, u'(?i)(oxen|ox)')"
p45
aS"(1349, u'(?i)(rams|ram)')"
p46
aS"(1055, u'(?i)(men|man)')"
p47
aS"(4979, u'(?i)(cats|cat)')"
p48
aS"(6249, u'(?i)(ants|ant)')"
p49
aS"(3812, u'(?i)(studs|stud)')"
p50
aS"(5743, u'(?i)(bots|bot)')"
p51
atp52
Rp53
sb.