(ifile_types
ParseObject
p0
(dp1
S'methods'
p2
c__builtin__
set
p3
((lp4
S'Method.AGONIST'
p5
atp6
Rp7
sS'topics'
p8
g3
((lp9
S"(26, u'\\\\bbehav')"
p10
atp11
Rp12
sS'receptors'
p13
g3
((lp14
(S'5ht2'
p15
I1038
I1043
tp16
a(S'5ht1c'
p17
I849
I856
tp18
a(S'5ht1c'
p19
I1038
I1045
tp20
a(S'5ht2'
p21
I58
I63
tp22
a(S'5ht1a'
p23
I357
I363
tp24
a(S'5ht2'
p25
I849
I854
tp26
a(S'5ht1c'
p27
I445
I452
tp28
a(S'5ht1a'
p29
I120
I126
tp30
a(S'5ht1c'
p31
I58
I65
tp32
a(S'5ht1a'
p33
I933
I939
tp34
a(S'5ht2'
p35
I445
I450
tp36
atp37
Rp38
sS'raw_text_methods'
p39
g3
((lp40
S"(13, u'\\\\bagonist')"
p41
aS"(15, u'\\\\b8ohdpat')"
p42
aS"(49, u'\\\\bdoi')"
p43
atp44
Rp45
sS'regions'
p46
g3
((lp47
tp48
Rp49
sS'year'
p50
V1994
p51
sS'species'
p52
g3
((lp53
S"(4, u'(?i)\\\\b(rats|rat)\\\\b')"
p54
atp55
Rp56
sb.