(ifile_types
ParseObject
p0
(dp1
S'methods'
p2
c__builtin__
set
p3
((lp4
S'Method.ANTAGONIST'
p5
aS'Method.AGONIST'
p6
atp7
Rp8
sS'topics'
p9
g3
((lp10
S"(23, u'\\\\bantipsychotic')"
p11
aS"(2, u'\\\\bdisorder')"
p12
atp13
Rp14
sS'receptors'
p15
g3
((lp16
(S'5ht1a'
p17
I339
I345
tp18
a(S'5ht1a'
p19
I906
I912
tp20
a(S'5ht1a'
p21
I518
I524
tp22
a(S'5ht1a'
p23
I1295
I1301
tp24
a(S'5ht1a'
p25
I237
I243
tp26
a(S'5ht1a'
p27
I1376
I1382
tp28
a(S'5ht1a'
p29
I59
I65
tp30
atp31
Rp32
sS'raw_text_methods'
p33
g3
((lp34
S"(13, u'\\\\bagonist')"
p35
aS"(15, u'\\\\b8ohdpat')"
p36
aS"(41, u'\\\\bhaloperidol')"
p37
aS"(12, u'\\\\bantagonist')"
p38
atp39
Rp40
sS'regions'
p41
g3
((lp42
S"(19, u'(?i)\\\\b(cortexes|cortex)\\\\b')"
p43
aS"(3, u'(?i)\\\\b(postsynaptics|postsynaptic)\\\\b')"
p44
atp45
Rp46
sS'year'
p47
V2010
p48
sS'species'
p49
g3
((lp50
S"(1, u'(?i)\\\\b(mice|mouse)\\\\b')"
p51
aS"(4, u'(?i)\\\\b(rats|rat)\\\\b')"
p52
atp53
Rp54
sb.