(ifile_types
ParseObject
p0
(dp1
S'antagonists'
p2
c__builtin__
set
p3
((lp4
S"(31, u'\\\\bway ?100635')"
p5
atp6
Rp7
sS'methods'
p8
g3
((lp9
S'Method.STIMULATION'
p10
aS'Method.ANTAGONIST'
p11
atp12
Rp13
sS'topics'
p14
g3
((lp15
S"(15, u'\\\\bschizophreni')"
p16
aS"(9, u'\\\\bdepress')"
p17
atp18
Rp19
sS'receptors'
p20
g3
((lp21
S'5ht1a'
p22
atp23
Rp24
sS'regions'
p25
g3
((lp26
S"(254, u'(?i)\\\\b(prefrontals|prefrontal)(-|\\\\s+)?(cortexes|cortex)\\\\b')"
p27
aS"(255, u'(?i)\\\\b(pres|pre)(-|\\\\s+)?(frontals|frontal)(-|\\\\s+)?(cortexes|cortex)\\\\b')"
p28
aS"(318, u'(?i)\\\\b(raphes|raphe)(-|\\\\s+)?(nuclei|nucleus)\\\\b')"
p29
atp30
Rp31
sS'year'
p32
V2005
p33
sS'agonists'
p34
g3
((lp35
tp36
Rp37
sS'species'
p38
g3
((lp39
S"(5958, u'(?i)\\\\b(rats|rat)\\\\b')"
p40
atp41
Rp42
sb.