(ifile_types
ParseObject
p0
(dp1
S'methods'
p2
c__builtin__
set
p3
((lp4
S'Method.ANTAGONIST'
p5
atp6
Rp7
sS'topics'
p8
g3
((lp9
S"(22, u'\\\\bschizophreni')"
p10
aS"(14, u'\\\\bcogniti')"
p11
aS"(26, u'\\\\bbehav')"
p12
aS"(2, u'\\\\bdisorder')"
p13
aS"(7, u'\\\\bdepressi')"
p14
aS"(5, u'\\\\btherap')"
p15
aS"(4, u'\\\\btreatment')"
p16
atp17
Rp18
sS'receptors'
p19
g3
((lp20
(S'5ht2a'
p21
I648
I654
tp22
a(S'5ht1a'
p23
I635
I641
tp24
a(S'5ht1a'
p25
I1518
I1524
tp26
atp27
Rp28
sS'raw_text_methods'
p29
g3
((lp30
S"(15, u'\\\\b8ohdpat')"
p31
aS"(50, u'\\\\bm100907')"
p32
aS"(12, u'\\\\bantagonist')"
p33
atp34
Rp35
sS'regions'
p36
g3
((lp37
S"(20, u'(?i)\\\\b(prefrontals|prefrontal)\\\\b')"
p38
aS"(21, u'(?i)\\\\b(mpfcs|mpfc)\\\\b')"
p39
aS"(19, u'(?i)\\\\b(cortexes|cortex)\\\\b')"
p40
atp41
Rp42
sS'year'
p43
V2003
p44
sS'species'
p45
g3
((lp46
S"(4, u'(?i)\\\\b(rats|rat)\\\\b')"
p47
atp48
Rp49
sb.