(ifile_types
ParseObject
p0
(dp1
S'methods'
p2
c__builtin__
set
p3
((lp4
S'Method.ANTAGONIST'
p5
aS'Method.AGONIST'
p6
atp7
Rp8
sS'topics'
p9
g3
((lp10
S"(15, u'\\\\bmemory')"
p11
atp12
Rp13
sS'receptors'
p14
g3
((lp15
(S'5ht1a'
p16
I825
I831
tp17
a(S'5ht1a'
p18
I1953
I1959
tp19
a(S'5ht1a'
p20
I1315
I1321
tp21
a(S'5ht1a'
p22
I314
I320
tp23
a(S'5ht1a'
p24
I1695
I1701
tp25
a(S'5ht1a'
p26
I704
I710
tp27
a(S'5ht1a'
p28
I897
I903
tp29
a(S'5ht1a'
p30
I98
I104
tp31
a(S'5ht1a'
p32
I392
I397
tp33
a(S'5ht1a'
p34
I1447
I1453
tp35
atp36
Rp37
sS'raw_text_methods'
p38
g3
((lp39
S"(13, u'\\\\bagonist')"
p40
aS"(54, u'\\\\bautoradiography')"
p41
aS"(12, u'\\\\bantagonist')"
p42
atp43
Rp44
sS'regions'
p45
g3
((lp46
tp47
Rp48
sS'year'
p49
V2014
p50
sS'species'
p51
g3
((lp52
tp53
Rp54
sb.