(ifile_types
ParseObject
p0
(dp1
S'methods'
p2
c__builtin__
set
p3
((lp4
S'Method.ANTAGONIST'
p5
atp6
Rp7
sS'topics'
p8
g3
((lp9
S"(26, u'\\\\bbehav')"
p10
atp11
Rp12
sS'receptors'
p13
g3
((lp14
(S'5ht2c'
p15
I1778
I1784
tp16
a(S'5ht2c'
p17
I587
I593
tp18
a(S'5ht7'
p19
I1462
I1467
tp20
a(S'5ht7'
p21
I822
I827
tp22
a(S'5ht2c'
p23
I752
I758
tp24
a(S'5ht2c'
p25
I1312
I1318
tp26
a(S'5ht2c'
p27
I1610
I1616
tp28
a(S'5ht2c'
p29
I31
I42
tp30
atp31
Rp32
sS'raw_text_methods'
p33
g3
((lp34
S"(12, u'\\\\bantagonist')"
p35
atp36
Rp37
sS'regions'
p38
g3
((lp39
S"(16, u'(?i)\\\\b(drns|drn)\\\\b')"
p40
aS"(17, u'(?i)\\\\b(caudates|caudate)\\\\b')"
p41
aS"(18, u'(?i)\\\\b(putamens|putamen)\\\\b')"
p42
atp43
Rp44
sS'year'
p45
V2012
p46
sS'species'
p47
g3
((lp48
S"(1, u'(?i)\\\\b(mice|mouse)\\\\b')"
p49
aS"(5, u'(?i)\\\\b(mices|mice)\\\\b')"
p50
atp51
Rp52
sb.