(ifile_types
ParseObject
p0
(dp1
S'methods'
p2
c__builtin__
set
p3
((lp4
S'Method.AGONIST'
p5
atp6
Rp7
sS'topics'
p8
g3
((lp9
S"(26, u'\\\\bbehav')"
p10
aS"(4, u'\\\\btreatment')"
p11
aS"(15, u'\\\\bmemory')"
p12
atp13
Rp14
sS'receptors'
p15
g3
((lp16
(S'5ht1d'
p17
I424
I430
tp18
a(S'5ht1d'
p19
I576
I582
tp20
a(S'5ht1d'
p21
I41
I47
tp22
atp23
Rp24
sS'raw_text_methods'
p25
g3
((lp26
S"(13, u'\\\\bagonist')"
p27
aS"(10, u'\\\\bmethamphetamine')"
p28
atp29
Rp30
sS'regions'
p31
g3
((lp32
S"(3, u'(?i)\\\\b(postsynaptics|postsynaptic)\\\\b')"
p33
atp34
Rp35
sS'year'
p36
V2018
p37
sS'species'
p38
g3
((lp39
S"(4, u'(?i)\\\\b(rats|rat)\\\\b')"
p40
atp41
Rp42
sb.