(ifile_types
ParseObject
p0
(dp1
S'methods'
p2
c__builtin__
set
p3
((lp4
S'Method.ANTAGONIST'
p5
aS'Method.AGONIST'
p6
atp7
Rp8
sS'topics'
p9
g3
((lp10
S"(5, u'\\\\btherap')"
p11
atp12
Rp13
sS'receptors'
p14
g3
((lp15
(S'5ht4'
p16
I351
I356
tp17
a(S'5ht1a'
p18
I326
I332
tp19
a(S'5ht3'
p20
I1212
I1217
tp21
a(S'5ht4'
p22
I1222
I1227
tp23
a(S'5ht2'
p24
I334
I339
tp25
a(S'5ht4'
p26
I981
I986
tp27
a(S'5ht3'
p28
I695
I700
tp29
a(S'5ht1a'
p30
I523
I529
tp31
a(S'5ht3'
p32
I341
I346
tp33
a(S'5ht1a'
p34
I1197
I1203
tp35
a(S'5ht2'
p36
I685
I690
tp37
a(S'5ht2'
p38
I1205
I1210
tp39
atp40
Rp41
sS'raw_text_methods'
p42
g3
((lp43
S"(13, u'\\\\bagonist')"
p44
aS"(9, u'\\\\britanserin')"
p45
aS"(30, u'\\\\b2methyl')"
p46
aS"(12, u'\\\\bantagonist')"
p47
atp48
Rp49
sS'regions'
p50
g3
((lp51
tp52
Rp53
sS'year'
p54
V1994
p55
sS'species'
p56
g3
((lp57
tp58
Rp59
sb.