(ifile_types
ParseObject
p0
(dp1
S'methods'
p2
c__builtin__
set
p3
((lp4
S'Method.ANTAGONIST'
p5
atp6
Rp7
sS'topics'
p8
g3
((lp9
tp10
Rp11
sS'receptors'
p12
g3
((lp13
(S'5ht3'
p14
I62
I67
tp15
a(S'5ht3'
p16
I574
I579
tp17
a(S'5ht3'
p18
I216
I221
tp19
a(S'5ht3'
p20
I654
I659
tp21
a(S'5ht3'
p22
I730
I735
tp23
atp24
Rp25
sS'raw_text_methods'
p26
g3
((lp27
S"(30, u'\\\\b2methyl')"
p28
aS"(12, u'\\\\bantagonist')"
p29
atp30
Rp31
sS'regions'
p32
g3
((lp33
S"(11, u'(?i)\\\\b(cerebrals|cerebral)\\\\b')"
p34
aS"(19, u'(?i)\\\\b(cortexes|cortex)\\\\b')"
p35
atp36
Rp37
sS'year'
p38
V1989
p39
sS'species'
p40
g3
((lp41
S"(4, u'(?i)\\\\b(rats|rat)\\\\b')"
p42
atp43
Rp44
sb.