(ifile_types
ParseObject
p0
(dp1
S'antagonists'
p2
c__builtin__
set
p3
((lp4
S"(21, u'\\\\bpindolol')"
p5
aS"(144, u'\\\\bgr ?113808')"
p6
aS"(133, u'\\\\bmianserin')"
p7
aS"(104, u'\\\\bimipramine')"
p8
aS"(102, u'\\\\bamitriptyline')"
p9
aS"(26, u'\\\\bspiperone')"
p10
atp11
Rp12
sS'methods'
p13
g3
((lp14
S'Method.ANTAGONIST'
p15
aS'Method.AGONIST'
p16
atp17
Rp18
sS'topics'
p19
g3
((lp20
tp21
Rp22
sS'receptors'
p23
g3
((lp24
S'5ht4'
p25
atp26
Rp27
sS'regions'
p28
g3
((lp29
tp30
Rp31
sS'year'
p32
V1995
p33
sS'agonists'
p34
g3
((lp35
S"(220, u'\\\\b5 ?methoxytryptamine')"
p36
aS"(149, u'\\\\bmem')"
p37
atp38
Rp39
sS'species'
p40
g3
((lp41
tp42
Rp43
sb.