(ifile_types
ParseObject
p0
(dp1
S'methods'
p2
c__builtin__
set
p3
((lp4
S'Method.ANTAGONIST'
p5
atp6
Rp7
sS'topics'
p8
g3
((lp9
S"(26, u'\\\\bbehav')"
p10
atp11
Rp12
sS'receptors'
p13
g3
((lp14
(S'5ht3'
p15
I713
I718
tp16
a(S'5ht4'
p17
I881
I886
tp18
a(S'5ht3'
p19
I875
I880
tp20
a(S'5ht3'
p21
I1217
I1222
tp22
a(S'5ht2c'
p23
I459
I465
tp24
a(S'5ht2a'
p25
I1206
I1212
tp26
a(S'5ht4'
p27
I1236
I1241
tp28
a(S'5ht2c'
p29
I1199
I1205
tp30
a(S'5ht2a'
p31
I466
I472
tp32
atp33
Rp34
sS'raw_text_methods'
p35
g3
((lp36
S"(20, u'\\\\bondansetron')"
p37
aS"(9, u'\\\\britanserin')"
p38
aS"(12, u'\\\\bantagonist')"
p39
atp40
Rp41
sS'regions'
p42
g3
((lp43
tp44
Rp45
sS'year'
p46
V1994
p47
sS'species'
p48
g3
((lp49
S"(1, u'(?i)\\\\b(mice|mouse)\\\\b')"
p50
atp51
Rp52
sb.