(ifile_types
ParseObject
p0
(dp1
S'antagonists'
p2
c__builtin__
set
p3
((lp4
S"(209, u'\\\\btfmpp')"
p5
atp6
Rp7
sS'methods'
p8
g3
((lp9
tp10
Rp11
sS'topics'
p12
g3
((lp13
tp14
Rp15
sS'receptors'
p16
g3
((lp17
S'5ht1c'
p18
aS'5ht1b'
p19
aS'5ht1a'
p20
aS'5ht1'
p21
aS'5ht1d'
p22
aS'5ht5'
p23
atp24
Rp25
sS'regions'
p26
g3
((lp27
tp28
Rp29
sS'year'
p30
V1993
p31
sS'agonists'
p32
g3
((lp33
S"(83, u'\\\\btrifluoromethylphenylpiperazine')"
p34
aS"(183, u'\\\\btfmpp')"
p35
atp36
Rp37
sS'species'
p38
g3
((lp39
S"(5537, u'(?i)(hippos|hippo)')"
p40
aS"(2568, u'(?i)(hens|hen)')"
p41
aS"(6753, u'(?i)(da|das)')"
p42
aS"(4163, u'(?i)(ermines|ermine)')"
p43
aS"(1055, u'(?i)(men|man)')"
p44
aS"(107, u'(?i)(stags|stag)')"
p45
aS"(6356, u'(?i)(ais|ai)')"
p46
aS"(5958, u'(?i)(rats|rat)')"
p47
aS"(3812, u'(?i)(studs|stud)')"
p48
aS"(2809, u'(?i)(toms|tom)')"
p49
atp50
Rp51
sb.