(ifile_types
ParseObject
p0
(dp1
S'methods'
p2
c__builtin__
set
p3
((lp4
S'Method.ANTAGONIST'
p5
aS'Method.AGONIST'
p6
atp7
Rp8
sS'topics'
p9
g3
((lp10
S"(26, u'\\\\bbehav')"
p11
aS"(4, u'\\\\btreatment')"
p12
aS"(2, u'\\\\bdisorder')"
p13
atp14
Rp15
sS'receptors'
p16
g3
((lp17
(S'5ht1a'
p18
I1045
I1051
tp19
a(S'5ht1a'
p20
I1703
I1709
tp21
a(S'5ht1a'
p22
I789
I795
tp23
a(S'5ht1a'
p24
I565
I571
tp25
a(S'5ht1a'
p26
I378
I384
tp27
a(S'5ht1a'
p28
I432
I438
tp29
a(S'5ht1a'
p30
I843
I849
tp31
a(S'5ht1a'
p32
I498
I504
tp33
a(S'5ht1a'
p34
I1548
I1554
tp35
a(S'5ht1a'
p36
I1793
I1799
tp37
atp38
Rp39
sS'raw_text_methods'
p40
g3
((lp41
S"(13, u'\\\\bagonist')"
p42
aS"(15, u'\\\\b8ohdpat')"
p43
aS"(51, u'\\\\bway100635')"
p44
aS"(12, u'\\\\bantagonist')"
p45
atp46
Rp47
sS'regions'
p48
g3
((lp49
S"(4, u'(?i)\\\\b(presynaptics|presynaptic)\\\\b')"
p50
aS"(3, u'(?i)\\\\b(postsynaptics|postsynaptic)\\\\b')"
p51
atp52
Rp53
sS'year'
p54
V2015
p55
sS'species'
p56
g3
((lp57
S"(1, u'(?i)\\\\b(mice|mouse)\\\\b')"
p58
aS"(2, u'(?i)\\\\b(females|female)\\\\b')"
p59
aS"(5, u'(?i)\\\\b(mices|mice)\\\\b')"
p60
aS"(3, u'(?i)\\\\b(males|male)\\\\b')"
p61
atp62
Rp63
sb.