(ifile_types
ParseObject
p0
(dp1
S'antagonists'
p2
c__builtin__
set
p3
((lp4
S"(67, u'\\\\bhaloperidol')"
p5
aS"(186, u'\\\\bro 04 ?6790')"
p6
atp7
Rp8
sS'methods'
p9
g3
((lp10
S'Method.ANTAGONIST'
p11
atp12
Rp13
sS'topics'
p14
g3
((lp15
tp16
Rp17
sS'receptors'
p18
g3
((lp19
S'5ht6'
p20
atp21
Rp22
sS'regions'
p23
g3
((lp24
S"(220, u'(?i)(striatums|striatum)')"
p25
aS"(310, u'(?i)(medials|medial)(-|\\\\s+)?(forebrains|forebrain)(-|\\\\s+)?(bundles|bundle)')"
p26
atp27
Rp28
sS'year'
p29
V1998
p30
sS'agonists'
p31
g3
((lp32
S"(48, u'\\\\bhaloperidol')"
p33
aS"(14, u'\\\\bamphetamine')"
p34
atp35
Rp36
sS'species'
p37
g3
((lp38
S"(1070, u'(?i)(pets|pet)')"
p39
aS"(2323, u'(?i)(bees|bee)')"
p40
aS"(5799, u'(?i)(rodents|rodent)')"
p41
aS"(5958, u'(?i)(rats|rat)')"
p42
aS"(867, u'(?i)(tits|tit)')"
p43
aS"(163, u'(?i)(mice|mouse)')"
p44
aS"(6753, u'(?i)(da|das)')"
p45
aS"(6682, u'(?i)(tera|teras)')"
p46
aS"(468, u'(?i)(oxen|ox)')"
p47
aS"(1055, u'(?i)(men|man)')"
p48
aS"(3404, u'(?i)(titis|titi)')"
p49
aS"(4979, u'(?i)(cats|cat)')"
p50
aS"(6249, u'(?i)(ants|ant)')"
p51
aS"(3812, u'(?i)(studs|stud)')"
p52
aS"(4624, u'(?i)(apes|ape)')"
p53
aS"(6356, u'(?i)(ais|ai)')"
p54
atp55
Rp56
sb.