(ifile_types
ParseObject
p0
(dp1
S'methods'
p2
c__builtin__
set
p3
((lp4
S'Method.AGONIST'
p5
aS'Method.IMMUNOHISTOCHEMISTRY'
p6
aS'Method.STAINING'
p7
atp8
Rp9
sS'topics'
p10
g3
((lp11
S"(2, u'\\\\bdisorder')"
p12
atp13
Rp14
sS'receptors'
p15
g3
((lp16
(S'5ht1b'
p17
I955
I961
tp18
a(S'5ht1b'
p19
I842
I848
tp20
a(S'5ht1b'
p21
I1377
I1383
tp22
a(S'5ht1b'
p23
I688
I694
tp24
a(S'5ht1b'
p25
I1243
I1249
tp26
a(S'5ht1b'
p27
I575
I581
tp28
a(S'5ht1b'
p29
I52
I58
tp30
atp31
Rp32
sS'raw_text_methods'
p33
g3
((lp34
S"(13, u'\\\\bagonist')"
p35
aS"(41, u'\\\\bhaloperidol')"
p36
atp37
Rp38
sS'regions'
p39
g3
((lp40
tp41
Rp42
sS'year'
p43
V2013
p44
sS'species'
p45
g3
((lp46
tp47
Rp48
sb.