(ifile_types
ParseObject
p0
(dp1
S'antagonists'
p2
c__builtin__
set
p3
((lp4
tp5
Rp6
sS'methods'
p7
g3
((lp8
S'Method.AGONIST'
p9
atp10
Rp11
sS'topics'
p12
g3
((lp13
S"(35, u'\\\\bstress')"
p14
aS"(10, u'\\\\banxiety')"
p15
atp16
Rp17
sS'receptors'
p18
g3
((lp19
S'5ht1a'
p20
atp21
Rp22
sS'regions'
p23
g3
((lp24
S"(220, u'(?i)(striatums|striatum)')"
p25
aS"(254, u'(?i)(prefrontals|prefrontal)(-|\\\\s+)?(cortexes|cortex)')"
p26
aS"(226, u'(?i)(nuclei|nucleus)(-|\\\\s+)?(accumben|accumbens)')"
p27
aS"(255, u'(?i)(pres|pre)(-|\\\\s+)?(frontals|frontal)(-|\\\\s+)?(cortexes|cortex)')"
p28
aS"(34, u'(?i)(pon|pons)')"
p29
atp30
Rp31
sS'year'
p32
V1994
p33
sS'agonists'
p34
g3
((lp35
S"(92, u'\\\\b8 ?oh ?dpat')"
p36
atp37
Rp38
sS'species'
p39
g3
((lp40
S"(2323, u'(?i)(bees|bee)')"
p41
aS"(6753, u'(?i)(da|das)')"
p42
aS"(5958, u'(?i)(rats|rat)')"
p43
aS"(5743, u'(?i)(bots|bot)')"
p44
aS"(6391, u'(?i)(asses|ass)')"
p45
aS"(4371, u'(?i)(lizas|liza)')"
p46
aS"(468, u'(?i)(oxen|ox)')"
p47
aS"(1349, u'(?i)(rams|ram)')"
p48
aS"(6249, u'(?i)(ants|ant)')"
p49
aS"(1055, u'(?i)(men|man)')"
p50
aS"(2334, u'(?i)(eels|eel)')"
p51
aS"(853, u'(?i)(minas|mina)')"
p52
aS"(3550, u'(?i)(anis|ani)')"
p53
aS"(3522, u'(?i)(tetras|tetra)')"
p54
aS"(1057, u'(?i)(humans|human)')"
p55
aS"(1961, u'(?i)(pens|pen)')"
p56
aS"(3812, u'(?i)(studs|stud)')"
p57
aS"(3196, u'(?i)(human|humans)')"
p58
aS"(6356, u'(?i)(ais|ai)')"
p59
atp60
Rp61
sb.