(ifile_types
ParseObject
p0
(dp1
S'methods'
p2
c__builtin__
set
p3
((lp4
S'Method.ANTAGONIST'
p5
aS'Method.AGONIST'
p6
atp7
Rp8
sS'topics'
p9
g3
((lp10
S"(5, u'\\\\btherap')"
p11
aS"(26, u'\\\\bbehav')"
p12
atp13
Rp14
sS'receptors'
p15
g3
((lp16
(S'5ht3'
p17
I402
I407
tp18
a(S'5ht3'
p19
I42
I52
tp20
a(S'5ht4'
p21
I588
I594
tp22
a(S'5ht1'
p23
I1088
I1093
tp24
a(S'5ht3'
p25
I680
I685
tp26
a(S'5ht3'
p27
I588
I593
tp28
a(S'5ht3'
p29
I1248
I1253
tp30
a(S'5ht3'
p31
I888
I893
tp32
a(S'5ht3'
p33
I1544
I1549
tp34
atp35
Rp36
sS'raw_text_methods'
p37
g3
((lp38
S"(13, u'\\\\bagonist')"
p39
aS"(23, u'\\\\bmdl')"
p40
aS"(12, u'\\\\bantagonist')"
p41
atp42
Rp43
sS'regions'
p44
g3
((lp45
tp46
Rp47
sS'year'
p48
V1995
p49
sS'species'
p50
g3
((lp51
S"(4, u'(?i)\\\\b(rats|rat)\\\\b')"
p52
atp53
Rp54
sb.