(ifile_types
ParseObject
p0
(dp1
S'methods'
p2
c__builtin__
set
p3
((lp4
S'Method.ANTAGONIST'
p5
aS'Method.AGONIST'
p6
atp7
Rp8
sS'topics'
p9
g3
((lp10
S"(26, u'\\\\bbehav')"
p11
aS"(23, u'\\\\bantipsychotic')"
p12
atp13
Rp14
sS'receptors'
p15
g3
((lp16
(S'5ht1a'
p17
I473
I479
tp18
a(S'5ht1d'
p19
I365
I371
tp20
a(S'5ht1a'
p21
I1775
I1781
tp22
a(S'5ht1a'
p23
I581
I587
tp24
a(S'5ht1a'
p25
I168
I174
tp26
a(S'5ht1a'
p27
I651
I657
tp28
a(S'5ht1a'
p29
I317
I323
tp30
a(S'5ht1a'
p31
I987
I993
tp32
a(S'5ht1a'
p33
I1686
I1692
tp34
a(S'5ht2'
p35
I373
I378
tp36
atp37
Rp38
sS'raw_text_methods'
p39
g3
((lp40
S"(13, u'\\\\bagonist')"
p41
aS"(51, u'\\\\bway100635')"
p42
aS"(40, u'\\\\bclozapine')"
p43
aS"(12, u'\\\\bantagonist')"
p44
atp45
Rp46
sS'regions'
p47
g3
((lp48
tp49
Rp50
sS'year'
p51
V1999
p52
sS'species'
p53
g3
((lp54
S"(4, u'(?i)\\\\b(rats|rat)\\\\b')"
p55
atp56
Rp57
sb.