(ifile_types
ParseObject
p0
(dp1
S'antagonists'
p2
c__builtin__
set
p3
((lp4
S"(54, u'\\\\britanserin')"
p5
aS"(130, u'\\\\britanserin')"
p6
atp7
Rp8
sS'methods'
p9
g3
((lp10
S'Method.ANTAGONIST'
p11
aS'Method.AGONIST'
p12
atp13
Rp14
sS'topics'
p15
g3
((lp16
S"(30, u'\\\\bparkinsons')"
p17
atp18
Rp19
sS'receptors'
p20
g3
((lp21
S'5ht2c'
p22
aS'5ht2a'
p23
atp24
Rp25
sS'regions'
p26
g3
((lp27
S"(103, u'(?i)(substantias|substantia)(-|\\\\s+)?(nigras|nigra)')"
p28
aS"(254, u'(?i)(prefrontals|prefrontal)(-|\\\\s+)?(cortexes|cortex)')"
p29
aS"(255, u'(?i)(pres|pre)(-|\\\\s+)?(frontals|frontal)(-|\\\\s+)?(cortexes|cortex)')"
p30
aS"(34, u'(?i)(pon|pons)')"
p31
aS"(104, u'(?i)(par|pars)(-|\\\\s+)?(compactas|compacta)')"
p32
aS"(316, u'(?i)(nigrostriatals|nigrostriatal)(-|\\\\s+)?(pathways|pathway)')"
p33
atp34
Rp35
sS'year'
p36
V2009
p37
sS'agonists'
p38
g3
((lp39
S"(33, u'\\\\bdoi')"
p40
atp41
Rp42
sS'species'
p43
g3
((lp44
S"(5799, u'(?i)(rodents|rodent)')"
p45
aS"(5958, u'(?i)(rats|rat)')"
p46
aS"(7609, u'(?i)(erns|ern)')"
p47
aS"(4979, u'(?i)(cats|cat)')"
p48
aS"(6753, u'(?i)(da|das)')"
p49
aS"(6682, u'(?i)(tera|teras)')"
p50
aS"(468, u'(?i)(oxen|ox)')"
p51
aS"(1055, u'(?i)(men|man)')"
p52
aS"(1349, u'(?i)(rams|ram)')"
p53
aS"(4964, u'(?i)(serins|serin)')"
p54
aS"(6249, u'(?i)(ants|ant)')"
p55
aS"(3812, u'(?i)(studs|stud)')"
p56
aS"(7610, u'(?i)(ernes|erne)')"
p57
aS"(1683, u'(?i)(terns|tern)')"
p58
atp59
Rp60
sb.