(ifile_types
ParseObject
p0
(dp1
S'antagonists'
p2
c__builtin__
set
p3
((lp4
tp5
Rp6
sS'methods'
p7
g3
((lp8
S'Method.PET'
p9
aS'Method.ANTAGONIST'
p10
atp11
Rp12
sS'topics'
p13
g3
((lp14
S"(9, u'\\\\bdepress')"
p15
atp16
Rp17
sS'receptors'
p18
g3
((lp19
S'5ht1b'
p20
atp21
Rp22
sS'regions'
p23
g3
((lp24
S"(225, u'(?i)\\\\b(ventrals|ventral)(-|\\\\s+)?(striatums|striatum)\\\\b')"
p25
aS"(220, u'(?i)\\\\b(striatums|striatum)\\\\b')"
p26
atp27
Rp28
sS'year'
p29
V2011
p30
sS'agonists'
p31
g3
((lp32
tp33
Rp34
sS'species'
p35
g3
((lp36
S"(2401, u'(?i)\\\\b(primates|primate)\\\\b')"
p37
aS"(1057, u'(?i)\\\\b(humans|human)\\\\b')"
p38
aS"(2341, u'(?i)\\\\b(monkeys|monkey)\\\\b')"
p39
aS"(1070, u'(?i)\\\\b(pets|pet)\\\\b')"
p40
aS"(3196, u'(?i)\\\\b(human|humans)\\\\b')"
p41
atp42
Rp43
sb.