(ifile_types
ParseObject
p0
(dp1
S'antagonists'
p2
c__builtin__
set
p3
((lp4
tp5
Rp6
sS'methods'
p7
g3
((lp8
S'Method.AGONIST'
p9
atp10
Rp11
sS'topics'
p12
g3
((lp13
tp14
Rp15
sS'receptors'
p16
g3
((lp17
S'5ht7'
p18
aS'5ht5'
p19
atp20
Rp21
sS'regions'
p22
g3
((lp23
tp24
Rp25
sS'year'
p26
V2014
p27
sS'agonists'
p28
g3
((lp29
S"(229, u'\\\\blp ?12')"
p30
aS"(181, u'\\\\bdom')"
p31
aS"(154, u'\\\\bmda')"
p32
atp33
Rp34
sS'species'
p35
g3
((lp36
S"(4624, u'(?i)(apes|ape)')"
p37
aS"(5537, u'(?i)(hippos|hippo)')"
p38
aS"(6753, u'(?i)(da|das)')"
p39
aS"(5958, u'(?i)(rats|rat)')"
p40
aS"(7609, u'(?i)(erns|ern)')"
p41
aS"(4979, u'(?i)(cats|cat)')"
p42
aS"(479, u'(?i)(lings|ling)')"
p43
aS"(81, u'(?i)(asps|asp)')"
p44
aS"(468, u'(?i)(oxen|ox)')"
p45
aS"(1055, u'(?i)(men|man)')"
p46
aS"(7094, u'(?i)(curs|cur)')"
p47
aS"(853, u'(?i)(minas|mina)')"
p48
aS"(6249, u'(?i)(ants|ant)')"
p49
aS"(1961, u'(?i)(pens|pen)')"
p50
aS"(6356, u'(?i)(ais|ai)')"
p51
aS"(6391, u'(?i)(asses|ass)')"
p52
aS"(6642, u'(?i)(lions|lion)')"
p53
aS"(5743, u'(?i)(bots|bot)')"
p54
aS"(1683, u'(?i)(terns|tern)')"
p55
aS"(6744, u'(?i)(maras|mara)')"
p56
atp57
Rp58
sb.