(ifile_types
ParseObject
p0
(dp1
S'methods'
p2
c__builtin__
set
p3
((lp4
S'Method.PET'
p5
atp6
Rp7
sS'topics'
p8
g3
((lp9
S"(1, u'\\\\bpatient')"
p10
aS"(3, u'\\\\bclinical')"
p11
aS"(2, u'\\\\bdisorder')"
p12
atp13
Rp14
sS'receptors'
p15
g3
((lp16
(S'5ht2a'
p17
I60
I66
tp18
a(S'5ht2a'
p19
I500
I506
tp20
a(S'5ht2a'
p21
I773
I779
tp22
a(S'5ht2a'
p23
I673
I679
tp24
a(S'5ht2a'
p25
I486
I497
tp26
atp27
Rp28
sS'raw_text_methods'
p29
g3
((lp30
S"(19, u'\\\\bpositron emission tomography')"
p31
atp32
Rp33
sS'regions'
p34
g3
((lp35
S"(15, u'(?i)\\\\b(substantias|substantia)(-|\\\\s+)?(nigras|nigra)\\\\b')"
p36
atp37
Rp38
sS'year'
p39
V2009
p40
sS'species'
p41
g3
((lp42
tp43
Rp44
sb.