(ifile_types
ParseObject
p0
(dp1
S'antagonists'
p2
c__builtin__
set
p3
((lp4
tp5
Rp6
sS'methods'
p7
g3
((lp8
S'Method.AGONIST'
p9
atp10
Rp11
sS'topics'
p12
g3
((lp13
S"(2, u'\\\\bappetite')"
p14
aS"(16, u'\\\\bfeed')"
p15
atp16
Rp17
sS'receptors'
p18
g3
((lp19
S'5ht1b'
p20
aS'5ht3b'
p21
aS'5ht3'
p22
aS'5ht2c'
p23
aS'5ht6'
p24
atp25
Rp26
sS'regions'
p27
g3
((lp28
S"(171, u'(?i)\\\\b(arcuates|arcuate)(-|\\\\s+)?(nuclei|nucleus)\\\\b')"
p29
aS"(159, u'(?i)\\\\b(paraventriculars|paraventricular)(-|\\\\s+)?(nuclei|nucleus)\\\\b')"
p30
aS"(313, u'(?i)\\\\b(solitaries|solitary)(-|\\\\s+)?(tracts|tract)\\\\b')"
p31
atp32
Rp33
sS'year'
p34
V2015
p35
sS'agonists'
p36
g3
((lp37
S"(164, u'\\\\blorcaserin')"
p38
aS"(163, u'\\\\bfenfluramine')"
p39
atp40
Rp41
sS'species'
p42
g3
((lp43
S"(5799, u'(?i)\\\\b(rodents|rodent)\\\\b')"
p44
aS"(4520, u'(?i)\\\\b(agoutis|agouti)\\\\b')"
p45
atp46
Rp47
sb.