(ifile_types
ParseObject
p0
(dp1
S'antagonists'
p2
c__builtin__
set
p3
((lp4
S"(203, u'\\\\btfmpp')"
p5
atp6
Rp7
sS'methods'
p8
g3
((lp9
tp10
Rp11
sS'topics'
p12
g3
((lp13
tp14
Rp15
sS'receptors'
p16
g3
((lp17
S'5ht1c'
p18
aS'5ht1b'
p19
aS'5ht1a'
p20
aS'5ht1'
p21
aS'5ht1d'
p22
atp23
Rp24
sS'regions'
p25
g3
((lp26
tp27
Rp28
sS'year'
p29
V1993
p30
sS'agonists'
p31
g3
((lp32
S"(76, u'\\\\btrifluoromethylphenylpiperazine')"
p33
aS"(178, u'\\\\btfmpp')"
p34
atp35
Rp36
sS'species'
p37
g3
((lp38
S"(1055, u'(?i)\\\\b(men|man)\\\\b')"
p39
aS"(5958, u'(?i)\\\\b(rats|rat)\\\\b')"
p40
atp41
Rp42
sb.