(ifile_types
ParseObject
p0
(dp1
S'methods'
p2
c__builtin__
set
p3
((lp4
S'Method.ANTAGONIST'
p5
aS'Method.AGONIST'
p6
atp7
Rp8
sS'topics'
p9
g3
((lp10
S"(26, u'\\\\bbehav')"
p11
atp12
Rp13
sS'receptors'
p14
g3
((lp15
(S'5ht1c'
p16
I709
I716
tp17
a(S'5ht1c'
p18
I1357
I1363
tp19
a(S'5ht1'
p20
I249
I254
tp21
a(S'5ht1'
p22
I377
I382
tp23
a(S'5ht2'
p24
I589
I595
tp25
a(S'5ht3'
p26
I748
I753
tp27
a(S'5ht1c'
p28
I1055
I1062
tp29
a(S'5ht1'
p30
I99
I104
tp31
a(S'5ht1'
p32
I973
I978
tp33
a(S'5ht1a'
p34
I1343
I1349
tp35
a(S'5ht2'
p36
I1055
I1060
tp37
a(S'5ht2'
p38
I709
I714
tp39
a(S'5ht1'
p40
I1259
I1264
tp41
a(S'5ht1'
p42
I589
I594
tp43
a(S'5ht2'
p44
I675
I680
tp45
atp46
Rp47
sS'raw_text_methods'
p48
g3
((lp49
S"(53, u'\\\\bketanserin')"
p50
aS"(7, u'\\\\bpropranolol')"
p51
aS"(23, u'\\\\bmdl')"
p52
aS"(15, u'\\\\b8ohdpat')"
p53
aS"(34, u'\\\\b5ct')"
p54
aS"(13, u'\\\\bagonist')"
p55
aS"(9, u'\\\\britanserin')"
p56
aS"(12, u'\\\\bantagonist')"
p57
atp58
Rp59
sS'regions'
p60
g3
((lp61
tp62
Rp63
sS'year'
p64
V1991
p65
sS'species'
p66
g3
((lp67
S"(4, u'(?i)\\\\b(rats|rat)\\\\b')"
p68
atp69
Rp70
sb.