(ifile_types
ParseObject
p0
(dp1
S'antagonists'
p2
c__builtin__
set
p3
((lp4
S"(105, u'\\\\bmethysergide')"
p5
atp6
Rp7
sS'methods'
p8
g3
((lp9
S'Method.ANTAGONIST'
p10
aS'Method.AGONIST'
p11
atp12
Rp13
sS'topics'
p14
g3
((lp15
tp16
Rp17
sS'receptors'
p18
g3
((lp19
S'5ht1b'
p20
aS'5ht1a'
p21
aS'5ht1'
p22
aS'5ht2a'
p23
atp24
Rp25
sS'regions'
p26
g3
((lp27
S"(368, u'(?i)(basilars|basilar)(-|\\\\s+)?(arteries|artery)')"
p28
atp29
Rp30
sS'year'
p31
V1986
p32
sS'agonists'
p33
g3
((lp34
S"(196, u'\\\\bquipazine')"
p35
aS"(24, u'\\\\bbuspirone')"
p36
aS"(155, u'\\\\bmem')"
p37
aS"(60, u'\\\\bmethysergide')"
p38
atp39
Rp40
sS'species'
p41
g3
((lp42
S"(2568, u'(?i)(hens|hen)')"
p43
aS"(6356, u'(?i)(ais|ai)')"
p44
aS"(5958, u'(?i)(rats|rat)')"
p45
aS"(5743, u'(?i)(bots|bot)')"
p46
aS"(6682, u'(?i)(tera|teras)')"
p47
aS"(6249, u'(?i)(ants|ant)')"
p48
aS"(468, u'(?i)(oxen|ox)')"
p49
aS"(1055, u'(?i)(men|man)')"
p50
aS"(3726, u'(?i)(mates|mate)')"
p51
aS"(4979, u'(?i)(cats|cat)')"
p52
aS"(4208, u'(?i)(canines|canine)')"
p53
aS"(3550, u'(?i)(anis|ani)')"
p54
aS"(3522, u'(?i)(tetras|tetra)')"
p55
aS"(1961, u'(?i)(pens|pen)')"
p56
aS"(3812, u'(?i)(studs|stud)')"
p57
aS"(7609, u'(?i)(erns|ern)')"
p58
aS"(1683, u'(?i)(terns|tern)')"
p59
atp60
Rp61
sb.