(ifile_types
ParseObject
p0
(dp1
S'antagonists'
p2
c__builtin__
set
p3
((lp4
tp5
Rp6
sS'methods'
p7
g3
((lp8
tp9
Rp10
sS'topics'
p11
g3
((lp12
tp13
Rp14
sS'receptors'
p15
g3
((lp16
S'5ht3e'
p17
aS'5ht3'
p18
aS'5ht5'
p19
aS'5ht3a'
p20
atp21
Rp22
sS'regions'
p23
g3
((lp24
S"(313, u'(?i)(solitaries|solitary)(-|\\\\s+)?(tracts|tract)')"
p25
aS"(34, u'(?i)(pon|pons)')"
p26
atp27
Rp28
sS'year'
p29
V2017
p30
sS'agonists'
p31
g3
((lp32
tp33
Rp34
sS'species'
p35
g3
((lp36
S"(6753, u'(?i)(da|das)')"
p37
aS"(6249, u'(?i)(ants|ant)')"
p38
aS"(4979, u'(?i)(cats|cat)')"
p39
aS"(163, u'(?i)(mice|mouse)')"
p40
aS"(6682, u'(?i)(tera|teras)')"
p41
aS"(853, u'(?i)(minas|mina)')"
p42
aS"(5958, u'(?i)(rats|rat)')"
p43
aS"(6356, u'(?i)(ais|ai)')"
p44
aS"(6391, u'(?i)(asses|ass)')"
p45
atp46
Rp47
sb.