(ifile_types
ParseObject
p0
(dp1
S'antagonists'
p2
c__builtin__
set
p3
((lp4
S"(73, u'\\\\bac ?90179')"
p5
atp6
Rp7
sS'methods'
p8
g3
((lp9
S'Method.PET'
p10
aS'Method.ANTAGONIST'
p11
atp12
Rp13
sS'topics'
p14
g3
((lp15
tp16
Rp17
sS'receptors'
p18
g3
((lp19
S'5ht2a'
p20
atp21
Rp22
sS'regions'
p23
g3
((lp24
S"(34, u'(?i)(pon|pons)')"
p25
atp26
Rp27
sS'year'
p28
V2006
p29
sS'agonists'
p30
g3
((lp31
tp32
Rp33
sS'species'
p34
g3
((lp35
S"(1070, u'(?i)(pets|pet)')"
p36
aS"(2568, u'(?i)(hens|hen)')"
p37
aS"(4635, u'(?i)(baboons|baboon)')"
p38
aS"(867, u'(?i)(tits|tit)')"
p39
aS"(479, u'(?i)(lings|ling)')"
p40
aS"(468, u'(?i)(oxen|ox)')"
p41
aS"(3404, u'(?i)(titis|titi)')"
p42
aS"(6249, u'(?i)(ants|ant)')"
p43
aS"(6215, u'(?i)(racers|racer)')"
p44
aS"(6356, u'(?i)(ais|ai)')"
p45
aS"(5958, u'(?i)(rats|rat)')"
p46
aS"(7094, u'(?i)(curs|cur)')"
p47
aS"(5229, u'(?i)(moles|mole)')"
p48
aS"(1961, u'(?i)(pens|pen)')"
p49
aS"(3812, u'(?i)(studs|stud)')"
p50
aS"(2809, u'(?i)(toms|tom)')"
p51
atp52
Rp53
sb.