(ifile_types
ParseObject
p0
(dp1
S'antagonists'
p2
c__builtin__
set
p3
((lp4
S"(71, u'\\\\bvolinanserin')"
p5
aS"(67, u'\\\\beplivanserin')"
p6
aS"(66, u'\\\\bapd ?125')"
p7
aS"(69, u'\\\\bpimavanserin')"
p8
atp9
Rp10
sS'methods'
p11
g3
((lp12
S'Method.ANTAGONIST'
p13
aS'Method.AGONIST'
p14
atp15
Rp16
sS'topics'
p17
g3
((lp18
S"(3, u'\\\\bsleep')"
p19
atp20
Rp21
sS'receptors'
p22
g3
((lp23
S'5ht2'
p24
aS'5ht2a'
p25
atp26
Rp27
sS'regions'
p28
g3
((lp29
tp30
Rp31
sS'year'
p32
V2008
p33
sS'agonists'
p34
g3
((lp35
tp36
Rp37
sS'species'
p38
g3
((lp39
S"(4091, u'(?i)\\\\b(adults|adult)\\\\b')"
p40
atp41
Rp42
sb.