(ifile_types
ParseObject
p0
(dp1
S'antagonists'
p2
c__builtin__
set
p3
((lp4
S"(32, u'\\\\bway ?100635')"
p5
aS"(123, u'\\\\bclozapine')"
p6
aS"(56, u'\\\\bclozapine')"
p7
atp8
Rp9
sS'methods'
p10
g3
((lp11
S'Method.STIMULATION'
p12
aS'Method.ANTAGONIST'
p13
atp14
Rp15
sS'topics'
p16
g3
((lp17
S"(15, u'\\\\bschizophreni')"
p18
atp19
Rp20
sS'receptors'
p21
g3
((lp22
S'5ht1c'
p23
aS'5ht1a'
p24
aS'5ht1'
p25
atp26
Rp27
sS'regions'
p28
g3
((lp29
S"(254, u'(?i)(prefrontals|prefrontal)(-|\\\\s+)?(cortexes|cortex)')"
p30
aS"(255, u'(?i)(pres|pre)(-|\\\\s+)?(frontals|frontal)(-|\\\\s+)?(cortexes|cortex)')"
p31
atp32
Rp33
sS'year'
p34
V2012
p35
sS'agonists'
p36
g3
((lp37
S"(155, u'\\\\bmem')"
p38
aS"(27, u'\\\\bclozapine')"
p39
atp40
Rp41
sS'species'
p42
g3
((lp43
S"(6753, u'(?i)(da|das)')"
p44
aS"(5958, u'(?i)(rats|rat)')"
p45
aS"(867, u'(?i)(tits|tit)')"
p46
aS"(5743, u'(?i)(bots|bot)')"
p47
aS"(6682, u'(?i)(tera|teras)')"
p48
aS"(468, u'(?i)(oxen|ox)')"
p49
aS"(1055, u'(?i)(men|man)')"
p50
aS"(6249, u'(?i)(ants|ant)')"
p51
aS"(1349, u'(?i)(rams|ram)')"
p52
aS"(853, u'(?i)(minas|mina)')"
p53
aS"(3550, u'(?i)(anis|ani)')"
p54
aS"(1961, u'(?i)(pens|pen)')"
p55
aS"(3152, u'(?i)(layers|layer)')"
p56
aS"(4133, u'(?i)(pikes|pike)')"
p57
atp58
Rp59
sb.