(ifile_types
ParseObject
p0
(dp1
S'antagonists'
p2
c__builtin__
set
p3
((lp4
S"(32, u'\\\\bway ?100635')"
p5
atp6
Rp7
sS'methods'
p8
g3
((lp9
S'Method.KNOCKOUT'
p10
aS'Method.ANTAGONIST'
p11
aS'Method.AGONIST'
p12
atp13
Rp14
sS'topics'
p15
g3
((lp16
S"(18, u'\\\\bpsychostim')"
p17
atp18
Rp19
sS'receptors'
p20
g3
((lp21
S'5ht1a'
p22
aS'5ht5'
p23
atp24
Rp25
sS'regions'
p26
g3
((lp27
S"(220, u'(?i)(striatums|striatum)')"
p28
aS"(254, u'(?i)(prefrontals|prefrontal)(-|\\\\s+)?(cortexes|cortex)')"
p29
aS"(226, u'(?i)(nuclei|nucleus)(-|\\\\s+)?(accumben|accumbens)')"
p30
aS"(255, u'(?i)(pres|pre)(-|\\\\s+)?(frontals|frontal)(-|\\\\s+)?(cortexes|cortex)')"
p31
atp32
Rp33
sS'year'
p34
V2009
p35
sS'agonists'
p36
g3
((lp37
S"(14, u'\\\\bamphetamine')"
p38
aS"(65, u'\\\\bosemozotan')"
p39
atp40
Rp41
sS'species'
p42
g3
((lp43
S"(2323, u'(?i)(bees|bee)')"
p44
aS"(6753, u'(?i)(da|das)')"
p45
aS"(2568, u'(?i)(hens|hen)')"
p46
aS"(1667, u'(?i)(polyps|polyp)')"
p47
aS"(163, u'(?i)(mice|mouse)')"
p48
aS"(479, u'(?i)(lings|ling)')"
p49
aS"(468, u'(?i)(oxen|ox)')"
p50
aS"(6249, u'(?i)(ants|ant)')"
p51
aS"(4979, u'(?i)(cats|cat)')"
p52
aS"(5958, u'(?i)(rats|rat)')"
p53
aS"(1961, u'(?i)(pens|pen)')"
p54
aS"(6356, u'(?i)(ais|ai)')"
p55
aS"(4074, u'(?i)(bulls|bull)')"
p56
atp57
Rp58
sb.