(ifile_types
ParseObject
p0
(dp1
S'methods'
p2
c__builtin__
set
p3
((lp4
S'Method.AGONIST'
p5
atp6
Rp7
sS'topics'
p8
g3
((lp9
S"(26, u'\\\\bbehav')"
p10
aS"(4, u'\\\\btreatment')"
p11
atp12
Rp13
sS'receptors'
p14
g3
((lp15
(S'5ht2'
p16
I1074
I1079
tp17
a(S'5ht1a'
p18
I1654
I1660
tp19
a(S'5ht2'
p20
I610
I615
tp21
a(S'5ht1a'
p22
I250
I256
tp23
a(S'5ht2'
p24
I855
I860
tp25
a(S'5ht2'
p26
I316
I321
tp27
a(S'5ht2'
p28
I59
I64
tp29
a(S'5ht2'
p30
I1244
I1249
tp31
a(S'5ht2'
p32
I1562
I1567
tp33
a(S'5ht2'
p34
I279
I284
tp35
a(S'5ht2'
p36
I92
I97
tp37
a(S'5ht2'
p38
I691
I696
tp39
atp40
Rp41
sS'raw_text_methods'
p42
g3
((lp43
S"(13, u'\\\\bagonist')"
p44
aS"(24, u'\\\\bgepirone')"
p45
aS"(32, u'\\\\blesions')"
p46
atp47
Rp48
sS'regions'
p49
g3
((lp50
S"(4, u'(?i)\\\\b(presynaptics|presynaptic)\\\\b')"
p51
aS"(3, u'(?i)\\\\b(postsynaptics|postsynaptic)\\\\b')"
p52
atp53
Rp54
sS'year'
p55
V1991
p56
sS'species'
p57
g3
((lp58
S"(4, u'(?i)\\\\b(rats|rat)\\\\b')"
p59
atp60
Rp61
sb.