(ifile_types
ParseObject
p0
(dp1
S'antagonists'
p2
c__builtin__
set
p3
((lp4
S"(110, u'\\\\bsb ?242084')"
p5
atp6
Rp7
sS'methods'
p8
g3
((lp9
S'Method.ANTAGONIST'
p10
aS'Method.AGONIST'
p11
atp12
Rp13
sS'topics'
p14
g3
((lp15
S"(8, u'\\\\blearning')"
p16
aS"(35, u'\\\\bstress')"
p17
aS"(10, u'\\\\banxiety')"
p18
atp19
Rp20
sS'receptors'
p21
g3
((lp22
S'5ht5'
p23
aS'5ht2c'
p24
atp25
Rp26
sS'regions'
p27
g3
((lp28
S"(214, u'(?i)(laterals|lateral)(-|\\\\s+)?(amygdalas|amygdala)')"
p29
aS"(215, u'(?i)(basolaterals|basolateral)(-|\\\\s+)?(amygdalas|amygdala)')"
p30
aS"(221, u'(?i)(dorsals|dorsal)(-|\\\\s+)?(striatums|striatum)')"
p31
aS"(209, u'(?i)(amygdalas|amygdala)')"
p32
aS"(220, u'(?i)(striatums|striatum)')"
p33
atp34
Rp35
sS'year'
p36
V2011
p37
sS'agonists'
p38
g3
((lp39
S"(167, u'\\\\bcp ?809101')"
p40
atp41
Rp42
sS'species'
p43
g3
((lp44
S"(4624, u'(?i)(apes|ape)')"
p45
aS"(5799, u'(?i)(rodents|rodent)')"
p46
aS"(2568, u'(?i)(hens|hen)')"
p47
aS"(6391, u'(?i)(asses|ass)')"
p48
aS"(6682, u'(?i)(tera|teras)')"
p49
aS"(468, u'(?i)(oxen|ox)')"
p50
aS"(1055, u'(?i)(men|man)')"
p51
aS"(6249, u'(?i)(ants|ant)')"
p52
aS"(6753, u'(?i)(da|das)')"
p53
aS"(5958, u'(?i)(rats|rat)')"
p54
aS"(1057, u'(?i)(humans|human)')"
p55
aS"(1291, u'(?i)(ratels|ratel)')"
p56
aS"(6356, u'(?i)(ais|ai)')"
p57
aS"(3196, u'(?i)(human|humans)')"
p58
atp59
Rp60
sb.