(ifile_types
ParseObject
p0
(dp1
S'methods'
p2
c__builtin__
set
p3
((lp4
S'Method.AGONIST'
p5
atp6
Rp7
sS'topics'
p8
g3
((lp9
S"(2, u'\\\\bdisorder')"
p10
atp11
Rp12
sS'receptors'
p13
g3
((lp14
(S'5ht5'
p15
I1064
I1074
tp16
a(S'5ht2a'
p17
I445
I451
tp18
a(S'5ht2a'
p19
I822
I828
tp20
a(S'5ht2'
p21
I879
I884
tp22
a(S'5ht2a'
p23
I962
I968
tp24
a(S'5ht2a'
p25
I1227
I1233
tp26
atp27
Rp28
sS'raw_text_methods'
p29
g3
((lp30
S"(13, u'\\\\bagonist')"
p31
aS"(49, u'\\\\bdoi')"
p32
aS"(50, u'\\\\bm100907')"
p33
atp34
Rp35
sS'regions'
p36
g3
((lp37
tp38
Rp39
sS'year'
p40
V2014
p41
sS'species'
p42
g3
((lp43
S"(4, u'(?i)\\\\b(rats|rat)\\\\b')"
p44
atp45
Rp46
sb.