(ifile_types
ParseObject
p0
(dp1
S'antagonists'
p2
c__builtin__
set
p3
((lp4
S"(72, u'\\\\bagomelatine')"
p5
atp6
Rp7
sS'methods'
p8
g3
((lp9
S'Method.ANTAGONIST'
p10
aS'Method.AGONIST'
p11
atp12
Rp13
sS'topics'
p14
g3
((lp15
S"(17, u'\\\\bgroom')"
p16
aS"(9, u'\\\\bdepress')"
p17
aS"(11, u'\\\\banxiolyt')"
p18
aS"(10, u'\\\\banxiety')"
p19
atp20
Rp21
sS'receptors'
p22
g3
((lp23
S'5ht2c'
p24
atp25
Rp26
sS'regions'
p27
g3
((lp28
tp29
Rp30
sS'year'
p31
V2018
p32
sS'agonists'
p33
g3
((lp34
tp35
Rp36
sS'species'
p37
g3
((lp38
S"(5958, u'(?i)\\\\b(rats|rat)\\\\b')"
p39
atp40
Rp41
sb.