(ifile_types
ParseObject
p0
(dp1
S'antagonists'
p2
c__builtin__
set
p3
((lp4
S"(32, u'\\\\bway ?100635')"
p5
aS"(123, u'\\\\bclozapine')"
p6
aS"(56, u'\\\\bclozapine')"
p7
aS"(57, u'\\\\bolanzapine')"
p8
aS"(41, u'\\\\bziprasidone')"
p9
aS"(124, u'\\\\bolanzapine')"
p10
atp11
Rp12
sS'methods'
p13
g3
((lp14
S'Method.ANTAGONIST'
p15
aS'Method.AGONIST'
p16
atp17
Rp18
sS'topics'
p19
g3
((lp20
tp21
Rp22
sS'receptors'
p23
g3
((lp24
S'5ht1a'
p25
aS'5ht2a'
p26
aS'5ht5'
p27
aS'5ht2'
p28
aS'5ht1d'
p29
atp30
Rp31
sS'regions'
p32
g3
((lp33
S"(318, u'(?i)(raphes|raphe)(-|\\\\s+)?(nuclei|nucleus)')"
p34
aS"(94, u'(?i)(dorsals|dorsal)(-|\\\\s+)?(raphes|raphe)(-|\\\\s+)?(nuclei|nucleus)')"
p35
atp36
Rp37
sS'year'
p38
V1999
p39
sS'agonists'
p40
g3
((lp41
S"(91, u'\\\\bziprasidone')"
p42
aS"(64, u'\\\\bolanzapine')"
p43
aS"(27, u'\\\\bclozapine')"
p44
atp45
Rp46
sS'species'
p47
g3
((lp48
S"(5958, u'(?i)(rats|rat)')"
p49
aS"(81, u'(?i)(asps|asp)')"
p50
aS"(1055, u'(?i)(men|man)')"
p51
aS"(6249, u'(?i)(ants|ant)')"
p52
aS"(1349, u'(?i)(rams|ram)')"
p53
aS"(6356, u'(?i)(ais|ai)')"
p54
aS"(3550, u'(?i)(anis|ani)')"
p55
aS"(7094, u'(?i)(curs|cur)')"
p56
aS"(1961, u'(?i)(pens|pen)')"
p57
aS"(3812, u'(?i)(studs|stud)')"
p58
aS"(6391, u'(?i)(asses|ass)')"
p59
atp60
Rp61
sb.