(ifile_types
ParseObject
p0
(dp1
S'antagonists'
p2
c__builtin__
set
p3
((lp4
S"(111, u'\\\\bolanzapine')"
p5
atp6
Rp7
sS'methods'
p8
g3
((lp9
S'Method.ANTAGONIST'
p10
aS'Method.AGONIST'
p11
atp12
Rp13
sS'topics'
p14
g3
((lp15
S"(15, u'\\\\bschizophreni')"
p16
atp17
Rp18
sS'receptors'
p19
g3
((lp20
S'5ht6'
p21
aS'5ht2c'
p22
aS'5ht2a'
p23
atp24
Rp25
sS'regions'
p26
g3
((lp27
S"(220, u'(?i)\\\\b(striatums|striatum)\\\\b')"
p28
aS"(226, u'(?i)\\\\b(nuclei|nucleus)(-|\\\\s+)?(accumben|accumbens)\\\\b')"
p29
atp30
Rp31
sS'year'
p32
V2005
p33
sS'agonists'
p34
g3
((lp35
S"(57, u'\\\\bolanzapine')"
p36
atp37
Rp38
sS'species'
p39
g3
((lp40
S"(1057, u'(?i)\\\\b(humans|human)\\\\b')"
p41
aS"(5958, u'(?i)\\\\b(rats|rat)\\\\b')"
p42
aS"(3196, u'(?i)\\\\b(human|humans)\\\\b')"
p43
atp44
Rp45
sb.