(ifile_types
ParseObject
p0
(dp1
S'methods'
p2
c__builtin__
set
p3
((lp4
S'Method.ANTAGONIST'
p5
aS'Method.AGONIST'
p6
atp7
Rp8
sS'topics'
p9
g3
((lp10
S"(5, u'\\\\btherap')"
p11
aS"(7, u'\\\\bdepressi')"
p12
aS"(4, u'\\\\btreatment')"
p13
atp14
Rp15
sS'receptors'
p16
g3
((lp17
(S'5ht1a'
p18
I2239
I2244
tp19
a(S'5ht1a'
p20
I2048
I2054
tp21
a(S'5ht1'
p22
I59
I64
tp23
a(S'5ht3'
p24
I735
I740
tp25
a(S'5ht2a'
p26
I1957
I1963
tp27
a(S'5ht1'
p28
I1320
I1325
tp29
a(S'5ht1a'
p30
I812
I818
tp31
a(S'5ht2a'
p32
I1818
I1824
tp33
a(S'5ht2a'
p34
I2246
I2252
tp35
a(S'5ht2a'
p36
I1326
I1332
tp37
a(S'5ht2a'
p38
I727
I733
tp39
a(S'5ht1a'
p40
I166
I172
tp41
a(S'5ht2a'
p42
I1148
I1154
tp43
a(S'5ht4'
p44
I823
I828
tp45
a(S'5ht1'
p46
I1811
I1816
tp47
a(S'5ht2a'
p48
I2172
I2178
tp49
a(S'5ht1'
p50
I1141
I1146
tp51
a(S'5ht7'
p52
I746
I751
tp53
a(S'5ht1a'
p54
I2014
I2020
tp55
a(S'5ht2a'
p56
I66
I72
tp57
a(S'5ht1a'
p58
I2107
I2113
tp59
atp60
Rp61
sS'raw_text_methods'
p62
g3
((lp63
S"(13, u'\\\\bagonist')"
p64
aS"(53, u'\\\\bketanserin')"
p65
aS"(21, u'\\\\bipsapirone')"
p66
aS"(12, u'\\\\bantagonist')"
p67
atp68
Rp69
sS'regions'
p70
g3
((lp71
S"(23, u'(?i)\\\\b(forebrains|forebrain)\\\\b')"
p72
atp73
Rp74
sS'year'
p75
V2017
p76
sS'species'
p77
g3
((lp78
tp79
Rp80
sb.