(ifile_types
ParseObject
p0
(dp1
S'methods'
p2
c__builtin__
set
p3
((lp4
S'Method.ANTAGONIST'
p5
aS'Method.AGONIST'
p6
atp7
Rp8
sS'topics'
p9
g3
((lp10
S"(12, u'\\\\bsleep')"
p11
atp12
Rp13
sS'receptors'
p14
g3
((lp15
(S'5ht7'
p16
I1928
I1933
tp17
a(S'5ht7a'
p18
I126
I132
tp19
a(S'5ht7'
p20
I2369
I2374
tp21
a(S'5ht7a'
p22
I1738
I1744
tp23
a(S'5ht7'
p24
I2205
I2210
tp25
a(S'5ht7a'
p26
I363
I369
tp27
a(S'5ht7'
p28
I2457
I2462
tp29
a(S'5ht5'
p30
I1065
I1070
tp31
a(S'5ht5'
p32
I1065
I1071
tp33
a(S'5ht5'
p34
I1568
I1573
tp35
atp36
Rp37
sS'raw_text_methods'
p38
g3
((lp39
S"(15, u'\\\\b8ohdpat')"
p40
aS"(40, u'\\\\bclozapine')"
p41
aS"(34, u'\\\\b5ct')"
p42
aS"(13, u'\\\\bagonist')"
p43
aS"(8, u'\\\\bru24969')"
p44
aS"(47, u'\\\\bsumatriptan')"
p45
aS"(12, u'\\\\bantagonist')"
p46
atp47
Rp48
sS'regions'
p49
g3
((lp50
tp51
Rp52
sS'year'
p53
V2005
p54
sS'species'
p55
g3
((lp56
tp57
Rp58
sb.