(ifile_types
ParseObject
p0
(dp1
S'antagonists'
p2
c__builtin__
set
p3
((lp4
S"(25, u'\\\\bsb ?649915')"
p5
atp6
Rp7
sS'methods'
p8
g3
((lp9
S'Method.STIMULATION'
p10
aS'Method.ANTAGONIST'
p11
aS'Method.AGONIST'
p12
atp13
Rp14
sS'topics'
p15
g3
((lp16
tp17
Rp18
sS'receptors'
p19
g3
((lp20
S'5ht1b'
p21
aS'5ht1a'
p22
aS'5ht5'
p23
aS'5ht1'
p24
aS'5ht1d'
p25
atp26
Rp27
sS'regions'
p28
g3
((lp29
S"(318, u'(?i)(raphes|raphe)(-|\\\\s+)?(nuclei|nucleus)')"
p30
aS"(94, u'(?i)(dorsals|dorsal)(-|\\\\s+)?(raphes|raphe)(-|\\\\s+)?(nuclei|nucleus)')"
p31
aS"(34, u'(?i)(pon|pons)')"
p32
atp33
Rp34
sS'year'
p35
V2006
p36
sS'agonists'
p37
g3
((lp38
tp39
Rp40
sS'species'
p41
g3
((lp42
S"(2323, u'(?i)(bees|bee)')"
p43
aS"(4624, u'(?i)(apes|ape)')"
p44
aS"(5958, u'(?i)(rats|rat)')"
p45
aS"(163, u'(?i)(mice|mouse)')"
p46
aS"(3051, u'(?i)(pigs|pig)')"
p47
aS"(468, u'(?i)(oxen|ox)')"
p48
aS"(1055, u'(?i)(men|man)')"
p49
aS"(6249, u'(?i)(ants|ant)')"
p50
aS"(3062, u'(?i)(guineas|guinea)')"
p51
aS"(6356, u'(?i)(ais|ai)')"
p52
aS"(7094, u'(?i)(curs|cur)')"
p53
aS"(3550, u'(?i)(anis|ani)')"
p54
aS"(3522, u'(?i)(tetras|tetra)')"
p55
aS"(1057, u'(?i)(humans|human)')"
p56
aS"(1961, u'(?i)(pens|pen)')"
p57
aS"(3812, u'(?i)(studs|stud)')"
p58
aS"(3196, u'(?i)(human|humans)')"
p59
aS"(4480, u'(?i)(guineas|guinea)(-|\\\\s+)?(pigs|pig)')"
p60
aS"(5949, u'(?i)(dogs|dog)')"
p61
aS"(7058, u'(?i)(does|doe)')"
p62
aS"(675, u'(?i)(marmosets|marmoset)')"
p63
atp64
Rp65
sb.