(ifile_types
ParseObject
p0
(dp1
S'methods'
p2
c__builtin__
set
p3
((lp4
S'Method.ANTAGONIST'
p5
aS'Method.AGONIST'
p6
atp7
Rp8
sS'topics'
p9
g3
((lp10
S"(26, u'\\\\bbehav')"
p11
atp12
Rp13
sS'receptors'
p14
g3
((lp15
(S'5ht2b'
p16
I474
I479
tp17
a(S'5ht1b'
p18
I516
I523
tp19
a(S'5ht2c'
p20
I1360
I1365
tp21
a(S'5ht2'
p22
I123
I127
tp23
a(S'5ht2c'
p24
I474
I481
tp25
a(S'5ht2c'
p26
I516
I521
tp27
atp28
Rp29
sS'raw_text_methods'
p30
g3
((lp31
S"(13, u'\\\\bagonist')"
p32
aS"(32, u'\\\\blesions')"
p33
aS"(33, u'\\\\bmcpp')"
p34
aS"(12, u'\\\\bantagonist')"
p35
atp36
Rp37
sS'regions'
p38
g3
((lp39
S"(3, u'(?i)\\\\b(postsynaptics|postsynaptic)\\\\b')"
p40
atp41
Rp42
sS'year'
p43
V2006
p44
sS'species'
p45
g3
((lp46
S"(4, u'(?i)\\\\b(rats|rat)\\\\b')"
p47
atp48
Rp49
sb.