(ifile_types
ParseObject
p0
(dp1
S'methods'
p2
c__builtin__
set
p3
((lp4
tp5
Rp6
sS'topics'
p7
g3
((lp8
S"(26, u'\\\\bbehav')"
p9
aS"(9, u'\\\\bstress')"
p10
atp11
Rp12
sS'receptors'
p13
g3
((lp14
(S'5ht1a'
p15
I1521
I1527
tp16
a(S'5ht1a'
p17
I83
I89
tp18
a(S'5ht1a'
p19
I874
I880
tp20
a(S'5ht1a'
p21
I43
I49
tp22
a(S'5ht1a'
p23
I545
I550
tp24
a(S'5ht1a'
p25
I1001
I1006
tp26
a(S'5ht1a'
p27
I635
I641
tp28
atp29
Rp30
sS'raw_text_methods'
p31
g3
((lp32
tp33
Rp34
sS'regions'
p35
g3
((lp36
tp37
Rp38
sS'year'
p39
V1996
p40
sS'species'
p41
g3
((lp42
S"(4, u'(?i)\\\\b(rats|rat)\\\\b')"
p43
atp44
Rp45
sb.