(ifile_types
ParseObject
p0
(dp1
S'methods'
p2
c__builtin__
set
p3
((lp4
S'Method.ANTAGONIST'
p5
aS'Method.AGONIST'
p6
atp7
Rp8
sS'topics'
p9
g3
((lp10
S"(14, u'\\\\bcogniti')"
p11
aS"(7, u'\\\\bdepressi')"
p12
aS"(2, u'\\\\bdisorder')"
p13
atp14
Rp15
sS'receptors'
p16
g3
((lp17
(S'5ht2c'
p18
I1417
I1423
tp19
a(S'5ht1a'
p20
I1308
I1314
tp21
a(S'5ht2c'
p22
I1373
I1379
tp23
a(S'5ht2a'
p24
I1459
I1465
tp25
a(S'5ht2a'
p26
I1340
I1346
tp27
a(S'5ht2c'
p28
I1532
I1538
tp29
atp30
Rp31
sS'raw_text_methods'
p32
g3
((lp33
S"(13, u'\\\\bagonist')"
p34
aS"(15, u'\\\\b8ohdpat')"
p35
aS"(50, u'\\\\bm100907')"
p36
aS"(39, u'\\\\bselective serotonin reuptake inhibitor')"
p37
aS"(12, u'\\\\bantagonist')"
p38
atp39
Rp40
sS'regions'
p41
g3
((lp42
tp43
Rp44
sS'year'
p45
V2020
p46
sS'species'
p47
g3
((lp48
S"(6, u'(?i)\\\\b(rodents|rodent)\\\\b')"
p49
aS"(2, u'(?i)\\\\b(females|female)\\\\b')"
p50
aS"(4, u'(?i)\\\\b(rats|rat)\\\\b')"
p51
atp52
Rp53
sb.