(ifile_types
ParseObject
p0
(dp1
S'methods'
p2
c__builtin__
set
p3
((lp4
tp5
Rp6
sS'topics'
p7
g3
((lp8
S"(23, u'\\\\bantipsychotic')"
p9
aS"(4, u'\\\\btreatment')"
p10
atp11
Rp12
sS'receptors'
p13
g3
((lp14
(S'5ht1a'
p15
I673
I679
tp16
a(S'5ht1a'
p17
I1270
I1276
tp18
atp19
Rp20
sS'raw_text_methods'
p21
g3
((lp22
S"(41, u'\\\\bhaloperidol')"
p23
aS"(54, u'\\\\bautoradiography')"
p24
atp25
Rp26
sS'regions'
p27
g3
((lp28
S"(17, u'(?i)\\\\b(caudates|caudate)\\\\b')"
p29
aS"(18, u'(?i)\\\\b(putamens|putamen)\\\\b')"
p30
atp31
Rp32
sS'year'
p33
V1995
p34
sS'species'
p35
g3
((lp36
S"(4, u'(?i)\\\\b(rats|rat)\\\\b')"
p37
atp38
Rp39
sb.