(ifile_types
ParseObject
p0
(dp1
S'antagonists'
p2
c__builtin__
set
p3
((lp4
tp5
Rp6
sS'methods'
p7
g3
((lp8
S'Method.STIMULATION'
p9
aS'Method.ANTAGONIST'
p10
aS'Method.AGONIST'
p11
atp12
Rp13
sS'topics'
p14
g3
((lp15
tp16
Rp17
sS'receptors'
p18
g3
((lp19
S'5ht4'
p20
atp21
Rp22
sS'regions'
p23
g3
((lp24
S"(220, u'(?i)\\\\b(striatums|striatum)\\\\b')"
p25
atp26
Rp27
sS'year'
p28
V1997
p29
sS'agonists'
p30
g3
((lp31
tp32
Rp33
sS'species'
p34
g3
((lp35
S"(5958, u'(?i)\\\\b(rats|rat)\\\\b')"
p36
aS"(3051, u'(?i)\\\\b(pigs|pig)\\\\b')"
p37
aS"(4480, u'(?i)\\\\b(guineas|guinea)(-|\\\\s+)?(pigs|pig)\\\\b')"
p38
aS"(3062, u'(?i)\\\\b(guineas|guinea)\\\\b')"
p39
atp40
Rp41
sb.