(ifile_types
ParseObject
p0
(dp1
S'methods'
p2
c__builtin__
set
p3
((lp4
tp5
Rp6
sS'topics'
p7
g3
((lp8
tp9
Rp10
sS'receptors'
p11
g3
((lp12
(S'5ht1d'
p13
I1556
I1562
tp14
a(S'5ht1b'
p15
I56
I62
tp16
a(S'5ht1d'
p17
I201
I207
tp18
a(S'5ht1d'
p19
I1025
I1031
tp20
a(S'5ht1d'
p21
I1214
I1220
tp22
a(S'5ht1b'
p23
I1386
I1392
tp24
a(S'5ht1d'
p25
I67
I73
tp26
a(S'5ht1b'
p27
I190
I196
tp28
a(S'5ht1b'
p29
I1084
I1090
tp30
a(S'5ht1b'
p31
I664
I670
tp32
a(S'5ht1b'
p33
I1167
I1173
tp34
a(S'5ht1d'
p35
I664
I672
tp36
atp37
Rp38
sS'raw_text_methods'
p39
g3
((lp40
S"(53, u'\\\\bketanserin')"
p41
aS"(54, u'\\\\bautoradiography')"
p42
atp43
Rp44
sS'regions'
p45
g3
((lp46
S"(15, u'(?i)\\\\b(substantias|substantia)(-|\\\\s+)?(nigras|nigra)\\\\b')"
p47
aS"(11, u'(?i)\\\\b(cerebrals|cerebral)\\\\b')"
p48
aS"(19, u'(?i)\\\\b(cortexes|cortex)\\\\b')"
p49
aS"(12, u'(?i)\\\\b(amygdalas|amygdala)\\\\b')"
p50
atp51
Rp52
sS'year'
p53
V2001
p54
sS'species'
p55
g3
((lp56
tp57
Rp58
sb.