(ifile_types
ParseObject
p0
(dp1
S'methods'
p2
c__builtin__
set
p3
((lp4
S'Method.ANTAGONIST'
p5
atp6
Rp7
sS'topics'
p8
g3
((lp9
S"(5, u'\\\\btherap')"
p10
aS"(20, u'\\\\bmood')"
p11
aS"(4, u'\\\\btreatment')"
p12
aS"(3, u'\\\\bclinical')"
p13
atp14
Rp15
sS'receptors'
p16
g3
((lp17
(S'5ht3'
p18
I257
I262
tp19
a(S'5ht3'
p20
I445
I450
tp21
a(S'5ht3'
p22
I51
I56
tp23
a(S'5ht3'
p24
I1833
I1838
tp25
a(S'5ht3'
p26
I1689
I1694
tp27
atp28
Rp29
sS'raw_text_methods'
p30
g3
((lp31
S"(20, u'\\\\bondansetron')"
p32
aS"(12, u'\\\\bantagonist')"
p33
atp34
Rp35
sS'regions'
p36
g3
((lp37
tp38
Rp39
sS'year'
p40
V1992
p41
sS'species'
p42
g3
((lp43
S"(3, u'(?i)\\\\b(males|male)\\\\b')"
p44
atp45
Rp46
sb.