(ifile_types
ParseObject
p0
(dp1
S'antagonists'
p2
c__builtin__
set
p3
((lp4
S"(34, u'\\\\byohimbine')"
p5
atp6
Rp7
sS'methods'
p8
g3
((lp9
S'Method.ANTAGONIST'
p10
atp11
Rp12
sS'topics'
p13
g3
((lp14
tp15
Rp16
sS'receptors'
p17
g3
((lp18
S'5ht1a'
p19
atp20
Rp21
sS'regions'
p22
g3
((lp23
S"(34, u'(?i)(pon|pons)')"
p24
atp25
Rp26
sS'year'
p27
V1992
p28
sS'agonists'
p29
g3
((lp30
S"(72, u'\\\\brauwolscine')"
p31
aS"(80, u'\\\\btandospirone')"
p32
aS"(44, u'\\\\bflesinoxan')"
p33
aS"(89, u'\\\\byohimbine')"
p34
atp35
Rp36
sS'species'
p37
g3
((lp38
S"(4624, u'(?i)(apes|ape)')"
p39
aS"(6753, u'(?i)(da|das)')"
p40
aS"(2568, u'(?i)(hens|hen)')"
p41
aS"(6356, u'(?i)(ais|ai)')"
p42
aS"(5958, u'(?i)(rats|rat)')"
p43
aS"(4979, u'(?i)(cats|cat)')"
p44
aS"(1686, u'(?i)(gibs|gib)')"
p45
aS"(468, u'(?i)(oxen|ox)')"
p46
aS"(1055, u'(?i)(men|man)')"
p47
aS"(6249, u'(?i)(ants|ant)')"
p48
aS"(853, u'(?i)(minas|mina)')"
p49
aS"(3550, u'(?i)(anis|ani)')"
p50
aS"(3522, u'(?i)(tetras|tetra)')"
p51
aS"(4371, u'(?i)(lizas|liza)')"
p52
aS"(1414, u'(?i)(chars|char)')"
p53
aS"(6391, u'(?i)(asses|ass)')"
p54
aS"(3812, u'(?i)(studs|stud)')"
p55
atp56
Rp57
sb.