(ifile_types
ParseObject
p0
(dp1
S'methods'
p2
c__builtin__
set
p3
((lp4
S'Method.PET'
p5
atp6
Rp7
sS'topics'
p8
g3
((lp9
tp10
Rp11
sS'receptors'
p12
g3
((lp13
(S'5ht1a'
p14
I814
I820
tp15
a(S'5ht1a'
p16
I1952
I1958
tp17
a(S'5ht1a'
p18
I359
I365
tp19
a(S'5ht1a'
p20
I302
I308
tp21
atp22
Rp23
sS'raw_text_methods'
p24
g3
((lp25
S"(51, u'\\\\bway100635')"
p26
aS"(17, u'\\\\bpet')"
p27
aS"(19, u'\\\\bpositron emission tomography')"
p28
atp29
Rp30
sS'regions'
p31
g3
((lp32
S"(19, u'(?i)\\\\b(cortexes|cortex)\\\\b')"
p33
aS"(22, u'(?i)\\\\b(anteriors|anterior)(-|\\\\s+)?(cingulates|cingulate)\\\\b')"
p34
aS"(9, u'(?i)\\\\b(cerebellums|cerebellum)\\\\b')"
p35
atp36
Rp37
sS'year'
p38
V2011
p39
sS'species'
p40
g3
((lp41
S"(8, u'(?i)\\\\b(primates|primate)\\\\b')"
p42
atp43
Rp44
sb.