(ifile_types
ParseObject
p0
(dp1
S'antagonists'
p2
c__builtin__
set
p3
((lp4
tp5
Rp6
sS'methods'
p7
g3
((lp8
S'Method.STAINING'
p9
aS'Method.IMMUNOHISTOCHEMISTRY'
p10
atp11
Rp12
sS'topics'
p13
g3
((lp14
tp15
Rp16
sS'receptors'
p17
g3
((lp18
S'5ht1b'
p19
atp20
Rp21
sS'regions'
p22
g3
((lp23
S"(164, u'(?i)(supraoptics|supraoptic)(-|\\\\s+)?(nuclei|nucleus)')"
p24
aS"(159, u'(?i)(paraventriculars|paraventricular)(-|\\\\s+)?(nuclei|nucleus)')"
p25
aS"(171, u'(?i)(arcuates|arcuate)(-|\\\\s+)?(nuclei|nucleus)')"
p26
atp27
Rp28
sS'year'
p29
V2005
p30
sS'agonists'
p31
g3
((lp32
tp33
Rp34
sS'species'
p35
g3
((lp36
S"(4096, u'(?i)(chows|chow)')"
p37
aS"(6753, u'(?i)(da|das)')"
p38
aS"(5958, u'(?i)(rats|rat)')"
p39
aS"(867, u'(?i)(tits|tit)')"
p40
aS"(4201, u'(?i)(kines|kine)')"
p41
aS"(1928, u'(?i)(bears|bear)')"
p42
aS"(1349, u'(?i)(rams|ram)')"
p43
aS"(6249, u'(?i)(ants|ant)')"
p44
aS"(3592, u'(?i)(ravens|raven)')"
p45
aS"(6356, u'(?i)(ais|ai)')"
p46
aS"(3550, u'(?i)(anis|ani)')"
p47
aS"(7094, u'(?i)(curs|cur)')"
p48
aS"(3812, u'(?i)(studs|stud)')"
p49
aS"(6391, u'(?i)(asses|ass)')"
p50
atp51
Rp52
sb.