(ifile_types
ParseObject
p0
(dp1
S'antagonists'
p2
c__builtin__
set
p3
((lp4
tp5
Rp6
sS'methods'
p7
g3
((lp8
tp9
Rp10
sS'topics'
p11
g3
((lp12
S"(11, u'\\\\banxiolyt')"
p13
aS"(10, u'\\\\banxiety')"
p14
atp15
Rp16
sS'receptors'
p17
g3
((lp18
S'5ht1a'
p19
aS'5ht3'
p20
aS'5ht2c'
p21
atp22
Rp23
sS'regions'
p24
g3
((lp25
S"(209, u'(?i)\\\\b(amygdalas|amygdala)\\\\b')"
p26
atp27
Rp28
sS'year'
p29
V2013
p30
sS'agonists'
p31
g3
((lp32
S"(149, u'\\\\bmem')"
p33
atp34
Rp35
sS'species'
p36
g3
((lp37
S"(1057, u'(?i)\\\\b(humans|human)\\\\b')"
p38
aS"(5958, u'(?i)\\\\b(rats|rat)\\\\b')"
p39
aS"(3196, u'(?i)\\\\b(human|humans)\\\\b')"
p40
atp41
Rp42
sb.