(ifile_types
ParseObject
p0
(dp1
S'methods'
p2
c__builtin__
set
p3
((lp4
S'Method.ANTAGONIST'
p5
aS'Method.AGONIST'
p6
atp7
Rp8
sS'topics'
p9
g3
((lp10
S"(4, u'\\\\btreatment')"
p11
atp12
Rp13
sS'receptors'
p14
g3
((lp15
(S'5ht1b'
p16
I1362
I1368
tp17
a(S'5ht1a'
p18
I1351
I1357
tp19
a(S'5ht2a'
p20
I1497
I1503
tp21
a(S'5ht1a'
p22
I988
I994
tp23
a(S'5ht1b'
p24
I1991
I1997
tp25
a(S'5ht1b'
p26
I1290
I1296
tp27
a(S'5ht1a'
p28
I750
I756
tp29
a(S'5ht4'
p30
I1589
I1594
tp31
a(S'5ht1b'
p32
I1114
I1120
tp33
a(S'5ht3'
p34
I1543
I1548
tp35
a(S'5ht2c'
p36
I1497
I1505
tp37
a(S'5ht1a'
p38
I1981
I1987
tp39
atp40
Rp41
sS'raw_text_methods'
p42
g3
((lp43
S"(53, u'\\\\bketanserin')"
p44
aS"(15, u'\\\\b8ohdpat')"
p45
aS"(20, u'\\\\bondansetron')"
p46
aS"(13, u'\\\\bagonist')"
p47
aS"(6, u'\\\\bgr127935')"
p48
aS"(51, u'\\\\bway100635')"
p49
aS"(45, u'\\\\bmetergoline')"
p50
aS"(39, u'\\\\bselective serotonin reuptake inhibitor')"
p51
aS"(12, u'\\\\bantagonist')"
p52
atp53
Rp54
sS'regions'
p55
g3
((lp56
tp57
Rp58
sS'year'
p59
V2001
p60
sS'species'
p61
g3
((lp62
S"(1, u'(?i)\\\\b(mice|mouse)\\\\b')"
p63
atp64
Rp65
sb.