(ifile_types
ParseObject
p0
(dp1
S'methods'
p2
c__builtin__
set
p3
((lp4
S'Method.AGONIST'
p5
atp6
Rp7
sS'topics'
p8
g3
((lp9
S"(12, u'\\\\bsleep')"
p10
aS"(26, u'\\\\bbehav')"
p11
aS"(16, u'\\\\blearning')"
p12
aS"(15, u'\\\\bmemory')"
p13
atp14
Rp15
sS'receptors'
p16
g3
((lp17
(S'5ht2a'
p18
I1112
I1118
tp19
a(S'5ht1a'
p20
I1101
I1107
tp21
a(S'5ht1a'
p22
I1468
I1474
tp23
a(S'5ht2c'
p24
I1112
I1119
tp25
atp26
Rp27
sS'raw_text_methods'
p28
g3
((lp29
S"(13, u'\\\\bagonist')"
p30
atp31
Rp32
sS'regions'
p33
g3
((lp34
S"(4, u'(?i)\\\\b(presynaptics|presynaptic)\\\\b')"
p35
atp36
Rp37
sS'year'
p38
V2016
p39
sS'species'
p40
g3
((lp41
S"(1, u'(?i)\\\\b(mice|mouse)\\\\b')"
p42
aS"(5, u'(?i)\\\\b(mices|mice)\\\\b')"
p43
atp44
Rp45
sb.