(ifile_types
ParseObject
p0
(dp1
S'antagonists'
p2
c__builtin__
set
p3
((lp4
tp5
Rp6
sS'methods'
p7
g3
((lp8
S'Method.KNOCKOUT'
p9
aS'Method.ANTAGONIST'
p10
aS'Method.AGONIST'
p11
atp12
Rp13
sS'topics'
p14
g3
((lp15
S"(11, u'\\\\banxiolyt')"
p16
atp17
Rp18
sS'receptors'
p19
g3
((lp20
S'5ht5'
p21
aS'5ht5d'
p22
aS'5ht1a'
p23
aS'5ht1d'
p24
atp25
Rp26
sS'regions'
p27
g3
((lp28
tp29
Rp30
sS'year'
p31
V2011
p32
sS'agonists'
p33
g3
((lp34
tp35
Rp36
sS'species'
p37
g3
((lp38
S"(1961, u'(?i)(pens|pen)')"
p39
aS"(163, u'(?i)(mice|mouse)')"
p40
aS"(1055, u'(?i)(men|man)')"
p41
aS"(6249, u'(?i)(ants|ant)')"
p42
aS"(107, u'(?i)(stags|stag)')"
p43
atp44
Rp45
sb.