(ifile_types
ParseObject
p0
(dp1
S'methods'
p2
c__builtin__
set
p3
((lp4
tp5
Rp6
sS'topics'
p7
g3
((lp8
S"(24, u'\\\\banxiolytic')"
p9
aS"(25, u'\\\\bsocial')"
p10
aS"(2, u'\\\\bdisorder')"
p11
aS"(5, u'\\\\btherap')"
p12
aS"(8, u'\\\\banxi')"
p13
aS"(4, u'\\\\btreatment')"
p14
aS"(3, u'\\\\bclinical')"
p15
atp16
Rp17
sS'receptors'
p18
g3
((lp19
(S'5ht2c'
p20
I588
I594
tp21
a(S'5ht2a'
p22
I1010
I1016
tp23
a(S'5ht2c'
p24
I748
I754
tp25
atp26
Rp27
sS'raw_text_methods'
p28
g3
((lp29
S"(38, u'\\\\bssri')"
p30
aS"(39, u'\\\\bselective serotonin reuptake inhibitor')"
p31
atp32
Rp33
sS'regions'
p34
g3
((lp35
S"(12, u'(?i)\\\\b(amygdalas|amygdala)\\\\b')"
p36
atp37
Rp38
sS'year'
p39
V2006
p40
sS'species'
p41
g3
((lp42
tp43
Rp44
sb.