(ifile_types
ParseObject
p0
(dp1
S'methods'
p2
c__builtin__
set
p3
((lp4
S'Method.AGONIST'
p5
atp6
Rp7
sS'topics'
p8
g3
((lp9
S"(7, u'\\\\bdepressi')"
p10
aS"(2, u'\\\\bdisorder')"
p11
atp12
Rp13
sS'receptors'
p14
g3
((lp15
(S'5ht2a'
p16
I356
I362
tp17
a(S'5ht2'
p18
I601
I606
tp19
a(S'5ht2a'
p20
I113
I118
tp21
a(S'5ht2c'
p22
I113
I120
tp23
a(S'5ht2c'
p24
I2389
I2395
tp25
a(S'5ht2c'
p26
I356
I364
tp27
a(S'5ht2a'
p28
I2352
I2358
tp29
atp30
Rp31
sS'raw_text_methods'
p32
g3
((lp33
S"(13, u'\\\\bagonist')"
p34
aS"(2, u'\\\\blabeling')"
p35
aS"(18, u'\\\\bimaging')"
p36
aS"(49, u'\\\\bdoi')"
p37
aS"(53, u'\\\\bketanserin')"
p38
atp39
Rp40
sS'regions'
p41
g3
((lp42
S"(19, u'(?i)\\\\b(cortexes|cortex)\\\\b')"
p43
aS"(9, u'(?i)\\\\b(cerebellums|cerebellum)\\\\b')"
p44
atp45
Rp46
sS'year'
p47
V2002
p48
sS'species'
p49
g3
((lp50
S"(6, u'(?i)\\\\b(rodents|rodent)\\\\b')"
p51
aS"(8, u'(?i)\\\\b(primates|primate)\\\\b')"
p52
atp53
Rp54
sb.