(ifile_types
ParseObject
p0
(dp1
S'antagonists'
p2
c__builtin__
set
p3
((lp4
S"(130, u'\\\\bzacopride')"
p5
aS"(91, u'\\\\bfluoxetine')"
p6
atp7
Rp8
sS'methods'
p9
g3
((lp10
tp11
Rp12
sS'topics'
p13
g3
((lp14
tp15
Rp16
sS'receptors'
p17
g3
((lp18
S'5ht4'
p19
atp20
Rp21
sS'regions'
p22
g3
((lp23
S"(220, u'(?i)\\\\b(striatums|striatum)\\\\b')"
p24
atp25
Rp26
sS'year'
p27
V2009
p28
sS'agonists'
p29
g3
((lp30
S"(208, u'\\\\bzacopride')"
p31
atp32
Rp33
sS'species'
p34
g3
((lp35
S"(5958, u'(?i)\\\\b(rats|rat)\\\\b')"
p36
atp37
Rp38
sb.