(ifile_types
ParseObject
p0
(dp1
S'antagonists'
p2
c__builtin__
set
p3
((lp4
S"(209, u'\\\\btfmpp')"
p5
aS"(32, u'\\\\bway ?100635')"
p6
aS"(54, u'\\\\britanserin')"
p7
aS"(130, u'\\\\britanserin')"
p8
atp9
Rp10
sS'methods'
p11
g3
((lp12
S'Method.STIMULATION'
p13
aS'Method.KNOCKOUT'
p14
aS'Method.ANTAGONIST'
p15
aS'Method.AGONIST'
p16
atp17
Rp18
sS'topics'
p19
g3
((lp20
tp21
Rp22
sS'receptors'
p23
g3
((lp24
S'5ht7'
p25
aS'5ht1b'
p26
aS'5ht5'
p27
aS'5ht1a'
p28
aS'5ht2'
p29
atp30
Rp31
sS'regions'
p32
g3
((lp33
S"(158, u'(?i)(suprachiasmatics|suprachiasmatic)(-|\\\\s+)?(nuclei|nucleus)')"
p34
aS"(126, u'(?i)(thalamuses|thalamus)')"
p35
aS"(359, u'(?i)(retinohypothalamics|retinohypothalamic)(-|\\\\s+)?(tracts|tract)')"
p36
aS"(34, u'(?i)(pon|pons)')"
p37
atp38
Rp39
sS'year'
p40
V2001
p41
sS'agonists'
p42
g3
((lp43
S"(92, u'\\\\b8 ?oh ?dpat')"
p44
aS"(183, u'\\\\btfmpp')"
p45
atp46
Rp47
sS'species'
p48
g3
((lp49
S"(5967, u'(?i)(males|male)')"
p50
aS"(1686, u'(?i)(gibs|gib)')"
p51
aS"(7094, u'(?i)(curs|cur)')"
p52
aS"(3812, u'(?i)(studs|stud)')"
p53
aS"(4099, u'(?i)(hamsters|hamster)')"
p54
aS"(5958, u'(?i)(rats|rat)')"
p55
aS"(6356, u'(?i)(ais|ai)')"
p56
aS"(7539, u'(?i)(mammals|mammal)')"
p57
aS"(1725, u'(?i)(clams|clam)')"
p58
aS"(468, u'(?i)(oxen|ox)')"
p59
aS"(5743, u'(?i)(bots|bot)')"
p60
aS"(3550, u'(?i)(anis|ani)')"
p61
aS"(3522, u'(?i)(tetras|tetra)')"
p62
aS"(821, u'(?i)(lice|louse)')"
p63
aS"(6249, u'(?i)(ants|ant)')"
p64
aS"(163, u'(?i)(mice|mouse)')"
p65
aS"(6682, u'(?i)(tera|teras)')"
p66
aS"(7540, u'(?i)(mammalians|mammalian)')"
p67
aS"(853, u'(?i)(minas|mina)')"
p68
aS"(2568, u'(?i)(hens|hen)')"
p69
aS"(4979, u'(?i)(cats|cat)')"
p70
aS"(3726, u'(?i)(mates|mate)')"
p71
aS"(4964, u'(?i)(serins|serin)')"
p72
atp73
Rp74
sb.