(ifile_types
ParseObject
p0
(dp1
S'antagonists'
p2
c__builtin__
set
p3
((lp4
S"(53, u'\\\\bketanserin')"
p5
aS"(32, u'\\\\bway ?100635')"
p6
aS"(128, u'\\\\bketanserin')"
p7
aS"(102, u'\\\\bfluoxetine')"
p8
atp9
Rp10
sS'methods'
p11
g3
((lp12
S'Method.STAINING'
p13
aS'Method.IMMUNOHISTOCHEMISTRY'
p14
aS'Method.ANTAGONIST'
p15
atp16
Rp17
sS'topics'
p18
g3
((lp19
S"(35, u'\\\\bstress')"
p20
atp21
Rp22
sS'receptors'
p23
g3
((lp24
S'5ht1a'
p25
aS'5ht2a'
p26
atp27
Rp28
sS'regions'
p29
g3
((lp30
S"(34, u'(?i)(pon|pons)')"
p31
atp32
Rp33
sS'year'
p34
V2018
p35
sS'agonists'
p36
g3
((lp37
tp38
Rp39
sS'species'
p40
g3
((lp41
S"(4163, u'(?i)(ermines|ermine)')"
p42
aS"(5958, u'(?i)(rats|rat)')"
p43
aS"(6356, u'(?i)(ais|ai)')"
p44
aS"(7609, u'(?i)(erns|ern)')"
p45
aS"(4657, u'(?i)(fish|fish)')"
p46
aS"(163, u'(?i)(mice|mouse)')"
p47
aS"(479, u'(?i)(lings|ling)')"
p48
aS"(3051, u'(?i)(pigs|pig)')"
p49
aS"(468, u'(?i)(oxen|ox)')"
p50
aS"(1055, u'(?i)(men|man)')"
p51
aS"(6249, u'(?i)(ants|ant)')"
p52
aS"(4964, u'(?i)(serins|serin)')"
p53
aS"(3550, u'(?i)(anis|ani)')"
p54
aS"(4979, u'(?i)(cats|cat)')"
p55
aS"(1014, u'(?i)(zebras|zebra)')"
p56
aS"(6391, u'(?i)(asses|ass)')"
p57
aS"(1683, u'(?i)(terns|tern)')"
p58
atp59
Rp60
sb.