(ifile_types
ParseObject
p0
(dp1
S'antagonists'
p2
c__builtin__
set
p3
((lp4
S"(54, u'\\\\britanserin')"
p5
aS"(27, u'\\\\bspiperone')"
p6
aS"(130, u'\\\\britanserin')"
p7
aS"(117, u'\\\\bmianserin')"
p8
atp9
Rp10
sS'methods'
p11
g3
((lp12
S'Method.ANTAGONIST'
p13
aS'Method.AGONIST'
p14
atp15
Rp16
sS'topics'
p17
g3
((lp18
tp19
Rp20
sS'receptors'
p21
g3
((lp22
S'5ht1c'
p23
aS'5ht5'
p24
aS'5ht1a'
p25
aS'5ht2a'
p26
atp27
Rp28
sS'regions'
p29
g3
((lp30
S"(34, u'(?i)(pon|pons)')"
p31
atp32
Rp33
sS'year'
p34
V1990
p35
sS'agonists'
p36
g3
((lp37
S"(56, u'\\\\blsd')"
p38
aS"(55, u'\\\\blysergic acid diethylamide')"
p39
aS"(172, u'\\\\bmk ?212')"
p40
atp41
Rp42
sS'species'
p43
g3
((lp44
S"(5958, u'(?i)(rats|rat)')"
p45
aS"(4979, u'(?i)(cats|cat)')"
p46
aS"(4163, u'(?i)(ermines|ermine)')"
p47
aS"(4964, u'(?i)(serins|serin)')"
p48
aS"(6249, u'(?i)(ants|ant)')"
p49
aS"(1961, u'(?i)(pens|pen)')"
p50
aS"(3812, u'(?i)(studs|stud)')"
p51
aS"(6356, u'(?i)(ais|ai)')"
p52
atp53
Rp54
sb.