(ifile_types
ParseObject
p0
(dp1
S'antagonists'
p2
c__builtin__
set
p3
((lp4
tp5
Rp6
sS'methods'
p7
g3
((lp8
tp9
Rp10
sS'topics'
p11
g3
((lp12
S"(9, u'\\\\bdepress')"
p13
aS"(10, u'\\\\banxiety')"
p14
aS"(1, u'\\\\bmood')"
p15
atp16
Rp17
sS'receptors'
p18
g3
((lp19
S'5ht5'
p20
atp21
Rp22
sS'regions'
p23
g3
((lp24
tp25
Rp26
sS'year'
p27
V2015
p28
sS'agonists'
p29
g3
((lp30
tp31
Rp32
sS'species'
p33
g3
((lp34
S"(1070, u'(?i)(pets|pet)')"
p35
aS"(5799, u'(?i)(rodents|rodent)')"
p36
aS"(5958, u'(?i)(rats|rat)')"
p37
aS"(867, u'(?i)(tits|tit)')"
p38
aS"(163, u'(?i)(mice|mouse)')"
p39
aS"(7539, u'(?i)(mammals|mammal)')"
p40
aS"(6682, u'(?i)(tera|teras)')"
p41
aS"(468, u'(?i)(oxen|ox)')"
p42
aS"(3404, u'(?i)(titis|titi)')"
p43
aS"(6249, u'(?i)(ants|ant)')"
p44
aS"(1055, u'(?i)(men|man)')"
p45
aS"(4979, u'(?i)(cats|cat)')"
p46
aS"(3550, u'(?i)(anis|ani)')"
p47
aS"(7540, u'(?i)(mammalians|mammalian)')"
p48
aS"(4371, u'(?i)(lizas|liza)')"
p49
aS"(3722, u'(?i)(pups|pup)')"
p50
aS"(6391, u'(?i)(asses|ass)')"
p51
aS"(6356, u'(?i)(ais|ai)')"
p52
atp53
Rp54
sb.