(ifile_types
ParseObject
p0
(dp1
S'methods'
p2
c__builtin__
set
p3
((lp4
S'Method.ANTAGONIST'
p5
aS'Method.AGONIST'
p6
atp7
Rp8
sS'topics'
p9
g3
((lp10
S"(14, u'\\\\bcogniti')"
p11
aS"(26, u'\\\\bbehav')"
p12
aS"(4, u'\\\\btreatment')"
p13
atp14
Rp15
sS'receptors'
p16
g3
((lp17
(S'5ht7'
p18
I72
I77
tp19
a(S'5ht1a'
p20
I1065
I1071
tp21
a(S'5ht7'
p22
I229
I236
tp23
a(S'5ht7'
p24
I562
I567
tp25
a(S'5ht1a'
p26
I435
I441
tp27
a(S'5ht1a'
p28
I229
I235
tp29
a(S'5ht7'
p30
I1301
I1306
tp31
a(S'5ht1a'
p32
I552
I558
tp33
a(S'5ht7'
p34
I1153
I1158
tp35
a(S'5ht7'
p36
I1434
I1439
tp37
a(S'5ht7'
p38
I1357
I1362
tp39
a(S'5ht1a'
p40
I1314
I1320
tp41
a(S'5ht1a'
p42
I61
I67
tp43
a(S'5ht7'
p44
I445
I450
tp45
atp46
Rp47
sS'raw_text_methods'
p48
g3
((lp49
S"(13, u'\\\\bagonist')"
p50
aS"(15, u'\\\\b8ohdpat')"
p51
aS"(12, u'\\\\bantagonist')"
p52
atp53
Rp54
sS'regions'
p55
g3
((lp56
tp57
Rp58
sS'year'
p59
V2012
p60
sS'species'
p61
g3
((lp62
tp63
Rp64
sb.