(ifile_types
ParseObject
p0
(dp1
S'methods'
p2
c__builtin__
set
p3
((lp4
S'Method.PET'
p5
atp6
Rp7
sS'topics'
p8
g3
((lp9
S"(7, u'\\\\bdepressi')"
p10
aS"(4, u'\\\\btreatment')"
p11
atp12
Rp13
sS'receptors'
p14
g3
((lp15
(S'5ht2'
p16
I504
I508
tp17
a(S'5ht2a'
p18
I488
I493
tp19
a(S'5ht2'
p20
I1278
I1282
tp21
a(S'5ht2'
p22
I675
I679
tp23
a(S'5ht2a'
p24
I138
I143
tp25
a(S'5ht2a'
p26
I307
I313
tp27
atp28
Rp29
sS'raw_text_methods'
p30
g3
((lp31
S"(17, u'\\\\bpet')"
p32
aS"(19, u'\\\\bpositron emission tomography')"
p33
aS"(18, u'\\\\bimaging')"
p34
atp35
Rp36
sS'regions'
p37
g3
((lp38
S"(22, u'(?i)\\\\b(anteriors|anterior)(-|\\\\s+)?(cingulates|cingulate)\\\\b')"
p39
atp40
Rp41
sS'year'
p42
V2009
p43
sS'species'
p44
g3
((lp45
tp46
Rp47
sb.