(ifile_types
ParseObject
p0
(dp1
S'methods'
p2
c__builtin__
set
p3
((lp4
S'Method.ANTAGONIST'
p5
atp6
Rp7
sS'topics'
p8
g3
((lp9
S"(22, u'\\\\bschizophreni')"
p10
aS"(26, u'\\\\bbehav')"
p11
aS"(19, u'\\\\bpsychosis')"
p12
aS"(33, u'\\\\blocomot')"
p13
aS"(23, u'\\\\bantipsychotic')"
p14
aS"(4, u'\\\\btreatment')"
p15
atp16
Rp17
sS'receptors'
p18
g3
((lp19
(S'5ht2a'
p20
I3700
I3706
tp21
a(S'5ht2'
p22
I2864
I2869
tp23
a(S'5ht2c'
p24
I3853
I3859
tp25
a(S'5ht2c'
p26
I3700
I3708
tp27
a(S'5ht2a'
p28
I3552
I3558
tp29
a(S'5ht2c'
p30
I3552
I3560
tp31
a(S'5ht2a'
p32
I3842
I3848
tp33
a(S'5ht2'
p34
I453
I458
tp35
atp36
Rp37
sS'raw_text_methods'
p38
g3
((lp39
S"(53, u'\\\\bketanserin')"
p40
aS"(40, u'\\\\bclozapine')"
p41
aS"(12, u'\\\\bantagonist')"
p42
atp43
Rp44
sS'regions'
p45
g3
((lp46
S"(4, u'(?i)\\\\b(presynaptics|presynaptic)\\\\b')"
p47
atp48
Rp49
sS'year'
p50
V2004
p51
sS'species'
p52
g3
((lp53
S"(4, u'(?i)\\\\b(rats|rat)\\\\b')"
p54
atp55
Rp56
sb.