(ifile_types
ParseObject
p0
(dp1
S'antagonists'
p2
c__builtin__
set
p3
((lp4
tp5
Rp6
sS'methods'
p7
g3
((lp8
S'Method.ANTAGONIST'
p9
aS'Method.AGONIST'
p10
atp11
Rp12
sS'topics'
p13
g3
((lp14
S"(12, u'\\\\banxiogen')"
p15
aS"(4, u'\\\\blocomot')"
p16
atp17
Rp18
sS'receptors'
p19
g3
((lp20
S'5ht1b'
p21
aS'5ht1a'
p22
aS'5ht1'
p23
atp24
Rp25
sS'regions'
p26
g3
((lp27
S"(34, u'(?i)(pon|pons)')"
p28
atp29
Rp30
sS'year'
p31
V1995
p32
sS'agonists'
p33
g3
((lp34
S"(92, u'\\\\b8 ?oh ?dpat')"
p35
aS"(107, u'\\\\bcp ?93129')"
p36
atp37
Rp38
sS'species'
p39
g3
((lp40
S"(5537, u'(?i)(hippos|hippo)')"
p41
aS"(5958, u'(?i)(rats|rat)')"
p42
aS"(2389, u'(?i)(spats|spat)')"
p43
aS"(468, u'(?i)(oxen|ox)')"
p44
aS"(1055, u'(?i)(men|man)')"
p45
aS"(6249, u'(?i)(ants|ant)')"
p46
aS"(1349, u'(?i)(rams|ram)')"
p47
aS"(5743, u'(?i)(bots|bot)')"
p48
aS"(3550, u'(?i)(anis|ani)')"
p49
aS"(3522, u'(?i)(tetras|tetra)')"
p50
aS"(7094, u'(?i)(curs|cur)')"
p51
aS"(6356, u'(?i)(ais|ai)')"
p52
atp53
Rp54
sb.