(ifile_types
ParseObject
p0
(dp1
S'antagonists'
p2
c__builtin__
set
p3
((lp4
S"(110, u'\\\\bclozapine')"
p5
aS"(114, u'\\\\bziprasidone')"
p6
aS"(198, u'\\\\bsb ?269970')"
p7
aS"(59, u'\\\\bchlorpromazine')"
p8
aS"(111, u'\\\\bolanzapine')"
p9
aS"(35, u'\\\\baripiprazole')"
p10
aS"(58, u'\\\\bhaloperidol')"
p11
atp12
Rp13
sS'methods'
p14
g3
((lp15
S'Method.ANTAGONIST'
p16
aS'Method.AGONIST'
p17
atp18
Rp19
sS'topics'
p20
g3
((lp21
S"(15, u'\\\\bschizophreni')"
p22
atp23
Rp24
sS'receptors'
p25
g3
((lp26
S'5ht7a'
p27
aS'5ht7'
p28
aS'5ht1a'
p29
atp30
Rp31
sS'regions'
p32
g3
((lp33
S"(126, u'(?i)\\\\b(thalamuses|thalamus)\\\\b')"
p34
atp35
Rp36
sS'year'
p37
V2007
p38
sS'agonists'
p39
g3
((lp40
S"(71, u'\\\\bssr ?181507')"
p41
aS"(57, u'\\\\bolanzapine')"
p42
aS"(74, u'\\\\btiospirone')"
p43
aS"(84, u'\\\\bziprasidone')"
p44
aS"(69, u'\\\\bsarizotan')"
p45
aS"(43, u'\\\\bhaloperidol')"
p46
aS"(223, u'\\\\baripiprazole')"
p47
aS"(23, u'\\\\bclozapine')"
p48
aS"(85, u'\\\\b8 ?oh ?dpat')"
p49
aS"(219, u'\\\\b5 ?ct')"
p50
atp51
Rp52
sS'species'
p53
g3
((lp54
S"(1057, u'(?i)\\\\b(humans|human)\\\\b')"
p55
aS"(3196, u'(?i)\\\\b(human|humans)\\\\b')"
p56
atp57
Rp58
sb.