(ifile_types
ParseObject
p0
(dp1
S'methods'
p2
c__builtin__
set
p3
((lp4
S'Method.ANTAGONIST'
p5
atp6
Rp7
sS'topics'
p8
g3
((lp9
S"(26, u'\\\\bbehav')"
p10
atp11
Rp12
sS'receptors'
p13
g3
((lp14
(S'5ht3'
p15
I49
I54
tp16
a(S'5ht3'
p17
I657
I662
tp18
a(S'5ht3'
p19
I267
I272
tp20
a(S'5ht1'
p21
I184
I189
tp22
a(S'5ht2'
p23
I194
I199
tp24
a(S'5ht3'
p25
I414
I419
tp26
a(S'5ht3'
p27
I1005
I1010
tp28
a(S'5ht3'
p29
I729
I734
tp30
atp31
Rp32
sS'raw_text_methods'
p33
g3
((lp34
S"(20, u'\\\\bondansetron')"
p35
aS"(23, u'\\\\bmdl')"
p36
aS"(12, u'\\\\bantagonist')"
p37
atp38
Rp39
sS'regions'
p40
g3
((lp41
tp42
Rp43
sS'year'
p44
V1993
p45
sS'species'
p46
g3
((lp47
S"(2, u'(?i)\\\\b(females|female)\\\\b')"
p48
aS"(3, u'(?i)\\\\b(males|male)\\\\b')"
p49
aS"(4, u'(?i)\\\\b(rats|rat)\\\\b')"
p50
atp51
Rp52
sb.