(ifile_types
ParseObject
p0
(dp1
S'antagonists'
p2
c__builtin__
set
p3
((lp4
S"(54, u'\\\\britanserin')"
p5
aS"(130, u'\\\\britanserin')"
p6
aS"(117, u'\\\\bmianserin')"
p7
atp8
Rp9
sS'methods'
p10
g3
((lp11
S'Method.ANTAGONIST'
p12
atp13
Rp14
sS'topics'
p15
g3
((lp16
S"(10, u'\\\\banxiety')"
p17
atp18
Rp19
sS'receptors'
p20
g3
((lp21
S'5ht1c'
p22
aS'5ht1b'
p23
aS'5ht1a'
p24
aS'5ht3'
p25
aS'5ht2'
p26
aS'5ht1d'
p27
atp28
Rp29
sS'regions'
p30
g3
((lp31
S"(34, u'(?i)(pon|pons)')"
p32
atp33
Rp34
sS'year'
p35
V1989
p36
sS'agonists'
p37
g3
((lp38
S"(24, u'\\\\bbuspirone')"
p39
atp40
Rp41
sS'species'
p42
g3
((lp43
S"(2568, u'(?i)(hens|hen)')"
p44
aS"(5958, u'(?i)(rats|rat)')"
p45
aS"(4979, u'(?i)(cats|cat)')"
p46
aS"(6682, u'(?i)(tera|teras)')"
p47
aS"(81, u'(?i)(asps|asp)')"
p48
aS"(468, u'(?i)(oxen|ox)')"
p49
aS"(6249, u'(?i)(ants|ant)')"
p50
aS"(4964, u'(?i)(serins|serin)')"
p51
aS"(3550, u'(?i)(anis|ani)')"
p52
aS"(3522, u'(?i)(tetras|tetra)')"
p53
aS"(3812, u'(?i)(studs|stud)')"
p54
aS"(6356, u'(?i)(ais|ai)')"
p55
atp56
Rp57
sb.