(ifile_types
ParseObject
p0
(dp1
S'methods'
p2
c__builtin__
set
p3
((lp4
S'Method.PET'
p5
atp6
Rp7
sS'topics'
p8
g3
((lp9
S"(3, u'\\\\bclinical')"
p10
atp11
Rp12
sS'receptors'
p13
g3
((lp14
(S'5ht1a'
p15
I353
I364
tp16
a(S'5ht1a'
p17
I896
I902
tp18
a(S'5ht1a'
p19
I367
I373
tp20
a(S'5ht1a'
p21
I82
I88
tp22
atp23
Rp24
sS'raw_text_methods'
p25
g3
((lp26
S"(17, u'\\\\bpet')"
p27
atp28
Rp29
sS'regions'
p30
g3
((lp31
S"(11, u'(?i)\\\\b(cerebrals|cerebral)\\\\b')"
p32
aS"(9, u'(?i)\\\\b(cerebellums|cerebellum)\\\\b')"
p33
atp34
Rp35
sS'year'
p36
V2003
p37
sS'species'
p38
g3
((lp39
S"(4, u'(?i)\\\\b(rats|rat)\\\\b')"
p40
atp41
Rp42
sb.