(ifile_types
ParseObject
p0
(dp1
S'methods'
p2
c__builtin__
set
p3
((lp4
tp5
Rp6
sS'topics'
p7
g3
((lp8
S"(26, u'\\\\bbehav')"
p9
atp10
Rp11
sS'receptors'
p12
g3
((lp13
(S'5ht6'
p14
I493
I498
tp15
a(S'5ht6'
p16
I229
I234
tp17
a(S'5ht6'
p18
I808
I813
tp19
a(S'5ht6'
p20
I206
I216
tp21
a(S'5ht6'
p22
I401
I406
tp23
a(S'5ht6'
p24
I56
I66
tp25
a(S'5ht6'
p26
I639
I644
tp27
a(S'5ht6'
p28
I853
I858
tp29
atp30
Rp31
sS'raw_text_methods'
p32
g3
((lp33
tp34
Rp35
sS'regions'
p36
g3
((lp37
tp38
Rp39
sS'year'
p40
V2006
p41
sS'species'
p42
g3
((lp43
S"(1, u'(?i)\\\\b(mice|mouse)\\\\b')"
p44
aS"(5, u'(?i)\\\\b(mices|mice)\\\\b')"
p45
atp46
Rp47
sb.