(ifile_types
ParseObject
p0
(dp1
S'methods'
p2
c__builtin__
set
p3
((lp4
S'Method.ANTAGONIST'
p5
aS'Method.AGONIST'
p6
atp7
Rp8
sS'topics'
p9
g3
((lp10
tp11
Rp12
sS'receptors'
p13
g3
((lp14
(S'5ht3'
p15
I1466
I1471
tp16
a(S'5ht7'
p17
I1168
I1173
tp18
a(S'5ht7'
p19
I1772
I1777
tp20
a(S'5ht6'
p21
I1614
I1619
tp22
a(S'5ht6'
p23
I1763
I1768
tp24
a(S'5ht3'
p25
I573
I578
tp26
a(S'5ht7'
p27
I1708
I1713
tp28
a(S'5ht6'
p29
I121
I126
tp30
a(S'5ht2c'
p31
I1416
I1422
tp32
a(S'5ht2c'
p33
I1149
I1155
tp34
a(S'5ht7'
p35
I132
I137
tp36
a(S'5ht3'
p37
I562
I572
tp38
a(S'5ht2c'
p39
I112
I118
tp40
a(S'5ht6'
p41
I1157
I1162
tp42
a(S'5ht4'
p43
I1476
I1481
tp44
a(S'5ht2'
p45
I1309
I1314
tp46
a(S'5ht7'
p47
I1624
I1629
tp48
atp49
Rp50
sS'raw_text_methods'
p51
g3
((lp52
S"(13, u'\\\\bagonist')"
p53
aS"(53, u'\\\\bketanserin')"
p54
aS"(34, u'\\\\b5ct')"
p55
aS"(12, u'\\\\bantagonist')"
p56
atp57
Rp58
sS'regions'
p59
g3
((lp60
tp61
Rp62
sS'year'
p63
V2007
p64
sS'species'
p65
g3
((lp66
S"(4, u'(?i)\\\\b(rats|rat)\\\\b')"
p67
atp68
Rp69
sb.