(ifile_types
ParseObject
p0
(dp1
S'methods'
p2
c__builtin__
set
p3
((lp4
tp5
Rp6
sS'topics'
p7
g3
((lp8
S"(4, u'\\\\btreatment')"
p9
atp10
Rp11
sS'receptors'
p12
g3
((lp13
(S'5ht1a'
p14
I1591
I1597
tp15
a(S'5ht1a'
p16
I1164
I1170
tp17
a(S'5ht1a'
p18
I976
I982
tp19
a(S'5ht1a'
p20
I335
I341
tp21
a(S'5ht1a'
p22
I66
I72
tp23
a(S'5ht1a'
p24
I477
I483
tp25
a(S'5ht1a'
p26
I1519
I1525
tp27
atp28
Rp29
sS'raw_text_methods'
p30
g3
((lp31
tp32
Rp33
sS'regions'
p34
g3
((lp35
tp36
Rp37
sS'year'
p38
V2000
p39
sS'species'
p40
g3
((lp41
S"(4, u'(?i)\\\\b(rats|rat)\\\\b')"
p42
atp43
Rp44
sb.