(ifile_types
ParseObject
p0
(dp1
S'methods'
p2
c__builtin__
set
p3
((lp4
S'Method.STIMULATION'
p5
atp6
Rp7
sS'topics'
p8
g3
((lp9
tp10
Rp11
sS'receptors'
p12
g3
((lp13
(S'5ht4'
p14
I75
I80
tp15
a(S'5ht1b'
p16
I1273
I1279
tp17
a(S'5ht1a'
p18
I641
I647
tp19
a(S'5ht1a'
p20
I60
I66
tp21
a(S'5ht4'
p22
I404
I409
tp23
a(S'5ht4'
p24
I1108
I1113
tp25
a(S'5ht1a'
p26
I1147
I1153
tp27
a(S'5ht1a'
p28
I1640
I1646
tp29
a(S'5ht1a'
p30
I393
I399
tp31
atp32
Rp33
sS'raw_text_methods'
p34
g3
((lp35
S"(15, u'\\\\b8ohdpat')"
p36
aS"(54, u'\\\\bautoradiography')"
p37
aS"(51, u'\\\\bway100635')"
p38
atp39
Rp40
sS'regions'
p41
g3
((lp42
S"(4, u'(?i)\\\\b(presynaptics|presynaptic)\\\\b')"
p43
atp44
Rp45
sS'year'
p46
V1998
p47
sS'species'
p48
g3
((lp49
S"(4, u'(?i)\\\\b(rats|rat)\\\\b')"
p50
atp51
Rp52
sb.