(ifile_types
ParseObject
p0
(dp1
S'antagonists'
p2
c__builtin__
set
p3
((lp4
tp5
Rp6
sS'methods'
p7
g3
((lp8
S'Method.STIMULATION'
p9
aS'Method.KNOCKOUT'
p10
aS'Method.ANTAGONIST'
p11
aS'Method.AGONIST'
p12
atp13
Rp14
sS'topics'
p15
g3
((lp16
S"(21, u'\\\\bpain')"
p17
aS"(9, u'\\\\bdepress')"
p18
aS"(10, u'\\\\banxiety')"
p19
aS"(7, u'\\\\bmemory')"
p20
atp21
Rp22
sS'receptors'
p23
g3
((lp24
S'5ht7'
p25
atp26
Rp27
sS'regions'
p28
g3
((lp29
tp30
Rp31
sS'year'
p32
V2007
p33
sS'agonists'
p34
g3
((lp35
S"(155, u'\\\\bmem')"
p36
atp37
Rp38
sS'species'
p39
g3
((lp40
S"(2323, u'(?i)(bees|bee)')"
p41
aS"(6753, u'(?i)(da|das)')"
p42
aS"(2568, u'(?i)(hens|hen)')"
p43
aS"(931, u'(?i)(divers|diver)')"
p44
aS"(867, u'(?i)(tits|tit)')"
p45
aS"(163, u'(?i)(mice|mouse)')"
p46
aS"(4371, u'(?i)(lizas|liza)')"
p47
aS"(81, u'(?i)(asps|asp)')"
p48
aS"(1055, u'(?i)(men|man)')"
p49
aS"(3726, u'(?i)(mates|mate)')"
p50
aS"(6356, u'(?i)(ais|ai)')"
p51
aS"(3550, u'(?i)(anis|ani)')"
p52
aS"(3522, u'(?i)(tetras|tetra)')"
p53
aS"(5958, u'(?i)(rats|rat)')"
p54
aS"(1961, u'(?i)(pens|pen)')"
p55
aS"(3812, u'(?i)(studs|stud)')"
p56
aS"(6391, u'(?i)(asses|ass)')"
p57
aS"(6249, u'(?i)(ants|ant)')"
p58
atp59
Rp60
sb.