(ifile_types
ParseObject
p0
(dp1
S'methods'
p2
c__builtin__
set
p3
((lp4
S'Method.AGONIST'
p5
aS'Method.IMMUNOHISTOCHEMISTRY'
p6
aS'Method.ANTAGONIST'
p7
atp8
Rp9
sS'topics'
p10
g3
((lp11
S"(23, u'\\\\bantipsychotic')"
p12
atp13
Rp14
sS'receptors'
p15
g3
((lp16
(S'5ht2a'
p17
I118
I124
tp18
atp19
Rp20
sS'raw_text_methods'
p21
g3
((lp22
S"(41, u'\\\\bhaloperidol')"
p23
aS"(40, u'\\\\bclozapine')"
p24
aS"(13, u'\\\\bagonist')"
p25
aS"(49, u'\\\\bdoi')"
p26
aS"(44, u'\\\\btetrodotoxin')"
p27
aS"(50, u'\\\\bm100907')"
p28
aS"(12, u'\\\\bantagonist')"
p29
atp30
Rp31
sS'regions'
p32
g3
((lp33
S"(20, u'(?i)\\\\b(prefrontals|prefrontal)\\\\b')"
p34
aS"(19, u'(?i)\\\\b(cortexes|cortex)\\\\b')"
p35
aS"(3, u'(?i)\\\\b(postsynaptics|postsynaptic)\\\\b')"
p36
atp37
Rp38
sS'year'
p39
V2003
p40
sS'species'
p41
g3
((lp42
S"(1, u'(?i)\\\\b(mice|mouse)\\\\b')"
p43
aS"(4, u'(?i)\\\\b(rats|rat)\\\\b')"
p44
atp45
Rp46
sb.