(ifile_types
ParseObject
p0
(dp1
S'antagonists'
p2
c__builtin__
set
p3
((lp4
S"(99, u'\\\\bsb ?242084')"
p5
atp6
Rp7
sS'methods'
p8
g3
((lp9
S'Method.ANTAGONIST'
p10
aS'Method.AGONIST'
p11
atp12
Rp13
sS'topics'
p14
g3
((lp15
S"(8, u'\\\\blearning')"
p16
aS"(6, u'\\\\bcognit')"
p17
aS"(35, u'\\\\bstress')"
p18
aS"(9, u'\\\\bdepress')"
p19
aS"(16, u'\\\\bfeed')"
p20
atp21
Rp22
sS'receptors'
p23
g3
((lp24
S'5ht2c'
p25
atp26
Rp27
sS'regions'
p28
g3
((lp29
tp30
Rp31
sS'year'
p32
V2018
p33
sS'agonists'
p34
g3
((lp35
S"(183, u'\\\\bway ?163909')"
p36
atp37
Rp38
sS'species'
p39
g3
((lp40
S"(163, u'(?i)\\\\b(mice|mouse)\\\\b')"
p41
atp42
Rp43
sb.