(ifile_types
ParseObject
p0
(dp1
S'antagonists'
p2
c__builtin__
set
p3
((lp4
S"(124, u'\\\\bondansetron')"
p5
aS"(123, u'\\\\bgranisetron')"
p6
aS"(125, u'\\\\btropisetron')"
p7
aS"(117, u'\\\\bketanserin')"
p8
atp9
Rp10
sS'methods'
p11
g3
((lp12
S'Method.ANTAGONIST'
p13
aS'Method.AGONIST'
p14
atp15
Rp16
sS'topics'
p17
g3
((lp18
tp19
Rp20
sS'receptors'
p21
g3
((lp22
S'5ht3'
p23
aS'5ht2'
p24
aS'5ht1'
p25
atp26
Rp27
sS'regions'
p28
g3
((lp29
S"(227, u'(?i)\\\\b(olfactories|olfactory)(-|\\\\s+)?(tubercles|tubercle)\\\\b')"
p30
atp31
Rp32
sS'year'
p33
V1994
p34
sS'agonists'
p35
g3
((lp36
S"(186, u'\\\\b2 ?methyl ?5 ?ht')"
p37
atp38
Rp39
sS'species'
p40
g3
((lp41
S"(6753, u'(?i)\\\\b(da|das)\\\\b')"
p42
aS"(5958, u'(?i)\\\\b(rats|rat)\\\\b')"
p43
atp44
Rp45
sb.