(ifile_types
ParseObject
p0
(dp1
S'antagonists'
p2
c__builtin__
set
p3
((lp4
S"(13, u'\\\\bmefway')"
p5
aS"(31, u'\\\\bway ?100635')"
p6
atp7
Rp8
sS'methods'
p9
g3
((lp10
S'Method.PET'
p11
atp12
Rp13
sS'topics'
p14
g3
((lp15
S"(1, u'\\\\bmood')"
p16
atp17
Rp18
sS'receptors'
p19
g3
((lp20
S'5ht1a'
p21
atp22
Rp23
sS'regions'
p24
g3
((lp25
S"(236, u'(?i)\\\\b(septals|septal)(-|\\\\s+)?(nuclei|nucleus)\\\\b')"
p26
aS"(71, u'(?i)\\\\b(cerebellums|cerebellum)\\\\b')"
p27
aS"(291, u'(?i)\\\\b(cingulates|cingulate)(-|\\\\s+)?(cortexes|cortex)\\\\b')"
p28
aS"(318, u'(?i)\\\\b(raphes|raphe)(-|\\\\s+)?(nuclei|nucleus)\\\\b')"
p29
aS"(292, u'(?i)\\\\b(anteriors|anterior)(-|\\\\s+)?(cingulates|cingulate)\\\\b')"
p30
aS"(94, u'(?i)\\\\b(dorsals|dorsal)(-|\\\\s+)?(raphes|raphe)(-|\\\\s+)?(nuclei|nucleus)\\\\b')"
p31
atp32
Rp33
sS'year'
p34
V2013
p35
sS'agonists'
p36
g3
((lp37
tp38
Rp39
sS'species'
p40
g3
((lp41
S"(5799, u'(?i)\\\\b(rodents|rodent)\\\\b')"
p42
aS"(163, u'(?i)\\\\b(mice|mouse)\\\\b')"
p43
aS"(1070, u'(?i)\\\\b(pets|pet)\\\\b')"
p44
aS"(5958, u'(?i)\\\\b(rats|rat)\\\\b')"
p45
atp46
Rp47
sb.