(ifile_types
ParseObject
p0
(dp1
S'antagonists'
p2
c__builtin__
set
p3
((lp4
S"(53, u'\\\\bketanserin')"
p5
aS"(128, u'\\\\bketanserin')"
p6
aS"(14, u'\\\\bmethiothepin')"
p7
aS"(105, u'\\\\bmethysergide')"
p8
atp9
Rp10
sS'methods'
p11
g3
((lp12
S'Method.ANTAGONIST'
p13
atp14
Rp15
sS'topics'
p16
g3
((lp17
S"(6, u'\\\\bcognit')"
p18
aS"(7, u'\\\\bmemory')"
p19
atp20
Rp21
sS'receptors'
p22
g3
((lp23
S'5ht5'
p24
aS'5ht4'
p25
aS'5ht3'
p26
aS'5ht1a'
p27
aS'5ht2a'
p28
atp29
Rp30
sS'regions'
p31
g3
((lp32
tp33
Rp34
sS'year'
p35
V1997
p36
sS'agonists'
p37
g3
((lp38
S"(155, u'\\\\bmem')"
p39
aS"(60, u'\\\\bmethysergide')"
p40
atp41
Rp42
sS'species'
p43
g3
((lp44
S"(6753, u'(?i)(da|das)')"
p45
aS"(5958, u'(?i)(rats|rat)')"
p46
aS"(6356, u'(?i)(ais|ai)')"
p47
aS"(7609, u'(?i)(erns|ern)')"
p48
aS"(4201, u'(?i)(kines|kine)')"
p49
aS"(7127, u'(?i)(monitors|monitor)')"
p50
aS"(1055, u'(?i)(men|man)')"
p51
aS"(7094, u'(?i)(curs|cur)')"
p52
aS"(853, u'(?i)(minas|mina)')"
p53
aS"(6249, u'(?i)(ants|ant)')"
p54
aS"(7058, u'(?i)(does|doe)')"
p55
aS"(1961, u'(?i)(pens|pen)')"
p56
aS"(3812, u'(?i)(studs|stud)')"
p57
aS"(6391, u'(?i)(asses|ass)')"
p58
aS"(1683, u'(?i)(terns|tern)')"
p59
aS"(4964, u'(?i)(serins|serin)')"
p60
atp61
Rp62
sb.