(ifile_types
ParseObject
p0
(dp1
S'methods'
p2
c__builtin__
set
p3
((lp4
S'Method.PET'
p5
aS'Method.ANTAGONIST'
p6
atp7
Rp8
sS'topics'
p9
g3
((lp10
S"(1, u'\\\\bpatient')"
p11
aS"(7, u'\\\\bdepressi')"
p12
aS"(20, u'\\\\bmood')"
p13
aS"(2, u'\\\\bdisorder')"
p14
atp15
Rp16
sS'receptors'
p17
g3
((lp18
(S'5ht1a'
p19
I632
I637
tp20
a(S'5ht1a'
p21
I53
I58
tp22
a(S'5ht1a'
p23
I1330
I1335
tp24
a(S'5ht1a'
p25
I200
I205
tp26
a(S'5ht1a'
p27
I348
I353
tp28
atp29
Rp30
sS'raw_text_methods'
p31
g3
((lp32
S"(17, u'\\\\bpet')"
p33
aS"(12, u'\\\\bantagonist')"
p34
atp35
Rp36
sS'regions'
p37
g3
((lp38
tp39
Rp40
sS'year'
p41
V2007
p42
sS'species'
p43
g3
((lp44
tp45
Rp46
sb.