(ifile_types
ParseObject
p0
(dp1
S'antagonists'
p2
c__builtin__
set
p3
((lp4
S"(31, u'\\\\bway ?100135')"
p5
aS"(212, u'\\\\bbromocriptine')"
p6
atp7
Rp8
sS'methods'
p9
g3
((lp10
S'Method.ANTAGONIST'
p11
aS'Method.AGONIST'
p12
atp13
Rp14
sS'topics'
p15
g3
((lp16
tp17
Rp18
sS'receptors'
p19
g3
((lp20
S'5ht1a'
p21
atp22
Rp23
sS'regions'
p24
g3
((lp25
tp26
Rp27
sS'year'
p28
V1998
p29
sS'agonists'
p30
g3
((lp31
S"(181, u'\\\\bdom')"
p32
atp33
Rp34
sS'species'
p35
g3
((lp36
S"(2323, u'(?i)(bees|bee)')"
p37
aS"(5958, u'(?i)(rats|rat)')"
p38
aS"(5743, u'(?i)(bots|bot)')"
p39
aS"(6356, u'(?i)(ais|ai)')"
p40
aS"(6249, u'(?i)(ants|ant)')"
p41
aS"(3812, u'(?i)(studs|stud)')"
p42
atp43
Rp44
sb.