(ifile_types
ParseObject
p0
(dp1
S'antagonists'
p2
c__builtin__
set
p3
((lp4
S"(21, u'\\\\bpindolol')"
p5
aS"(25, u'\\\\bsb ?649915')"
p6
atp7
Rp8
sS'methods'
p9
g3
((lp10
S'Method.ANTAGONIST'
p11
atp12
Rp13
sS'topics'
p14
g3
((lp15
S"(11, u'\\\\banxiolyt')"
p16
aS"(4, u'\\\\blocomot')"
p17
atp18
Rp19
sS'receptors'
p20
g3
((lp21
S'5ht1b'
p22
aS'5ht1a'
p23
atp24
Rp25
sS'regions'
p26
g3
((lp27
tp28
Rp29
sS'year'
p30
V2007
p31
sS'agonists'
p32
g3
((lp33
tp34
Rp35
sS'species'
p36
g3
((lp37
S"(2323, u'(?i)(bees|bee)')"
p38
aS"(5958, u'(?i)(rats|rat)')"
p39
aS"(6753, u'(?i)(da|das)')"
p40
aS"(6391, u'(?i)(asses|ass)')"
p41
aS"(6682, u'(?i)(tera|teras)')"
p42
aS"(5967, u'(?i)(males|male)')"
p43
aS"(468, u'(?i)(oxen|ox)')"
p44
aS"(1055, u'(?i)(men|man)')"
p45
aS"(6981, u'(?i)(moths|moth)')"
p46
aS"(4979, u'(?i)(cats|cat)')"
p47
aS"(6249, u'(?i)(ants|ant)')"
p48
aS"(1057, u'(?i)(humans|human)')"
p49
aS"(4371, u'(?i)(lizas|liza)')"
p50
aS"(3722, u'(?i)(pups|pup)')"
p51
aS"(3196, u'(?i)(human|humans)')"
p52
aS"(6356, u'(?i)(ais|ai)')"
p53
aS"(675, u'(?i)(marmosets|marmoset)')"
p54
atp55
Rp56
sb.