(ifile_types
ParseObject
p0
(dp1
S'methods'
p2
c__builtin__
set
p3
((lp4
S'Method.PET'
p5
atp6
Rp7
sS'topics'
p8
g3
((lp9
S"(6, u'\\\\baggressi')"
p10
aS"(7, u'\\\\bdepressi')"
p11
aS"(26, u'\\\\bbehav')"
p12
aS"(20, u'\\\\bmood')"
p13
aS"(2, u'\\\\bdisorder')"
p14
atp15
Rp16
sS'receptors'
p17
g3
((lp18
(S'5ht2a'
p19
I244
I250
tp20
a(S'5ht2a'
p21
I31
I36
tp22
a(S'5ht2a'
p23
I1569
I1574
tp24
a(S'5ht2a'
p25
I1129
I1134
tp26
a(S'5ht2a'
p27
I883
I888
tp28
a(S'5ht2a'
p29
I529
I534
tp30
atp31
Rp32
sS'raw_text_methods'
p33
g3
((lp34
S"(1, u'\\\\bneuroimag')"
p35
aS"(19, u'\\\\bpositron emission tomography')"
p36
atp37
Rp38
sS'regions'
p39
g3
((lp40
S"(22, u'(?i)\\\\b(anteriors|anterior)(-|\\\\s+)?(cingulates|cingulate)\\\\b')"
p41
aS"(20, u'(?i)\\\\b(prefrontals|prefrontal)\\\\b')"
p42
aS"(19, u'(?i)\\\\b(cortexes|cortex)\\\\b')"
p43
atp44
Rp45
sS'year'
p46
V2007
p47
sS'species'
p48
g3
((lp49
S"(2, u'(?i)\\\\b(females|female)\\\\b')"
p50
atp51
Rp52
sb.