(ifile_types
ParseObject
p0
(dp1
S'antagonists'
p2
c__builtin__
set
p3
((lp4
tp5
Rp6
sS'methods'
p7
g3
((lp8
S'Method.KNOCKOUT'
p9
atp10
Rp11
sS'topics'
p12
g3
((lp13
tp14
Rp15
sS'receptors'
p16
g3
((lp17
S'5ht1b'
p18
atp19
Rp20
sS'regions'
p21
g3
((lp22
S"(34, u'(?i)(pon|pons)')"
p23
atp24
Rp25
sS'year'
p26
V2000
p27
sS'agonists'
p28
g3
((lp29
tp30
Rp31
sS'species'
p32
g3
((lp33
S"(6753, u'(?i)(da|das)')"
p34
aS"(2568, u'(?i)(hens|hen)')"
p35
aS"(4979, u'(?i)(cats|cat)')"
p36
aS"(479, u'(?i)(lings|ling)')"
p37
aS"(163, u'(?i)(mice|mouse)')"
p38
aS"(1055, u'(?i)(men|man)')"
p39
aS"(5743, u'(?i)(bots|bot)')"
p40
aS"(5958, u'(?i)(rats|rat)')"
p41
atp42
Rp43
sb.