(ifile_types
ParseObject
p0
(dp1
S'methods'
p2
c__builtin__
set
p3
((lp4
S'Method.KNOCKOUT'
p5
aS'Method.ANTAGONIST'
p6
atp7
Rp8
sS'topics'
p9
g3
((lp10
tp11
Rp12
sS'receptors'
p13
g3
((lp14
(S'5ht1b'
p15
I234
I242
tp16
a(S'5ht7'
p17
I383
I388
tp18
a(S'5ht7'
p19
I2552
I2557
tp20
a(S'5ht7'
p21
I73
I78
tp22
a(S'5ht7'
p23
I2391
I2396
tp24
a(S'5ht7'
p25
I682
I687
tp26
a(S'5ht1a'
p27
I234
I240
tp28
a(S'5ht1a'
p29
I1874
I1880
tp30
a(S'5ht1a'
p31
I1861
I1867
tp32
a(S'5ht1a'
p33
I212
I218
tp34
a(S'5ht1a'
p35
I1433
I1439
tp36
a(S'5ht1b'
p37
I570
I578
tp38
a(S'5ht1a'
p39
I918
I924
tp40
a(S'5ht1b'
p41
I918
I926
tp42
a(S'5ht1b'
p43
I1433
I1441
tp44
a(S'5ht1a'
p45
I548
I554
tp46
a(S'5ht1d'
p47
I1656
I1662
tp48
a(S'5ht1a'
p49
I570
I576
tp50
a(S'5ht7'
p51
I2305
I2310
tp52
a(S'5ht1b'
p53
I1874
I1882
tp54
a(S'5ht7'
p55
I1215
I1220
tp56
atp57
Rp58
sS'raw_text_methods'
p59
g3
((lp60
S"(15, u'\\\\b8ohdpat')"
p61
aS"(34, u'\\\\b5ct')"
p62
aS"(12, u'\\\\bantagonist')"
p63
atp64
Rp65
sS'regions'
p66
g3
((lp67
S"(15, u'(?i)\\\\b(substantias|substantia)(-|\\\\s+)?(nigras|nigra)\\\\b')"
p68
aS"(19, u'(?i)\\\\b(cortexes|cortex)\\\\b')"
p69
aS"(13, u'(?i)\\\\b(septums|septum)\\\\b')"
p70
aS"(12, u'(?i)\\\\b(amygdalas|amygdala)\\\\b')"
p71
atp72
Rp73
sS'year'
p74
V2002
p75
sS'species'
p76
g3
((lp77
S"(1, u'(?i)\\\\b(mice|mouse)\\\\b')"
p78
aS"(5, u'(?i)\\\\b(mices|mice)\\\\b')"
p79
atp80
Rp81
sb.