(ifile_types
ParseObject
p0
(dp1
S'antagonists'
p2
c__builtin__
set
p3
((lp4
S"(57, u'\\\\bolanzapine')"
p5
aS"(142, u'\\\\bm1')"
p6
aS"(123, u'\\\\bclozapine')"
p7
aS"(124, u'\\\\bolanzapine')"
p8
aS"(56, u'\\\\bclozapine')"
p9
atp10
Rp11
sS'methods'
p12
g3
((lp13
S'Method.ANTAGONIST'
p14
aS'Method.AGONIST'
p15
atp16
Rp17
sS'topics'
p18
g3
((lp19
tp20
Rp21
sS'receptors'
p22
g3
((lp23
S'5ht5'
p24
aS'5ht2c'
p25
aS'5ht2b'
p26
aS'5ht2'
p27
aS'5ht2a'
p28
atp29
Rp30
sS'regions'
p31
g3
((lp32
tp33
Rp34
sS'year'
p35
V1999
p36
sS'agonists'
p37
g3
((lp38
S"(64, u'\\\\bolanzapine')"
p39
aS"(27, u'\\\\bclozapine')"
p40
atp41
Rp42
sS'species'
p43
g3
((lp44
S"(3812, u'(?i)(studs|stud)')"
p45
aS"(6391, u'(?i)(asses|ass)')"
p46
aS"(5958, u'(?i)(rats|rat)')"
p47
aS"(4163, u'(?i)(ermines|ermine)')"
p48
aS"(6249, u'(?i)(ants|ant)')"
p49
atp50
Rp51
sb.