(ifile_types
ParseObject
p0
(dp1
S'antagonists'
p2
c__builtin__
set
p3
((lp4
S"(26, u'\\\\bspiperone')"
p5
aS"(203, u'\\\\btfmpp')"
p6
aS"(117, u'\\\\bketanserin')"
p7
atp8
Rp9
sS'methods'
p10
g3
((lp11
S'Method.AGONIST'
p12
atp13
Rp14
sS'topics'
p15
g3
((lp16
S"(16, u'\\\\bfeed')"
p17
atp18
Rp19
sS'receptors'
p20
g3
((lp21
S'5ht1a'
p22
aS'5ht1'
p23
aS'5ht1d'
p24
atp25
Rp26
sS'regions'
p27
g3
((lp28
tp29
Rp30
sS'year'
p31
V1990
p32
sS'agonists'
p33
g3
((lp34
S"(210, u'\\\\bsulpiride')"
p35
aS"(178, u'\\\\btfmpp')"
p36
aS"(155, u'\\\\bmcpp')"
p37
aS"(149, u'\\\\bmem')"
p38
aS"(85, u'\\\\b8 ?oh ?dpat')"
p39
atp40
Rp41
sS'species'
p42
g3
((lp43
S"(3051, u'(?i)\\\\b(pigs|pig)\\\\b')"
p44
aS"(4480, u'(?i)\\\\b(guineas|guinea)(-|\\\\s+)?(pigs|pig)\\\\b')"
p45
aS"(3062, u'(?i)\\\\b(guineas|guinea)\\\\b')"
p46
atp47
Rp48
sb.