(ifile_types
ParseObject
p0
(dp1
S'antagonists'
p2
c__builtin__
set
p3
((lp4
tp5
Rp6
sS'methods'
p7
g3
((lp8
S'Method.ANTAGONIST'
p9
aS'Method.AGONIST'
p10
atp11
Rp12
sS'topics'
p13
g3
((lp14
S"(5, u'\\\\bgastrointestin')"
p15
aS"(21, u'\\\\bpain')"
p16
atp17
Rp18
sS'receptors'
p19
g3
((lp20
S'5ht5'
p21
aS'5ht4'
p22
aS'5ht3'
p23
atp24
Rp25
sS'regions'
p26
g3
((lp27
S"(34, u'(?i)(pon|pons)')"
p28
atp29
Rp30
sS'year'
p31
V2003
p32
sS'agonists'
p33
g3
((lp34
tp35
Rp36
sS'species'
p37
g3
((lp38
S"(2323, u'(?i)(bees|bee)')"
p39
aS"(6753, u'(?i)(da|das)')"
p40
aS"(5958, u'(?i)(rats|rat)')"
p41
aS"(702, u'(?i)(genets|genet)')"
p42
aS"(4201, u'(?i)(kines|kine)')"
p43
aS"(280, u'(?i)(gators|gator)')"
p44
aS"(6249, u'(?i)(ants|ant)')"
p45
aS"(1055, u'(?i)(men|man)')"
p46
aS"(1054, u'(?i)(homoes|homo)')"
p47
aS"(5743, u'(?i)(bots|bot)')"
p48
aS"(3858, u'(?i)(cobs|cob)')"
p49
aS"(3550, u'(?i)(anis|ani)')"
p50
aS"(7094, u'(?i)(curs|cur)')"
p51
aS"(6391, u'(?i)(asses|ass)')"
p52
aS"(3812, u'(?i)(studs|stud)')"
p53
aS"(3048, u'(?i)(hogs|hog)')"
p54
aS"(2809, u'(?i)(toms|tom)')"
p55
aS"(6356, u'(?i)(ais|ai)')"
p56
atp57
Rp58
sb.