(ifile_types
ParseObject
p0
(dp1
S'methods'
p2
c__builtin__
set
p3
((lp4
tp5
Rp6
sS'topics'
p7
g3
((lp8
tp9
Rp10
sS'receptors'
p11
g3
((lp12
(S'5ht3'
p13
I47
I52
tp14
a(S'5ht3'
p15
I916
I921
tp16
a(S'5ht3'
p17
I812
I817
tp18
a(S'5ht3'
p19
I533
I538
tp20
a(S'5ht3'
p21
I439
I444
tp22
a(S'5ht3'
p23
I182
I187
tp24
a(S'5ht3'
p25
I675
I680
tp26
atp27
Rp28
sS'raw_text_methods'
p29
g3
((lp30
tp31
Rp32
sS'regions'
p33
g3
((lp34
S"(4, u'(?i)\\\\b(presynaptics|presynaptic)\\\\b')"
p35
atp36
Rp37
sS'year'
p38
V2000
p39
sS'species'
p40
g3
((lp41
tp42
Rp43
sb.