(ifile_types
ParseObject
p0
(dp1
S'methods'
p2
c__builtin__
set
p3
((lp4
S'Method.ANTAGONIST'
p5
aS'Method.AGONIST'
p6
atp7
Rp8
sS'topics'
p9
g3
((lp10
S"(9, u'\\\\bstress')"
p11
atp12
Rp13
sS'receptors'
p14
g3
((lp15
(S'5ht4'
p16
I359
I364
tp17
a(S'5ht4'
p18
I333
I338
tp19
a(S'5ht4'
p20
I1543
I1548
tp21
a(S'5ht4'
p22
I1398
I1403
tp23
a(S'5ht5'
p24
I359
I365
tp25
a(S'5ht5'
p26
I346
I352
tp27
a(S'5ht4'
p28
I1701
I1706
tp29
a(S'5ht4'
p30
I372
I377
tp31
a(S'5ht4'
p32
I950
I955
tp33
a(S'5ht4'
p34
I247
I252
tp35
a(S'5ht4'
p36
I229
I234
tp37
a(S'5ht4'
p38
I1639
I1644
tp39
a(S'5ht4'
p40
I525
I530
tp41
a(S'5ht4'
p42
I346
I351
tp43
a(S'5ht5'
p44
I779
I789
tp45
a(S'5ht5'
p46
I333
I339
tp47
a(S'5ht4'
p48
I1206
I1211
tp49
a(S'5ht4'
p50
I906
I911
tp51
a(S'5ht4'
p52
I682
I687
tp53
atp54
Rp55
sS'raw_text_methods'
p56
g3
((lp57
S"(13, u'\\\\bagonist')"
p58
aS"(4, u'\\\\bpcpa')"
p59
aS"(12, u'\\\\bantagonist')"
p60
atp61
Rp62
sS'regions'
p63
g3
((lp64
S"(23, u'(?i)\\\\b(forebrains|forebrain)\\\\b')"
p65
atp66
Rp67
sS'year'
p68
V2012
p69
sS'species'
p70
g3
((lp71
S"(1, u'(?i)\\\\b(mice|mouse)\\\\b')"
p72
aS"(5, u'(?i)\\\\b(mices|mice)\\\\b')"
p73
atp74
Rp75
sb.