(ifile_types
ParseObject
p0
(dp1
S'methods'
p2
c__builtin__
set
p3
((lp4
S'Method.ANTAGONIST'
p5
aS'Method.AGONIST'
p6
atp7
Rp8
sS'topics'
p9
g3
((lp10
S"(33, u'\\\\blocomot')"
p11
aS"(26, u'\\\\bbehav')"
p12
aS"(9, u'\\\\bstress')"
p13
atp14
Rp15
sS'receptors'
p16
g3
((lp17
(S'5ht1a'
p18
I131
I137
tp19
a(S'5ht1a'
p20
I2178
I2184
tp21
a(S'5ht1a'
p22
I795
I801
tp23
a(S'5ht1a'
p24
I324
I330
tp25
a(S'5ht1a'
p26
I2109
I2115
tp27
a(S'5ht1'
p28
I525
I530
tp29
a(S'5ht2'
p30
I531
I536
tp31
atp32
Rp33
sS'raw_text_methods'
p34
g3
((lp35
S"(13, u'\\\\bagonist')"
p36
aS"(12, u'\\\\bantagonist')"
p37
atp38
Rp39
sS'regions'
p40
g3
((lp41
S"(4, u'(?i)\\\\b(presynaptics|presynaptic)\\\\b')"
p42
atp43
Rp44
sS'year'
p45
V2008
p46
sS'species'
p47
g3
((lp48
S"(4, u'(?i)\\\\b(rats|rat)\\\\b')"
p49
atp50
Rp51
sb.