(ifile_types
ParseObject
p0
(dp1
S'antagonists'
p2
c__builtin__
set
p3
((lp4
S"(182, u'\\\\bsb ?258585')"
p5
atp6
Rp7
sS'methods'
p8
g3
((lp9
S'Method.ANTAGONIST'
p10
aS'Method.AGONIST'
p11
atp12
Rp13
sS'topics'
p14
g3
((lp15
tp16
Rp17
sS'receptors'
p18
g3
((lp19
S'5ht6'
p20
aS'5ht6a'
p21
atp22
Rp23
sS'regions'
p24
g3
((lp25
tp26
Rp27
sS'year'
p28
V2006
p29
sS'agonists'
p30
g3
((lp31
tp32
Rp33
sS'species'
p34
g3
((lp35
S"(6249, u'(?i)(ants|ant)')"
p36
aS"(2568, u'(?i)(hens|hen)')"
p37
aS"(163, u'(?i)(mice|mouse)')"
p38
aS"(81, u'(?i)(asps|asp)')"
p39
aS"(468, u'(?i)(oxen|ox)')"
p40
aS"(4604, u'(?i)(mites|mite)')"
p41
aS"(6753, u'(?i)(da|das)')"
p42
aS"(2395, u'(?i)(mutants|mutant)')"
p43
atp44
Rp45
sb.