(ifile_types
ParseObject
p0
(dp1
S'antagonists'
p2
c__builtin__
set
p3
((lp4
tp5
Rp6
sS'methods'
p7
g3
((lp8
S'Method.KNOCKOUT'
p9
atp10
Rp11
sS'topics'
p12
g3
((lp13
S"(8, u'\\\\blearning')"
p14
aS"(6, u'\\\\bcognit')"
p15
aS"(35, u'\\\\bstress')"
p16
aS"(10, u'\\\\banxiety')"
p17
aS"(7, u'\\\\bmemory')"
p18
atp19
Rp20
sS'receptors'
p21
g3
((lp22
S'5ht1a'
p23
atp24
Rp25
sS'regions'
p26
g3
((lp27
S"(362, u'(?i)\\\\b(brains|brain)(-|\\\\s+)?(stems|stem)\\\\b')"
p28
aS"(203, u'(?i)\\\\b(dentates|dentate)(-|\\\\s+)?(gyruses|gyrus)\\\\b')"
p29
atp30
Rp31
sS'year'
p32
V2000
p33
sS'agonists'
p34
g3
((lp35
S"(149, u'\\\\bmem')"
p36
atp37
Rp38
sS'species'
p39
g3
((lp40
S"(163, u'(?i)\\\\b(mice|mouse)\\\\b')"
p41
atp42
Rp43
sb.