(ifile_types
ParseObject
p0
(dp1
S'methods'
p2
c__builtin__
set
p3
((lp4
S'Method.ANTAGONIST'
p5
aS'Method.AGONIST'
p6
atp7
Rp8
sS'topics'
p9
g3
((lp10
S"(24, u'\\\\banxiolytic')"
p11
aS"(8, u'\\\\banxi')"
p12
aS"(13, u'\\\\bantidepress')"
p13
atp14
Rp15
sS'receptors'
p16
g3
((lp17
(S'5ht1a'
p18
I1641
I1647
tp19
a(S'5ht1a'
p20
I375
I381
tp21
a(S'5ht1a'
p22
I1082
I1088
tp23
a(S'5ht1a'
p24
I764
I770
tp25
a(S'5ht1a'
p26
I50
I56
tp27
a(S'5ht1a'
p28
I541
I547
tp29
atp30
Rp31
sS'raw_text_methods'
p32
g3
((lp33
S"(13, u'\\\\bagonist')"
p34
aS"(7, u'\\\\bpropranolol')"
p35
aS"(15, u'\\\\b8ohdpat')"
p36
aS"(12, u'\\\\bantagonist')"
p37
atp38
Rp39
sS'regions'
p40
g3
((lp41
S"(11, u'(?i)\\\\b(cerebrals|cerebral)\\\\b')"
p42
aS"(19, u'(?i)\\\\b(cortexes|cortex)\\\\b')"
p43
aS"(3, u'(?i)\\\\b(postsynaptics|postsynaptic)\\\\b')"
p44
atp45
Rp46
sS'year'
p47
V1997
p48
sS'species'
p49
g3
((lp50
S"(4, u'(?i)\\\\b(rats|rat)\\\\b')"
p51
atp52
Rp53
sb.