(ifile_types
ParseObject
p0
(dp1
S'methods'
p2
c__builtin__
set
p3
((lp4
S'Method.PET'
p5
aS'Method.ANTAGONIST'
p6
atp7
Rp8
sS'topics'
p9
g3
((lp10
tp11
Rp12
sS'receptors'
p13
g3
((lp14
(S'5ht1a'
p15
I325
I331
tp16
a(S'5ht1'
p17
I325
I331
tp18
a(S'5ht1a'
p19
I50
I56
tp20
atp21
Rp22
sS'raw_text_methods'
p23
g3
((lp24
S"(17, u'\\\\bpet')"
p25
aS"(18, u'\\\\bimaging')"
p26
aS"(54, u'\\\\bautoradiography')"
p27
aS"(12, u'\\\\bantagonist')"
p28
atp29
Rp30
sS'regions'
p31
g3
((lp32
S"(9, u'(?i)\\\\b(cerebellums|cerebellum)\\\\b')"
p33
atp34
Rp35
sS'year'
p36
V2007
p37
sS'species'
p38
g3
((lp39
S"(4, u'(?i)\\\\b(rats|rat)\\\\b')"
p40
atp41
Rp42
sb.