(ifile_types
ParseObject
p0
(dp1
S'methods'
p2
c__builtin__
set
p3
((lp4
S'Method.ANTAGONIST'
p5
aS'Method.AGONIST'
p6
atp7
Rp8
sS'topics'
p9
g3
((lp10
S"(22, u'\\\\bschizophreni')"
p11
aS"(14, u'\\\\bcogniti')"
p12
atp13
Rp14
sS'receptors'
p15
g3
((lp16
(S'5ht6'
p17
I1132
I1137
tp18
a(S'5ht6'
p19
I1576
I1581
tp20
a(S'5ht6'
p21
I692
I697
tp22
a(S'5ht6'
p23
I1988
I1993
tp24
a(S'5ht6'
p25
I40
I45
tp26
a(S'5ht6'
p27
I487
I492
tp28
a(S'5ht6'
p29
I1445
I1450
tp30
a(S'5ht6'
p31
I206
I211
tp32
atp33
Rp34
sS'raw_text_methods'
p35
g3
((lp36
S"(13, u'\\\\bagonist')"
p37
aS"(12, u'\\\\bantagonist')"
p38
atp39
Rp40
sS'regions'
p41
g3
((lp42
S"(20, u'(?i)\\\\b(prefrontals|prefrontal)\\\\b')"
p43
aS"(8, u'(?i)\\\\b(centrals|central)(-|\\\\s+)?(nervouses|nervous)(-|\\\\s+)?(systems|system)\\\\b')"
p44
atp45
Rp46
sS'year'
p47
V2020
p48
sS'species'
p49
g3
((lp50
S"(6, u'(?i)\\\\b(rodents|rodent)\\\\b')"
p51
atp52
Rp53
sb.