(ifile_types
ParseObject
p0
(dp1
S'methods'
p2
c__builtin__
set
p3
((lp4
S'Method.IMMUNOHISTOCHEMISTRY'
p5
atp6
Rp7
sS'topics'
p8
g3
((lp9
S"(33, u'\\\\blocomot')"
p10
atp11
Rp12
sS'receptors'
p13
g3
((lp14
(S'5ht3'
p15
I1177
I1182
tp16
a(S'5ht3'
p17
I1652
I1657
tp18
atp19
Rp20
sS'raw_text_methods'
p21
g3
((lp22
tp23
Rp24
sS'regions'
p25
g3
((lp26
tp27
Rp28
sS'year'
p29
V2016
p30
sS'species'
p31
g3
((lp32
tp33
Rp34
sb.