(ifile_types
ParseObject
p0
(dp1
S'antagonists'
p2
c__builtin__
set
p3
((lp4
tp5
Rp6
sS'methods'
p7
g3
((lp8
S'Method.PET'
p9
atp10
Rp11
sS'topics'
p12
g3
((lp13
tp14
Rp15
sS'receptors'
p16
g3
((lp17
S'5ht1a'
p18
atp19
Rp20
sS'regions'
p21
g3
((lp22
S"(318, u'(?i)(raphes|raphe)(-|\\\\s+)?(nuclei|nucleus)')"
p23
aS"(71, u'(?i)(cerebellums|cerebellum)')"
p24
aS"(34, u'(?i)(pon|pons)')"
p25
atp26
Rp27
sS'year'
p28
V2001
p29
sS'agonists'
p30
g3
((lp31
tp32
Rp33
sS'species'
p34
g3
((lp35
S"(5551, u'(?i)(owls|owl)')"
p36
aS"(3592, u'(?i)(ravens|raven)')"
p37
aS"(7094, u'(?i)(curs|cur)')"
p38
aS"(6356, u'(?i)(ais|ai)')"
p39
aS"(3196, u'(?i)(human|humans)')"
p40
aS"(3812, u'(?i)(studs|stud)')"
p41
aS"(6391, u'(?i)(asses|ass)')"
p42
aS"(1070, u'(?i)(pets|pet)')"
p43
aS"(479, u'(?i)(lings|ling)')"
p44
aS"(468, u'(?i)(oxen|ox)')"
p45
aS"(5743, u'(?i)(bots|bot)')"
p46
aS"(5838, u'(?i)(cubs|cub)')"
p47
aS"(3550, u'(?i)(anis|ani)')"
p48
aS"(2809, u'(?i)(toms|tom)')"
p49
aS"(2341, u'(?i)(monkeys|monkey)')"
p50
aS"(5537, u'(?i)(hippos|hippo)')"
p51
aS"(5958, u'(?i)(rats|rat)')"
p52
aS"(1055, u'(?i)(men|man)')"
p53
aS"(6753, u'(?i)(da|das)')"
p54
aS"(1057, u'(?i)(humans|human)')"
p55
aS"(2568, u'(?i)(hens|hen)')"
p56
aS"(4979, u'(?i)(cats|cat)')"
p57
aS"(7552, u'(?i)(bats|bat)')"
p58
atp59
Rp60
sb.