(ifile_types
ParseObject
p0
(dp1
S'methods'
p2
c__builtin__
set
p3
((lp4
S'Method.ANTAGONIST'
p5
aS'Method.AGONIST'
p6
atp7
Rp8
sS'topics'
p9
g3
((lp10
tp11
Rp12
sS'receptors'
p13
g3
((lp14
(S'5ht2a'
p15
I365
I371
tp16
a(S'5ht1a'
p17
I341
I347
tp18
a(S'5ht1a'
p19
I1110
I1116
tp20
a(S'5ht2a'
p21
I64
I70
tp22
a(S'5ht1a'
p23
I40
I46
tp24
a(S'5ht2a'
p25
I1602
I1608
tp26
atp27
Rp28
sS'raw_text_methods'
p29
g3
((lp30
S"(22, u'\\\\bbuspirone')"
p31
aS"(15, u'\\\\b8ohdpat')"
p32
aS"(13, u'\\\\bagonist')"
p33
aS"(37, u'\\\\bpiperazine')"
p34
aS"(9, u'\\\\britanserin')"
p35
aS"(12, u'\\\\bantagonist')"
p36
atp37
Rp38
sS'regions'
p39
g3
((lp40
S"(11, u'(?i)\\\\b(cerebrals|cerebral)\\\\b')"
p41
aS"(19, u'(?i)\\\\b(cortexes|cortex)\\\\b')"
p42
aS"(3, u'(?i)\\\\b(postsynaptics|postsynaptic)\\\\b')"
p43
atp44
Rp45
sS'year'
p46
V1995
p47
sS'species'
p48
g3
((lp49
S"(4, u'(?i)\\\\b(rats|rat)\\\\b')"
p50
atp51
Rp52
sb.