(ifile_types
ParseObject
p0
(dp1
S'antagonists'
p2
c__builtin__
set
p3
((lp4
tp5
Rp6
sS'methods'
p7
g3
((lp8
S'Method.PET'
p9
atp10
Rp11
sS'topics'
p12
g3
((lp13
S"(9, u'\\\\bdepress')"
p14
aS"(1, u'\\\\bmood')"
p15
atp16
Rp17
sS'receptors'
p18
g3
((lp19
S'5ht1a'
p20
aS'5ht2'
p21
aS'5ht2a'
p22
atp23
Rp24
sS'regions'
p25
g3
((lp26
tp27
Rp28
sS'year'
p29
V1998
p30
sS'agonists'
p31
g3
((lp32
tp33
Rp34
sS'species'
p35
g3
((lp36
S"(1070, u'(?i)\\\\b(pets|pet)\\\\b')"
p37
atp38
Rp39
sb.