(ifile_types
ParseObject
p0
(dp1
S'antagonists'
p2
c__builtin__
set
p3
((lp4
S"(155, u'\\\\bgr ?125487')"
p5
atp6
Rp7
sS'methods'
p8
g3
((lp9
S'Method.ANTAGONIST'
p10
aS'Method.AGONIST'
p11
atp12
Rp13
sS'topics'
p14
g3
((lp15
S"(33, u'\\\\balzheimers')"
p16
aS"(8, u'\\\\blearning')"
p17
aS"(7, u'\\\\bmemory')"
p18
atp19
Rp20
sS'receptors'
p21
g3
((lp22
S'5ht4a'
p23
aS'5ht4'
p24
atp25
Rp26
sS'regions'
p27
g3
((lp28
tp29
Rp30
sS'year'
p31
V2007
p32
sS'agonists'
p33
g3
((lp34
S"(206, u'\\\\bprucalopride')"
p35
aS"(204, u'\\\\bml ?10302')"
p36
aS"(155, u'\\\\bmem')"
p37
atp38
Rp39
sS'species'
p40
g3
((lp41
S"(2103, u'(?i)(nesters|nester)')"
p42
aS"(5537, u'(?i)(hippos|hippo)')"
p43
aS"(5176, u'(?i)(tegs|teg)')"
p44
aS"(5958, u'(?i)(rats|rat)')"
p45
aS"(6356, u'(?i)(ais|ai)')"
p46
aS"(867, u'(?i)(tits|tit)')"
p47
aS"(163, u'(?i)(mice|mouse)')"
p48
aS"(6682, u'(?i)(tera|teras)')"
p49
aS"(5967, u'(?i)(males|male)')"
p50
aS"(468, u'(?i)(oxen|ox)')"
p51
aS"(1055, u'(?i)(men|man)')"
p52
aS"(4604, u'(?i)(mites|mite)')"
p53
aS"(853, u'(?i)(minas|mina)')"
p54
aS"(7094, u'(?i)(curs|cur)')"
p55
aS"(6249, u'(?i)(ants|ant)')"
p56
aS"(4979, u'(?i)(cats|cat)')"
p57
aS"(5917, u'(?i)(roaches|roach)')"
p58
aS"(1414, u'(?i)(chars|char)')"
p59
aS"(7609, u'(?i)(erns|ern)')"
p60
aS"(1683, u'(?i)(terns|tern)')"
p61
aS"(5949, u'(?i)(dogs|dog)')"
p62
atp63
Rp64
sb.