(ifile_types
ParseObject
p0
(dp1
S'antagonists'
p2
c__builtin__
set
p3
((lp4
S"(67, u'\\\\bhaloperidol')"
p5
aS"(17, u'\\\\bnan ?190')"
p6
atp7
Rp8
sS'methods'
p9
g3
((lp10
S'Method.AGONIST'
p11
atp12
Rp13
sS'topics'
p14
g3
((lp15
S"(30, u'\\\\bparkinsons')"
p16
atp17
Rp18
sS'receptors'
p19
g3
((lp20
S'5ht1a'
p21
atp22
Rp23
sS'regions'
p24
g3
((lp25
S"(103, u'(?i)(substantias|substantia)(-|\\\\s+)?(nigras|nigra)')"
p26
atp27
Rp28
sS'year'
p29
V2012
p30
sS'agonists'
p31
g3
((lp32
S"(48, u'\\\\bhaloperidol')"
p33
aS"(92, u'\\\\b8 ?oh ?dpat')"
p34
aS"(24, u'\\\\bbuspirone')"
p35
atp36
Rp37
sS'species'
p38
g3
((lp39
S"(4624, u'(?i)(apes|ape)')"
p40
aS"(2568, u'(?i)(hens|hen)')"
p41
aS"(5958, u'(?i)(rats|rat)')"
p42
aS"(6753, u'(?i)(da|das)')"
p43
aS"(6682, u'(?i)(tera|teras)')"
p44
aS"(468, u'(?i)(oxen|ox)')"
p45
aS"(1055, u'(?i)(men|man)')"
p46
aS"(6249, u'(?i)(ants|ant)')"
p47
aS"(4979, u'(?i)(cats|cat)')"
p48
aS"(3550, u'(?i)(anis|ani)')"
p49
aS"(3522, u'(?i)(tetras|tetra)')"
p50
aS"(5917, u'(?i)(roaches|roach)')"
p51
aS"(4371, u'(?i)(lizas|liza)')"
p52
aS"(3812, u'(?i)(studs|stud)')"
p53
aS"(6391, u'(?i)(asses|ass)')"
p54
aS"(6356, u'(?i)(ais|ai)')"
p55
atp56
Rp57
sb.