(ifile_types
ParseObject
p0
(dp1
S'antagonists'
p2
c__builtin__
set
p3
((lp4
S"(136, u'\\\\btropisetron')"
p5
atp6
Rp7
sS'methods'
p8
g3
((lp9
S'Method.STIMULATION'
p10
aS'Method.ANTAGONIST'
p11
atp12
Rp13
sS'topics'
p14
g3
((lp15
S"(26, u'\\\\bcardiovascular')"
p16
aS"(28, u'\\\\bemesis')"
p17
atp18
Rp19
sS'receptors'
p20
g3
((lp21
S'5ht3'
p22
atp23
Rp24
sS'regions'
p25
g3
((lp26
S"(362, u'(?i)(brains|brain)(-|\\\\s+)?(stems|stem)')"
p27
aS"(34, u'(?i)(pon|pons)')"
p28
aS"(27, u'(?i)(areas|area)(-|\\\\s+)?(postremas|postrema)')"
p29
atp30
Rp31
sS'year'
p32
V1995
p33
sS'agonists'
p34
g3
((lp35
S"(190, u'\\\\b2 ?methyl ?5 ?ht')"
p36
atp37
Rp38
sS'species'
p39
g3
((lp40
S"(3015, u'(?i)(ferrets|ferret)')"
p41
aS"(6356, u'(?i)(ais|ai)')"
p42
aS"(4979, u'(?i)(cats|cat)')"
p43
aS"(6249, u'(?i)(ants|ant)')"
p44
aS"(468, u'(?i)(oxen|ox)')"
p45
aS"(1055, u'(?i)(men|man)')"
p46
aS"(3726, u'(?i)(mates|mate)')"
p47
aS"(1349, u'(?i)(rams|ram)')"
p48
aS"(853, u'(?i)(minas|mina)')"
p49
aS"(5958, u'(?i)(rats|rat)')"
p50
aS"(1414, u'(?i)(chars|char)')"
p51
aS"(5743, u'(?i)(bots|bot)')"
p52
aS"(3812, u'(?i)(studs|stud)')"
p53
aS"(5949, u'(?i)(dogs|dog)')"
p54
atp55
Rp56
sb.