(ifile_types
ParseObject
p0
(dp1
S'antagonists'
p2
c__builtin__
set
p3
((lp4
S"(140, u'\\\\brenzapride')"
p5
aS"(139, u'\\\\bmetoclopramide')"
p6
aS"(141, u'\\\\bzacopride')"
p7
atp8
Rp9
sS'methods'
p10
g3
((lp11
S'Method.ANTAGONIST'
p12
atp13
Rp14
sS'topics'
p15
g3
((lp16
tp17
Rp18
sS'receptors'
p19
g3
((lp20
S'5ht5'
p21
aS'5ht4'
p22
aS'5ht3'
p23
aS'5ht2'
p24
aS'5ht1'
p25
aS'5ht2a'
p26
aS'5ht3a'
p27
atp28
Rp29
sS'regions'
p30
g3
((lp31
S"(34, u'(?i)(pon|pons)')"
p32
atp33
Rp34
sS'year'
p35
V1992
p36
sS'agonists'
p37
g3
((lp38
S"(207, u'\\\\brenzapride')"
p39
aS"(224, u'\\\\b5 ?methoxytryptamine')"
p40
aS"(212, u'\\\\bzacopride')"
p41
aS"(190, u'\\\\b2 ?methyl ?5 ?ht')"
p42
aS"(213, u'\\\\bmetoclopramide')"
p43
atp44
Rp45
sS'species'
p46
g3
((lp47
S"(1070, u'(?i)(pets|pet)')"
p48
aS"(3404, u'(?i)(titis|titi)')"
p49
aS"(5958, u'(?i)(rats|rat)')"
p50
aS"(867, u'(?i)(tits|tit)')"
p51
aS"(4163, u'(?i)(ermines|ermine)')"
p52
aS"(3051, u'(?i)(pigs|pig)')"
p53
aS"(468, u'(?i)(oxen|ox)')"
p54
aS"(1349, u'(?i)(rams|ram)')"
p55
aS"(3062, u'(?i)(guineas|guinea)')"
p56
aS"(4624, u'(?i)(apes|ape)')"
p57
aS"(4979, u'(?i)(cats|cat)')"
p58
aS"(6249, u'(?i)(ants|ant)')"
p59
aS"(6682, u'(?i)(tera|teras)')"
p60
aS"(1414, u'(?i)(chars|char)')"
p61
aS"(6391, u'(?i)(asses|ass)')"
p62
aS"(4480, u'(?i)(guineas|guinea)(-|\\\\s+)?(pigs|pig)')"
p63
aS"(1795, u'(?i)(mounts|mount)')"
p64
aS"(6356, u'(?i)(ais|ai)')"
p65
atp66
Rp67
sb.