(ifile_types
ParseObject
p0
(dp1
S'antagonists'
p2
c__builtin__
set
p3
((lp4
S"(97, u'\\\\bsb ?200646')"
p5
aS"(124, u'\\\\bondansetron')"
p6
aS"(119, u'\\\\britanserin')"
p7
atp8
Rp9
sS'methods'
p10
g3
((lp11
S'Method.ANTAGONIST'
p12
aS'Method.AGONIST'
p13
atp14
Rp15
sS'topics'
p16
g3
((lp17
S"(9, u'\\\\bdepress')"
p18
atp19
Rp20
sS'receptors'
p21
g3
((lp22
S'5ht3a'
p23
aS'5ht3'
p24
aS'5ht2'
p25
atp26
Rp27
sS'regions'
p28
g3
((lp29
S"(318, u'(?i)\\\\b(raphes|raphe)(-|\\\\s+)?(nuclei|nucleus)\\\\b')"
p30
atp31
Rp32
sS'year'
p33
V2016
p34
sS'agonists'
p35
g3
((lp36
S"(149, u'\\\\bmem')"
p37
atp38
Rp39
sS'species'
p40
g3
((lp41
S"(5958, u'(?i)\\\\b(rats|rat)\\\\b')"
p42
atp43
Rp44
sb.