(ifile_types
ParseObject
p0
(dp1
S'methods'
p2
c__builtin__
set
p3
((lp4
tp5
Rp6
sS'topics'
p7
g3
((lp8
tp9
Rp10
sS'receptors'
p11
g3
((lp12
(S'5ht1a'
p13
I97
I103
tp14
a(S'5ht1a'
p15
I249
I255
tp16
a(S'5ht2a'
p17
I259
I265
tp18
a(S'5ht1a'
p19
I758
I764
tp20
a(S'5ht2c'
p21
I272
I278
tp22
a(S'5ht1a'
p23
I1138
I1144
tp24
a(S'5ht1a'
p25
I365
I371
tp26
a(S'5ht1a'
p27
I1006
I1012
tp28
atp29
Rp30
sS'raw_text_methods'
p31
g3
((lp32
S"(37, u'\\\\bpiperazine')"
p33
atp34
Rp35
sS'regions'
p36
g3
((lp37
tp38
Rp39
sS'year'
p40
V2001
p41
sS'species'
p42
g3
((lp43
tp44
Rp45
sb.