(ifile_types
ParseObject
p0
(dp1
S'antagonists'
p2
c__builtin__
set
p3
((lp4
S"(35, u'\\\\baripiprazole')"
p5
aS"(110, u'\\\\bclozapine')"
p6
atp7
Rp8
sS'methods'
p9
g3
((lp10
S'Method.AGONIST'
p11
atp12
Rp13
sS'topics'
p14
g3
((lp15
S"(15, u'\\\\bschizophreni')"
p16
aS"(6, u'\\\\bcognit')"
p17
aS"(7, u'\\\\bmemory')"
p18
atp19
Rp20
sS'receptors'
p21
g3
((lp22
S'5ht1a'
p23
atp24
Rp25
sS'regions'
p26
g3
((lp27
S"(254, u'(?i)\\\\b(prefrontals|prefrontal)(-|\\\\s+)?(cortexes|cortex)\\\\b')"
p28
aS"(255, u'(?i)\\\\b(pres|pre)(-|\\\\s+)?(frontals|frontal)(-|\\\\s+)?(cortexes|cortex)\\\\b')"
p29
aS"(203, u'(?i)\\\\b(dentates|dentate)(-|\\\\s+)?(gyruses|gyrus)\\\\b')"
p30
atp31
Rp32
sS'year'
p33
V2014
p34
sS'agonists'
p35
g3
((lp36
S"(23, u'\\\\bclozapine')"
p37
aS"(223, u'\\\\baripiprazole')"
p38
aS"(149, u'\\\\bmem')"
p39
atp40
Rp41
sS'species'
p42
g3
((lp43
S"(4091, u'(?i)\\\\b(adults|adult)\\\\b')"
p44
atp45
Rp46
sb.