(ifile_types
ParseObject
p0
(dp1
S'antagonists'
p2
c__builtin__
set
p3
((lp4
S"(155, u'\\\\bgr ?125487')"
p5
atp6
Rp7
sS'methods'
p8
g3
((lp9
S'Method.STIMULATION'
p10
aS'Method.ANTAGONIST'
p11
aS'Method.AGONIST'
p12
atp13
Rp14
sS'topics'
p15
g3
((lp16
S"(8, u'\\\\blearning')"
p17
aS"(7, u'\\\\bmemory')"
p18
atp19
Rp20
sS'receptors'
p21
g3
((lp22
S'5ht4a'
p23
aS'5ht4'
p24
atp25
Rp26
sS'regions'
p27
g3
((lp28
S"(234, u'(?i)(nuclei|nucleus)(-|\\\\s+)?(basali|basalis)')"
p29
aS"(248, u'(?i)(cerebrals|cerebral)(-|\\\\s+)?(cortexes|cortex)')"
p30
atp31
Rp32
sS'year'
p33
V1999
p34
sS'agonists'
p35
g3
((lp36
S"(155, u'\\\\bmem')"
p37
aS"(201, u'\\\\bbimu ?8')"
p38
atp39
Rp40
sS'species'
p41
g3
((lp42
S"(5537, u'(?i)(hippos|hippo)')"
p43
aS"(6249, u'(?i)(ants|ant)')"
p44
aS"(3051, u'(?i)(pigs|pig)')"
p45
aS"(3062, u'(?i)(guineas|guinea)')"
p46
aS"(6356, u'(?i)(ais|ai)')"
p47
aS"(3812, u'(?i)(studs|stud)')"
p48
aS"(4480, u'(?i)(guineas|guinea)(-|\\\\s+)?(pigs|pig)')"
p49
aS"(821, u'(?i)(lice|louse)')"
p50
atp51
Rp52
sb.