(ifile_types
ParseObject
p0
(dp1
S'methods'
p2
c__builtin__
set
p3
((lp4
S'Method.ANTAGONIST'
p5
atp6
Rp7
sS'topics'
p8
g3
((lp9
tp10
Rp11
sS'receptors'
p12
g3
((lp13
(S'5ht4'
p14
I49
I54
tp15
a(S'5ht4'
p16
I489
I494
tp17
a(S'5ht4'
p18
I173
I178
tp19
atp20
Rp21
sS'raw_text_methods'
p22
g3
((lp23
S"(54, u'\\\\bautoradiography')"
p24
aS"(12, u'\\\\bantagonist')"
p25
atp26
Rp27
sS'regions'
p28
g3
((lp29
S"(1, u'(?i)\\\\b(neocortexes|neocortex)\\\\b')"
p30
atp31
Rp32
sS'year'
p33
V1993
p34
sS'species'
p35
g3
((lp36
S"(7, u'(?i)\\\\b(guineas|guinea)(-|\\\\s+)?(pigs|pig)\\\\b')"
p37
atp38
Rp39
sb.