(ifile_types
ParseObject
p0
(dp1
S'antagonists'
p2
c__builtin__
set
p3
((lp4
S"(53, u'\\\\bketanserin')"
p5
aS"(128, u'\\\\bketanserin')"
p6
aS"(6, u'\\\\bcyproheptadine')"
p7
aS"(117, u'\\\\bmianserin')"
p8
aS"(62, u'\\\\bcyproheptadine')"
p9
atp10
Rp11
sS'methods'
p12
g3
((lp13
S'Method.ANTAGONIST'
p14
aS'Method.AGONIST'
p15
atp16
Rp17
sS'topics'
p18
g3
((lp19
tp20
Rp21
sS'receptors'
p22
g3
((lp23
S'5ht1a'
p24
aS'5ht2'
p25
atp26
Rp27
sS'regions'
p28
g3
((lp29
S"(203, u'(?i)(dentates|dentate)(-|\\\\s+)?(gyruses|gyrus)')"
p30
atp31
Rp32
sS'year'
p33
V1992
p34
sS'agonists'
p35
g3
((lp36
S"(92, u'\\\\b8 ?oh ?dpat')"
p37
aS"(24, u'\\\\bbuspirone')"
p38
atp39
Rp40
sS'species'
p41
g3
((lp42
S"(2323, u'(?i)(bees|bee)')"
p43
aS"(5537, u'(?i)(hippos|hippo)')"
p44
aS"(5958, u'(?i)(rats|rat)')"
p45
aS"(6356, u'(?i)(ais|ai)')"
p46
aS"(7552, u'(?i)(bats|bat)')"
p47
aS"(6682, u'(?i)(tera|teras)')"
p48
aS"(468, u'(?i)(oxen|ox)')"
p49
aS"(1055, u'(?i)(men|man)')"
p50
aS"(1349, u'(?i)(rams|ram)')"
p51
aS"(4964, u'(?i)(serins|serin)')"
p52
aS"(6249, u'(?i)(ants|ant)')"
p53
aS"(3812, u'(?i)(studs|stud)')"
p54
aS"(6391, u'(?i)(asses|ass)')"
p55
aS"(821, u'(?i)(lice|louse)')"
p56
atp57
Rp58
sb.