(ifile_types
ParseObject
p0
(dp1
S'antagonists'
p2
c__builtin__
set
p3
((lp4
S"(81, u'\\\\bagomelatine')"
p5
atp6
Rp7
sS'methods'
p8
g3
((lp9
S'Method.ANTAGONIST'
p10
aS'Method.AGONIST'
p11
atp12
Rp13
sS'topics'
p14
g3
((lp15
S"(7, u'\\\\bmemory')"
p16
aS"(19, u'\\\\bimpulsiv')"
p17
aS"(10, u'\\\\banxiety')"
p18
aS"(4, u'\\\\blocomot')"
p19
atp20
Rp21
sS'receptors'
p22
g3
((lp23
S'5ht5'
p24
aS'5ht2c'
p25
atp26
Rp27
sS'regions'
p28
g3
((lp29
S"(215, u'(?i)(basolaterals|basolateral)(-|\\\\s+)?(amygdalas|amygdala)')"
p30
aS"(209, u'(?i)(amygdalas|amygdala)')"
p31
aS"(277, u'(?i)(temporals|temporal)(-|\\\\s+)?(lobes|lobe)')"
p32
aS"(214, u'(?i)(laterals|lateral)(-|\\\\s+)?(amygdalas|amygdala)')"
p33
aS"(34, u'(?i)(pon|pons)')"
p34
aS"(203, u'(?i)(dentates|dentate)(-|\\\\s+)?(gyruses|gyrus)')"
p35
aS"(244, u'(?i)(piriforms|piriform)(-|\\\\s+)?(cortexes|cortex)')"
p36
atp37
Rp38
sS'year'
p39
V2017
p40
sS'agonists'
p41
g3
((lp42
S"(155, u'\\\\bmem')"
p43
atp44
Rp45
sS'species'
p46
g3
((lp47
S"(5537, u'(?i)(hippos|hippo)')"
p48
aS"(5958, u'(?i)(rats|rat)')"
p49
aS"(6753, u'(?i)(da|das)')"
p50
aS"(2389, u'(?i)(spats|spat)')"
p51
aS"(6682, u'(?i)(tera|teras)')"
p52
aS"(1055, u'(?i)(men|man)')"
p53
aS"(1349, u'(?i)(rams|ram)')"
p54
aS"(6356, u'(?i)(ais|ai)')"
p55
aS"(6249, u'(?i)(ants|ant)')"
p56
aS"(1961, u'(?i)(pens|pen)')"
p57
aS"(3812, u'(?i)(studs|stud)')"
p58
aS"(4247, u'(?i)(tatus|tatu)')"
p59
aS"(6580, u'(?i)(dams|dam)')"
p60
aS"(7552, u'(?i)(bats|bat)')"
p61
atp62
Rp63
sb.