(ifile_types
ParseObject
p0
(dp1
S'methods'
p2
c__builtin__
set
p3
((lp4
S'Method.ANTAGONIST'
p5
atp6
Rp7
sS'topics'
p8
g3
((lp9
tp10
Rp11
sS'receptors'
p12
g3
((lp13
(S'5ht1a'
p14
I792
I798
tp15
a(S'5ht1a'
p16
I43
I49
tp17
a(S'5ht1a'
p18
I950
I956
tp19
a(S'5ht1a'
p20
I468
I474
tp21
atp22
Rp23
sS'raw_text_methods'
p24
g3
((lp25
S"(51, u'\\\\bway100635')"
p26
aS"(12, u'\\\\bantagonist')"
p27
atp28
Rp29
sS'regions'
p30
g3
((lp31
tp32
Rp33
sS'year'
p34
V2019
p35
sS'species'
p36
g3
((lp37
tp38
Rp39
sb.