(ifile_types
ParseObject
p0
(dp1
S'methods'
p2
c__builtin__
set
p3
((lp4
S'Method.ANTAGONIST'
p5
atp6
Rp7
sS'topics'
p8
g3
((lp9
S"(14, u'\\\\bcogniti')"
p10
aS"(5, u'\\\\btherap')"
p11
aS"(16, u'\\\\blearning')"
p12
aS"(26, u'\\\\bbehav')"
p13
aS"(2, u'\\\\bdisorder')"
p14
atp15
Rp16
sS'receptors'
p17
g3
((lp18
(S'5ht2c'
p19
I902
I908
tp20
a(S'5ht2a'
p21
I825
I831
tp22
a(S'5ht2c'
p23
I395
I401
tp24
a(S'5ht2a'
p25
I263
I269
tp26
a(S'5ht2c'
p27
I557
I563
tp28
a(S'5ht2c'
p29
I88
I94
tp30
a(S'5ht2c'
p31
I814
I820
tp32
a(S'5ht2a'
p33
I568
I574
tp34
a(S'5ht2c'
p35
I252
I258
tp36
a(S'5ht2c'
p37
I1762
I1768
tp38
a(S'5ht2a'
p39
I406
I412
tp40
a(S'5ht2c'
p41
I1662
I1668
tp42
atp43
Rp44
sS'raw_text_methods'
p45
g3
((lp46
S"(50, u'\\\\bm100907')"
p47
aS"(12, u'\\\\bantagonist')"
p48
atp49
Rp50
sS'regions'
p51
g3
((lp52
S"(20, u'(?i)\\\\b(prefrontals|prefrontal)\\\\b')"
p53
aS"(21, u'(?i)\\\\b(mpfcs|mpfc)\\\\b')"
p54
aS"(19, u'(?i)\\\\b(cortexes|cortex)\\\\b')"
p55
atp56
Rp57
sS'year'
p58
V2010
p59
sS'species'
p60
g3
((lp61
tp62
Rp63
sb.