(ifile_types
ParseObject
p0
(dp1
S'antagonists'
p2
c__builtin__
set
p3
((lp4
tp5
Rp6
sS'methods'
p7
g3
((lp8
S'Method.ANTAGONIST'
p9
aS'Method.AGONIST'
p10
atp11
Rp12
sS'topics'
p13
g3
((lp14
S"(8, u'\\\\blearning')"
p15
aS"(15, u'\\\\bschizophreni')"
p16
aS"(6, u'\\\\bcognit')"
p17
aS"(33, u'\\\\balzheimers')"
p18
aS"(7, u'\\\\bmemory')"
p19
atp20
Rp21
sS'receptors'
p22
g3
((lp23
S'5ht3'
p24
aS'5ht3a'
p25
atp26
Rp27
sS'regions'
p28
g3
((lp29
S"(362, u'(?i)(brains|brain)(-|\\\\s+)?(stems|stem)')"
p30
atp31
Rp32
sS'year'
p33
V2016
p34
sS'agonists'
p35
g3
((lp36
S"(155, u'\\\\bmem')"
p37
atp38
Rp39
sS'species'
p40
g3
((lp41
S"(5537, u'(?i)(hippos|hippo)')"
p42
aS"(2670, u'(?i)(arabs|arab)')"
p43
aS"(6753, u'(?i)(da|das)')"
p44
aS"(5958, u'(?i)(rats|rat)')"
p45
aS"(163, u'(?i)(mice|mouse)')"
p46
aS"(479, u'(?i)(lings|ling)')"
p47
aS"(4163, u'(?i)(ermines|ermine)')"
p48
aS"(1055, u'(?i)(men|man)')"
p49
aS"(5743, u'(?i)(bots|bot)')"
p50
aS"(6249, u'(?i)(ants|ant)')"
p51
aS"(6682, u'(?i)(tera|teras)')"
p52
aS"(6356, u'(?i)(ais|ai)')"
p53
aS"(6391, u'(?i)(asses|ass)')"
p54
atp55
Rp56
sb.