(ifile_types
ParseObject
p0
(dp1
S'methods'
p2
c__builtin__
set
p3
((lp4
S'Method.KNOCKOUT'
p5
aS'Method.ANTAGONIST'
p6
aS'Method.AGONIST'
p7
atp8
Rp9
sS'topics'
p10
g3
((lp11
S"(24, u'\\\\banxiolytic')"
p12
aS"(8, u'\\\\banxi')"
p13
atp14
Rp15
sS'receptors'
p16
g3
((lp17
(S'5ht1'
p18
I980
I986
tp19
a(S'5ht1a'
p20
I814
I820
tp21
a(S'5ht1'
p22
I814
I820
tp23
a(S'5ht1a'
p24
I980
I986
tp25
a(S'5ht1'
p26
I136
I142
tp27
a(S'5ht1a'
p28
I136
I142
tp29
atp30
Rp31
sS'raw_text_methods'
p32
g3
((lp33
S"(13, u'\\\\bagonist')"
p34
aS"(12, u'\\\\bantagonist')"
p35
atp36
Rp37
sS'regions'
p38
g3
((lp39
tp40
Rp41
sS'year'
p42
V2011
p43
sS'species'
p44
g3
((lp45
S"(1, u'(?i)\\\\b(mice|mouse)\\\\b')"
p46
aS"(5, u'(?i)\\\\b(mices|mice)\\\\b')"
p47
atp48
Rp49
sb.