(ifile_types
ParseObject
p0
(dp1
S'antagonists'
p2
c__builtin__
set
p3
((lp4
S"(53, u'\\\\bketanserin')"
p5
aS"(128, u'\\\\bketanserin')"
p6
atp7
Rp8
sS'methods'
p9
g3
((lp10
tp11
Rp12
sS'topics'
p13
g3
((lp14
tp15
Rp16
sS'receptors'
p17
g3
((lp18
S'5ht1a'
p19
atp20
Rp21
sS'regions'
p22
g3
((lp23
tp24
Rp25
sS'year'
p26
V1987
p27
sS'agonists'
p28
g3
((lp29
S"(92, u'\\\\b8 ?oh ?dpat')"
p30
aS"(24, u'\\\\bbuspirone')"
p31
aS"(155, u'\\\\bmem')"
p32
atp33
Rp34
sS'species'
p35
g3
((lp36
S"(5537, u'(?i)(hippos|hippo)')"
p37
aS"(6753, u'(?i)(da|das)')"
p38
aS"(5958, u'(?i)(rats|rat)')"
p39
aS"(6682, u'(?i)(tera|teras)')"
p40
aS"(7488, u'(?i)(molas|mola)')"
p41
aS"(4979, u'(?i)(cats|cat)')"
p42
aS"(4163, u'(?i)(ermines|ermine)')"
p43
aS"(468, u'(?i)(oxen|ox)')"
p44
aS"(1055, u'(?i)(men|man)')"
p45
aS"(3152, u'(?i)(layers|layer)')"
p46
aS"(4964, u'(?i)(serins|serin)')"
p47
aS"(6249, u'(?i)(ants|ant)')"
p48
aS"(3522, u'(?i)(tetras|tetra)')"
p49
aS"(1961, u'(?i)(pens|pen)')"
p50
aS"(7552, u'(?i)(bats|bat)')"
p51
aS"(1349, u'(?i)(rams|ram)')"
p52
aS"(5743, u'(?i)(bots|bot)')"
p53
aS"(821, u'(?i)(lice|louse)')"
p54
aS"(4133, u'(?i)(pikes|pike)')"
p55
atp56
Rp57
sb.