(ifile_types
ParseObject
p0
(dp1
S'methods'
p2
c__builtin__
set
p3
((lp4
S'Method.ANTAGONIST'
p5
aS'Method.AGONIST'
p6
atp7
Rp8
sS'topics'
p9
g3
((lp10
tp11
Rp12
sS'receptors'
p13
g3
((lp14
(S'5ht1'
p15
I608
I613
tp16
a(S'5ht2'
p17
I698
I703
tp18
a(S'5ht2'
p19
I571
I576
tp20
a(S'5ht2'
p21
I608
I614
tp22
a(S'5ht1a'
p23
I882
I888
tp24
a(S'5ht1'
p25
I925
I930
tp26
atp27
Rp28
sS'raw_text_methods'
p29
g3
((lp30
S"(13, u'\\\\bagonist')"
p31
aS"(46, u'\\\\bspiperone')"
p32
aS"(53, u'\\\\bketanserin')"
p33
aS"(12, u'\\\\bantagonist')"
p34
atp35
Rp36
sS'regions'
p37
g3
((lp38
tp39
Rp40
sS'year'
p41
V1991
p42
sS'species'
p43
g3
((lp44
tp45
Rp46
sb.