(ifile_types
ParseObject
p0
(dp1
S'methods'
p2
c__builtin__
set
p3
((lp4
S'Method.AGONIST'
p5
atp6
Rp7
sS'topics'
p8
g3
((lp9
S"(26, u'\\\\bbehav')"
p10
aS"(2, u'\\\\bdisorder')"
p11
aS"(7, u'\\\\bdepressi')"
p12
aS"(9, u'\\\\bstress')"
p13
aS"(8, u'\\\\banxi')"
p14
aS"(1, u'\\\\bpatient')"
p15
aS"(4, u'\\\\btreatment')"
p16
atp17
Rp18
sS'receptors'
p19
g3
((lp20
(S'5ht1a'
p21
I871
I877
tp22
a(S'5ht1a'
p23
I1500
I1506
tp24
a(S'5ht1a'
p25
I744
I750
tp26
a(S'5ht1a'
p27
I1087
I1093
tp28
a(S'5ht1a'
p29
I1389
I1395
tp30
a(S'5ht1a'
p31
I119
I125
tp32
atp33
Rp34
sS'raw_text_methods'
p35
g3
((lp36
S"(13, u'\\\\bagonist')"
p37
aS"(15, u'\\\\b8ohdpat')"
p38
atp39
Rp40
sS'regions'
p41
g3
((lp42
tp43
Rp44
sS'year'
p45
V2002
p46
sS'species'
p47
g3
((lp48
S"(1, u'(?i)\\\\b(mice|mouse)\\\\b')"
p49
aS"(2, u'(?i)\\\\b(females|female)\\\\b')"
p50
aS"(5, u'(?i)\\\\b(mices|mice)\\\\b')"
p51
atp52
Rp53
sb.