(ifile_types
ParseObject
p0
(dp1
S'methods'
p2
c__builtin__
set
p3
((lp4
S'Method.PET'
p5
aS'Method.ANTAGONIST'
p6
atp7
Rp8
sS'topics'
p9
g3
((lp10
S"(14, u'\\\\bcogniti')"
p11
aS"(26, u'\\\\bbehav')"
p12
aS"(17, u'\\\\balzheimer')"
p13
aS"(16, u'\\\\blearning')"
p14
aS"(15, u'\\\\bmemory')"
p15
aS"(5, u'\\\\btherap')"
p16
aS"(4, u'\\\\btreatment')"
p17
atp18
Rp19
sS'receptors'
p20
g3
((lp21
(S'5ht5'
p22
I764
I774
tp23
a(S'5ht1b'
p24
I1787
I1793
tp25
a(S'5ht1a'
p26
I1612
I1618
tp27
a(S'5ht1b'
p28
I807
I813
tp29
a(S'5ht1a'
p30
I796
I802
tp31
a(S'5ht1b'
p32
I1623
I1629
tp33
a(S'5ht1a'
p34
I1773
I1779
tp35
atp36
Rp37
sS'raw_text_methods'
p38
g3
((lp39
S"(17, u'\\\\bpet')"
p40
aS"(19, u'\\\\bpositron emission tomography')"
p41
aS"(18, u'\\\\bimaging')"
p42
aS"(12, u'\\\\bantagonist')"
p43
atp44
Rp45
sS'regions'
p46
g3
((lp47
S"(8, u'(?i)\\\\b(centrals|central)(-|\\\\s+)?(nervouses|nervous)(-|\\\\s+)?(systems|system)\\\\b')"
p48
atp49
Rp50
sS'year'
p51
V2016
p52
sS'species'
p53
g3
((lp54
S"(6, u'(?i)\\\\b(rodents|rodent)\\\\b')"
p55
aS"(8, u'(?i)\\\\b(primates|primate)\\\\b')"
p56
atp57
Rp58
sb.