(ifile_types
ParseObject
p0
(dp1
S'antagonists'
p2
c__builtin__
set
p3
((lp4
tp5
Rp6
sS'methods'
p7
g3
((lp8
tp9
Rp10
sS'topics'
p11
g3
((lp12
S"(9, u'\\\\bdepress')"
p13
aS"(10, u'\\\\banxiety')"
p14
aS"(1, u'\\\\bmood')"
p15
atp16
Rp17
sS'receptors'
p18
g3
((lp19
S'5ht1a'
p20
atp21
Rp22
sS'regions'
p23
g3
((lp24
S"(34, u'(?i)(pon|pons)')"
p25
atp26
Rp27
sS'year'
p28
V2001
p29
sS'agonists'
p30
g3
((lp31
tp32
Rp33
sS'species'
p34
g3
((lp35
S"(4624, u'(?i)(apes|ape)')"
p36
aS"(7094, u'(?i)(curs|cur)')"
p37
aS"(1349, u'(?i)(rams|ram)')"
p38
aS"(3812, u'(?i)(studs|stud)')"
p39
aS"(5229, u'(?i)(moles|mole)')"
p40
aS"(6356, u'(?i)(ais|ai)')"
p41
aS"(702, u'(?i)(genets|genet)')"
p42
aS"(81, u'(?i)(asps|asp)')"
p43
aS"(3404, u'(?i)(titis|titi)')"
p44
aS"(3550, u'(?i)(anis|ani)')"
p45
aS"(1553, u'(?i)(mews|mew)')"
p46
aS"(7609, u'(?i)(erns|ern)')"
p47
aS"(867, u'(?i)(tits|tit)')"
p48
aS"(163, u'(?i)(mice|mouse)')"
p49
aS"(1055, u'(?i)(men|man)')"
p50
aS"(6753, u'(?i)(da|das)')"
p51
aS"(1961, u'(?i)(pens|pen)')"
p52
aS"(2323, u'(?i)(bees|bee)')"
p53
aS"(2568, u'(?i)(hens|hen)')"
p54
aS"(2665, u'(?i)(rays|ray)')"
p55
aS"(5917, u'(?i)(roaches|roach)')"
p56
aS"(1683, u'(?i)(terns|tern)')"
p57
atp58
Rp59
sb.