(ifile_types
ParseObject
p0
(dp1
S'methods'
p2
c__builtin__
set
p3
((lp4
S'Method.ANTAGONIST'
p5
aS'Method.AGONIST'
p6
atp7
Rp8
sS'topics'
p9
g3
((lp10
S"(5, u'\\\\btherap')"
p11
atp12
Rp13
sS'receptors'
p14
g3
((lp15
(S'5ht1'
p16
I827
I832
tp17
a(S'5ht1a'
p18
I996
I1002
tp19
a(S'5ht3'
p20
I1660
I1665
tp21
a(S'5ht2'
p22
I1708
I1713
tp23
a(S'5ht3'
p24
I1287
I1292
tp25
a(S'5ht2'
p26
I1191
I1196
tp27
atp28
Rp29
sS'raw_text_methods'
p30
g3
((lp31
S"(16, u'\\\\bdiazepam')"
p32
aS"(15, u'\\\\b8ohdpat')"
p33
aS"(36, u'\\\\bbenzodiazepine')"
p34
aS"(13, u'\\\\bagonist')"
p35
aS"(9, u'\\\\britanserin')"
p36
aS"(12, u'\\\\bantagonist')"
p37
atp38
Rp39
sS'regions'
p40
g3
((lp41
tp42
Rp43
sS'year'
p44
V1995
p45
sS'species'
p46
g3
((lp47
S"(4, u'(?i)\\\\b(rats|rat)\\\\b')"
p48
atp49
Rp50
sb.