(ifile_types
ParseObject
p0
(dp1
S'methods'
p2
c__builtin__
set
p3
((lp4
S'Method.AGONIST'
p5
atp6
Rp7
sS'topics'
p8
g3
((lp9
S"(26, u'\\\\bbehav')"
p10
aS"(25, u'\\\\bsocial')"
p11
aS"(9, u'\\\\bstress')"
p12
aS"(33, u'\\\\blocomot')"
p13
aS"(8, u'\\\\banxi')"
p14
aS"(4, u'\\\\btreatment')"
p15
atp16
Rp17
sS'receptors'
p18
g3
((lp19
(S'5ht2c'
p20
I1249
I1255
tp21
a(S'5ht2a'
p22
I1242
I1248
tp23
a(S'5ht2a'
p24
I647
I653
tp25
a(S'5ht2a'
p26
I108
I114
tp27
a(S'5ht2a'
p28
I523
I529
tp29
a(S'5ht2'
p30
I108
I114
tp31
a(S'5ht2a'
p32
I619
I625
tp33
atp34
Rp35
sS'raw_text_methods'
p36
g3
((lp37
S"(13, u'\\\\bagonist')"
p38
aS"(53, u'\\\\bketanserin')"
p39
aS"(49, u'\\\\bdoi')"
p40
atp41
Rp42
sS'regions'
p43
g3
((lp44
tp45
Rp46
sS'year'
p47
V1994
p48
sS'species'
p49
g3
((lp50
S"(4, u'(?i)\\\\b(rats|rat)\\\\b')"
p51
atp52
Rp53
sb.