(ifile_types
ParseObject
p0
(dp1
S'antagonists'
p2
c__builtin__
set
p3
((lp4
S"(117, u'\\\\bketanserin')"
p5
aS"(31, u'\\\\bway ?100635')"
p6
atp7
Rp8
sS'methods'
p9
g3
((lp10
S'Method.STIMULATION'
p11
aS'Method.AGONIST'
p12
atp13
Rp14
sS'topics'
p15
g3
((lp16
S"(11, u'\\\\banxiolyt')"
p17
aS"(10, u'\\\\banxiety')"
p18
atp19
Rp20
sS'receptors'
p21
g3
((lp22
S'5ht1a'
p23
aS'5ht2'
p24
aS'5ht1'
p25
atp26
Rp27
sS'regions'
p28
g3
((lp29
S"(214, u'(?i)\\\\b(laterals|lateral)(-|\\\\s+)?(amygdalas|amygdala)\\\\b')"
p30
aS"(209, u'(?i)\\\\b(amygdalas|amygdala)\\\\b')"
p31
aS"(126, u'(?i)\\\\b(thalamuses|thalamus)\\\\b')"
p32
atp33
Rp34
sS'year'
p35
V2005
p36
sS'agonists'
p37
g3
((lp38
S"(85, u'\\\\b8 ?oh ?dpat')"
p39
aS"(175, u'\\\\bdoi')"
p40
atp41
Rp42
sS'species'
p43
g3
((lp44
S"(5958, u'(?i)\\\\b(rats|rat)\\\\b')"
p45
atp46
Rp47
sb.