(ifile_types
ParseObject
p0
(dp1
S'antagonists'
p2
c__builtin__
set
p3
((lp4
tp5
Rp6
sS'methods'
p7
g3
((lp8
S'Method.ANTAGONIST'
p9
atp10
Rp11
sS'topics'
p12
g3
((lp13
tp14
Rp15
sS'receptors'
p16
g3
((lp17
S'5ht3a'
p18
aS'5ht3'
p19
aS'5ht3b'
p20
atp21
Rp22
sS'regions'
p23
g3
((lp24
S"(362, u'(?i)(brains|brain)(-|\\\\s+)?(stems|stem)')"
p25
aS"(209, u'(?i)(amygdalas|amygdala)')"
p26
aS"(313, u'(?i)(solitaries|solitary)(-|\\\\s+)?(tracts|tract)')"
p27
aS"(96, u'(?i)(ventrals|ventral)(-|\\\\s+)?(tegmentals|tegmental)(-|\\\\s+)?(areas|area)')"
p28
aS"(174, u'(?i)(posteriors|posterior)')"
p29
aS"(177, u'(?i)(posteriors|posterior)(-|\\\\s+)?(nuclei|nucleus)')"
p30
aS"(243, u'(?i)(anteriors|anterior)(-|\\\\s+)?(olfactories|olfactory)(-|\\\\s+)?(nuclei|nucleus)')"
p31
atp32
Rp33
sS'year'
p34
V1990
p35
sS'agonists'
p36
g3
((lp37
S"(155, u'\\\\bmem')"
p38
atp39
Rp40
sS'species'
p41
g3
((lp42
S"(2323, u'(?i)(bees|bee)')"
p43
aS"(5626, u'(?i)(posters|poster)')"
p44
aS"(5176, u'(?i)(tegs|teg)')"
p45
aS"(5958, u'(?i)(rats|rat)')"
p46
aS"(5150, u'(?i)(gerbils|gerbil)')"
p47
aS"(163, u'(?i)(mice|mouse)')"
p48
aS"(6753, u'(?i)(da|das)')"
p49
aS"(3051, u'(?i)(pigs|pig)')"
p50
aS"(1055, u'(?i)(men|man)')"
p51
aS"(3062, u'(?i)(guineas|guinea)')"
p52
aS"(1054, u'(?i)(homoes|homo)')"
p53
aS"(853, u'(?i)(minas|mina)')"
p54
aS"(4099, u'(?i)(hamsters|hamster)')"
p55
aS"(6249, u'(?i)(ants|ant)')"
p56
aS"(5799, u'(?i)(rodents|rodent)')"
p57
aS"(3812, u'(?i)(studs|stud)')"
p58
aS"(4480, u'(?i)(guineas|guinea)(-|\\\\s+)?(pigs|pig)')"
p59
aS"(6356, u'(?i)(ais|ai)')"
p60
atp61
Rp62
sb.