(ifile_types
ParseObject
p0
(dp1
S'antagonists'
p2
c__builtin__
set
p3
((lp4
S"(123, u'\\\\bclozapine')"
p5
aS"(142, u'\\\\bm1')"
p6
aS"(56, u'\\\\bclozapine')"
p7
atp8
Rp9
sS'methods'
p10
g3
((lp11
S'Method.ANTAGONIST'
p12
atp13
Rp14
sS'topics'
p15
g3
((lp16
S"(15, u'\\\\bschizophreni')"
p17
aS"(18, u'\\\\bpsychostim')"
p18
atp19
Rp20
sS'receptors'
p21
g3
((lp22
S'5ht2a'
p23
atp24
Rp25
sS'regions'
p26
g3
((lp27
S"(34, u'(?i)(pon|pons)')"
p28
atp29
Rp30
sS'year'
p31
V2010
p32
sS'agonists'
p33
g3
((lp34
S"(14, u'\\\\bamphetamine')"
p35
aS"(27, u'\\\\bclozapine')"
p36
atp37
Rp38
sS'species'
p39
g3
((lp40
S"(5958, u'(?i)(rats|rat)')"
p41
aS"(7552, u'(?i)(bats|bat)')"
p42
aS"(81, u'(?i)(asps|asp)')"
p43
aS"(468, u'(?i)(oxen|ox)')"
p44
aS"(1055, u'(?i)(men|man)')"
p45
aS"(6249, u'(?i)(ants|ant)')"
p46
aS"(6753, u'(?i)(da|das)')"
p47
aS"(2568, u'(?i)(hens|hen)')"
p48
aS"(6356, u'(?i)(ais|ai)')"
p49
aS"(6391, u'(?i)(asses|ass)')"
p50
aS"(2809, u'(?i)(toms|tom)')"
p51
atp52
Rp53
sb.