(ifile_types
ParseObject
p0
(dp1
S'methods'
p2
c__builtin__
set
p3
((lp4
S'Method.AGONIST'
p5
atp6
Rp7
sS'topics'
p8
g3
((lp9
S"(14, u'\\\\bcogniti')"
p10
aS"(26, u'\\\\bbehav')"
p11
aS"(9, u'\\\\bstress')"
p12
aS"(33, u'\\\\blocomot')"
p13
aS"(34, u'\\\\bparkinson')"
p14
aS"(5, u'\\\\btherap')"
p15
aS"(4, u'\\\\btreatment')"
p16
atp17
Rp18
sS'receptors'
p19
g3
((lp20
(S'5ht1f'
p21
I32
I38
tp22
a(S'5ht1f'
p23
I1988
I1994
tp24
a(S'5ht1f'
p25
I630
I636
tp26
atp27
Rp28
sS'raw_text_methods'
p29
g3
((lp30
S"(13, u'\\\\bagonist')"
p31
aS"(3, u'\\\\bimmunoreactiv')"
p32
atp33
Rp34
sS'regions'
p35
g3
((lp36
S"(15, u'(?i)\\\\b(substantias|substantia)(-|\\\\s+)?(nigras|nigra)\\\\b')"
p37
atp38
Rp39
sS'year'
p40
V2018
p41
sS'species'
p42
g3
((lp43
S"(1, u'(?i)\\\\b(mice|mouse)\\\\b')"
p44
aS"(5, u'(?i)\\\\b(mices|mice)\\\\b')"
p45
atp46
Rp47
sb.