(ifile_types
ParseObject
p0
(dp1
S'antagonists'
p2
c__builtin__
set
p3
((lp4
S"(23, u'\\\\brisperidone')"
p5
aS"(123, u'\\\\bclozapine')"
p6
aS"(56, u'\\\\bclozapine')"
p7
aS"(57, u'\\\\bolanzapine')"
p8
aS"(41, u'\\\\bziprasidone')"
p9
aS"(124, u'\\\\bolanzapine')"
p10
aS"(125, u'\\\\bquetiapine')"
p11
aS"(59, u'\\\\brisperidone')"
p12
aS"(67, u'\\\\bhaloperidol')"
p13
aS"(58, u'\\\\bquetiapine')"
p14
aS"(135, u'\\\\bondansetron')"
p15
atp16
Rp17
sS'methods'
p18
g3
((lp19
S'Method.ANTAGONIST'
p20
aS'Method.AGONIST'
p21
atp22
Rp23
sS'topics'
p24
g3
((lp25
tp26
Rp27
sS'receptors'
p28
g3
((lp29
S'5ht3'
p30
aS'5ht6'
p31
aS'5ht5'
p32
aS'5ht3a'
p33
aS'5ht2c'
p34
atp35
Rp36
sS'regions'
p37
g3
((lp38
tp39
Rp40
sS'year'
p41
V2001
p42
sS'agonists'
p43
g3
((lp44
S"(71, u'\\\\bquetiapine')"
p45
aS"(64, u'\\\\bolanzapine')"
p46
aS"(48, u'\\\\bhaloperidol')"
p47
aS"(91, u'\\\\bziprasidone')"
p48
aS"(27, u'\\\\bclozapine')"
p49
atp50
Rp51
sS'species'
p52
g3
((lp53
S"(6249, u'(?i)(ants|ant)')"
p54
aS"(6753, u'(?i)(da|das)')"
p55
aS"(3051, u'(?i)(pigs|pig)')"
p56
aS"(6682, u'(?i)(tera|teras)')"
p57
aS"(3062, u'(?i)(guineas|guinea)')"
p58
aS"(1055, u'(?i)(men|man)')"
p59
aS"(6356, u'(?i)(ais|ai)')"
p60
aS"(1057, u'(?i)(humans|human)')"
p61
aS"(3812, u'(?i)(studs|stud)')"
p62
aS"(3196, u'(?i)(human|humans)')"
p63
aS"(4480, u'(?i)(guineas|guinea)(-|\\\\s+)?(pigs|pig)')"
p64
aS"(6878, u'(?i)(guans|guan)')"
p65
atp66
Rp67
sb.