(ifile_types
ParseObject
p0
(dp1
S'methods'
p2
c__builtin__
set
p3
((lp4
S'Method.ANTAGONIST'
p5
aS'Method.AGONIST'
p6
atp7
Rp8
sS'topics'
p9
g3
((lp10
tp11
Rp12
sS'receptors'
p13
g3
((lp14
(S'5ht1a'
p15
I1529
I1535
tp16
a(S'5ht1b'
p17
I2432
I2438
tp18
a(S'5ht1b'
p19
I723
I729
tp20
a(S'5ht1a'
p21
I1667
I1673
tp22
a(S'5ht1d'
p23
I730
I736
tp24
a(S'5ht1'
p25
I1191
I1196
tp26
a(S'5ht1d'
p27
I1632
I1640
tp28
a(S'5ht1a'
p29
I1046
I1052
tp30
a(S'5ht7'
p31
I2064
I2069
tp32
a(S'5ht1b'
p33
I858
I864
tp34
a(S'5ht1d'
p35
I2432
I2440
tp36
a(S'5ht1b'
p37
I1632
I1638
tp38
a(S'5ht1a'
p39
I2578
I2584
tp40
a(S'5ht1a'
p41
I2424
I2430
tp42
a(S'5ht7'
p43
I2161
I2166
tp44
a(S'5ht5'
p45
I2233
I2238
tp46
a(S'5ht1a'
p47
I1304
I1310
tp48
a(S'5ht7'
p49
I2446
I2451
tp50
a(S'5ht1d'
p51
I858
I866
tp52
atp53
Rp54
sS'raw_text_methods'
p55
g3
((lp56
S"(15, u'\\\\b8ohdpat')"
p57
aS"(40, u'\\\\bclozapine')"
p58
aS"(13, u'\\\\bagonist')"
p59
aS"(6, u'\\\\bgr127935')"
p60
aS"(47, u'\\\\bsumatriptan')"
p61
aS"(54, u'\\\\bautoradiography')"
p62
aS"(46, u'\\\\bspiperone')"
p63
aS"(12, u'\\\\bantagonist')"
p64
atp65
Rp66
sS'regions'
p67
g3
((lp68
S"(15, u'(?i)\\\\b(substantias|substantia)(-|\\\\s+)?(nigras|nigra)\\\\b')"
p69
aS"(13, u'(?i)\\\\b(septums|septum)\\\\b')"
p70
aS"(17, u'(?i)\\\\b(caudates|caudate)\\\\b')"
p71
aS"(18, u'(?i)\\\\b(putamens|putamen)\\\\b')"
p72
atp73
Rp74
sS'year'
p75
V1995
p76
sS'species'
p77
g3
((lp78
S"(7, u'(?i)\\\\b(guineas|guinea)(-|\\\\s+)?(pigs|pig)\\\\b')"
p79
aS"(6, u'(?i)\\\\b(rodents|rodent)\\\\b')"
p80
aS"(4, u'(?i)\\\\b(rats|rat)\\\\b')"
p81
atp82
Rp83
sb.