(ifile_types
ParseObject
p0
(dp1
S'antagonists'
p2
c__builtin__
set
p3
((lp4
tp5
Rp6
sS'methods'
p7
g3
((lp8
tp9
Rp10
sS'topics'
p11
g3
((lp12
S"(8, u'\\\\blearning')"
p13
aS"(10, u'\\\\banxiety')"
p14
aS"(7, u'\\\\bmemory')"
p15
atp16
Rp17
sS'receptors'
p18
g3
((lp19
tp20
Rp21
sS'regions'
p22
g3
((lp23
S"(318, u'(?i)\\\\b(raphes|raphe)(-|\\\\s+)?(nuclei|nucleus)\\\\b')"
p24
atp25
Rp26
sS'year'
p27
V2005
p28
sS'agonists'
p29
g3
((lp30
S"(149, u'\\\\bmem')"
p31
aS"(85, u'\\\\b8 ?oh ?dpat')"
p32
atp33
Rp34
sS'species'
p35
g3
((lp36
S"(5958, u'(?i)\\\\b(rats|rat)\\\\b')"
p37
atp38
Rp39
sb.