(ifile_types
ParseObject
p0
(dp1
S'methods'
p2
c__builtin__
set
p3
((lp4
S'Method.AGONIST'
p5
atp6
Rp7
sS'topics'
p8
g3
((lp9
tp10
Rp11
sS'receptors'
p12
g3
((lp13
(S'5ht1b'
p14
I1608
I1614
tp15
a(S'5ht1b'
p16
I338
I344
tp17
a(S'5ht1a'
p18
I327
I333
tp19
a(S'5ht1a'
p20
I108
I114
tp21
a(S'5ht1b'
p22
I119
I125
tp23
a(S'5ht1b'
p24
I695
I701
tp25
a(S'5ht1a'
p26
I536
I542
tp27
a(S'5ht1b'
p28
I1496
I1502
tp29
a(S'5ht1a'
p30
I1172
I1178
tp31
a(S'5ht1a'
p32
I1597
I1603
tp33
a(S'5ht1a'
p34
I1776
I1782
tp35
atp36
Rp37
sS'raw_text_methods'
p38
g3
((lp39
S"(13, u'\\\\bagonist')"
p40
aS"(15, u'\\\\b8ohdpat')"
p41
aS"(33, u'\\\\bmcpp')"
p42
aS"(21, u'\\\\bipsapirone')"
p43
atp44
Rp45
sS'regions'
p46
g3
((lp47
tp48
Rp49
sS'year'
p50
V1988
p51
sS'species'
p52
g3
((lp53
S"(4, u'(?i)\\\\b(rats|rat)\\\\b')"
p54
atp55
Rp56
sb.