(ifile_types
ParseObject
p0
(dp1
S'antagonists'
p2
c__builtin__
set
p3
((lp4
S"(129, u'\\\\bly ?53857')"
p5
atp6
Rp7
sS'methods'
p8
g3
((lp9
S'Method.ANTAGONIST'
p10
atp11
Rp12
sS'topics'
p13
g3
((lp14
S"(26, u'\\\\bcardiovascular')"
p15
atp16
Rp17
sS'receptors'
p18
g3
((lp19
S'5ht5'
p20
aS'5ht2c'
p21
aS'5ht1'
p22
aS'5ht2a'
p23
atp24
Rp25
sS'regions'
p26
g3
((lp27
S"(34, u'(?i)(pon|pons)')"
p28
atp29
Rp30
sS'year'
p31
V1996
p32
sS'agonists'
p33
g3
((lp34
S"(169, u'\\\\bfenfluramine')"
p35
atp36
Rp37
sS'species'
p38
g3
((lp39
S"(5958, u'(?i)(rats|rat)')"
p40
aS"(6753, u'(?i)(da|das)')"
p41
aS"(468, u'(?i)(oxen|ox)')"
p42
aS"(4163, u'(?i)(ermines|ermine)')"
p43
aS"(1349, u'(?i)(rams|ram)')"
p44
aS"(6249, u'(?i)(ants|ant)')"
p45
aS"(3592, u'(?i)(ravens|raven)')"
p46
aS"(6215, u'(?i)(racers|racer)')"
p47
aS"(6356, u'(?i)(ais|ai)')"
p48
aS"(3550, u'(?i)(anis|ani)')"
p49
aS"(3812, u'(?i)(studs|stud)')"
p50
atp51
Rp52
sb.