(ifile_types
ParseObject
p0
(dp1
S'methods'
p2
c__builtin__
set
p3
((lp4
tp5
Rp6
sS'topics'
p7
g3
((lp8
S"(8, u'\\\\banxi')"
p9
aS"(13, u'\\\\bantidepress')"
p10
aS"(26, u'\\\\bbehav')"
p11
aS"(4, u'\\\\btreatment')"
p12
atp13
Rp14
sS'receptors'
p15
g3
((lp16
(S'5ht2c'
p17
I1024
I1030
tp18
atp19
Rp20
sS'raw_text_methods'
p21
g3
((lp22
S"(11, u'\\\\bfluoxetine')"
p23
atp24
Rp25
sS'regions'
p26
g3
((lp27
tp28
Rp29
sS'year'
p30
V2006
p31
sS'species'
p32
g3
((lp33
S"(4, u'(?i)\\\\b(rats|rat)\\\\b')"
p34
atp35
Rp36
sb.