(ifile_types
ParseObject
p0
(dp1
S'methods'
p2
c__builtin__
set
p3
((lp4
S'Method.ANTAGONIST'
p5
aS'Method.AGONIST'
p6
atp7
Rp8
sS'topics'
p9
g3
((lp10
S"(30, u'\\\\bpain')"
p11
aS"(35, u'\\\\bnocicept')"
p12
aS"(4, u'\\\\btreatment')"
p13
atp14
Rp15
sS'receptors'
p16
g3
((lp17
(S'5ht1b'
p18
I227
I233
tp19
a(S'5ht1b'
p20
I1613
I1619
tp21
a(S'5ht1b'
p22
I1733
I1739
tp23
a(S'5ht1b'
p24
I1036
I1042
tp25
a(S'5ht1d'
p26
I1036
I1044
tp27
a(S'5ht1b'
p28
I689
I695
tp29
a(S'5ht1b'
p30
I29
I35
tp31
a(S'5ht1d'
p32
I1087
I1093
tp33
atp34
Rp35
sS'raw_text_methods'
p36
g3
((lp37
S"(13, u'\\\\bagonist')"
p38
aS"(47, u'\\\\bsumatriptan')"
p39
aS"(12, u'\\\\bantagonist')"
p40
atp41
Rp42
sS'regions'
p43
g3
((lp44
S"(4, u'(?i)\\\\b(presynaptics|presynaptic)\\\\b')"
p45
atp46
Rp47
sS'year'
p48
V2012
p49
sS'species'
p50
g3
((lp51
S"(4, u'(?i)\\\\b(rats|rat)\\\\b')"
p52
atp53
Rp54
sb.