(ifile_types
ParseObject
p0
(dp1
S'methods'
p2
c__builtin__
set
p3
((lp4
S'Method.ANTAGONIST'
p5
atp6
Rp7
sS'topics'
p8
g3
((lp9
S"(31, u'\\\\brespiratory')"
p10
aS"(26, u'\\\\bbehav')"
p11
atp12
Rp13
sS'receptors'
p14
g3
((lp15
(S'5ht2a'
p16
I1210
I1216
tp17
a(S'5ht2a'
p18
I1413
I1419
tp19
a(S'5ht2a'
p20
I1674
I1680
tp21
a(S'5ht2a'
p22
I1258
I1264
tp23
a(S'5ht2a'
p24
I1474
I1480
tp25
a(S'5ht2a'
p26
I79
I85
tp27
atp28
Rp29
sS'raw_text_methods'
p30
g3
((lp31
S"(53, u'\\\\bketanserin')"
p32
aS"(12, u'\\\\bantagonist')"
p33
atp34
Rp35
sS'regions'
p36
g3
((lp37
tp38
Rp39
sS'year'
p40
V2006
p41
sS'species'
p42
g3
((lp43
S"(1, u'(?i)\\\\b(mice|mouse)\\\\b')"
p44
aS"(5, u'(?i)\\\\b(mices|mice)\\\\b')"
p45
atp46
Rp47
sb.