(ifile_types
ParseObject
p0
(dp1
S'methods'
p2
c__builtin__
set
p3
((lp4
S'Method.PET'
p5
aS'Method.AGONIST'
p6
atp7
Rp8
sS'topics'
p9
g3
((lp10
S"(26, u'\\\\bbehav')"
p11
atp12
Rp13
sS'receptors'
p14
g3
((lp15
(S'5ht1a'
p16
I393
I399
tp17
a(S'5ht5'
p18
I326
I336
tp19
a(S'5ht1a'
p20
I1767
I1773
tp21
a(S'5ht1a'
p22
I1258
I1264
tp23
a(S'5ht1a'
p24
I785
I791
tp25
a(S'5ht1a'
p26
I2014
I2020
tp27
a(S'5ht1a'
p28
I527
I533
tp29
a(S'5ht1a'
p30
I1049
I1055
tp31
atp32
Rp33
sS'raw_text_methods'
p34
g3
((lp35
S"(13, u'\\\\bagonist')"
p36
aS"(19, u'\\\\bpositron emission tomography')"
p37
aS"(18, u'\\\\bimaging')"
p38
atp39
Rp40
sS'regions'
p41
g3
((lp42
S"(16, u'(?i)\\\\b(drns|drn)\\\\b')"
p43
aS"(22, u'(?i)\\\\b(anteriors|anterior)(-|\\\\s+)?(cingulates|cingulate)\\\\b')"
p44
aS"(19, u'(?i)\\\\b(cortexes|cortex)\\\\b')"
p45
aS"(4, u'(?i)\\\\b(presynaptics|presynaptic)\\\\b')"
p46
aS"(12, u'(?i)\\\\b(amygdalas|amygdala)\\\\b')"
p47
atp48
Rp49
sS'year'
p50
V2015
p51
sS'species'
p52
g3
((lp53
tp54
Rp55
sb.