(ifile_types
ParseObject
p0
(dp1
S'antagonists'
p2
c__builtin__
set
p3
((lp4
S"(30, u'\\\\bway ?100135')"
p5
atp6
Rp7
sS'methods'
p8
g3
((lp9
S'Method.ANTAGONIST'
p10
aS'Method.AGONIST'
p11
atp12
Rp13
sS'topics'
p14
g3
((lp15
S"(24, u'\\\\banalgesi')"
p16
aS"(20, u'\\\\baggressi')"
p17
atp18
Rp19
sS'receptors'
p20
g3
((lp21
S'5ht1a'
p22
atp23
Rp24
sS'regions'
p25
g3
((lp26
S"(91, u'(?i)\\\\b(periaqueductals|periaqueductal)(-|\\\\s+)?(grays|gray)\\\\b')"
p27
atp28
Rp29
sS'year'
p30
V1998
p31
sS'agonists'
p32
g3
((lp33
S"(15, u'\\\\bbay r 1531')"
p34
aS"(42, u'\\\\bgepirone')"
p35
atp36
Rp37
sS'species'
p38
g3
((lp39
S"(5510, u'(?i)\\\\b(bays|bay)\\\\b')"
p40
aS"(163, u'(?i)\\\\b(mice|mouse)\\\\b')"
p41
aS"(4177, u'(?i)\\\\b(grays|gray)\\\\b')"
p42
atp43
Rp44
sb.