(ifile_types
ParseObject
p0
(dp1
S'antagonists'
p2
c__builtin__
set
p3
((lp4
S"(32, u'\\\\bway ?100635')"
p5
aS"(102, u'\\\\bfluoxetine')"
p6
atp7
Rp8
sS'methods'
p9
g3
((lp10
S'Method.ANTAGONIST'
p11
atp12
Rp13
sS'topics'
p14
g3
((lp15
S"(9, u'\\\\bdepress')"
p16
atp17
Rp18
sS'receptors'
p19
g3
((lp20
S'5ht5'
p21
aS'5ht1a'
p22
atp23
Rp24
sS'regions'
p25
g3
((lp26
S"(318, u'(?i)(raphes|raphe)(-|\\\\s+)?(nuclei|nucleus)')"
p27
atp28
Rp29
sS'year'
p30
V2000
p31
sS'agonists'
p32
g3
((lp33
tp34
Rp35
sS'species'
p36
g3
((lp37
S"(2670, u'(?i)(arabs|arab)')"
p38
aS"(2568, u'(?i)(hens|hen)')"
p39
aS"(6356, u'(?i)(ais|ai)')"
p40
aS"(468, u'(?i)(oxen|ox)')"
p41
aS"(2183, u'(?i)(gars|gar)')"
p42
aS"(1055, u'(?i)(men|man)')"
p43
aS"(6249, u'(?i)(ants|ant)')"
p44
aS"(4979, u'(?i)(cats|cat)')"
p45
aS"(5958, u'(?i)(rats|rat)')"
p46
aS"(6682, u'(?i)(tera|teras)')"
p47
aS"(7094, u'(?i)(curs|cur)')"
p48
aS"(3812, u'(?i)(studs|stud)')"
p49
aS"(6391, u'(?i)(asses|ass)')"
p50
aS"(821, u'(?i)(lice|louse)')"
p51
atp52
Rp53
sb.