(ifile_types
ParseObject
p0
(dp1
S'methods'
p2
c__builtin__
set
p3
((lp4
S'Method.AGONIST'
p5
atp6
Rp7
sS'topics'
p8
g3
((lp9
S"(30, u'\\\\bpain')"
p10
aS"(35, u'\\\\bnocicept')"
p11
atp12
Rp13
sS'receptors'
p14
g3
((lp15
(S'5ht7'
p16
I63
I68
tp17
a(S'5ht7'
p18
I616
I621
tp19
a(S'5ht7'
p20
I438
I443
tp21
a(S'5ht7'
p22
I213
I218
tp23
a(S'5ht7'
p24
I324
I329
tp25
a(S'5ht7'
p26
I1709
I1714
tp27
a(S'5ht7'
p28
I1880
I1885
tp29
a(S'5ht7'
p30
I1982
I1987
tp31
atp32
Rp33
sS'raw_text_methods'
p34
g3
((lp35
S"(13, u'\\\\bagonist')"
p36
atp37
Rp38
sS'regions'
p39
g3
((lp40
tp41
Rp42
sS'year'
p43
V2012
p44
sS'species'
p45
g3
((lp46
S"(4, u'(?i)\\\\b(rats|rat)\\\\b')"
p47
atp48
Rp49
sb.