(ifile_types
ParseObject
p0
(dp1
S'antagonists'
p2
c__builtin__
set
p3
((lp4
tp5
Rp6
sS'methods'
p7
g3
((lp8
S'Method.STIMULATION'
p9
aS'Method.KNOCKOUT'
p10
aS'Method.AGONIST'
p11
atp12
Rp13
sS'topics'
p14
g3
((lp15
tp16
Rp17
sS'receptors'
p18
g3
((lp19
S'5ht1b'
p20
aS'5ht5'
p21
aS'5ht1'
p22
aS'5ht1d'
p23
atp24
Rp25
sS'regions'
p26
g3
((lp27
S"(374, u'(?i)(duras|dura)(-|\\\\s+)?(maters|mater)')"
p28
aS"(34, u'(?i)(pon|pons)')"
p29
atp30
Rp31
sS'year'
p32
V1996
p33
sS'agonists'
p34
g3
((lp35
S"(103, u'\\\\bsumatriptan')"
p36
aS"(105, u'\\\\b5 ?carboxamidotryptamine')"
p37
aS"(5, u'\\\\b5 ?ct')"
p38
aS"(107, u'\\\\bcp ?93129')"
p39
aS"(29, u'\\\\bdihydroergotamine')"
p40
aS"(109, u'\\\\bcp ?122288')"
p41
atp42
Rp43
sS'species'
p44
g3
((lp45
S"(6249, u'(?i)(ants|ant)')"
p46
aS"(5958, u'(?i)(rats|rat)')"
p47
aS"(163, u'(?i)(mice|mouse)')"
p48
aS"(6642, u'(?i)(lions|lion)')"
p49
aS"(6682, u'(?i)(tera|teras)')"
p50
aS"(3051, u'(?i)(pigs|pig)')"
p51
aS"(468, u'(?i)(oxen|ox)')"
p52
aS"(3062, u'(?i)(guineas|guinea)')"
p53
aS"(3726, u'(?i)(mates|mate)')"
p54
aS"(853, u'(?i)(minas|mina)')"
p55
aS"(2395, u'(?i)(mutants|mutant)')"
p56
aS"(3522, u'(?i)(tetras|tetra)')"
p57
aS"(3812, u'(?i)(studs|stud)')"
p58
aS"(4480, u'(?i)(guineas|guinea)(-|\\\\s+)?(pigs|pig)')"
p59
aS"(5743, u'(?i)(bots|bot)')"
p60
atp61
Rp62
sb.