(ifile_types
ParseObject
p0
(dp1
S'antagonists'
p2
c__builtin__
set
p3
((lp4
S"(32, u'\\\\bway ?100635')"
p5
aS"(39, u'\\\\bsb ?224289')"
p6
atp7
Rp8
sS'methods'
p9
g3
((lp10
S'Method.ANTAGONIST'
p11
aS'Method.AGONIST'
p12
atp13
Rp14
sS'topics'
p15
g3
((lp16
tp17
Rp18
sS'receptors'
p19
g3
((lp20
S'5ht1b'
p21
aS'5ht1a'
p22
aS'5ht5'
p23
aS'5ht1'
p24
atp25
Rp26
sS'regions'
p27
g3
((lp28
S"(85, u'(?i)(tectums|tectum)')"
p29
atp30
Rp31
sS'year'
p32
V2002
p33
sS'agonists'
p34
g3
((lp35
S"(92, u'\\\\b8 ?oh ?dpat')"
p36
atp37
Rp38
sS'species'
p39
g3
((lp40
S"(1395, u'(?i)(frogs|frog)')"
p41
aS"(6249, u'(?i)(ants|ant)')"
p42
aS"(4979, u'(?i)(cats|cat)')"
p43
aS"(4163, u'(?i)(ermines|ermine)')"
p44
aS"(4091, u'(?i)(adults|adult)')"
p45
aS"(468, u'(?i)(oxen|ox)')"
p46
aS"(1055, u'(?i)(men|man)')"
p47
aS"(3152, u'(?i)(layers|layer)')"
p48
aS"(853, u'(?i)(minas|mina)')"
p49
aS"(3550, u'(?i)(anis|ani)')"
p50
aS"(3522, u'(?i)(tetras|tetra)')"
p51
aS"(1961, u'(?i)(pens|pen)')"
p52
aS"(6356, u'(?i)(ais|ai)')"
p53
aS"(6642, u'(?i)(lions|lion)')"
p54
aS"(5743, u'(?i)(bots|bot)')"
p55
aS"(821, u'(?i)(lice|louse)')"
p56
atp57
Rp58
sb.