(ifile_types
ParseObject
p0
(dp1
S'methods'
p2
c__builtin__
set
p3
((lp4
S'Method.AGONIST'
p5
atp6
Rp7
sS'topics'
p8
g3
((lp9
S"(5, u'\\\\btherap')"
p10
aS"(13, u'\\\\bantidepress')"
p11
aS"(4, u'\\\\btreatment')"
p12
atp13
Rp14
sS'receptors'
p15
g3
((lp16
(S'5ht1'
p17
I30
I35
tp18
a(S'5ht1a'
p19
I1669
I1675
tp20
a(S'5ht1a'
p21
I1189
I1195
tp22
a(S'5ht1'
p23
I884
I889
tp24
a(S'5ht1a'
p25
I1520
I1526
tp26
a(S'5ht1a'
p27
I591
I597
tp28
a(S'5ht1a'
p29
I484
I490
tp30
atp31
Rp32
sS'raw_text_methods'
p33
g3
((lp34
S"(13, u'\\\\bagonist')"
p35
aS"(11, u'\\\\bfluoxetine')"
p36
aS"(21, u'\\\\bipsapirone')"
p37
atp38
Rp39
sS'regions'
p40
g3
((lp41
tp42
Rp43
sS'year'
p44
V1991
p45
sS'species'
p46
g3
((lp47
S"(6, u'(?i)\\\\b(rodents|rodent)\\\\b')"
p48
aS"(4, u'(?i)\\\\b(rats|rat)\\\\b')"
p49
atp50
Rp51
sb.