(ifile_types
ParseObject
p0
(dp1
S'methods'
p2
c__builtin__
set
p3
((lp4
S'Method.ANTAGONIST'
p5
aS'Method.AGONIST'
p6
atp7
Rp8
sS'topics'
p9
g3
((lp10
tp11
Rp12
sS'receptors'
p13
g3
((lp14
(S'5ht1a'
p15
I1253
I1259
tp16
a(S'5ht1a'
p17
I168
I174
tp18
a(S'5ht1a'
p19
I967
I973
tp20
a(S'5ht1a'
p21
I34
I40
tp22
atp23
Rp24
sS'raw_text_methods'
p25
g3
((lp26
S"(13, u'\\\\bagonist')"
p27
aS"(51, u'\\\\bway100635')"
p28
aS"(12, u'\\\\bantagonist')"
p29
atp30
Rp31
sS'regions'
p32
g3
((lp33
S"(11, u'(?i)\\\\b(cerebrals|cerebral)\\\\b')"
p34
atp35
Rp36
sS'year'
p37
V1998
p38
sS'species'
p39
g3
((lp40
S"(4, u'(?i)\\\\b(rats|rat)\\\\b')"
p41
atp42
Rp43
sb.