(ifile_types
ParseObject
p0
(dp1
S'methods'
p2
c__builtin__
set
p3
((lp4
S'Method.ANTAGONIST'
p5
atp6
Rp7
sS'topics'
p8
g3
((lp9
S"(26, u'\\\\bbehav')"
p10
aS"(2, u'\\\\bdisorder')"
p11
aS"(7, u'\\\\bdepressi')"
p12
aS"(20, u'\\\\bmood')"
p13
aS"(12, u'\\\\bsleep')"
p14
aS"(4, u'\\\\btreatment')"
p15
atp16
Rp17
sS'receptors'
p18
g3
((lp19
(S'5ht1a'
p20
I1345
I1351
tp21
a(S'5ht1'
p22
I1721
I1726
tp23
a(S'5ht1'
p24
I889
I894
tp25
a(S'5ht1'
p26
I1236
I1241
tp27
a(S'5ht1a'
p28
I1318
I1324
tp29
a(S'5ht1'
p30
I1426
I1431
tp31
a(S'5ht1a'
p32
I870
I876
tp33
a(S'5ht1'
p34
I1612
I1617
tp35
a(S'5ht1'
p36
I1904
I1909
tp37
atp38
Rp39
sS'raw_text_methods'
p40
g3
((lp41
S"(12, u'\\\\bantagonist')"
p42
atp43
Rp44
sS'regions'
p45
g3
((lp46
tp47
Rp48
sS'year'
p49
V2006
p50
sS'species'
p51
g3
((lp52
S"(1, u'(?i)\\\\b(mice|mouse)\\\\b')"
p53
aS"(5, u'(?i)\\\\b(mices|mice)\\\\b')"
p54
atp55
Rp56
sb.