(ifile_types
ParseObject
p0
(dp1
S'antagonists'
p2
c__builtin__
set
p3
((lp4
tp5
Rp6
sS'methods'
p7
g3
((lp8
S'Method.IMMUNOHISTOCHEMISTRY'
p9
atp10
Rp11
sS'topics'
p12
g3
((lp13
S"(35, u'\\\\bstress')"
p14
aS"(1, u'\\\\bmood')"
p15
atp16
Rp17
sS'receptors'
p18
g3
((lp19
S'5ht2a'
p20
aS'5ht2b'
p21
aS'5ht2c'
p22
aS'5ht2'
p23
atp24
Rp25
sS'regions'
p26
g3
((lp27
S"(389, u'(?i)\\\\b(cerebrospinals|cerebrospinal)(-|\\\\s+)?(fluids|fluid)\\\\b')"
p28
atp29
Rp30
sS'year'
p31
V2012
p32
sS'agonists'
p33
g3
((lp34
tp35
Rp36
sS'species'
p37
g3
((lp38
S"(5799, u'(?i)\\\\b(rodents|rodent)\\\\b')"
p39
aS"(4091, u'(?i)\\\\b(adults|adult)\\\\b')"
p40
atp41
Rp42
sb.