(ifile_types
ParseObject
p0
(dp1
S'antagonists'
p2
c__builtin__
set
p3
((lp4
S"(193, u'\\\\bmesulergine')"
p5
aS"(34, u'\\\\bmetergoline')"
p6
aS"(21, u'\\\\bpindolol')"
p7
aS"(22, u'\\\\bpropranolol')"
p8
atp9
Rp10
sS'methods'
p11
g3
((lp12
S'Method.ANTAGONIST'
p13
atp14
Rp15
sS'topics'
p16
g3
((lp17
tp18
Rp19
sS'receptors'
p20
g3
((lp21
S'5ht1c'
p22
aS'5ht1b'
p23
aS'5ht1a'
p24
aS'5ht1d'
p25
atp26
Rp27
sS'regions'
p28
g3
((lp29
S"(103, u'(?i)\\\\b(substantias|substantia)(-|\\\\s+)?(nigras|nigra)\\\\b')"
p30
atp31
Rp32
sS'year'
p33
V1992
p34
sS'agonists'
p35
g3
((lp36
S"(165, u'\\\\bmesulergine')"
p37
aS"(98, u'\\\\b5 ?carboxamidotryptamine')"
p38
aS"(85, u'\\\\b8 ?oh ?dpat')"
p39
atp40
Rp41
sS'species'
p42
g3
((lp43
S"(5799, u'(?i)\\\\b(rodents|rodent)\\\\b')"
p44
aS"(5958, u'(?i)\\\\b(rats|rat)\\\\b')"
p45
aS"(3062, u'(?i)\\\\b(guineas|guinea)\\\\b')"
p46
aS"(5721, u'(?i)\\\\b(opossums|opossum)\\\\b')"
p47
aS"(473, u'(?i)\\\\b(rabbits|rabbit)\\\\b')"
p48
aS"(4099, u'(?i)\\\\b(hamsters|hamster)\\\\b')"
p49
aS"(4480, u'(?i)\\\\b(guineas|guinea)(-|\\\\s+)?(pigs|pig)\\\\b')"
p50
aS"(3051, u'(?i)\\\\b(pigs|pig)\\\\b')"
p51
atp52
Rp53
sb.