(ifile_types
ParseObject
p0
(dp1
S'methods'
p2
c__builtin__
set
p3
((lp4
S'Method.ANTAGONIST'
p5
aS'Method.AGONIST'
p6
atp7
Rp8
sS'topics'
p9
g3
((lp10
S"(18, u'\\\\bavoidan')"
p11
aS"(16, u'\\\\blearning')"
p12
atp13
Rp14
sS'receptors'
p15
g3
((lp16
(S'5ht3'
p17
I146
I151
tp18
a(S'5ht3'
p19
I1434
I1439
tp20
a(S'5ht3'
p21
I2029
I2034
tp22
a(S'5ht3'
p23
I1008
I1013
tp24
a(S'5ht7d'
p25
I582
I588
tp26
a(S'5ht3'
p27
I1890
I1895
tp28
a(S'5ht3'
p29
I1192
I1197
tp30
atp31
Rp32
sS'raw_text_methods'
p33
g3
((lp34
S"(13, u'\\\\bagonist')"
p35
aS"(20, u'\\\\bondansetron')"
p36
aS"(32, u'\\\\blesions')"
p37
aS"(12, u'\\\\bantagonist')"
p38
atp39
Rp40
sS'regions'
p41
g3
((lp42
S"(19, u'(?i)\\\\b(cortexes|cortex)\\\\b')"
p43
aS"(23, u'(?i)\\\\b(forebrains|forebrain)\\\\b')"
p44
atp45
Rp46
sS'year'
p47
V2012
p48
sS'species'
p49
g3
((lp50
S"(4, u'(?i)\\\\b(rats|rat)\\\\b')"
p51
atp52
Rp53
sb.