(ifile_types
ParseObject
p0
(dp1
S'antagonists'
p2
c__builtin__
set
p3
((lp4
tp5
Rp6
sS'methods'
p7
g3
((lp8
S'Method.PET'
p9
aS'Method.ANTAGONIST'
p10
atp11
Rp12
sS'topics'
p13
g3
((lp14
S"(8, u'\\\\blearning')"
p15
aS"(33, u'\\\\balzheimers')"
p16
aS"(6, u'\\\\bcognit')"
p17
aS"(7, u'\\\\bmemory')"
p18
atp19
Rp20
sS'receptors'
p21
g3
((lp22
S'5ht1b'
p23
aS'5ht5'
p24
aS'5ht1a'
p25
atp26
Rp27
sS'regions'
p28
g3
((lp29
tp30
Rp31
sS'year'
p32
V2016
p33
sS'agonists'
p34
g3
((lp35
S"(149, u'\\\\bmem')"
p36
atp37
Rp38
sS'species'
p39
g3
((lp40
S"(5799, u'(?i)\\\\b(rodents|rodent)\\\\b')"
p41
aS"(2401, u'(?i)\\\\b(primates|primate)\\\\b')"
p42
aS"(2341, u'(?i)\\\\b(monkeys|monkey)\\\\b')"
p43
aS"(1070, u'(?i)\\\\b(pets|pet)\\\\b')"
p44
atp45
Rp46
sb.