(ifile_types
ParseObject
p0
(dp1
S'antagonists'
p2
c__builtin__
set
p3
((lp4
S"(53, u'\\\\bketanserin')"
p5
aS"(128, u'\\\\bketanserin')"
p6
atp7
Rp8
sS'methods'
p9
g3
((lp10
S'Method.ANTAGONIST'
p11
aS'Method.AGONIST'
p12
atp13
Rp14
sS'topics'
p15
g3
((lp16
S"(35, u'\\\\bstress')"
p17
atp18
Rp19
sS'receptors'
p20
g3
((lp21
S'5ht1a'
p22
aS'5ht2b'
p23
aS'5ht2c'
p24
aS'5ht2'
p25
aS'5ht2a'
p26
atp27
Rp28
sS'regions'
p29
g3
((lp30
S"(203, u'(?i)(dentates|dentate)(-|\\\\s+)?(gyruses|gyrus)')"
p31
aS"(244, u'(?i)(piriforms|piriform)(-|\\\\s+)?(cortexes|cortex)')"
p32
atp33
Rp34
sS'year'
p35
V1997
p36
sS'agonists'
p37
g3
((lp38
tp39
Rp40
sS'species'
p41
g3
((lp42
S"(5537, u'(?i)(hippos|hippo)')"
p43
aS"(6753, u'(?i)(da|das)')"
p44
aS"(5958, u'(?i)(rats|rat)')"
p45
aS"(5743, u'(?i)(bots|bot)')"
p46
aS"(4163, u'(?i)(ermines|ermine)')"
p47
aS"(1055, u'(?i)(men|man)')"
p48
aS"(3152, u'(?i)(layers|layer)')"
p49
aS"(4964, u'(?i)(serins|serin)')"
p50
aS"(6249, u'(?i)(ants|ant)')"
p51
aS"(3812, u'(?i)(studs|stud)')"
p52
aS"(1349, u'(?i)(rams|ram)')"
p53
aS"(6356, u'(?i)(ais|ai)')"
p54
atp55
Rp56
sb.