(ifile_types
ParseObject
p0
(dp1
S'methods'
p2
c__builtin__
set
p3
((lp4
tp5
Rp6
sS'topics'
p7
g3
((lp8
tp9
Rp10
sS'receptors'
p11
g3
((lp12
(S'5ht1b'
p13
I35
I41
tp14
a(S'5ht1d'
p15
I46
I52
tp16
a(S'5ht5'
p17
I169
I179
tp18
a(S'5ht1b'
p19
I560
I566
tp20
a(S'5ht1b'
p21
I201
I207
tp22
a(S'5ht1d'
p23
I571
I577
tp24
atp25
Rp26
sS'raw_text_methods'
p27
g3
((lp28
tp29
Rp30
sS'regions'
p31
g3
((lp32
tp33
Rp34
sS'year'
p35
V1999
p36
sS'species'
p37
g3
((lp38
tp39
Rp40
sb.