(ifile_types
ParseObject
p0
(dp1
S'antagonists'
p2
c__builtin__
set
p3
((lp4
S"(99, u'\\\\bsb ?242084')"
p5
atp6
Rp7
sS'methods'
p8
g3
((lp9
S'Method.KNOCKOUT'
p10
aS'Method.ANTAGONIST'
p11
atp12
Rp13
sS'topics'
p14
g3
((lp15
tp16
Rp17
sS'receptors'
p18
g3
((lp19
S'5ht2c'
p20
atp21
Rp22
sS'regions'
p23
g3
((lp24
tp25
Rp26
sS'year'
p27
V2015
p28
sS'agonists'
p29
g3
((lp30
tp31
Rp32
sS'species'
p33
g3
((lp34
S"(5799, u'(?i)\\\\b(rodents|rodent)\\\\b')"
p35
aS"(2395, u'(?i)\\\\b(mutants|mutant)\\\\b')"
p36
aS"(4091, u'(?i)\\\\b(adults|adult)\\\\b')"
p37
aS"(163, u'(?i)\\\\b(mice|mouse)\\\\b')"
p38
aS"(7058, u'(?i)\\\\b(does|doe)\\\\b')"
p39
atp40
Rp41
sb.