(ifile_types
ParseObject
p0
(dp1
S'methods'
p2
c__builtin__
set
p3
((lp4
S'Method.ANTAGONIST'
p5
aS'Method.AGONIST'
p6
atp7
Rp8
sS'topics'
p9
g3
((lp10
S"(13, u'\\\\bantidepress')"
p11
aS"(23, u'\\\\bantipsychotic')"
p12
aS"(2, u'\\\\bdisorder')"
p13
atp14
Rp15
sS'receptors'
p16
g3
((lp17
(S'5ht1a'
p18
I1767
I1773
tp19
a(S'5ht1a'
p20
I706
I712
tp21
a(S'5ht2a'
p22
I946
I952
tp23
a(S'5ht2a'
p24
I838
I844
tp25
a(S'5ht1a'
p26
I2057
I2063
tp27
a(S'5ht1a'
p28
I549
I555
tp29
a(S'5ht2a'
p30
I766
I772
tp31
a(S'5ht2a'
p32
I357
I368
tp33
a(S'5ht2c'
p34
I946
I954
tp35
a(S'5ht2a'
p36
I1586
I1592
tp37
a(S'5ht1a'
p38
I343
I349
tp39
a(S'5ht2a'
p40
I1221
I1227
tp41
a(S'5ht2a'
p42
I371
I377
tp43
a(S'5ht2a'
p44
I182
I193
tp45
a(S'5ht2a'
p46
I2012
I2018
tp47
a(S'5ht2a'
p48
I1432
I1438
tp49
a(S'5ht1a'
p50
I1094
I1100
tp51
a(S'5ht1a'
p52
I329
I340
tp53
a(S'5ht1a'
p54
I54
I65
tp55
a(S'5ht2a'
p56
I562
I568
tp57
a(S'5ht1a'
p58
I2165
I2171
tp59
a(S'5ht2a'
p60
I2178
I2184
tp61
atp62
Rp63
sS'raw_text_methods'
p64
g3
((lp65
S"(13, u'\\\\bagonist')"
p66
aS"(15, u'\\\\b8ohdpat')"
p67
aS"(49, u'\\\\bdoi')"
p68
aS"(51, u'\\\\bway100635')"
p69
aS"(12, u'\\\\bantagonist')"
p70
atp71
Rp72
sS'regions'
p73
g3
((lp74
tp75
Rp76
sS'year'
p77
V2007
p78
sS'species'
p79
g3
((lp80
S"(4, u'(?i)\\\\b(rats|rat)\\\\b')"
p81
atp82
Rp83
sb.