(ifile_types
ParseObject
p0
(dp1
S'antagonists'
p2
c__builtin__
set
p3
((lp4
tp5
Rp6
sS'methods'
p7
g3
((lp8
S'Method.PET'
p9
atp10
Rp11
sS'topics'
p12
g3
((lp13
S"(35, u'\\\\bstress')"
p14
aS"(10, u'\\\\banxiety')"
p15
aS"(1, u'\\\\bmood')"
p16
atp17
Rp18
sS'receptors'
p19
g3
((lp20
S'5ht1a'
p21
atp22
Rp23
sS'regions'
p24
g3
((lp25
S"(254, u'(?i)(prefrontals|prefrontal)(-|\\\\s+)?(cortexes|cortex)')"
p26
aS"(255, u'(?i)(pres|pre)(-|\\\\s+)?(frontals|frontal)(-|\\\\s+)?(cortexes|cortex)')"
p27
atp28
Rp29
sS'year'
p30
V2010
p31
sS'agonists'
p32
g3
((lp33
tp34
Rp35
sS'species'
p36
g3
((lp37
S"(2323, u'(?i)(bees|bee)')"
p38
aS"(5958, u'(?i)(rats|rat)')"
p39
aS"(6125, u'(?i)(females|female)')"
p40
aS"(5967, u'(?i)(males|male)')"
p41
aS"(6682, u'(?i)(tera|teras)')"
p42
aS"(1055, u'(?i)(men|man)')"
p43
aS"(6249, u'(?i)(ants|ant)')"
p44
aS"(4597, u'(?i)(rhesuses|rhesus)(-|\\\\s+)?(monkeys|monkey)')"
p45
aS"(3812, u'(?i)(studs|stud)')"
p46
aS"(3550, u'(?i)(anis|ani)')"
p47
aS"(6981, u'(?i)(moths|moth)')"
p48
aS"(1414, u'(?i)(chars|char)')"
p49
aS"(6391, u'(?i)(asses|ass)')"
p50
aS"(6356, u'(?i)(ais|ai)')"
p51
aS"(2809, u'(?i)(toms|tom)')"
p52
aS"(2341, u'(?i)(monkeys|monkey)')"
p53
aS"(4596, u'(?i)(rhesuses|rhesus)')"
p54
atp55
Rp56
sb.