(ifile_types
ParseObject
p0
(dp1
S'antagonists'
p2
c__builtin__
set
p3
((lp4
S"(67, u'\\\\bhaloperidol')"
p5
aS"(123, u'\\\\bclozapine')"
p6
aS"(56, u'\\\\bclozapine')"
p7
atp8
Rp9
sS'methods'
p10
g3
((lp11
tp12
Rp13
sS'topics'
p14
g3
((lp15
tp16
Rp17
sS'receptors'
p18
g3
((lp19
S'5ht1a'
p20
aS'5ht2c'
p21
aS'5ht2'
p22
aS'5ht2a'
p23
atp24
Rp25
sS'regions'
p26
g3
((lp27
S"(220, u'(?i)(striatums|striatum)')"
p28
aS"(244, u'(?i)(piriforms|piriform)(-|\\\\s+)?(cortexes|cortex)')"
p29
atp30
Rp31
sS'year'
p32
V1996
p33
sS'agonists'
p34
g3
((lp35
S"(48, u'\\\\bhaloperidol')"
p36
aS"(27, u'\\\\bclozapine')"
p37
atp38
Rp39
sS'species'
p40
g3
((lp41
S"(4624, u'(?i)(apes|ape)')"
p42
aS"(5537, u'(?i)(hippos|hippo)')"
p43
aS"(6753, u'(?i)(da|das)')"
p44
aS"(5958, u'(?i)(rats|rat)')"
p45
aS"(4979, u'(?i)(cats|cat)')"
p46
aS"(81, u'(?i)(asps|asp)')"
p47
aS"(468, u'(?i)(oxen|ox)')"
p48
aS"(1055, u'(?i)(men|man)')"
p49
aS"(4964, u'(?i)(serins|serin)')"
p50
aS"(6249, u'(?i)(ants|ant)')"
p51
aS"(6356, u'(?i)(ais|ai)')"
p52
aS"(6391, u'(?i)(asses|ass)')"
p53
aS"(1628, u'(?i)(cod|cod)')"
p54
atp55
Rp56
sb.