(ifile_types
ParseObject
p0
(dp1
S'antagonists'
p2
c__builtin__
set
p3
((lp4
S"(110, u'\\\\bclozapine')"
p5
aS"(58, u'\\\\bhaloperidol')"
p6
atp7
Rp8
sS'methods'
p9
g3
((lp10
S'Method.ANTAGONIST'
p11
atp12
Rp13
sS'topics'
p14
g3
((lp15
tp16
Rp17
sS'receptors'
p18
g3
((lp19
S'5ht3'
p20
atp21
Rp22
sS'regions'
p23
g3
((lp24
S"(96, u'(?i)\\\\b(ventrals|ventral)(-|\\\\s+)?(tegmentals|tegmental)(-|\\\\s+)?(areas|area)\\\\b')"
p25
aS"(103, u'(?i)\\\\b(substantias|substantia)(-|\\\\s+)?(nigras|nigra)\\\\b')"
p26
aS"(104, u'(?i)\\\\b(par|pars)(-|\\\\s+)?(compactas|compacta)\\\\b')"
p27
atp28
Rp29
sS'year'
p30
V1992
p31
sS'agonists'
p32
g3
((lp33
S"(23, u'\\\\bclozapine')"
p34
aS"(43, u'\\\\bhaloperidol')"
p35
atp36
Rp37
sS'species'
p38
g3
((lp39
S"(6753, u'(?i)\\\\b(da|das)\\\\b')"
p40
aS"(5958, u'(?i)\\\\b(rats|rat)\\\\b')"
p41
atp42
Rp43
sb.