(ifile_types
ParseObject
p0
(dp1
S'methods'
p2
c__builtin__
set
p3
((lp4
tp5
Rp6
sS'topics'
p7
g3
((lp8
S"(13, u'\\\\bantidepress')"
p9
aS"(4, u'\\\\btreatment')"
p10
aS"(3, u'\\\\bclinical')"
p11
atp12
Rp13
sS'receptors'
p14
g3
((lp15
(S'5ht1a'
p16
I1383
I1389
tp17
a(S'5ht1a'
p18
I118
I124
tp19
a(S'5ht1a'
p20
I533
I539
tp21
a(S'5ht1a'
p22
I1248
I1254
tp23
a(S'5ht1a'
p24
I302
I308
tp25
a(S'5ht1a'
p26
I1527
I1533
tp27
a(S'5ht1a'
p28
I471
I477
tp29
atp30
Rp31
sS'raw_text_methods'
p32
g3
((lp33
S"(15, u'\\\\b8ohdpat')"
p34
aS"(11, u'\\\\bfluoxetine')"
p35
atp36
Rp37
sS'regions'
p38
g3
((lp39
S"(19, u'(?i)\\\\b(cortexes|cortex)\\\\b')"
p40
aS"(7, u'(?i)\\\\b(entorhinals|entorhinal)\\\\b')"
p41
aS"(3, u'(?i)\\\\b(postsynaptics|postsynaptic)\\\\b')"
p42
atp43
Rp44
sS'year'
p45
V2003
p46
sS'species'
p47
g3
((lp48
S"(4, u'(?i)\\\\b(rats|rat)\\\\b')"
p49
atp50
Rp51
sb.