(ifile_types
ParseObject
p0
(dp1
S'methods'
p2
c__builtin__
set
p3
((lp4
S'Method.ANTAGONIST'
p5
aS'Method.AGONIST'
p6
atp7
Rp8
sS'topics'
p9
g3
((lp10
S"(26, u'\\\\bbehav')"
p11
aS"(9, u'\\\\bstress')"
p12
atp13
Rp14
sS'receptors'
p15
g3
((lp16
(S'5ht2c'
p17
I1231
I1239
tp18
a(S'5ht2c'
p19
I510
I518
tp20
a(S'5ht2a'
p21
I773
I779
tp22
a(S'5ht2c'
p23
I773
I781
tp24
a(S'5ht1a'
p25
I357
I363
tp26
a(S'5ht2a'
p27
I510
I516
tp28
a(S'5ht2a'
p29
I1479
I1485
tp30
a(S'5ht2a'
p31
I997
I1003
tp32
a(S'5ht2c'
p33
I1013
I1019
tp34
a(S'5ht2a'
p35
I1161
I1167
tp36
a(S'5ht2c'
p37
I870
I878
tp38
a(S'5ht2a'
p39
I1231
I1237
tp40
a(S'5ht2'
p41
I997
I1003
tp42
a(S'5ht2'
p43
I1013
I1019
tp44
a(S'5ht2a'
p45
I870
I876
tp46
a(S'5ht2a'
p47
I31
I37
tp48
atp49
Rp50
sS'raw_text_methods'
p51
g3
((lp52
S"(13, u'\\\\bagonist')"
p53
aS"(53, u'\\\\bketanserin')"
p54
aS"(12, u'\\\\bantagonist')"
p55
atp56
Rp57
sS'regions'
p58
g3
((lp59
S"(1, u'(?i)\\\\b(neocortexes|neocortex)\\\\b')"
p60
aS"(19, u'(?i)\\\\b(cortexes|cortex)\\\\b')"
p61
atp62
Rp63
sS'year'
p64
V1997
p65
sS'species'
p66
g3
((lp67
tp68
Rp69
sb.