(ifile_types
ParseObject
p0
(dp1
S'antagonists'
p2
c__builtin__
set
p3
((lp4
S"(10, u'\\\\biodocyanopindolol')"
p5
atp6
Rp7
sS'methods'
p8
g3
((lp9
tp10
Rp11
sS'topics'
p12
g3
((lp13
tp14
Rp15
sS'receptors'
p16
g3
((lp17
S'5ht1b'
p18
atp19
Rp20
sS'regions'
p21
g3
((lp22
S"(71, u'(?i)\\\\b(cerebellums|cerebellum)\\\\b')"
p23
aS"(362, u'(?i)\\\\b(brains|brain)(-|\\\\s+)?(stems|stem)\\\\b')"
p24
aS"(220, u'(?i)\\\\b(striatums|striatum)\\\\b')"
p25
atp26
Rp27
sS'year'
p28
V1994
p29
sS'agonists'
p30
g3
((lp31
S"(67, u'\\\\bru ?24969')"
p32
atp33
Rp34
sS'species'
p35
g3
((lp36
S"(4091, u'(?i)\\\\b(adults|adult)\\\\b')"
p37
aS"(5958, u'(?i)\\\\b(rats|rat)\\\\b')"
p38
atp39
Rp40
sb.