(ifile_types
ParseObject
p0
(dp1
S'antagonists'
p2
c__builtin__
set
p3
((lp4
S"(182, u'\\\\bsb ?258585')"
p5
atp6
Rp7
sS'methods'
p8
g3
((lp9
S'Method.ANTAGONIST'
p10
aS'Method.AGONIST'
p11
atp12
Rp13
sS'topics'
p14
g3
((lp15
tp16
Rp17
sS'receptors'
p18
g3
((lp19
S'5ht6'
p20
atp21
Rp22
sS'regions'
p23
g3
((lp24
tp25
Rp26
sS'year'
p27
V2017
p28
sS'agonists'
p29
g3
((lp30
tp31
Rp32
sS'species'
p33
g3
((lp34
S"(2323, u'(?i)(bees|bee)')"
p35
aS"(4624, u'(?i)(apes|ape)')"
p36
aS"(6249, u'(?i)(ants|ant)')"
p37
aS"(7609, u'(?i)(erns|ern)')"
p38
aS"(7539, u'(?i)(mammals|mammal)')"
p39
aS"(468, u'(?i)(oxen|ox)')"
p40
aS"(1055, u'(?i)(men|man)')"
p41
aS"(7540, u'(?i)(mammalians|mammalian)')"
p42
aS"(5743, u'(?i)(bots|bot)')"
p43
aS"(3550, u'(?i)(anis|ani)')"
p44
aS"(5229, u'(?i)(moles|mole)')"
p45
aS"(1961, u'(?i)(pens|pen)')"
p46
aS"(6356, u'(?i)(ais|ai)')"
p47
aS"(6391, u'(?i)(asses|ass)')"
p48
aS"(5537, u'(?i)(hippos|hippo)')"
p49
aS"(1683, u'(?i)(terns|tern)')"
p50
atp51
Rp52
sb.