(ifile_types
ParseObject
p0
(dp1
S'methods'
p2
c__builtin__
set
p3
((lp4
tp5
Rp6
sS'topics'
p7
g3
((lp8
S"(22, u'\\\\bschizophreni')"
p9
aS"(9, u'\\\\bstress')"
p10
aS"(23, u'\\\\bantipsychotic')"
p11
atp12
Rp13
sS'receptors'
p14
g3
((lp15
(S'5ht1a'
p16
I757
I762
tp17
a(S'5ht1a'
p18
I508
I514
tp19
a(S'5ht1a'
p20
I149
I155
tp21
a(S'5ht1a'
p22
I976
I982
tp23
a(S'5ht1a'
p24
I303
I309
tp25
a(S'5ht1a'
p26
I1373
I1379
tp27
a(S'5ht1a'
p28
I1165
I1171
tp29
a(S'5ht1a'
p30
I278
I284
tp31
a(S'5ht1a'
p32
I1087
I1093
tp33
atp34
Rp35
sS'raw_text_methods'
p36
g3
((lp37
S"(3, u'\\\\bimmunoreactiv')"
p38
atp39
Rp40
sS'regions'
p41
g3
((lp42
S"(20, u'(?i)\\\\b(prefrontals|prefrontal)\\\\b')"
p43
aS"(19, u'(?i)\\\\b(cortexes|cortex)\\\\b')"
p44
atp45
Rp46
sS'year'
p47
V2007
p48
sS'species'
p49
g3
((lp50
S"(4, u'(?i)\\\\b(rats|rat)\\\\b')"
p51
atp52
Rp53
sb.