(ifile_types
ParseObject
p0
(dp1
S'methods'
p2
c__builtin__
set
p3
((lp4
S'Method.ANTAGONIST'
p5
atp6
Rp7
sS'topics'
p8
g3
((lp9
S"(26, u'\\\\bbehav')"
p10
aS"(25, u'\\\\bsocial')"
p11
aS"(2, u'\\\\bdisorder')"
p12
aS"(33, u'\\\\blocomot')"
p13
aS"(5, u'\\\\btherap')"
p14
aS"(8, u'\\\\banxi')"
p15
aS"(4, u'\\\\btreatment')"
p16
aS"(3, u'\\\\bclinical')"
p17
atp18
Rp19
sS'receptors'
p20
g3
((lp21
(S'5ht2c'
p22
I793
I799
tp23
a(S'5ht2c'
p24
I615
I621
tp25
a(S'5ht2c'
p26
I1378
I1384
tp27
a(S'5ht2c'
p28
I738
I744
tp29
a(S'5ht2c'
p30
I1577
I1583
tp31
a(S'5ht2c'
p32
I439
I445
tp33
a(S'5ht2c'
p34
I1055
I1061
tp35
a(S'5ht2c'
p36
I78
I84
tp37
atp38
Rp39
sS'raw_text_methods'
p40
g3
((lp41
S"(38, u'\\\\bssri')"
p42
aS"(33, u'\\\\bmcpp')"
p43
aS"(39, u'\\\\bselective serotonin reuptake inhibitor')"
p44
aS"(12, u'\\\\bantagonist')"
p45
atp46
Rp47
sS'regions'
p48
g3
((lp49
tp50
Rp51
sS'year'
p52
V2004
p53
sS'species'
p54
g3
((lp55
S"(4, u'(?i)\\\\b(rats|rat)\\\\b')"
p56
atp57
Rp58
sb.