(ifile_types
ParseObject
p0
(dp1
S'antagonists'
p2
c__builtin__
set
p3
((lp4
S"(17, u'\\\\bnan ?190')"
p5
aS"(117, u'\\\\bketanserin')"
p6
aS"(33, u'\\\\byohimbine')"
p7
atp8
Rp9
sS'methods'
p10
g3
((lp11
S'Method.ANTAGONIST'
p12
aS'Method.AGONIST'
p13
atp14
Rp15
sS'topics'
p16
g3
((lp17
tp18
Rp19
sS'receptors'
p20
g3
((lp21
S'5ht3a'
p22
aS'5ht1a'
p23
aS'5ht3'
p24
aS'5ht2'
p25
atp26
Rp27
sS'regions'
p28
g3
((lp29
tp30
Rp31
sS'year'
p32
V1996
p33
sS'agonists'
p34
g3
((lp35
S"(45, u'\\\\bipsapirone')"
p36
aS"(85, u'\\\\b8 ?oh ?dpat')"
p37
aS"(82, u'\\\\byohimbine')"
p38
atp39
Rp40
sS'species'
p41
g3
((lp42
S"(2418, u'(?i)\\\\b(squirrels|squirrel)(-|\\\\s+)?(monkeys|monkey)\\\\b')"
p43
aS"(2341, u'(?i)\\\\b(monkeys|monkey)\\\\b')"
p44
aS"(6771, u'(?i)\\\\b(squirrels|squirrel)\\\\b')"
p45
atp46
Rp47
sb.