(ifile_types
ParseObject
p0
(dp1
S'methods'
p2
c__builtin__
set
p3
((lp4
S'Method.ANTAGONIST'
p5
atp6
Rp7
sS'topics'
p8
g3
((lp9
S"(26, u'\\\\bbehav')"
p10
aS"(2, u'\\\\bdisorder')"
p11
aS"(7, u'\\\\bdepressi')"
p12
aS"(9, u'\\\\bstress')"
p13
aS"(8, u'\\\\banxi')"
p14
aS"(4, u'\\\\btreatment')"
p15
atp16
Rp17
sS'receptors'
p18
g3
((lp19
(S'5ht7'
p20
I95
I100
tp21
a(S'5ht7'
p22
I184
I189
tp23
a(S'5ht7'
p24
I1549
I1554
tp25
a(S'5ht7'
p26
I909
I914
tp27
a(S'5ht7'
p28
I1643
I1648
tp29
a(S'5ht7'
p30
I1325
I1330
tp31
atp32
Rp33
sS'raw_text_methods'
p34
g3
((lp35
S"(12, u'\\\\bantagonist')"
p36
atp37
Rp38
sS'regions'
p39
g3
((lp40
S"(16, u'(?i)\\\\b(drns|drn)\\\\b')"
p41
aS"(3, u'(?i)\\\\b(postsynaptics|postsynaptic)\\\\b')"
p42
atp43
Rp44
sS'year'
p45
V2020
p46
sS'species'
p47
g3
((lp48
S"(4, u'(?i)\\\\b(rats|rat)\\\\b')"
p49
atp50
Rp51
sb.