(ifile_types
ParseObject
p0
(dp1
S'methods'
p2
c__builtin__
set
p3
((lp4
S'Method.ANTAGONIST'
p5
aS'Method.AGONIST'
p6
atp7
Rp8
sS'topics'
p9
g3
((lp10
tp11
Rp12
sS'receptors'
p13
g3
((lp14
(S'5ht2'
p15
I1614
I1619
tp16
a(S'5ht1a'
p17
I681
I687
tp18
a(S'5ht1'
p19
I1599
I1604
tp20
a(S'5ht1'
p21
I2130
I2136
tp22
a(S'5ht3'
p23
I1259
I1264
tp24
a(S'5ht1'
p25
I632
I637
tp26
a(S'5ht1a'
p27
I874
I880
tp28
a(S'5ht1c'
p29
I1169
I1175
tp30
a(S'5ht1b'
p31
I2130
I2136
tp32
a(S'5ht1'
p33
I517
I522
tp34
a(S'5ht1a'
p35
I984
I990
tp36
a(S'5ht2'
p37
I1176
I1181
tp38
a(S'5ht1'
p39
I1926
I1931
tp40
a(S'5ht1c'
p41
I2141
I2147
tp42
a(S'5ht1a'
p43
I2122
I2128
tp44
a(S'5ht1b'
p45
I1736
I1742
tp46
a(S'5ht1c'
p47
I1507
I1513
tp48
a(S'5ht1a'
p49
I1725
I1731
tp50
a(S'5ht2'
p51
I1518
I1523
tp52
a(S'5ht1b'
p53
I991
I997
tp54
a(S'5ht1'
p55
I605
I610
tp56
atp57
Rp58
sS'raw_text_methods'
p59
g3
((lp60
S"(21, u'\\\\bipsapirone')"
p61
aS"(22, u'\\\\bbuspirone')"
p62
aS"(15, u'\\\\b8ohdpat')"
p63
aS"(13, u'\\\\bagonist')"
p64
aS"(30, u'\\\\b2methyl')"
p65
aS"(49, u'\\\\bdoi')"
p66
aS"(9, u'\\\\britanserin')"
p67
aS"(23, u'\\\\bmdl')"
p68
aS"(12, u'\\\\bantagonist')"
p69
atp70
Rp71
sS'regions'
p72
g3
((lp73
tp74
Rp75
sS'year'
p76
V1993
p77
sS'species'
p78
g3
((lp79
tp80
Rp81
sb.