(ifile_types
ParseObject
p0
(dp1
S'antagonists'
p2
c__builtin__
set
p3
((lp4
tp5
Rp6
sS'methods'
p7
g3
((lp8
S'Method.AGONIST'
p9
atp10
Rp11
sS'topics'
p12
g3
((lp13
S"(4, u'\\\\blocomot')"
p14
atp15
Rp16
sS'receptors'
p17
g3
((lp18
S'5ht2c'
p19
atp20
Rp21
sS'regions'
p22
g3
((lp23
S"(34, u'(?i)(pon|pons)')"
p24
atp25
Rp26
sS'year'
p27
V2003
p28
sS'agonists'
p29
g3
((lp30
S"(153, u'\\\\bmdma')"
p31
aS"(161, u'\\\\bmcpp')"
p32
atp33
Rp34
sS'species'
p35
g3
((lp36
S"(5537, u'(?i)(hippos|hippo)')"
p37
aS"(2670, u'(?i)(arabs|arab)')"
p38
aS"(6753, u'(?i)(da|das)')"
p39
aS"(2568, u'(?i)(hens|hen)')"
p40
aS"(5743, u'(?i)(bots|bot)')"
p41
aS"(6682, u'(?i)(tera|teras)')"
p42
aS"(468, u'(?i)(oxen|ox)')"
p43
aS"(1055, u'(?i)(men|man)')"
p44
aS"(6249, u'(?i)(ants|ant)')"
p45
aS"(3812, u'(?i)(studs|stud)')"
p46
aS"(5958, u'(?i)(rats|rat)')"
p47
aS"(1961, u'(?i)(pens|pen)')"
p48
aS"(3247, u'(?i)(youngs|young)')"
p49
aS"(6391, u'(?i)(asses|ass)')"
p50
aS"(4074, u'(?i)(bulls|bull)')"
p51
aS"(6356, u'(?i)(ais|ai)')"
p52
atp53
Rp54
sb.