(ifile_types
ParseObject
p0
(dp1
S'methods'
p2
c__builtin__
set
p3
((lp4
S'Method.ANTAGONIST'
p5
aS'Method.AGONIST'
p6
atp7
Rp8
sS'topics'
p9
g3
((lp10
tp11
Rp12
sS'receptors'
p13
g3
((lp14
(S'5ht3'
p15
I361
I366
tp16
a(S'5ht2a'
p17
I1364
I1370
tp18
a(S'5ht2a'
p19
I345
I351
tp20
a(S'5ht2'
p21
I649
I654
tp22
a(S'5ht1a'
p23
I778
I784
tp24
a(S'5ht3'
p25
I1380
I1385
tp26
a(S'5ht1a'
p27
I1354
I1360
tp28
a(S'5ht1a'
p29
I335
I341
tp30
a(S'5ht2c'
p31
I345
I353
tp32
a(S'5ht3'
p33
I661
I666
tp34
a(S'5ht2c'
p35
I1364
I1372
tp36
a(S'5ht2'
p37
I69
I74
tp38
a(S'5ht3'
p39
I88
I93
tp40
a(S'5ht1a'
p41
I27
I33
tp42
atp43
Rp44
sS'raw_text_methods'
p45
g3
((lp46
S"(13, u'\\\\bagonist')"
p47
aS"(15, u'\\\\b8ohdpat')"
p48
aS"(30, u'\\\\b2methyl')"
p49
aS"(49, u'\\\\bdoi')"
p50
aS"(12, u'\\\\bantagonist')"
p51
atp52
Rp53
sS'regions'
p54
g3
((lp55
S"(12, u'(?i)\\\\b(amygdalas|amygdala)\\\\b')"
p56
atp57
Rp58
sS'year'
p59
V2000
p60
sS'species'
p61
g3
((lp62
S"(4, u'(?i)\\\\b(rats|rat)\\\\b')"
p63
atp64
Rp65
sb.