(ifile_types
ParseObject
p0
(dp1
S'methods'
p2
c__builtin__
set
p3
((lp4
S'Method.ANTAGONIST'
p5
atp6
Rp7
sS'topics'
p8
g3
((lp9
S"(26, u'\\\\bbehav')"
p10
aS"(33, u'\\\\blocomot')"
p11
aS"(13, u'\\\\bantidepress')"
p12
aS"(9, u'\\\\bstress')"
p13
aS"(20, u'\\\\bmood')"
p14
aS"(7, u'\\\\bdepressi')"
p15
aS"(4, u'\\\\btreatment')"
p16
atp17
Rp18
sS'receptors'
p19
g3
((lp20
(S'5ht2c'
p21
I1765
I1773
tp22
a(S'5ht2a'
p23
I1765
I1771
tp24
atp25
Rp26
sS'raw_text_methods'
p27
g3
((lp28
S"(20, u'\\\\bondansetron')"
p29
aS"(9, u'\\\\britanserin')"
p30
aS"(12, u'\\\\bantagonist')"
p31
atp32
Rp33
sS'regions'
p34
g3
((lp35
tp36
Rp37
sS'year'
p38
V2012
p39
sS'species'
p40
g3
((lp41
S"(1, u'(?i)\\\\b(mice|mouse)\\\\b')"
p42
aS"(2, u'(?i)\\\\b(females|female)\\\\b')"
p43
aS"(5, u'(?i)\\\\b(mices|mice)\\\\b')"
p44
atp45
Rp46
sb.