(ifile_types
ParseObject
p0
(dp1
S'methods'
p2
c__builtin__
set
p3
((lp4
S'Method.STIMULATION'
p5
aS'Method.AGONIST'
p6
atp7
Rp8
sS'topics'
p9
g3
((lp10
S"(5, u'\\\\btherap')"
p11
aS"(23, u'\\\\bantipsychotic')"
p12
aS"(3, u'\\\\bclinical')"
p13
atp14
Rp15
sS'receptors'
p16
g3
((lp17
(S'5ht2a'
p18
I609
I615
tp19
a(S'5ht2a'
p20
I194
I200
tp21
a(S'5ht2c'
p22
I835
I843
tp23
a(S'5ht2a'
p24
I835
I841
tp25
a(S'5ht2a'
p26
I1456
I1462
tp27
a(S'5ht2a'
p28
I504
I510
tp29
a(S'5ht2a'
p30
I454
I460
tp31
a(S'5ht2'
p32
I291
I296
tp33
atp34
Rp35
sS'raw_text_methods'
p36
g3
((lp37
S"(13, u'\\\\bagonist')"
p38
aS"(9, u'\\\\britanserin')"
p39
aS"(49, u'\\\\bdoi')"
p40
aS"(50, u'\\\\bm100907')"
p41
atp42
Rp43
sS'regions'
p44
g3
((lp45
S"(20, u'(?i)\\\\b(prefrontals|prefrontal)\\\\b')"
p46
aS"(21, u'(?i)\\\\b(mpfcs|mpfc)\\\\b')"
p47
aS"(19, u'(?i)\\\\b(cortexes|cortex)\\\\b')"
p48
atp49
Rp50
sS'year'
p51
V2005
p52
sS'species'
p53
g3
((lp54
tp55
Rp56
sb.