(ifile_types
ParseObject
p0
(dp1
S'methods'
p2
c__builtin__
set
p3
((lp4
S'Method.ANTAGONIST'
p5
atp6
Rp7
sS'topics'
p8
g3
((lp9
S"(4, u'\\\\btreatment')"
p10
atp11
Rp12
sS'receptors'
p13
g3
((lp14
(S'5ht7a'
p15
I417
I423
tp16
a(S'5ht1d'
p17
I1209
I1215
tp18
a(S'5ht7a'
p19
I1784
I1790
tp20
a(S'5ht7a'
p21
I635
I641
tp22
a(S'5ht7a'
p23
I168
I174
tp24
a(S'5ht7a'
p25
I2068
I2074
tp26
a(S'5ht7'
p27
I1784
I1790
tp28
a(S'5ht7a'
p29
I67
I73
tp30
atp31
Rp32
sS'raw_text_methods'
p33
g3
((lp34
S"(12, u'\\\\bantagonist')"
p35
atp36
Rp37
sS'regions'
p38
g3
((lp39
tp40
Rp41
sS'year'
p42
V2001
p43
sS'species'
p44
g3
((lp45
tp46
Rp47
sb.