(ifile_types
ParseObject
p0
(dp1
S'antagonists'
p2
c__builtin__
set
p3
((lp4
S"(104, u'\\\\bimipramine')"
p5
aS"(134, u'\\\\bmirtazapine')"
p6
atp7
Rp8
sS'methods'
p9
g3
((lp10
S'Method.AGONIST'
p11
atp12
Rp13
sS'topics'
p14
g3
((lp15
S"(9, u'\\\\bdepress')"
p16
atp17
Rp18
sS'receptors'
p19
g3
((lp20
S'5ht2a'
p21
atp22
Rp23
sS'regions'
p24
g3
((lp25
S"(248, u'(?i)\\\\b(cerebrals|cerebral)(-|\\\\s+)?(cortexes|cortex)\\\\b')"
p26
atp27
Rp28
sS'year'
p29
V2005
p30
sS'agonists'
p31
g3
((lp32
S"(175, u'\\\\bdoi')"
p33
atp34
Rp35
sS'species'
p36
g3
((lp37
S"(5967, u'(?i)\\\\b(males|male)\\\\b')"
p38
aS"(2054, u'(?i)\\\\b(heads|head)\\\\b')"
p39
aS"(5958, u'(?i)\\\\b(rats|rat)\\\\b')"
p40
atp41
Rp42
sb.