(ifile_types
ParseObject
p0
(dp1
S'methods'
p2
c__builtin__
set
p3
((lp4
tp5
Rp6
sS'topics'
p7
g3
((lp8
S"(31, u'\\\\brespiratory')"
p9
atp10
Rp11
sS'receptors'
p12
g3
((lp13
(S'5ht2'
p14
I1794
I1799
tp15
a(S'5ht2'
p16
I2388
I2393
tp17
a(S'5ht2'
p18
I1848
I1853
tp19
a(S'5ht2'
p20
I1644
I1649
tp21
a(S'5ht2a'
p22
I604
I610
tp23
a(S'5ht2'
p24
I2268
I2273
tp25
a(S'5ht2'
p26
I622
I627
tp27
a(S'5ht2'
p28
I743
I748
tp29
a(S'5ht2a'
p30
I48
I54
tp31
a(S'5ht2'
p32
I2096
I2101
tp33
a(S'5ht2'
p34
I1340
I1345
tp35
a(S'5ht2'
p36
I1923
I1928
tp37
atp38
Rp39
sS'raw_text_methods'
p40
g3
((lp41
S"(3, u'\\\\bimmunoreactiv')"
p42
atp43
Rp44
sS'regions'
p45
g3
((lp46
S"(3, u'(?i)\\\\b(postsynaptics|postsynaptic)\\\\b')"
p47
atp48
Rp49
sS'year'
p50
V2010
p51
sS'species'
p52
g3
((lp53
S"(4, u'(?i)\\\\b(rats|rat)\\\\b')"
p54
atp55
Rp56
sb.