(ifile_types
ParseObject
p0
(dp1
S'methods'
p2
c__builtin__
set
p3
((lp4
S'Method.ANTAGONIST'
p5
aS'Method.AGONIST'
p6
atp7
Rp8
sS'topics'
p9
g3
((lp10
S"(29, u'\\\\bhyperactiv')"
p11
aS"(26, u'\\\\bbehav')"
p12
aS"(33, u'\\\\blocomot')"
p13
atp14
Rp15
sS'receptors'
p16
g3
((lp17
(S'5ht1b'
p18
I1003
I1009
tp19
a(S'5ht2a'
p20
I457
I463
tp21
a(S'5ht2c'
p22
I470
I476
tp23
a(S'5ht1a'
p24
I437
I443
tp25
a(S'5ht2c'
p26
I551
I557
tp27
a(S'5ht2c'
p28
I1848
I1854
tp29
a(S'5ht1a'
p30
I1119
I1125
tp31
a(S'5ht1b'
p32
I1889
I1895
tp33
a(S'5ht1b'
p34
I447
I453
tp35
a(S'5ht2a'
p36
I1835
I1841
tp37
atp38
Rp39
sS'raw_text_methods'
p40
g3
((lp41
S"(41, u'\\\\bhaloperidol')"
p42
aS"(40, u'\\\\bclozapine')"
p43
aS"(13, u'\\\\bagonist')"
p44
aS"(4, u'\\\\bpcpa')"
p45
aS"(6, u'\\\\bgr127935')"
p46
aS"(50, u'\\\\bm100907')"
p47
aS"(48, u'\\\\bmdma')"
p48
aS"(51, u'\\\\bway100635')"
p49
aS"(10, u'\\\\bmethamphetamine')"
p50
aS"(12, u'\\\\bantagonist')"
p51
atp52
Rp53
sS'regions'
p54
g3
((lp55
tp56
Rp57
sS'year'
p58
V2011
p59
sS'species'
p60
g3
((lp61
tp62
Rp63
sb.