(ifile_types
ParseObject
p0
(dp1
S'methods'
p2
c__builtin__
set
p3
((lp4
tp5
Rp6
sS'topics'
p7
g3
((lp8
tp9
Rp10
sS'receptors'
p11
g3
((lp12
(S'5ht2'
p13
I500
I505
tp14
atp15
Rp16
sS'raw_text_methods'
p17
g3
((lp18
tp19
Rp20
sS'regions'
p21
g3
((lp22
S"(8, u'(?i)\\\\b(centrals|central)(-|\\\\s+)?(nervouses|nervous)(-|\\\\s+)?(systems|system)\\\\b')"
p23
atp24
Rp25
sS'year'
p26
V2009
p27
sS'species'
p28
g3
((lp29
tp30
Rp31
sb.