(ifile_types
ParseObject
p0
(dp1
S'methods'
p2
c__builtin__
set
p3
((lp4
S'Method.ANTAGONIST'
p5
atp6
Rp7
sS'topics'
p8
g3
((lp9
S"(6, u'\\\\baggressi')"
p10
aS"(26, u'\\\\bbehav')"
p11
atp12
Rp13
sS'receptors'
p14
g3
((lp15
(S'5ht2a'
p16
I568
I574
tp17
a(S'5ht1a'
p18
I1025
I1031
tp19
a(S'5ht2c'
p20
I1044
I1050
tp21
a(S'5ht2a'
p22
I1033
I1039
tp23
a(S'5ht2a'
p24
I533
I539
tp25
atp26
Rp27
sS'raw_text_methods'
p28
g3
((lp29
S"(53, u'\\\\bketanserin')"
p30
aS"(54, u'\\\\bautoradiography')"
p31
aS"(23, u'\\\\bmdl')"
p32
aS"(12, u'\\\\bantagonist')"
p33
atp34
Rp35
sS'regions'
p36
g3
((lp37
tp38
Rp39
sS'year'
p40
V1999
p41
sS'species'
p42
g3
((lp43
S"(1, u'(?i)\\\\b(mice|mouse)\\\\b')"
p44
aS"(5, u'(?i)\\\\b(mices|mice)\\\\b')"
p45
atp46
Rp47
sb.