(ifile_types
ParseObject
p0
(dp1
S'methods'
p2
c__builtin__
set
p3
((lp4
tp5
Rp6
sS'topics'
p7
g3
((lp8
S"(5, u'\\\\btherap')"
p9
atp10
Rp11
sS'receptors'
p12
g3
((lp13
(S'5ht1a'
p14
I563
I569
tp15
a(S'5ht1a'
p16
I300
I306
tp17
a(S'5ht1a'
p18
I864
I870
tp19
a(S'5ht1a'
p20
I335
I341
tp21
a(S'5ht1a'
p22
I1314
I1320
tp23
a(S'5ht1a'
p24
I72
I78
tp25
a(S'5ht1a'
p26
I808
I814
tp27
a(S'5ht1a'
p28
I1095
I1101
tp29
atp30
Rp31
sS'raw_text_methods'
p32
g3
((lp33
S"(3, u'\\\\bimmunoreactiv')"
p34
atp35
Rp36
sS'regions'
p37
g3
((lp38
tp39
Rp40
sS'year'
p41
V2001
p42
sS'species'
p43
g3
((lp44
S"(1, u'(?i)\\\\b(mice|mouse)\\\\b')"
p45
atp46
Rp47
sb.