(ifile_types
ParseObject
p0
(dp1
S'antagonists'
p2
c__builtin__
set
p3
((lp4
S"(53, u'\\\\bketanserin')"
p5
aS"(128, u'\\\\bketanserin')"
p6
atp7
Rp8
sS'methods'
p9
g3
((lp10
S'Method.ANTAGONIST'
p11
atp12
Rp13
sS'topics'
p14
g3
((lp15
S"(6, u'\\\\bcognit')"
p16
atp17
Rp18
sS'receptors'
p19
g3
((lp20
S'5ht5'
p21
aS'5ht2a'
p22
atp23
Rp24
sS'regions'
p25
g3
((lp26
S"(292, u'(?i)(anteriors|anterior)(-|\\\\s+)?(cingulates|cingulate)')"
p27
aS"(248, u'(?i)(cerebrals|cerebral)(-|\\\\s+)?(cortexes|cortex)')"
p28
aS"(291, u'(?i)(cingulates|cingulate)(-|\\\\s+)?(cortexes|cortex)')"
p29
atp30
Rp31
sS'year'
p32
V2012
p33
sS'agonists'
p34
g3
((lp35
tp36
Rp37
sS'species'
p38
g3
((lp39
S"(4163, u'(?i)(ermines|ermine)')"
p40
aS"(5958, u'(?i)(rats|rat)')"
p41
aS"(6356, u'(?i)(ais|ai)')"
p42
aS"(7609, u'(?i)(erns|ern)')"
p43
aS"(7610, u'(?i)(ernes|erne)')"
p44
aS"(163, u'(?i)(mice|mouse)')"
p45
aS"(5743, u'(?i)(bots|bot)')"
p46
aS"(479, u'(?i)(lings|ling)')"
p47
aS"(6753, u'(?i)(da|das)')"
p48
aS"(3671, u'(?i)(drosophilas|drosophila)')"
p49
aS"(1349, u'(?i)(rams|ram)')"
p50
aS"(6249, u'(?i)(ants|ant)')"
p51
aS"(1055, u'(?i)(men|man)')"
p52
aS"(4964, u'(?i)(serins|serin)')"
p53
aS"(2395, u'(?i)(mutants|mutant)')"
p54
aS"(1057, u'(?i)(humans|human)')"
p55
aS"(1961, u'(?i)(pens|pen)')"
p56
aS"(3812, u'(?i)(studs|stud)')"
p57
aS"(3196, u'(?i)(human|humans)')"
p58
aS"(1683, u'(?i)(terns|tern)')"
p59
aS"(821, u'(?i)(lice|louse)')"
p60
atp61
Rp62
sb.