(ifile_types
ParseObject
p0
(dp1
S'antagonists'
p2
c__builtin__
set
p3
((lp4
tp5
Rp6
sS'methods'
p7
g3
((lp8
S'Method.ANTAGONIST'
p9
aS'Method.AGONIST'
p10
atp11
Rp12
sS'topics'
p13
g3
((lp14
S"(11, u'\\\\banxiolyt')"
p15
atp16
Rp17
sS'receptors'
p18
g3
((lp19
S'5ht1a'
p20
atp21
Rp22
sS'regions'
p23
g3
((lp24
tp25
Rp26
sS'year'
p27
V1995
p28
sS'agonists'
p29
g3
((lp30
S"(24, u'\\\\bbuspirone')"
p31
aS"(50, u'\\\\bipsapirone')"
p32
atp33
Rp34
sS'species'
p35
g3
((lp36
S"(1070, u'(?i)(pets|pet)')"
p37
aS"(2323, u'(?i)(bees|bee)')"
p38
aS"(5958, u'(?i)(rats|rat)')"
p39
aS"(867, u'(?i)(tits|tit)')"
p40
aS"(3051, u'(?i)(pigs|pig)')"
p41
aS"(6682, u'(?i)(tera|teras)')"
p42
aS"(1055, u'(?i)(men|man)')"
p43
aS"(6249, u'(?i)(ants|ant)')"
p44
aS"(3062, u'(?i)(guineas|guinea)')"
p45
aS"(4979, u'(?i)(cats|cat)')"
p46
aS"(3550, u'(?i)(anis|ani)')"
p47
aS"(3404, u'(?i)(titis|titi)')"
p48
aS"(7094, u'(?i)(curs|cur)')"
p49
aS"(1961, u'(?i)(pens|pen)')"
p50
aS"(6391, u'(?i)(asses|ass)')"
p51
aS"(4480, u'(?i)(guineas|guinea)(-|\\\\s+)?(pigs|pig)')"
p52
aS"(5537, u'(?i)(hippos|hippo)')"
p53
aS"(821, u'(?i)(lice|louse)')"
p54
atp55
Rp56
sb.