(ifile_types
ParseObject
p0
(dp1
S'antagonists'
p2
c__builtin__
set
p3
((lp4
S"(31, u'\\\\bway ?100635')"
p5
atp6
Rp7
sS'methods'
p8
g3
((lp9
S'Method.ANTAGONIST'
p10
aS'Method.AGONIST'
p11
atp12
Rp13
sS'topics'
p14
g3
((lp15
S"(30, u'\\\\bparkinsons')"
p16
atp17
Rp18
sS'receptors'
p19
g3
((lp20
S'5ht1a'
p21
atp22
Rp23
sS'regions'
p24
g3
((lp25
S"(94, u'(?i)\\\\b(dorsals|dorsal)(-|\\\\s+)?(raphes|raphe)(-|\\\\s+)?(nuclei|nucleus)\\\\b')"
p26
aS"(96, u'(?i)\\\\b(ventrals|ventral)(-|\\\\s+)?(tegmentals|tegmental)(-|\\\\s+)?(areas|area)\\\\b')"
p27
aS"(103, u'(?i)\\\\b(substantias|substantia)(-|\\\\s+)?(nigras|nigra)\\\\b')"
p28
aS"(104, u'(?i)\\\\b(par|pars)(-|\\\\s+)?(compactas|compacta)\\\\b')"
p29
aS"(318, u'(?i)\\\\b(raphes|raphe)(-|\\\\s+)?(nuclei|nucleus)\\\\b')"
p30
atp31
Rp32
sS'year'
p33
V2011
p34
sS'agonists'
p35
g3
((lp36
tp37
Rp38
sS'species'
p39
g3
((lp40
S"(6753, u'(?i)\\\\b(da|das)\\\\b')"
p41
aS"(5958, u'(?i)\\\\b(rats|rat)\\\\b')"
p42
atp43
Rp44
sb.