(ifile_types
ParseObject
p0
(dp1
S'methods'
p2
c__builtin__
set
p3
((lp4
S'Method.STIMULATION'
p5
atp6
Rp7
sS'topics'
p8
g3
((lp9
tp10
Rp11
sS'receptors'
p12
g3
((lp13
(S'5ht1a'
p14
I121
I132
tp15
a(S'5ht1a'
p16
I1988
I1994
tp17
a(S'5ht1a'
p18
I1756
I1762
tp19
a(S'5ht1'
p20
I121
I132
tp21
a(S'5ht1a'
p22
I814
I820
tp23
atp24
Rp25
sS'raw_text_methods'
p26
g3
((lp27
S"(15, u'\\\\b8ohdpat')"
p28
aS"(5, u'\\\\bmk801')"
p29
aS"(51, u'\\\\bway100635')"
p30
atp31
Rp32
sS'regions'
p33
g3
((lp34
S"(20, u'(?i)\\\\b(prefrontals|prefrontal)\\\\b')"
p35
aS"(21, u'(?i)\\\\b(mpfcs|mpfc)\\\\b')"
p36
aS"(19, u'(?i)\\\\b(cortexes|cortex)\\\\b')"
p37
aS"(3, u'(?i)\\\\b(postsynaptics|postsynaptic)\\\\b')"
p38
atp39
Rp40
sS'year'
p41
V2001
p42
sS'species'
p43
g3
((lp44
S"(4, u'(?i)\\\\b(rats|rat)\\\\b')"
p45
atp46
Rp47
sb.