(ifile_types
ParseObject
p0
(dp1
S'antagonists'
p2
c__builtin__
set
p3
((lp4
S"(48, u'\\\\btrazodone')"
p5
aS"(102, u'\\\\bamitriptyline')"
p6
aS"(91, u'\\\\bfluoxetine')"
p7
atp8
Rp9
sS'methods'
p10
g3
((lp11
S'Method.ANTAGONIST'
p12
aS'Method.AGONIST'
p13
atp14
Rp15
sS'topics'
p16
g3
((lp17
S"(8, u'\\\\blearning')"
p18
atp19
Rp20
sS'receptors'
p21
g3
((lp22
S'5ht5'
p23
aS'5ht2c'
p24
aS'5ht2a'
p25
atp26
Rp27
sS'regions'
p28
g3
((lp29
tp30
Rp31
sS'year'
p32
V1997
p33
sS'agonists'
p34
g3
((lp35
S"(75, u'\\\\btrazodone')"
p36
atp37
Rp38
sS'species'
p39
g3
((lp40
S"(2054, u'(?i)\\\\b(heads|head)\\\\b')"
p41
aS"(163, u'(?i)\\\\b(mice|mouse)\\\\b')"
p42
aS"(5958, u'(?i)\\\\b(rats|rat)\\\\b')"
p43
atp44
Rp45
sb.