(ifile_types
ParseObject
p0
(dp1
S'methods'
p2
c__builtin__
set
p3
((lp4
S'Method.AGONIST'
p5
atp6
Rp7
sS'topics'
p8
g3
((lp9
S"(18, u'\\\\bavoidan')"
p10
aS"(16, u'\\\\blearning')"
p11
aS"(15, u'\\\\bmemory')"
p12
atp13
Rp14
sS'receptors'
p15
g3
((lp16
(S'5ht1a'
p17
I589
I595
tp18
a(S'5ht1a'
p19
I1043
I1049
tp20
atp21
Rp22
sS'raw_text_methods'
p23
g3
((lp24
S"(13, u'\\\\bagonist')"
p25
atp26
Rp27
sS'regions'
p28
g3
((lp29
S"(20, u'(?i)\\\\b(prefrontals|prefrontal)\\\\b')"
p30
aS"(19, u'(?i)\\\\b(cortexes|cortex)\\\\b')"
p31
aS"(12, u'(?i)\\\\b(amygdalas|amygdala)\\\\b')"
p32
atp33
Rp34
sS'year'
p35
V2008
p36
sS'species'
p37
g3
((lp38
S"(3, u'(?i)\\\\b(males|male)\\\\b')"
p39
aS"(4, u'(?i)\\\\b(rats|rat)\\\\b')"
p40
atp41
Rp42
sb.