(ifile_types
ParseObject
p0
(dp1
S'methods'
p2
c__builtin__
set
p3
((lp4
tp5
Rp6
sS'topics'
p7
g3
((lp8
tp9
Rp10
sS'receptors'
p11
g3
((lp12
(S'5ht2a'
p13
I121
I127
tp14
a(S'5ht1a'
p15
I85
I91
tp16
a(S'5ht2a'
p17
I1779
I1785
tp18
a(S'5ht1a'
p19
I1368
I1374
tp20
a(S'5ht1a'
p21
I1602
I1608
tp22
a(S'5ht1a'
p23
I344
I350
tp24
a(S'5ht2a'
p25
I402
I408
tp26
atp27
Rp28
sS'raw_text_methods'
p29
g3
((lp30
tp31
Rp32
sS'regions'
p33
g3
((lp34
S"(19, u'(?i)\\\\b(cortexes|cortex)\\\\b')"
p35
aS"(13, u'(?i)\\\\b(septums|septum)\\\\b')"
p36
aS"(17, u'(?i)\\\\b(caudates|caudate)\\\\b')"
p37
aS"(18, u'(?i)\\\\b(putamens|putamen)\\\\b')"
p38
atp39
Rp40
sS'year'
p41
V2003
p42
sS'species'
p43
g3
((lp44
S"(3, u'(?i)\\\\b(males|male)\\\\b')"
p45
aS"(4, u'(?i)\\\\b(rats|rat)\\\\b')"
p46
atp47
Rp48
sb.