(ifile_types
ParseObject
p0
(dp1
S'antagonists'
p2
c__builtin__
set
p3
((lp4
tp5
Rp6
sS'methods'
p7
g3
((lp8
S'Method.KNOCKOUT'
p9
atp10
Rp11
sS'topics'
p12
g3
((lp13
S"(8, u'\\\\blearning')"
p14
aS"(6, u'\\\\bcognit')"
p15
aS"(7, u'\\\\bmemory')"
p16
atp17
Rp18
sS'receptors'
p19
g3
((lp20
S'5ht1a'
p21
atp22
Rp23
sS'regions'
p24
g3
((lp25
S"(34, u'(?i)(pon|pons)')"
p26
atp27
Rp28
sS'year'
p29
V2017
p30
sS'agonists'
p31
g3
((lp32
S"(155, u'\\\\bmem')"
p33
atp34
Rp35
sS'species'
p36
g3
((lp37
S"(4624, u'(?i)(apes|ape)')"
p38
aS"(5537, u'(?i)(hippos|hippo)')"
p39
aS"(5176, u'(?i)(tegs|teg)')"
p40
aS"(5958, u'(?i)(rats|rat)')"
p41
aS"(6356, u'(?i)(ais|ai)')"
p42
aS"(163, u'(?i)(mice|mouse)')"
p43
aS"(2389, u'(?i)(spats|spat)')"
p44
aS"(6857, u'(?i)(ormers|ormer)')"
p45
aS"(6682, u'(?i)(tera|teras)')"
p46
aS"(1349, u'(?i)(rams|ram)')"
p47
aS"(7094, u'(?i)(curs|cur)')"
p48
aS"(2665, u'(?i)(rays|ray)')"
p49
aS"(853, u'(?i)(minas|mina)')"
p50
aS"(6249, u'(?i)(ants|ant)')"
p51
aS"(3812, u'(?i)(studs|stud)')"
p52
aS"(6391, u'(?i)(asses|ass)')"
p53
aS"(1823, u'(?i)(merls|merl)')"
p54
aS"(5743, u'(?i)(bots|bot)')"
p55
aS"(4979, u'(?i)(cats|cat)')"
p56
atp57
Rp58
sb.