(ifile_types
ParseObject
p0
(dp1
S'methods'
p2
c__builtin__
set
p3
((lp4
S'Method.AGONIST'
p5
atp6
Rp7
sS'topics'
p8
g3
((lp9
S"(5, u'\\\\btherap')"
p10
aS"(13, u'\\\\bantidepress')"
p11
aS"(9, u'\\\\bstress')"
p12
atp13
Rp14
sS'receptors'
p15
g3
((lp16
(S'5ht1a'
p17
I583
I589
tp18
a(S'5ht1'
p19
I1289
I1294
tp20
a(S'5ht1'
p21
I708
I713
tp22
a(S'5ht2'
p23
I1147
I1152
tp24
a(S'5ht1'
p25
I978
I983
tp26
a(S'5ht2'
p27
I1476
I1481
tp28
a(S'5ht2'
p29
I1445
I1450
tp30
a(S'5ht2a'
p31
I594
I600
tp32
a(S'5ht2'
p33
I868
I873
tp34
atp35
Rp36
sS'raw_text_methods'
p37
g3
((lp38
S"(38, u'\\\\bssri')"
p39
aS"(39, u'\\\\bselective serotonin reuptake inhibitor')"
p40
atp41
Rp42
sS'regions'
p43
g3
((lp44
S"(3, u'(?i)\\\\b(postsynaptics|postsynaptic)\\\\b')"
p45
atp46
Rp47
sS'year'
p48
V2017
p49
sS'species'
p50
g3
((lp51
tp52
Rp53
sb.