(ifile_types
ParseObject
p0
(dp1
S'methods'
p2
c__builtin__
set
p3
((lp4
S'Method.ANTAGONIST'
p5
aS'Method.AGONIST'
p6
atp7
Rp8
sS'topics'
p9
g3
((lp10
S"(29, u'\\\\bhyperactiv')"
p11
aS"(35, u'\\\\bnocicept')"
p12
atp13
Rp14
sS'receptors'
p15
g3
((lp16
(S'5ht1a'
p17
I41
I47
tp18
a(S'5ht1a'
p19
I1731
I1737
tp20
a(S'5ht1a'
p21
I889
I895
tp22
a(S'5ht1a'
p23
I1914
I1920
tp24
a(S'5ht1a'
p25
I734
I740
tp26
a(S'5ht1a'
p27
I177
I183
tp28
a(S'5ht1a'
p29
I1444
I1450
tp30
a(S'5ht1a'
p31
I998
I1004
tp32
atp33
Rp34
sS'raw_text_methods'
p35
g3
((lp36
S"(13, u'\\\\bagonist')"
p37
aS"(15, u'\\\\b8ohdpat')"
p38
aS"(51, u'\\\\bway100635')"
p39
aS"(12, u'\\\\bantagonist')"
p40
atp41
Rp42
sS'regions'
p43
g3
((lp44
tp45
Rp46
sS'year'
p47
V2002
p48
sS'species'
p49
g3
((lp50
S"(4, u'(?i)\\\\b(rats|rat)\\\\b')"
p51
atp52
Rp53
sb.