(ifile_types
ParseObject
p0
(dp1
S'methods'
p2
c__builtin__
set
p3
((lp4
S'Method.PET'
p5
atp6
Rp7
sS'topics'
p8
g3
((lp9
S"(1, u'\\\\bpatient')"
p10
aS"(34, u'\\\\bparkinson')"
p11
aS"(3, u'\\\\bclinical')"
p12
atp13
Rp14
sS'receptors'
p15
g3
((lp16
(S'5ht1'
p17
I975
I980
tp18
a(S'5ht1'
p19
I409
I414
tp20
a(S'5ht1b'
p21
I1202
I1208
tp22
a(S'5ht1'
p23
I566
I571
tp24
a(S'5ht1'
p25
I622
I627
tp26
a(S'5ht1'
p27
I780
I785
tp28
atp29
Rp30
sS'raw_text_methods'
p31
g3
((lp32
S"(17, u'\\\\bpet')"
p33
aS"(19, u'\\\\bpositron emission tomography')"
p34
aS"(18, u'\\\\bimaging')"
p35
atp36
Rp37
sS'regions'
p38
g3
((lp39
S"(19, u'(?i)\\\\b(cortexes|cortex)\\\\b')"
p40
atp41
Rp42
sS'year'
p43
V2014
p44
sS'species'
p45
g3
((lp46
tp47
Rp48
sb.