(ifile_types
ParseObject
p0
(dp1
S'antagonists'
p2
c__builtin__
set
p3
((lp4
S"(111, u'\\\\bolanzapine')"
p5
aS"(175, u'\\\\bsb ?271046')"
p6
aS"(110, u'\\\\bclozapine')"
p7
aS"(201, u'\\\\bsertindole')"
p8
aS"(180, u'\\\\bsertindole')"
p9
atp10
Rp11
sS'methods'
p12
g3
((lp13
S'Method.ANTAGONIST'
p14
atp15
Rp16
sS'topics'
p17
g3
((lp18
S"(15, u'\\\\bschizophreni')"
p19
atp20
Rp21
sS'receptors'
p22
g3
((lp23
S'5ht6'
p24
atp25
Rp26
sS'regions'
p27
g3
((lp28
tp29
Rp30
sS'year'
p31
V2002
p32
sS'agonists'
p33
g3
((lp34
S"(57, u'\\\\bolanzapine')"
p35
aS"(23, u'\\\\bclozapine')"
p36
atp37
Rp38
sS'species'
p39
g3
((lp40
S"(5958, u'(?i)\\\\b(rats|rat)\\\\b')"
p41
atp42
Rp43
sb.