(ifile_types
ParseObject
p0
(dp1
S'methods'
p2
c__builtin__
set
p3
((lp4
S'Method.AGONIST'
p5
atp6
Rp7
sS'topics'
p8
g3
((lp9
tp10
Rp11
sS'receptors'
p12
g3
((lp13
(S'5ht1d'
p14
I564
I570
tp15
a(S'5ht1d'
p16
I501
I507
tp17
a(S'5ht1d'
p18
I517
I523
tp19
a(S'5ht1d'
p20
I1015
I1021
tp21
a(S'5ht1d'
p22
I881
I887
tp23
a(S'5ht1d'
p24
I1372
I1378
tp25
a(S'5ht1d'
p26
I343
I349
tp27
a(S'5ht1d'
p28
I1291
I1297
tp29
a(S'5ht1d'
p30
I1515
I1521
tp31
a(S'5ht1d'
p32
I163
I169
tp33
a(S'5ht1d'
p34
I1275
I1281
tp35
atp36
Rp37
sS'raw_text_methods'
p38
g3
((lp39
S"(53, u'\\\\bketanserin')"
p40
aS"(15, u'\\\\b8ohdpat')"
p41
aS"(34, u'\\\\b5ct')"
p42
aS"(13, u'\\\\bagonist')"
p43
aS"(47, u'\\\\bsumatriptan')"
p44
aS"(45, u'\\\\bmetergoline')"
p45
atp46
Rp47
sS'regions'
p48
g3
((lp49
tp50
Rp51
sS'year'
p52
V1995
p53
sS'species'
p54
g3
((lp55
tp56
Rp57
sb.