(ifile_types
ParseObject
p0
(dp1
S'methods'
p2
c__builtin__
set
p3
((lp4
S'Method.AGONIST'
p5
atp6
Rp7
sS'topics'
p8
g3
((lp9
tp10
Rp11
sS'receptors'
p12
g3
((lp13
(S'5ht1a'
p14
I933
I944
tp15
a(S'5ht1a'
p16
I1419
I1430
tp17
a(S'5ht2'
p18
I1073
I1083
tp19
a(S'5ht1b'
p20
I1126
I1137
tp21
atp22
Rp23
sS'raw_text_methods'
p24
g3
((lp25
S"(13, u'\\\\bagonist')"
p26
aS"(7, u'\\\\bpropranolol')"
p27
aS"(46, u'\\\\bspiperone')"
p28
aS"(53, u'\\\\bketanserin')"
p29
atp30
Rp31
sS'regions'
p32
g3
((lp33
tp34
Rp35
sS'year'
p36
V1994
p37
sS'species'
p38
g3
((lp39
tp40
Rp41
sb.