(ifile_types
ParseObject
p0
(dp1
S'antagonists'
p2
c__builtin__
set
p3
((lp4
S"(26, u'\\\\bspiperone')"
p5
aS"(118, u'\\\\bly ?53857')"
p6
aS"(119, u'\\\\britanserin')"
p7
atp8
Rp9
sS'methods'
p10
g3
((lp11
S'Method.ANTAGONIST'
p12
aS'Method.AGONIST'
p13
atp14
Rp15
sS'topics'
p16
g3
((lp17
tp18
Rp19
sS'receptors'
p20
g3
((lp21
S'5ht1b'
p22
aS'5ht1a'
p23
aS'5ht2c'
p24
aS'5ht2a'
p25
atp26
Rp27
sS'regions'
p28
g3
((lp29
S"(170, u'(?i)\\\\b(ventromedials|ventromedial)(-|\\\\s+)?(nuclei|nucleus)\\\\b')"
p30
aS"(159, u'(?i)\\\\b(paraventriculars|paraventricular)(-|\\\\s+)?(nuclei|nucleus)\\\\b')"
p31
atp32
Rp33
sS'year'
p34
V1994
p35
sS'agonists'
p36
g3
((lp37
S"(67, u'\\\\bru ?24969')"
p38
atp39
Rp40
sS'species'
p41
g3
((lp42
S"(5958, u'(?i)\\\\b(rats|rat)\\\\b')"
p43
atp44
Rp45
sb.