(ifile_types
ParseObject
p0
(dp1
S'methods'
p2
c__builtin__
set
p3
((lp4
S'Method.AGONIST'
p5
atp6
Rp7
sS'topics'
p8
g3
((lp9
S"(9, u'\\\\bstress')"
p10
atp11
Rp12
sS'receptors'
p13
g3
((lp14
(S'5ht1a'
p15
I477
I483
tp16
a(S'5ht5'
p17
I1388
I1398
tp18
a(S'5ht5'
p19
I1388
I1399
tp20
a(S'5ht1a'
p21
I132
I138
tp22
atp23
Rp24
sS'raw_text_methods'
p25
g3
((lp26
S"(13, u'\\\\bagonist')"
p27
atp28
Rp29
sS'regions'
p30
g3
((lp31
S"(19, u'(?i)\\\\b(cortexes|cortex)\\\\b')"
p32
aS"(9, u'(?i)\\\\b(cerebellums|cerebellum)\\\\b')"
p33
aS"(4, u'(?i)\\\\b(presynaptics|presynaptic)\\\\b')"
p34
atp35
Rp36
sS'year'
p37
V1996
p38
sS'species'
p39
g3
((lp40
S"(4, u'(?i)\\\\b(rats|rat)\\\\b')"
p41
atp42
Rp43
sb.