(ifile_types
ParseObject
p0
(dp1
S'antagonists'
p2
c__builtin__
set
p3
((lp4
S"(14, u'\\\\bmethiothepin')"
p5
atp6
Rp7
sS'methods'
p8
g3
((lp9
S'Method.ANTAGONIST'
p10
aS'Method.AGONIST'
p11
atp12
Rp13
sS'topics'
p14
g3
((lp15
tp16
Rp17
sS'receptors'
p18
g3
((lp19
S'5ht6'
p20
aS'5ht1a'
p21
aS'5ht4'
p22
aS'5ht3'
p23
aS'5ht2'
p24
aS'5ht4a'
p25
atp26
Rp27
sS'regions'
p28
g3
((lp29
tp30
Rp31
sS'year'
p32
V2001
p33
sS'agonists'
p34
g3
((lp35
tp36
Rp37
sS'species'
p38
g3
((lp39
S"(1057, u'(?i)\\\\b(humans|human)\\\\b')"
p40
aS"(5958, u'(?i)\\\\b(rats|rat)\\\\b')"
p41
aS"(6125, u'(?i)\\\\b(females|female)\\\\b')"
p42
aS"(3196, u'(?i)\\\\b(human|humans)\\\\b')"
p43
atp44
Rp45
sb.