(ifile_types
ParseObject
p0
(dp1
S'antagonists'
p2
c__builtin__
set
p3
((lp4
tp5
Rp6
sS'methods'
p7
g3
((lp8
S'Method.AGONIST'
p9
atp10
Rp11
sS'topics'
p12
g3
((lp13
S"(3, u'\\\\bsleep')"
p14
aS"(11, u'\\\\banxiolyt')"
p15
atp16
Rp17
sS'receptors'
p18
g3
((lp19
S'5ht1a'
p20
atp21
Rp22
sS'regions'
p23
g3
((lp24
S"(94, u'(?i)\\\\b(dorsals|dorsal)(-|\\\\s+)?(raphes|raphe)(-|\\\\s+)?(nuclei|nucleus)\\\\b')"
p25
aS"(318, u'(?i)\\\\b(raphes|raphe)(-|\\\\s+)?(nuclei|nucleus)\\\\b')"
p26
atp27
Rp28
sS'year'
p29
V1993
p30
sS'agonists'
p31
g3
((lp32
S"(45, u'\\\\bipsapirone')"
p33
atp34
Rp35
sS'species'
p36
g3
((lp37
S"(5958, u'(?i)\\\\b(rats|rat)\\\\b')"
p38
atp39
Rp40
sb.