(ifile_types
ParseObject
p0
(dp1
S'antagonists'
p2
c__builtin__
set
p3
((lp4
tp5
Rp6
sS'methods'
p7
g3
((lp8
S'Method.ANTAGONIST'
p9
aS'Method.AGONIST'
p10
atp11
Rp12
sS'topics'
p13
g3
((lp14
S"(8, u'\\\\blearning')"
p15
aS"(29, u'\\\\bsex')"
p16
aS"(6, u'\\\\bcognit')"
p17
aS"(7, u'\\\\bmemory')"
p18
atp19
Rp20
sS'receptors'
p21
g3
((lp22
S'5ht1b'
p23
aS'5ht1a'
p24
aS'5ht4'
p25
aS'5ht3a'
p26
aS'5ht2c'
p27
aS'5ht2a'
p28
atp29
Rp30
sS'regions'
p31
g3
((lp32
S"(234, u'(?i)\\\\b(nuclei|nucleus)(-|\\\\s+)?(basali|basalis)\\\\b')"
p33
atp34
Rp35
sS'year'
p36
V2000
p37
sS'agonists'
p38
g3
((lp39
S"(149, u'\\\\bmem')"
p40
atp41
Rp42
sS'species'
p43
g3
((lp44
S"(163, u'(?i)\\\\b(mice|mouse)\\\\b')"
p45
atp46
Rp47
sb.