(ifile_types
ParseObject
p0
(dp1
S'antagonists'
p2
c__builtin__
set
p3
((lp4
S"(32, u'\\\\bway ?100635')"
p5
atp6
Rp7
sS'methods'
p8
g3
((lp9
S'Method.KNOCKOUT'
p10
aS'Method.ANTAGONIST'
p11
atp12
Rp13
sS'topics'
p14
g3
((lp15
S"(35, u'\\\\bstress')"
p16
aS"(10, u'\\\\banxiety')"
p17
atp18
Rp19
sS'receptors'
p20
g3
((lp21
S'5ht1a'
p22
atp23
Rp24
sS'regions'
p25
g3
((lp26
S"(254, u'(?i)(prefrontals|prefrontal)(-|\\\\s+)?(cortexes|cortex)')"
p27
aS"(255, u'(?i)(pres|pre)(-|\\\\s+)?(frontals|frontal)(-|\\\\s+)?(cortexes|cortex)')"
p28
aS"(34, u'(?i)(pon|pons)')"
p29
atp30
Rp31
sS'year'
p32
V2010
p33
sS'agonists'
p34
g3
((lp35
tp36
Rp37
sS'species'
p38
g3
((lp39
S"(2323, u'(?i)(bees|bee)')"
p40
aS"(5537, u'(?i)(hippos|hippo)')"
p41
aS"(6753, u'(?i)(da|das)')"
p42
aS"(2568, u'(?i)(hens|hen)')"
p43
aS"(702, u'(?i)(genets|genet)')"
p44
aS"(163, u'(?i)(mice|mouse)')"
p45
aS"(479, u'(?i)(lings|ling)')"
p46
aS"(4091, u'(?i)(adults|adult)')"
p47
aS"(1055, u'(?i)(men|man)')"
p48
aS"(6249, u'(?i)(ants|ant)')"
p49
aS"(107, u'(?i)(stags|stag)')"
p50
aS"(4979, u'(?i)(cats|cat)')"
p51
aS"(3550, u'(?i)(anis|ani)')"
p52
aS"(5958, u'(?i)(rats|rat)')"
p53
aS"(3812, u'(?i)(studs|stud)')"
p54
aS"(6356, u'(?i)(ais|ai)')"
p55
atp56
Rp57
sb.