(ifile_types
ParseObject
p0
(dp1
S'antagonists'
p2
c__builtin__
set
p3
((lp4
tp5
Rp6
sS'methods'
p7
g3
((lp8
S'Method.KNOCKOUT'
p9
aS'Method.AGONIST'
p10
atp11
Rp12
sS'topics'
p13
g3
((lp14
S"(20, u'\\\\baggressi')"
p15
atp16
Rp17
sS'receptors'
p18
g3
((lp19
S'5ht1a'
p20
aS'5ht5'
p21
atp22
Rp23
sS'regions'
p24
g3
((lp25
S"(126, u'(?i)(thalamuses|thalamus)')"
p26
aS"(209, u'(?i)(amygdalas|amygdala)')"
p27
atp28
Rp29
sS'year'
p30
V2006
p31
sS'agonists'
p32
g3
((lp33
S"(92, u'\\\\b8 ?oh ?dpat')"
p34
atp35
Rp36
sS'species'
p37
g3
((lp38
S"(7423, u'(?i)(norways|norway)(-|\\\\s+)?(rats|rat)')"
p39
aS"(6753, u'(?i)(da|das)')"
p40
aS"(5958, u'(?i)(rats|rat)')"
p41
aS"(702, u'(?i)(genets|genet)')"
p42
aS"(163, u'(?i)(mice|mouse)')"
p43
aS"(4663, u'(?i)(nags|nag)')"
p44
aS"(4163, u'(?i)(ermines|ermine)')"
p45
aS"(1055, u'(?i)(men|man)')"
p46
aS"(6249, u'(?i)(ants|ant)')"
p47
aS"(6356, u'(?i)(ais|ai)')"
p48
aS"(3550, u'(?i)(anis|ani)')"
p49
aS"(3812, u'(?i)(studs|stud)')"
p50
atp51
Rp52
sb.