(ifile_types
ParseObject
p0
(dp1
S'methods'
p2
c__builtin__
set
p3
((lp4
S'Method.ANTAGONIST'
p5
atp6
Rp7
sS'topics'
p8
g3
((lp9
S"(24, u'\\\\banxiolytic')"
p10
aS"(8, u'\\\\banxi')"
p11
aS"(26, u'\\\\bbehav')"
p12
atp13
Rp14
sS'receptors'
p15
g3
((lp16
(S'5ht1a'
p17
I579
I585
tp18
atp19
Rp20
sS'raw_text_methods'
p21
g3
((lp22
S"(51, u'\\\\bway100635')"
p23
aS"(36, u'\\\\bbenzodiazepine')"
p24
aS"(12, u'\\\\bantagonist')"
p25
atp26
Rp27
sS'regions'
p28
g3
((lp29
tp30
Rp31
sS'year'
p32
V2020
p33
sS'species'
p34
g3
((lp35
S"(1, u'(?i)\\\\b(mice|mouse)\\\\b')"
p36
aS"(5, u'(?i)\\\\b(mices|mice)\\\\b')"
p37
aS"(3, u'(?i)\\\\b(males|male)\\\\b')"
p38
atp39
Rp40
sb.