(ifile_types
ParseObject
p0
(dp1
S'methods'
p2
c__builtin__
set
p3
((lp4
tp5
Rp6
sS'topics'
p7
g3
((lp8
S"(22, u'\\\\bschizophreni')"
p9
aS"(14, u'\\\\bcogniti')"
p10
aS"(4, u'\\\\btreatment')"
p11
atp12
Rp13
sS'receptors'
p14
g3
((lp15
(S'5ht1a'
p16
I242
I248
tp17
a(S'5ht2a'
p18
I255
I261
tp19
a(S'5ht1a'
p20
I972
I977
tp21
a(S'5ht2a'
p22
I1283
I1288
tp23
a(S'5ht1a'
p24
I855
I860
tp25
a(S'5ht1a'
p26
I1127
I1132
tp27
atp28
Rp29
sS'raw_text_methods'
p30
g3
((lp31
S"(2, u'\\\\blabeling')"
p32
atp33
Rp34
sS'regions'
p35
g3
((lp36
S"(20, u'(?i)\\\\b(prefrontals|prefrontal)\\\\b')"
p37
aS"(19, u'(?i)\\\\b(cortexes|cortex)\\\\b')"
p38
aS"(17, u'(?i)\\\\b(caudates|caudate)\\\\b')"
p39
aS"(18, u'(?i)\\\\b(putamens|putamen)\\\\b')"
p40
atp41
Rp42
sS'year'
p43
V2009
p44
sS'species'
p45
g3
((lp46
S"(4, u'(?i)\\\\b(rats|rat)\\\\b')"
p47
atp48
Rp49
sb.