(ifile_types
ParseObject
p0
(dp1
S'methods'
p2
c__builtin__
set
p3
((lp4
S'Method.AGONIST'
p5
atp6
Rp7
sS'topics'
p8
g3
((lp9
tp10
Rp11
sS'receptors'
p12
g3
((lp13
(S'5ht1d'
p14
I436
I442
tp15
a(S'5ht1d'
p16
I1445
I1451
tp17
a(S'5ht1d'
p18
I711
I717
tp19
a(S'5ht1a'
p20
I1342
I1348
tp21
a(S'5ht1d'
p22
I188
I194
tp23
a(S'5ht3'
p24
I1286
I1291
tp25
a(S'5ht1d'
p26
I1255
I1261
tp27
a(S'5ht1d'
p28
I864
I870
tp29
a(S'5ht1c'
p30
I1274
I1280
tp31
a(S'5ht1'
p32
I1274
I1280
tp33
a(S'5ht1d'
p34
I118
I124
tp35
a(S'5ht1d'
p36
I1135
I1141
tp37
a(S'5ht2'
p38
I1267
I1272
tp39
atp40
Rp41
sS'raw_text_methods'
p42
g3
((lp43
S"(13, u'\\\\bagonist')"
p44
atp45
Rp46
sS'regions'
p47
g3
((lp48
tp49
Rp50
sS'year'
p51
V1993
p52
sS'species'
p53
g3
((lp54
tp55
Rp56
sb.