(ifile_types
ParseObject
p0
(dp1
S'methods'
p2
c__builtin__
set
p3
((lp4
S'Method.ANTAGONIST'
p5
aS'Method.AGONIST'
p6
atp7
Rp8
sS'topics'
p9
g3
((lp10
S"(5, u'\\\\btherap')"
p11
aS"(26, u'\\\\bbehav')"
p12
aS"(4, u'\\\\btreatment')"
p13
atp14
Rp15
sS'receptors'
p16
g3
((lp17
(S'5ht1a'
p18
I951
I957
tp19
a(S'5ht1a'
p20
I1445
I1451
tp21
a(S'5ht1a'
p22
I274
I285
tp23
a(S'5ht1a'
p24
I670
I676
tp25
a(S'5ht1a'
p26
I1675
I1681
tp27
a(S'5ht1a'
p28
I562
I568
tp29
a(S'5ht1a'
p30
I288
I294
tp31
a(S'5ht1a'
p32
I26
I37
tp33
atp34
Rp35
sS'raw_text_methods'
p36
g3
((lp37
S"(13, u'\\\\bagonist')"
p38
aS"(15, u'\\\\b8ohdpat')"
p39
aS"(51, u'\\\\bway100635')"
p40
aS"(12, u'\\\\bantagonist')"
p41
atp42
Rp43
sS'regions'
p44
g3
((lp45
tp46
Rp47
sS'year'
p48
V2014
p49
sS'species'
p50
g3
((lp51
S"(3, u'(?i)\\\\b(males|male)\\\\b')"
p52
aS"(4, u'(?i)\\\\b(rats|rat)\\\\b')"
p53
atp54
Rp55
sb.