(ifile_types
ParseObject
p0
(dp1
S'methods'
p2
c__builtin__
set
p3
((lp4
S'Method.ANTAGONIST'
p5
atp6
Rp7
sS'topics'
p8
g3
((lp9
S"(26, u'\\\\bbehav')"
p10
atp11
Rp12
sS'receptors'
p13
g3
((lp14
(S'5ht2a'
p15
I440
I446
tp16
a(S'5ht2c'
p17
I440
I447
tp18
a(S'5ht6'
p19
I531
I536
tp20
a(S'5ht2b'
p21
I482
I489
tp22
a(S'5ht2c'
p23
I482
I488
tp24
atp25
Rp26
sS'raw_text_methods'
p27
g3
((lp28
S"(53, u'\\\\bketanserin')"
p29
aS"(12, u'\\\\bantagonist')"
p30
atp31
Rp32
sS'regions'
p33
g3
((lp34
tp35
Rp36
sS'year'
p37
V2006
p38
sS'species'
p39
g3
((lp40
tp41
Rp42
sb.