(ifile_types
ParseObject
p0
(dp1
S'antagonists'
p2
c__builtin__
set
p3
((lp4
S"(53, u'\\\\bketanserin')"
p5
aS"(32, u'\\\\bway ?100635')"
p6
aS"(43, u'\\\\bbrl ?15572')"
p7
aS"(153, u'\\\\bgr ?113808')"
p8
aS"(128, u'\\\\bketanserin')"
p9
aS"(204, u'\\\\bsb ?269970')"
p10
aS"(135, u'\\\\bondansetron')"
p11
aS"(182, u'\\\\bsb ?258585')"
p12
aS"(165, u'\\\\bsb ?699551')"
p13
aS"(102, u'\\\\bfluoxetine')"
p14
aS"(39, u'\\\\bsb ?224289')"
p15
aS"(108, u'\\\\brs ?102221')"
p16
aS"(87, u'\\\\brs ?127445')"
p17
aS"(45, u'\\\\bgr ?127935')"
p18
atp19
Rp20
sS'methods'
p21
g3
((lp22
S'Method.ANTAGONIST'
p23
atp24
Rp25
sS'topics'
p26
g3
((lp27
tp28
Rp29
sS'receptors'
p30
g3
((lp31
S'5ht7'
p32
aS'5ht6'
p33
aS'5ht1a'
p34
aS'5ht4'
p35
aS'5ht3'
p36
aS'5ht2c'
p37
aS'5ht2a'
p38
aS'5ht5'
p39
aS'5ht1d'
p40
aS'5ht1b'
p41
aS'5ht5a'
p42
aS'5ht2b'
p43
atp44
Rp45
sS'regions'
p46
g3
((lp47
tp48
Rp49
sS'year'
p50
V2013
p51
sS'agonists'
p52
g3
((lp53
tp54
Rp55
sS'species'
p56
g3
((lp57
S"(5967, u'(?i)(males|male)')"
p58
aS"(4301, u'(?i)(hydras|hydra)')"
p59
aS"(2568, u'(?i)(hens|hen)')"
p60
aS"(7609, u'(?i)(erns|ern)')"
p61
aS"(6753, u'(?i)(da|das)')"
p62
aS"(6682, u'(?i)(tera|teras)')"
p63
aS"(81, u'(?i)(asps|asp)')"
p64
aS"(468, u'(?i)(oxen|ox)')"
p65
aS"(1055, u'(?i)(men|man)')"
p66
aS"(6249, u'(?i)(ants|ant)')"
p67
aS"(4964, u'(?i)(serins|serin)')"
p68
aS"(5958, u'(?i)(rats|rat)')"
p69
aS"(3522, u'(?i)(tetras|tetra)')"
p70
aS"(1961, u'(?i)(pens|pen)')"
p71
aS"(6391, u'(?i)(asses|ass)')"
p72
aS"(7604, u'(?i)(cyclop|cyclops)')"
p73
aS"(1683, u'(?i)(terns|tern)')"
p74
atp75
Rp76
sb.