(ifile_types
ParseObject
p0
(dp1
S'antagonists'
p2
c__builtin__
set
p3
((lp4
tp5
Rp6
sS'methods'
p7
g3
((lp8
S'Method.PET'
p9
atp10
Rp11
sS'topics'
p12
g3
((lp13
S"(20, u'\\\\baggressi')"
p14
aS"(22, u'\\\\bsuicide')"
p15
aS"(9, u'\\\\bdepress')"
p16
aS"(19, u'\\\\bimpulsiv')"
p17
aS"(1, u'\\\\bmood')"
p18
atp19
Rp20
sS'receptors'
p21
g3
((lp22
S'5ht2a'
p23
atp24
Rp25
sS'regions'
p26
g3
((lp27
S"(292, u'(?i)\\\\b(anteriors|anterior)(-|\\\\s+)?(cingulates|cingulate)\\\\b')"
p28
aS"(254, u'(?i)\\\\b(prefrontals|prefrontal)(-|\\\\s+)?(cortexes|cortex)\\\\b')"
p29
aS"(126, u'(?i)\\\\b(thalamuses|thalamus)\\\\b')"
p30
aS"(255, u'(?i)\\\\b(pres|pre)(-|\\\\s+)?(frontals|frontal)(-|\\\\s+)?(cortexes|cortex)\\\\b')"
p31
aS"(277, u'(?i)\\\\b(temporals|temporal)(-|\\\\s+)?(lobes|lobe)\\\\b')"
p32
atp33
Rp34
sS'year'
p35
V2007
p36
sS'agonists'
p37
g3
((lp38
tp39
Rp40
sS'species'
p41
g3
((lp42
S"(6125, u'(?i)\\\\b(females|female)\\\\b')"
p43
atp44
Rp45
sb.