(ifile_types
ParseObject
p0
(dp1
S'antagonists'
p2
c__builtin__
set
p3
((lp4
S"(108, u'\\\\brs ?102221')"
p5
atp6
Rp7
sS'methods'
p8
g3
((lp9
S'Method.ANTAGONIST'
p10
aS'Method.AGONIST'
p11
atp12
Rp13
sS'topics'
p14
g3
((lp15
S"(3, u'\\\\bsleep')"
p16
atp17
Rp18
sS'receptors'
p19
g3
((lp20
S'5ht5'
p21
aS'5ht2b'
p22
aS'5ht2c'
p23
aS'5ht2a'
p24
aS'5ht1a'
p25
aS'5ht2'
p26
atp27
Rp28
sS'regions'
p29
g3
((lp30
S"(34, u'(?i)(pon|pons)')"
p31
atp32
Rp33
sS'year'
p34
V2015
p35
sS'agonists'
p36
g3
((lp37
S"(92, u'\\\\b8 ?oh ?dpat')"
p38
atp39
Rp40
sS'species'
p41
g3
((lp42
S"(2323, u'(?i)(bees|bee)')"
p43
aS"(6753, u'(?i)(da|das)')"
p44
aS"(6249, u'(?i)(ants|ant)')"
p45
aS"(702, u'(?i)(genets|genet)')"
p46
aS"(163, u'(?i)(mice|mouse)')"
p47
aS"(1266, u'(?i)(embryos|embryo)')"
p48
aS"(468, u'(?i)(oxen|ox)')"
p49
aS"(853, u'(?i)(minas|mina)')"
p50
aS"(3550, u'(?i)(anis|ani)')"
p51
aS"(1961, u'(?i)(pens|pen)')"
p52
aS"(6356, u'(?i)(ais|ai)')"
p53
aS"(4979, u'(?i)(cats|cat)')"
p54
aS"(5949, u'(?i)(dogs|dog)')"
p55
atp56
Rp57
sb.