(ifile_types
ParseObject
p0
(dp1
S'antagonists'
p2
c__builtin__
set
p3
((lp4
tp5
Rp6
sS'methods'
p7
g3
((lp8
S'Method.AGONIST'
p9
atp10
Rp11
sS'topics'
p12
g3
((lp13
tp14
Rp15
sS'receptors'
p16
g3
((lp17
S'5ht1b'
p18
aS'5ht1d'
p19
atp20
Rp21
sS'regions'
p22
g3
((lp23
tp24
Rp25
sS'year'
p26
V2003
p27
sS'agonists'
p28
g3
((lp29
S"(103, u'\\\\bsumatriptan')"
p30
atp31
Rp32
sS'species'
p33
g3
((lp34
S"(2568, u'(?i)(hens|hen)')"
p35
aS"(6753, u'(?i)(da|das)')"
p36
aS"(4091, u'(?i)(adults|adult)')"
p37
aS"(5967, u'(?i)(males|male)')"
p38
aS"(468, u'(?i)(oxen|ox)')"
p39
aS"(1055, u'(?i)(men|man)')"
p40
aS"(6249, u'(?i)(ants|ant)')"
p41
aS"(3592, u'(?i)(ravens|raven)')"
p42
aS"(853, u'(?i)(minas|mina)')"
p43
aS"(5958, u'(?i)(rats|rat)')"
p44
aS"(3812, u'(?i)(studs|stud)')"
p45
aS"(7082, u'(?i)(sagittas|sagitta)')"
p46
atp47
Rp48
sb.