(ifile_types
ParseObject
p0
(dp1
S'methods'
p2
c__builtin__
set
p3
((lp4
S'Method.AGONIST'
p5
atp6
Rp7
sS'topics'
p8
g3
((lp9
S"(8, u'\\\\banxi')"
p10
aS"(7, u'\\\\bdepressi')"
p11
atp12
Rp13
sS'receptors'
p14
g3
((lp15
(S'5ht1b'
p16
I130
I136
tp17
a(S'5ht1b'
p18
I337
I343
tp19
a(S'5ht1b'
p20
I458
I464
tp21
atp22
Rp23
sS'raw_text_methods'
p24
g3
((lp25
S"(13, u'\\\\bagonist')"
p26
atp27
Rp28
sS'regions'
p29
g3
((lp30
S"(15, u'(?i)\\\\b(substantias|substantia)(-|\\\\s+)?(nigras|nigra)\\\\b')"
p31
aS"(11, u'(?i)\\\\b(cerebrals|cerebral)\\\\b')"
p32
atp33
Rp34
sS'year'
p35
V1997
p36
sS'species'
p37
g3
((lp38
S"(4, u'(?i)\\\\b(rats|rat)\\\\b')"
p39
atp40
Rp41
sb.