(ifile_types
ParseObject
p0
(dp1
S'antagonists'
p2
c__builtin__
set
p3
((lp4
tp5
Rp6
sS'methods'
p7
g3
((lp8
S'Method.AGONIST'
p9
atp10
Rp11
sS'topics'
p12
g3
((lp13
tp14
Rp15
sS'receptors'
p16
g3
((lp17
S'5ht1a'
p18
atp19
Rp20
sS'regions'
p21
g3
((lp22
S"(195, u'(?i)\\\\b(telencephalons|telencephalon)\\\\b')"
p23
aS"(220, u'(?i)\\\\b(striatums|striatum)\\\\b')"
p24
atp25
Rp26
sS'year'
p27
V2000
p28
sS'agonists'
p29
g3
((lp30
tp31
Rp32
sS'species'
p33
g3
((lp34
S"(5510, u'(?i)\\\\b(bays|bay)\\\\b')"
p35
aS"(1266, u'(?i)\\\\b(embryos|embryo)\\\\b')"
p36
aS"(4091, u'(?i)\\\\b(adults|adult)\\\\b')"
p37
aS"(709, u'(?i)\\\\b(chicks|chick)\\\\b')"
p38
aS"(5958, u'(?i)\\\\b(rats|rat)\\\\b')"
p39
atp40
Rp41
sb.