(ifile_types
ParseObject
p0
(dp1
S'methods'
p2
c__builtin__
set
p3
((lp4
S'Method.AGONIST'
p5
atp6
Rp7
sS'topics'
p8
g3
((lp9
S"(5, u'\\\\btherap')"
p10
aS"(10, u'\\\\bocd')"
p11
aS"(2, u'\\\\bdisorder')"
p12
atp13
Rp14
sS'receptors'
p15
g3
((lp16
(S'5ht2a'
p17
I1380
I1386
tp18
a(S'5ht2a'
p19
I1924
I1930
tp20
a(S'5ht2a'
p21
I1849
I1855
tp22
a(S'5ht2a'
p23
I286
I292
tp24
a(S'5ht2a'
p25
I558
I564
tp26
a(S'5ht2a'
p27
I1223
I1229
tp28
a(S'5ht2a'
p29
I262
I273
tp30
a(S'5ht2a'
p31
I1327
I1333
tp32
a(S'5ht2a'
p33
I106
I117
tp34
a(S'5ht2a'
p35
I1603
I1609
tp36
a(S'5ht2a'
p37
I1698
I1704
tp38
a(S'5ht2a'
p39
I815
I821
tp40
atp41
Rp42
sS'raw_text_methods'
p43
g3
((lp44
S"(13, u'\\\\bagonist')"
p45
atp46
Rp47
sS'regions'
p48
g3
((lp49
S"(19, u'(?i)\\\\b(cortexes|cortex)\\\\b')"
p50
atp51
Rp52
sS'year'
p53
V2017
p54
sS'species'
p55
g3
((lp56
tp57
Rp58
sb.