(ifile_types
ParseObject
p0
(dp1
S'methods'
p2
c__builtin__
set
p3
((lp4
S'Method.KNOCKOUT'
p5
atp6
Rp7
sS'topics'
p8
g3
((lp9
S"(6, u'\\\\baggressi')"
p10
aS"(26, u'\\\\bbehav')"
p11
aS"(9, u'\\\\bstress')"
p12
atp13
Rp14
sS'receptors'
p15
g3
((lp16
(S'5ht1b'
p17
I518
I524
tp18
a(S'5ht1b'
p19
I401
I407
tp20
a(S'5ht1b'
p21
I427
I433
tp22
a(S'5ht1b'
p23
I1081
I1087
tp24
a(S'5ht1b'
p25
I1387
I1393
tp26
a(S'5ht1b'
p27
I166
I172
tp28
a(S'5ht1b'
p29
I302
I308
tp30
a(S'5ht1b'
p31
I840
I846
tp32
a(S'5ht1b'
p33
I1619
I1625
tp34
a(S'5ht1b'
p35
I51
I57
tp36
a(S'5ht1b'
p37
I1362
I1368
tp38
a(S'5ht1b'
p39
I1275
I1281
tp40
atp41
Rp42
sS'raw_text_methods'
p43
g3
((lp44
tp45
Rp46
sS'regions'
p47
g3
((lp48
tp49
Rp50
sS'year'
p51
V2001
p52
sS'species'
p53
g3
((lp54
S"(1, u'(?i)\\\\b(mice|mouse)\\\\b')"
p55
aS"(2, u'(?i)\\\\b(females|female)\\\\b')"
p56
aS"(5, u'(?i)\\\\b(mices|mice)\\\\b')"
p57
aS"(3, u'(?i)\\\\b(males|male)\\\\b')"
p58
atp59
Rp60
sb.