(ifile_types
ParseObject
p0
(dp1
S'methods'
p2
c__builtin__
set
p3
((lp4
S'Method.ANTAGONIST'
p5
aS'Method.AGONIST'
p6
atp7
Rp8
sS'topics'
p9
g3
((lp10
tp11
Rp12
sS'receptors'
p13
g3
((lp14
(S'5ht6'
p15
I558
I563
tp16
a(S'5ht6'
p17
I515
I520
tp18
a(S'5ht6'
p19
I894
I899
tp20
a(S'5ht6'
p21
I180
I185
tp22
a(S'5ht6'
p23
I43
I48
tp24
a(S'5ht6'
p25
I701
I706
tp26
a(S'5ht6'
p27
I1411
I1416
tp28
a(S'5ht6'
p29
I1149
I1154
tp30
atp31
Rp32
sS'raw_text_methods'
p33
g3
((lp34
S"(13, u'\\\\bagonist')"
p35
aS"(12, u'\\\\bantagonist')"
p36
atp37
Rp38
sS'regions'
p39
g3
((lp40
S"(20, u'(?i)\\\\b(prefrontals|prefrontal)\\\\b')"
p41
aS"(19, u'(?i)\\\\b(cortexes|cortex)\\\\b')"
p42
aS"(4, u'(?i)\\\\b(presynaptics|presynaptic)\\\\b')"
p43
aS"(3, u'(?i)\\\\b(postsynaptics|postsynaptic)\\\\b')"
p44
atp45
Rp46
sS'year'
p47
V2011
p48
sS'species'
p49
g3
((lp50
tp51
Rp52
sb.