(ifile_types
ParseObject
p0
(dp1
S'methods'
p2
c__builtin__
set
p3
((lp4
S'Method.PET'
p5
aS'Method.ANTAGONIST'
p6
atp7
Rp8
sS'topics'
p9
g3
((lp10
S"(24, u'\\\\banxiolytic')"
p11
aS"(2, u'\\\\bdisorder')"
p12
aS"(13, u'\\\\bantidepress')"
p13
aS"(8, u'\\\\banxi')"
p14
aS"(1, u'\\\\bpatient')"
p15
aS"(4, u'\\\\btreatment')"
p16
atp17
Rp18
sS'receptors'
p19
g3
((lp20
(S'5ht1a'
p21
I73
I79
tp22
a(S'5ht1a'
p23
I2051
I2057
tp24
a(S'5ht1a'
p25
I874
I880
tp26
a(S'5ht1a'
p27
I1682
I1688
tp28
a(S'5ht1a'
p29
I566
I572
tp30
a(S'5ht1a'
p31
I459
I465
tp32
a(S'5ht1a'
p33
I1522
I1528
tp34
a(S'5ht1a'
p35
I1071
I1077
tp36
atp37
Rp38
sS'raw_text_methods'
p39
g3
((lp40
S"(49, u'\\\\bdoi')"
p41
aS"(17, u'\\\\bpet')"
p42
aS"(38, u'\\\\bssri')"
p43
aS"(12, u'\\\\bantagonist')"
p44
atp45
Rp46
sS'regions'
p47
g3
((lp48
S"(19, u'(?i)\\\\b(cortexes|cortex)\\\\b')"
p49
aS"(9, u'(?i)\\\\b(cerebellums|cerebellum)\\\\b')"
p50
aS"(12, u'(?i)\\\\b(amygdalas|amygdala)\\\\b')"
p51
aS"(3, u'(?i)\\\\b(postsynaptics|postsynaptic)\\\\b')"
p52
atp53
Rp54
sS'year'
p55
V2009
p56
sS'species'
p57
g3
((lp58
tp59
Rp60
sb.