(ifile_types
ParseObject
p0
(dp1
S'antagonists'
p2
c__builtin__
set
p3
((lp4
tp5
Rp6
sS'methods'
p7
g3
((lp8
S'Method.ANTAGONIST'
p9
aS'Method.AGONIST'
p10
atp11
Rp12
sS'topics'
p13
g3
((lp14
tp15
Rp16
sS'receptors'
p17
g3
((lp18
S'5ht3a'
p19
atp20
Rp21
sS'regions'
p22
g3
((lp23
S"(220, u'(?i)\\\\b(striatums|striatum)\\\\b')"
p24
atp25
Rp26
sS'year'
p27
V1995
p28
sS'agonists'
p29
g3
((lp30
S"(11, u'\\\\bamphetamine')"
p31
atp32
Rp33
sS'species'
p34
g3
((lp35
S"(2395, u'(?i)\\\\b(mutants|mutant)\\\\b')"
p36
aS"(6753, u'(?i)\\\\b(da|das)\\\\b')"
p37
aS"(163, u'(?i)\\\\b(mice|mouse)\\\\b')"
p38
aS"(1190, u'(?i)\\\\b(weavers|weaver)\\\\b')"
p39
atp40
Rp41
sb.