(ifile_types
ParseObject
p0
(dp1
S'antagonists'
p2
c__builtin__
set
p3
((lp4
S"(123, u'\\\\bclozapine')"
p5
aS"(56, u'\\\\bclozapine')"
p6
atp7
Rp8
sS'methods'
p9
g3
((lp10
tp11
Rp12
sS'topics'
p13
g3
((lp14
tp15
Rp16
sS'receptors'
p17
g3
((lp18
S'5ht7'
p19
aS'5ht5'
p20
aS'5ht2c'
p21
aS'5ht2a'
p22
atp23
Rp24
sS'regions'
p25
g3
((lp26
tp27
Rp28
sS'year'
p29
V2012
p30
sS'agonists'
p31
g3
((lp32
S"(105, u'\\\\b5 ?carboxamidotryptamine')"
p33
aS"(224, u'\\\\b5 ?methoxytryptamine')"
p34
aS"(27, u'\\\\bclozapine')"
p35
atp36
Rp37
sS'species'
p38
g3
((lp39
S"(3812, u'(?i)(studs|stud)')"
p40
aS"(5958, u'(?i)(rats|rat)')"
p41
aS"(5229, u'(?i)(moles|mole)')"
p42
aS"(6356, u'(?i)(ais|ai)')"
p43
aS"(3381, u'(?i)(flies|fly)')"
p44
aS"(7539, u'(?i)(mammals|mammal)')"
p45
aS"(479, u'(?i)(lings|ling)')"
p46
aS"(468, u'(?i)(oxen|ox)')"
p47
aS"(5743, u'(?i)(bots|bot)')"
p48
aS"(3426, u'(?i)(hares|hare)')"
p49
aS"(391, u'(?i)(alli|allis)')"
p50
aS"(4851, u'(?i)(blowflies|blowfly)')"
p51
aS"(6249, u'(?i)(ants|ant)')"
p52
aS"(3527, u'(?i)(permits|permit)')"
p53
aS"(6682, u'(?i)(tera|teras)')"
p54
aS"(1055, u'(?i)(men|man)')"
p55
aS"(7540, u'(?i)(mammalians|mammalian)')"
p56
aS"(3534, u'(?i)(scads|scad)')"
p57
aS"(2723, u'(?i)(calliphoras|calliphora)(-|\\\\s+)?(vicinas|vicina)')"
p58
aS"(1961, u'(?i)(pens|pen)')"
p59
aS"(1414, u'(?i)(chars|char)')"
p60
aS"(4852, u'(?i)(blows|blow)(-|\\\\s+)?(flies|fly)')"
p61
aS"(2568, u'(?i)(hens|hen)')"
p62
atp63
Rp64
sb.