(ifile_types
ParseObject
p0
(dp1
S'methods'
p2
c__builtin__
set
p3
((lp4
S'Method.ANTAGONIST'
p5
aS'Method.AGONIST'
p6
atp7
Rp8
sS'topics'
p9
g3
((lp10
S"(24, u'\\\\banxiolytic')"
p11
aS"(13, u'\\\\bantidepress')"
p12
aS"(5, u'\\\\btherap')"
p13
aS"(8, u'\\\\banxi')"
p14
aS"(1, u'\\\\bpatient')"
p15
aS"(3, u'\\\\bclinical')"
p16
atp17
Rp18
sS'receptors'
p19
g3
((lp20
(S'5ht1b'
p21
I598
I604
tp22
a(S'5ht1b'
p23
I417
I423
tp24
a(S'5ht1b'
p25
I710
I716
tp26
a(S'5ht1b'
p27
I812
I818
tp28
a(S'5ht1b'
p29
I874
I880
tp30
a(S'5ht1b'
p31
I1088
I1094
tp32
atp33
Rp34
sS'raw_text_methods'
p35
g3
((lp36
S"(13, u'\\\\bagonist')"
p37
aS"(12, u'\\\\bantagonist')"
p38
atp39
Rp40
sS'regions'
p41
g3
((lp42
tp43
Rp44
sS'year'
p45
V2011
p46
sS'species'
p47
g3
((lp48
S"(7, u'(?i)\\\\b(guineas|guinea)(-|\\\\s+)?(pigs|pig)\\\\b')"
p49
aS"(3, u'(?i)\\\\b(males|male)\\\\b')"
p50
atp51
Rp52
sb.