(ifile_types
ParseObject
p0
(dp1
S'antagonists'
p2
c__builtin__
set
p3
((lp4
S"(104, u'\\\\bimipramine')"
p5
atp6
Rp7
sS'methods'
p8
g3
((lp9
tp10
Rp11
sS'topics'
p12
g3
((lp13
tp14
Rp15
sS'receptors'
p16
g3
((lp17
S'5ht2a'
p18
atp19
Rp20
sS'regions'
p21
g3
((lp22
tp23
Rp24
sS'year'
p25
V2005
p26
sS'agonists'
p27
g3
((lp28
tp29
Rp30
sS'species'
p31
g3
((lp32
S"(5949, u'(?i)\\\\b(dogs|dog)\\\\b')"
p33
aS"(5783, u'(?i)\\\\b(hinds|hind)\\\\b')"
p34
aS"(5958, u'(?i)\\\\b(rats|rat)\\\\b')"
p35
atp36
Rp37
sb.