(ifile_types
ParseObject
p0
(dp1
S'methods'
p2
c__builtin__
set
p3
((lp4
S'Method.ANTAGONIST'
p5
aS'Method.AGONIST'
p6
atp7
Rp8
sS'topics'
p9
g3
((lp10
S"(24, u'\\\\banxiolytic')"
p11
aS"(26, u'\\\\bbehav')"
p12
aS"(13, u'\\\\bantidepress')"
p13
aS"(33, u'\\\\blocomot')"
p14
aS"(18, u'\\\\bavoidan')"
p15
aS"(8, u'\\\\banxi')"
p16
atp17
Rp18
sS'receptors'
p19
g3
((lp20
(S'5ht2c'
p21
I1754
I1762
tp22
a(S'5ht2b'
p23
I1869
I1875
tp24
a(S'5ht1a'
p25
I1531
I1537
tp26
a(S'5ht2c'
p27
I1869
I1877
tp28
a(S'5ht1a'
p29
I1694
I1700
tp30
a(S'5ht2b'
p31
I1754
I1760
tp32
atp33
Rp34
sS'raw_text_methods'
p35
g3
((lp36
S"(33, u'\\\\bmcpp')"
p37
aS"(22, u'\\\\bbuspirone')"
p38
aS"(16, u'\\\\bdiazepam')"
p39
aS"(15, u'\\\\b8ohdpat')"
p40
aS"(36, u'\\\\bbenzodiazepine')"
p41
aS"(13, u'\\\\bagonist')"
p42
aS"(12, u'\\\\bantagonist')"
p43
atp44
Rp45
sS'regions'
p46
g3
((lp47
tp48
Rp49
sS'year'
p50
V2004
p51
sS'species'
p52
g3
((lp53
S"(1, u'(?i)\\\\b(mice|mouse)\\\\b')"
p54
aS"(5, u'(?i)\\\\b(mices|mice)\\\\b')"
p55
aS"(4, u'(?i)\\\\b(rats|rat)\\\\b')"
p56
atp57
Rp58
sb.