(ifile_types
ParseObject
p0
(dp1
S'methods'
p2
c__builtin__
set
p3
((lp4
S'Method.AGONIST'
p5
atp6
Rp7
sS'topics'
p8
g3
((lp9
tp10
Rp11
sS'receptors'
p12
g3
((lp13
(S'5ht2'
p14
I398
I408
tp15
a(S'5ht3'
p16
I1327
I1332
tp17
a(S'5ht1a'
p18
I1299
I1305
tp19
a(S'5ht1a'
p20
I581
I587
tp21
a(S'5ht3'
p22
I420
I425
tp23
a(S'5ht2c'
p24
I502
I510
tp25
a(S'5ht2c'
p26
I1314
I1322
tp27
a(S'5ht2a'
p28
I1314
I1320
tp29
a(S'5ht2a'
p30
I502
I508
tp31
atp32
Rp33
sS'raw_text_methods'
p34
g3
((lp35
S"(13, u'\\\\bagonist')"
p36
aS"(15, u'\\\\b8ohdpat')"
p37
aS"(30, u'\\\\b2methyl')"
p38
aS"(49, u'\\\\bdoi')"
p39
atp40
Rp41
sS'regions'
p42
g3
((lp43
S"(20, u'(?i)\\\\b(prefrontals|prefrontal)\\\\b')"
p44
aS"(21, u'(?i)\\\\b(mpfcs|mpfc)\\\\b')"
p45
aS"(19, u'(?i)\\\\b(cortexes|cortex)\\\\b')"
p46
atp47
Rp48
sS'year'
p49
V1994
p50
sS'species'
p51
g3
((lp52
S"(4, u'(?i)\\\\b(rats|rat)\\\\b')"
p53
atp54
Rp55
sb.