(ifile_types
ParseObject
p0
(dp1
S'antagonists'
p2
c__builtin__
set
p3
((lp4
tp5
Rp6
sS'methods'
p7
g3
((lp8
S'Method.AGONIST'
p9
aS'Method.IMMUNOHISTOCHEMISTRY'
p10
atp11
Rp12
sS'topics'
p13
g3
((lp14
tp15
Rp16
sS'receptors'
p17
g3
((lp18
S'5ht1a'
p19
aS'5ht2'
p20
aS'5ht2a'
p21
atp22
Rp23
sS'regions'
p24
g3
((lp25
S"(362, u'(?i)\\\\b(brains|brain)(-|\\\\s+)?(stems|stem)\\\\b')"
p26
atp27
Rp28
sS'year'
p29
V1990
p30
sS'agonists'
p31
g3
((lp32
S"(85, u'\\\\b8 ?oh ?dpat')"
p33
atp34
Rp35
sS'species'
p36
g3
((lp37
S"(1057, u'(?i)\\\\b(humans|human)\\\\b')"
p38
aS"(2054, u'(?i)\\\\b(heads|head)\\\\b')"
p39
aS"(5958, u'(?i)\\\\b(rats|rat)\\\\b')"
p40
aS"(3196, u'(?i)\\\\b(human|humans)\\\\b')"
p41
atp42
Rp43
sb.