(ifile_types
ParseObject
p0
(dp1
S'antagonists'
p2
c__builtin__
set
p3
((lp4
S"(135, u'\\\\bondansetron')"
p5
aS"(102, u'\\\\bfluoxetine')"
p6
atp7
Rp8
sS'methods'
p9
g3
((lp10
S'Method.STAINING'
p11
aS'Method.IMMUNOHISTOCHEMISTRY'
p12
aS'Method.ANTAGONIST'
p13
atp14
Rp15
sS'topics'
p16
g3
((lp17
S"(9, u'\\\\bdepress')"
p18
atp19
Rp20
sS'receptors'
p21
g3
((lp22
S'5ht3a'
p23
aS'5ht3'
p24
atp25
Rp26
sS'regions'
p27
g3
((lp28
S"(254, u'(?i)(prefrontals|prefrontal)(-|\\\\s+)?(cortexes|cortex)')"
p29
aS"(255, u'(?i)(pres|pre)(-|\\\\s+)?(frontals|frontal)(-|\\\\s+)?(cortexes|cortex)')"
p30
atp31
Rp32
sS'year'
p33
V2007
p34
sS'agonists'
p35
g3
((lp36
tp37
Rp38
sS'species'
p39
g3
((lp40
S"(2323, u'(?i)(bees|bee)')"
p41
aS"(5958, u'(?i)(rats|rat)')"
p42
aS"(6753, u'(?i)(da|das)')"
p43
aS"(479, u'(?i)(lings|ling)')"
p44
aS"(4091, u'(?i)(adults|adult)')"
p45
aS"(468, u'(?i)(oxen|ox)')"
p46
aS"(1055, u'(?i)(men|man)')"
p47
aS"(4979, u'(?i)(cats|cat)')"
p48
aS"(6249, u'(?i)(ants|ant)')"
p49
aS"(6682, u'(?i)(tera|teras)')"
p50
aS"(5229, u'(?i)(moles|mole)')"
p51
aS"(1961, u'(?i)(pens|pen)')"
p52
aS"(3812, u'(?i)(studs|stud)')"
p53
aS"(6356, u'(?i)(ais|ai)')"
p54
atp55
Rp56
sb.