(ifile_types
ParseObject
p0
(dp1
S'antagonists'
p2
c__builtin__
set
p3
((lp4
tp5
Rp6
sS'methods'
p7
g3
((lp8
S'Method.AGONIST'
p9
atp10
Rp11
sS'topics'
p12
g3
((lp13
tp14
Rp15
sS'receptors'
p16
g3
((lp17
S'5ht2c'
p18
aS'5ht2a'
p19
atp20
Rp21
sS'regions'
p22
g3
((lp23
S"(254, u'(?i)(prefrontals|prefrontal)(-|\\\\s+)?(cortexes|cortex)')"
p24
aS"(255, u'(?i)(pres|pre)(-|\\\\s+)?(frontals|frontal)(-|\\\\s+)?(cortexes|cortex)')"
p25
aS"(34, u'(?i)(pon|pons)')"
p26
atp27
Rp28
sS'year'
p29
V2001
p30
sS'agonists'
p31
g3
((lp32
tp33
Rp34
sS'species'
p35
g3
((lp36
S"(4624, u'(?i)(apes|ape)')"
p37
aS"(5958, u'(?i)(rats|rat)')"
p38
aS"(6356, u'(?i)(ais|ai)')"
p39
aS"(6753, u'(?i)(da|das)')"
p40
aS"(468, u'(?i)(oxen|ox)')"
p41
aS"(1055, u'(?i)(men|man)')"
p42
aS"(3726, u'(?i)(mates|mate)')"
p43
aS"(3152, u'(?i)(layers|layer)')"
p44
aS"(4979, u'(?i)(cats|cat)')"
p45
aS"(6249, u'(?i)(ants|ant)')"
p46
aS"(7604, u'(?i)(cyclop|cyclops)')"
p47
aS"(7094, u'(?i)(curs|cur)')"
p48
aS"(1961, u'(?i)(pens|pen)')"
p49
aS"(3812, u'(?i)(studs|stud)')"
p50
aS"(1349, u'(?i)(rams|ram)')"
p51
aS"(821, u'(?i)(lice|louse)')"
p52
atp53
Rp54
sb.