(ifile_types
ParseObject
p0
(dp1
S'antagonists'
p2
c__builtin__
set
p3
((lp4
S"(67, u'\\\\bhaloperidol')"
p5
aS"(102, u'\\\\bfluoxetine')"
p6
atp7
Rp8
sS'methods'
p9
g3
((lp10
S'Method.ANTAGONIST'
p11
aS'Method.AGONIST'
p12
atp13
Rp14
sS'topics'
p15
g3
((lp16
tp17
Rp18
sS'receptors'
p19
g3
((lp20
S'5ht6'
p21
aS'5ht1a'
p22
aS'5ht3a'
p23
aS'5ht2c'
p24
aS'5ht2a'
p25
aS'5ht5'
p26
atp27
Rp28
sS'regions'
p29
g3
((lp30
S"(220, u'(?i)(striatums|striatum)')"
p31
aS"(318, u'(?i)(raphes|raphe)(-|\\\\s+)?(nuclei|nucleus)')"
p32
aS"(248, u'(?i)(cerebrals|cerebral)(-|\\\\s+)?(cortexes|cortex)')"
p33
atp34
Rp35
sS'year'
p36
V2013
p37
sS'agonists'
p38
g3
((lp39
S"(92, u'\\\\b8 ?oh ?dpat')"
p40
aS"(48, u'\\\\bhaloperidol')"
p41
atp42
Rp43
sS'species'
p44
g3
((lp45
S"(6753, u'(?i)(da|das)')"
p46
aS"(5958, u'(?i)(rats|rat)')"
p47
aS"(163, u'(?i)(mice|mouse)')"
p48
aS"(4163, u'(?i)(ermines|ermine)')"
p49
aS"(4201, u'(?i)(kines|kine)')"
p50
aS"(468, u'(?i)(oxen|ox)')"
p51
aS"(1349, u'(?i)(rams|ram)')"
p52
aS"(6249, u'(?i)(ants|ant)')"
p53
aS"(1055, u'(?i)(men|man)')"
p54
aS"(4979, u'(?i)(cats|cat)')"
p55
aS"(3550, u'(?i)(anis|ani)')"
p56
aS"(3522, u'(?i)(tetras|tetra)')"
p57
aS"(1961, u'(?i)(pens|pen)')"
p58
aS"(3812, u'(?i)(studs|stud)')"
p59
aS"(2809, u'(?i)(toms|tom)')"
p60
aS"(6356, u'(?i)(ais|ai)')"
p61
aS"(6682, u'(?i)(tera|teras)')"
p62
atp63
Rp64
sb.