(ifile_types
ParseObject
p0
(dp1
S'methods'
p2
c__builtin__
set
p3
((lp4
tp5
Rp6
sS'topics'
p7
g3
((lp8
S"(30, u'\\\\bpain')"
p9
atp10
Rp11
sS'receptors'
p12
g3
((lp13
(S'5ht1f'
p14
I289
I295
tp15
a(S'5ht1f'
p16
I1009
I1015
tp17
a(S'5ht1b'
p18
I91
I97
tp19
a(S'5ht1d'
p20
I1297
I1303
tp21
a(S'5ht1b'
p22
I573
I579
tp23
a(S'5ht1d'
p24
I99
I105
tp25
a(S'5ht1d'
p26
I584
I590
tp27
a(S'5ht1b'
p28
I270
I276
tp29
a(S'5ht1b'
p30
I1548
I1554
tp31
a(S'5ht1f'
p32
I110
I116
tp33
a(S'5ht1d'
p34
I1716
I1722
tp35
a(S'5ht1f'
p36
I515
I521
tp37
a(S'5ht1b'
p38
I1705
I1711
tp39
a(S'5ht1d'
p40
I278
I284
tp41
atp42
Rp43
sS'raw_text_methods'
p44
g3
((lp45
S"(53, u'\\\\bketanserin')"
p46
aS"(34, u'\\\\b5ct')"
p47
atp48
Rp49
sS'regions'
p50
g3
((lp51
S"(15, u'(?i)\\\\b(substantias|substantia)(-|\\\\s+)?(nigras|nigra)\\\\b')"
p52
aS"(19, u'(?i)\\\\b(cortexes|cortex)\\\\b')"
p53
atp54
Rp55
sS'year'
p56
V1997
p57
sS'species'
p58
g3
((lp59
tp60
Rp61
sb.