(ifile_types
ParseObject
p0
(dp1
S'methods'
p2
c__builtin__
set
p3
((lp4
S'Method.AGONIST'
p5
atp6
Rp7
sS'topics'
p8
g3
((lp9
tp10
Rp11
sS'receptors'
p12
g3
((lp13
(S'5ht1a'
p14
I1250
I1256
tp15
a(S'5ht1'
p16
I744
I749
tp17
a(S'5ht1a'
p18
I1930
I1936
tp19
a(S'5ht1a'
p20
I948
I954
tp21
a(S'5ht1a'
p22
I1170
I1176
tp23
a(S'5ht1a'
p24
I34
I40
tp25
a(S'5ht1a'
p26
I1709
I1715
tp27
atp28
Rp29
sS'raw_text_methods'
p30
g3
((lp31
S"(13, u'\\\\bagonist')"
p32
atp33
Rp34
sS'regions'
p35
g3
((lp36
S"(14, u'(?i)\\\\b(caudals|caudal)\\\\b')"
p37
atp38
Rp39
sS'year'
p40
V2015
p41
sS'species'
p42
g3
((lp43
S"(4, u'(?i)\\\\b(rats|rat)\\\\b')"
p44
atp45
Rp46
sb.