(ifile_types
ParseObject
p0
(dp1
S'antagonists'
p2
c__builtin__
set
p3
((lp4
tp5
Rp6
sS'methods'
p7
g3
((lp8
S'Method.AGONIST'
p9
atp10
Rp11
sS'topics'
p12
g3
((lp13
tp14
Rp15
sS'receptors'
p16
g3
((lp17
S'5ht1b'
p18
atp19
Rp20
sS'regions'
p21
g3
((lp22
S"(220, u'(?i)(striatums|striatum)')"
p23
aS"(34, u'(?i)(pon|pons)')"
p24
atp25
Rp26
sS'year'
p27
V1994
p28
sS'agonists'
p29
g3
((lp30
S"(106, u'\\\\bcgs ?12066a')"
p31
aS"(214, u'\\\\bsulpiride')"
p32
aS"(194, u'\\\\bibogaine')"
p33
atp34
Rp35
sS'species'
p36
g3
((lp37
S"(6249, u'(?i)(ants|ant)')"
p38
aS"(5958, u'(?i)(rats|rat)')"
p39
aS"(163, u'(?i)(mice|mouse)')"
p40
aS"(6682, u'(?i)(tera|teras)')"
p41
aS"(1055, u'(?i)(men|man)')"
p42
aS"(2568, u'(?i)(hens|hen)')"
p43
aS"(6753, u'(?i)(da|das)')"
p44
aS"(3550, u'(?i)(anis|ani)')"
p45
aS"(6356, u'(?i)(ais|ai)')"
p46
atp47
Rp48
sb.