(ifile_types
ParseObject
p0
(dp1
S'antagonists'
p2
c__builtin__
set
p3
((lp4
S"(53, u'\\\\bketanserin')"
p5
aS"(108, u'\\\\brs ?102221')"
p6
aS"(128, u'\\\\bketanserin')"
p7
atp8
Rp9
sS'methods'
p10
g3
((lp11
S'Method.ANTAGONIST'
p12
atp13
Rp14
sS'topics'
p15
g3
((lp16
S"(16, u'\\\\bfeed')"
p17
atp18
Rp19
sS'receptors'
p20
g3
((lp21
S'5ht3'
p22
aS'5ht2c'
p23
aS'5ht2'
p24
atp25
Rp26
sS'regions'
p27
g3
((lp28
S"(219, u'(?i)(basals|basal)(-|\\\\s+)?(ganglias|ganglia)')"
p29
aS"(318, u'(?i)(raphes|raphe)(-|\\\\s+)?(nuclei|nucleus)')"
p30
aS"(220, u'(?i)(striatums|striatum)')"
p31
aS"(34, u'(?i)(pon|pons)')"
p32
atp33
Rp34
sS'year'
p35
V2009
p36
sS'agonists'
p37
g3
((lp38
tp39
Rp40
sS'species'
p41
g3
((lp42
S"(5958, u'(?i)(rats|rat)')"
p43
aS"(6356, u'(?i)(ais|ai)')"
p44
aS"(7610, u'(?i)(ernes|erne)')"
p45
aS"(4979, u'(?i)(cats|cat)')"
p46
aS"(7552, u'(?i)(bats|bat)')"
p47
aS"(1725, u'(?i)(clams|clam)')"
p48
aS"(468, u'(?i)(oxen|ox)')"
p49
aS"(1055, u'(?i)(men|man)')"
p50
aS"(6249, u'(?i)(ants|ant)')"
p51
aS"(1349, u'(?i)(rams|ram)')"
p52
aS"(4964, u'(?i)(serins|serin)')"
p53
aS"(7094, u'(?i)(curs|cur)')"
p54
aS"(3550, u'(?i)(anis|ani)')"
p55
aS"(821, u'(?i)(lice|louse)')"
p56
aS"(3812, u'(?i)(studs|stud)')"
p57
aS"(7609, u'(?i)(erns|ern)')"
p58
aS"(1683, u'(?i)(terns|tern)')"
p59
aS"(4133, u'(?i)(pikes|pike)')"
p60
atp61
Rp62
sb.