(ifile_types
ParseObject
p0
(dp1
S'antagonists'
p2
c__builtin__
set
p3
((lp4
tp5
Rp6
sS'methods'
p7
g3
((lp8
S'Method.KNOCKOUT'
p9
aS'Method.ANTAGONIST'
p10
aS'Method.AGONIST'
p11
atp12
Rp13
sS'topics'
p14
g3
((lp15
S"(35, u'\\\\bstress')"
p16
atp17
Rp18
sS'receptors'
p19
g3
((lp20
S'5ht7'
p21
aS'5ht5'
p22
atp23
Rp24
sS'regions'
p25
g3
((lp26
S"(34, u'(?i)(pon|pons)')"
p27
atp28
Rp29
sS'year'
p30
V2012
p31
sS'agonists'
p32
g3
((lp33
S"(155, u'\\\\bmem')"
p34
atp35
Rp36
sS'species'
p37
g3
((lp38
S"(2323, u'(?i)(bees|bee)')"
p39
aS"(4624, u'(?i)(apes|ape)')"
p40
aS"(5176, u'(?i)(tegs|teg)')"
p41
aS"(5958, u'(?i)(rats|rat)')"
p42
aS"(6356, u'(?i)(ais|ai)')"
p43
aS"(163, u'(?i)(mice|mouse)')"
p44
aS"(6753, u'(?i)(da|das)')"
p45
aS"(1055, u'(?i)(men|man)')"
p46
aS"(6249, u'(?i)(ants|ant)')"
p47
aS"(853, u'(?i)(minas|mina)')"
p48
aS"(3550, u'(?i)(anis|ani)')"
p49
aS"(1488, u'(?i)(yaks|yak)')"
p50
aS"(5229, u'(?i)(moles|mole)')"
p51
aS"(3812, u'(?i)(studs|stud)')"
p52
aS"(6391, u'(?i)(asses|ass)')"
p53
aS"(1628, u'(?i)(cod|cod)')"
p54
aS"(4979, u'(?i)(cats|cat)')"
p55
atp56
Rp57
sb.