(ifile_types
ParseObject
p0
(dp1
S'antagonists'
p2
c__builtin__
set
p3
((lp4
S"(44, u'\\\\bly ?310762')"
p5
aS"(46, u'\\\\bly ?456219')"
p6
aS"(38, u'\\\\bsb ?224289')"
p7
aS"(45, u'\\\\bly ?367642')"
p8
aS"(91, u'\\\\bfluoxetine')"
p9
aS"(47, u'\\\\bly ?456220')"
p10
atp11
Rp12
sS'methods'
p13
g3
((lp14
S'Method.ANTAGONIST'
p15
aS'Method.AGONIST'
p16
atp17
Rp18
sS'topics'
p19
g3
((lp20
tp21
Rp22
sS'receptors'
p23
g3
((lp24
S'5ht1b'
p25
aS'5ht1d'
p26
atp27
Rp28
sS'regions'
p29
g3
((lp30
S"(248, u'(?i)\\\\b(cerebrals|cerebral)(-|\\\\s+)?(cortexes|cortex)\\\\b')"
p31
atp32
Rp33
sS'year'
p34
V2004
p35
sS'agonists'
p36
g3
((lp37
S"(116, u'\\\\bl ?772405')"
p38
atp39
Rp40
sS'species'
p41
g3
((lp42
S"(3051, u'(?i)\\\\b(pigs|pig)\\\\b')"
p43
aS"(4480, u'(?i)\\\\b(guineas|guinea)(-|\\\\s+)?(pigs|pig)\\\\b')"
p44
aS"(3062, u'(?i)\\\\b(guineas|guinea)\\\\b')"
p45
atp46
Rp47
sb.