(ifile_types
ParseObject
p0
(dp1
S'antagonists'
p2
c__builtin__
set
p3
((lp4
S"(53, u'\\\\bketanserin')"
p5
aS"(128, u'\\\\bketanserin')"
p6
aS"(27, u'\\\\bspiperone')"
p7
atp8
Rp9
sS'methods'
p10
g3
((lp11
S'Method.ANTAGONIST'
p12
aS'Method.AGONIST'
p13
atp14
Rp15
sS'topics'
p16
g3
((lp17
tp18
Rp19
sS'receptors'
p20
g3
((lp21
S'5ht1c'
p22
aS'5ht5'
p23
aS'5ht3f'
p24
aS'5ht3'
p25
aS'5ht2'
p26
aS'5ht1a'
p27
atp28
Rp29
sS'regions'
p30
g3
((lp31
S"(34, u'(?i)(pon|pons)')"
p32
atp33
Rp34
sS'year'
p35
V1993
p36
sS'agonists'
p37
g3
((lp38
S"(196, u'\\\\bquipazine')"
p39
aS"(155, u'\\\\bmem')"
p40
aS"(33, u'\\\\bdoi')"
p41
atp42
Rp43
sS'species'
p44
g3
((lp45
S"(2568, u'(?i)(hens|hen)')"
p46
aS"(6356, u'(?i)(ais|ai)')"
p47
aS"(7609, u'(?i)(erns|ern)')"
p48
aS"(867, u'(?i)(tits|tit)')"
p49
aS"(4964, u'(?i)(serins|serin)')"
p50
aS"(4163, u'(?i)(ermines|ermine)')"
p51
aS"(468, u'(?i)(oxen|ox)')"
p52
aS"(1055, u'(?i)(men|man)')"
p53
aS"(6249, u'(?i)(ants|ant)')"
p54
aS"(3404, u'(?i)(titis|titi)')"
p55
aS"(3812, u'(?i)(studs|stud)')"
p56
aS"(5958, u'(?i)(rats|rat)')"
p57
aS"(1057, u'(?i)(humans|human)')"
p58
aS"(1961, u'(?i)(pens|pen)')"
p59
aS"(1414, u'(?i)(chars|char)')"
p60
aS"(3196, u'(?i)(human|humans)')"
p61
aS"(4979, u'(?i)(cats|cat)')"
p62
atp63
Rp64
sb.