(ifile_types
ParseObject
p0
(dp1
S'methods'
p2
c__builtin__
set
p3
((lp4
S'Method.STIMULATION'
p5
aS'Method.AGONIST'
p6
atp7
Rp8
sS'topics'
p9
g3
((lp10
tp11
Rp12
sS'receptors'
p13
g3
((lp14
(S'5ht1a'
p15
I871
I877
tp16
a(S'5ht1a'
p17
I1038
I1044
tp18
atp19
Rp20
sS'raw_text_methods'
p21
g3
((lp22
S"(13, u'\\\\bagonist')"
p23
aS"(32, u'\\\\blesions')"
p24
atp25
Rp26
sS'regions'
p27
g3
((lp28
S"(12, u'(?i)\\\\b(amygdalas|amygdala)\\\\b')"
p29
aS"(3, u'(?i)\\\\b(postsynaptics|postsynaptic)\\\\b')"
p30
atp31
Rp32
sS'year'
p33
V2002
p34
sS'species'
p35
g3
((lp36
S"(4, u'(?i)\\\\b(rats|rat)\\\\b')"
p37
atp38
Rp39
sb.