(ifile_types
ParseObject
p0
(dp1
S'methods'
p2
c__builtin__
set
p3
((lp4
S'Method.KNOCKOUT'
p5
atp6
Rp7
sS'topics'
p8
g3
((lp9
S"(6, u'\\\\baggressi')"
p10
aS"(26, u'\\\\bbehav')"
p11
aS"(33, u'\\\\blocomot')"
p12
atp13
Rp14
sS'receptors'
p15
g3
((lp16
(S'5ht2a'
p17
I724
I730
tp18
a(S'5ht2a'
p19
I912
I918
tp20
atp21
Rp22
sS'raw_text_methods'
p23
g3
((lp24
tp25
Rp26
sS'regions'
p27
g3
((lp28
S"(19, u'(?i)\\\\b(cortexes|cortex)\\\\b')"
p29
atp30
Rp31
sS'year'
p32
V2000
p33
sS'species'
p34
g3
((lp35
S"(1, u'(?i)\\\\b(mice|mouse)\\\\b')"
p36
aS"(5, u'(?i)\\\\b(mices|mice)\\\\b')"
p37
atp38
Rp39
sb.