(ifile_types
ParseObject
p0
(dp1
S'methods'
p2
c__builtin__
set
p3
((lp4
S'Method.AGONIST'
p5
atp6
Rp7
sS'topics'
p8
g3
((lp9
S"(5, u'\\\\btherap')"
p10
aS"(23, u'\\\\bantipsychotic')"
p11
atp12
Rp13
sS'receptors'
p14
g3
((lp15
(S'5ht2a'
p16
I1652
I1663
tp17
a(S'5ht2a'
p18
I70
I81
tp19
a(S'5ht2'
p20
I1575
I1585
tp21
a(S'5ht2a'
p22
I502
I513
tp23
a(S'5ht2a'
p24
I1257
I1268
tp25
a(S'5ht2'
p26
I997
I1007
tp27
a(S'5ht2c'
p28
I1257
I1270
tp29
a(S'5ht2'
p30
I755
I765
tp31
a(S'5ht2a'
p32
I391
I402
tp33
atp34
Rp35
sS'raw_text_methods'
p36
g3
((lp37
S"(13, u'\\\\bagonist')"
p38
aS"(35, u'\\\\badenosine')"
p39
aS"(44, u'\\\\btetrodotoxin')"
p40
atp41
Rp42
sS'regions'
p43
g3
((lp44
S"(20, u'(?i)\\\\b(prefrontals|prefrontal)\\\\b')"
p45
aS"(19, u'(?i)\\\\b(cortexes|cortex)\\\\b')"
p46
aS"(3, u'(?i)\\\\b(postsynaptics|postsynaptic)\\\\b')"
p47
atp48
Rp49
sS'year'
p50
V2001
p51
sS'species'
p52
g3
((lp53
S"(4, u'(?i)\\\\b(rats|rat)\\\\b')"
p54
atp55
Rp56
sb.