(ifile_types
ParseObject
p0
(dp1
S'methods'
p2
c__builtin__
set
p3
((lp4
tp5
Rp6
sS'topics'
p7
g3
((lp8
tp9
Rp10
sS'receptors'
p11
g3
((lp12
(S'5ht3'
p13
I825
I830
tp14
a(S'5ht3'
p15
I1682
I1687
tp16
a(S'5ht1'
p17
I1727
I1732
tp18
a(S'5ht3'
p19
I623
I628
tp20
a(S'5ht3'
p21
I61
I66
tp22
a(S'5ht3'
p23
I220
I225
tp24
a(S'5ht3'
p25
I1150
I1155
tp26
a(S'5ht3'
p27
I1446
I1451
tp28
a(S'5ht3'
p29
I1989
I1994
tp30
atp31
Rp32
sS'raw_text_methods'
p33
g3
((lp34
tp35
Rp36
sS'regions'
p37
g3
((lp38
tp39
Rp40
sS'year'
p41
V1996
p42
sS'species'
p43
g3
((lp44
tp45
Rp46
sb.