(ifile_types
ParseObject
p0
(dp1
S'methods'
p2
c__builtin__
set
p3
((lp4
S'Method.ANTAGONIST'
p5
atp6
Rp7
sS'topics'
p8
g3
((lp9
S"(12, u'\\\\bsleep')"
p10
atp11
Rp12
sS'receptors'
p13
g3
((lp14
(S'5ht3'
p15
I1450
I1455
tp16
atp17
Rp18
sS'raw_text_methods'
p19
g3
((lp20
S"(12, u'\\\\bantagonist')"
p21
atp22
Rp23
sS'regions'
p24
g3
((lp25
S"(10, u'(?i)\\\\b(peripherals|peripheral)(-|\\\\s+)?(nervouses|nervous)(-|\\\\s+)?(systems|system)\\\\b')"
p26
atp27
Rp28
sS'year'
p29
V1999
p30
sS'species'
p31
g3
((lp32
S"(4, u'(?i)\\\\b(rats|rat)\\\\b')"
p33
atp34
Rp35
sb.