(ifile_types
ParseObject
p0
(dp1
S'methods'
p2
c__builtin__
set
p3
((lp4
S'Method.ANTAGONIST'
p5
atp6
Rp7
sS'topics'
p8
g3
((lp9
S"(26, u'\\\\bbehav')"
p10
atp11
Rp12
sS'receptors'
p13
g3
((lp14
(S'5ht2a'
p15
I406
I412
tp16
a(S'5ht1a'
p17
I318
I324
tp18
atp19
Rp20
sS'raw_text_methods'
p21
g3
((lp22
S"(12, u'\\\\bantagonist')"
p23
atp24
Rp25
sS'regions'
p26
g3
((lp27
S"(20, u'(?i)\\\\b(prefrontals|prefrontal)\\\\b')"
p28
aS"(19, u'(?i)\\\\b(cortexes|cortex)\\\\b')"
p29
atp30
Rp31
sS'year'
p32
V2014
p33
sS'species'
p34
g3
((lp35
S"(1, u'(?i)\\\\b(mice|mouse)\\\\b')"
p36
atp37
Rp38
sb.