(ifile_types
ParseObject
p0
(dp1
S'antagonists'
p2
c__builtin__
set
p3
((lp4
tp5
Rp6
sS'methods'
p7
g3
((lp8
S'Method.AGONIST'
p9
atp10
Rp11
sS'topics'
p12
g3
((lp13
S"(20, u'\\\\baggressi')"
p14
aS"(3, u'\\\\bsleep')"
p15
aS"(4, u'\\\\blocomot')"
p16
atp17
Rp18
sS'receptors'
p19
g3
((lp20
S'5ht7'
p21
aS'5ht7a'
p22
aS'5ht1a'
p23
atp24
Rp25
sS'regions'
p26
g3
((lp27
tp28
Rp29
sS'year'
p30
V2014
p31
sS'agonists'
p32
g3
((lp33
S"(149, u'\\\\bmem')"
p34
atp35
Rp36
sS'species'
p37
g3
((lp38
S"(7540, u'(?i)\\\\b(mammalians|mammalian)\\\\b')"
p39
aS"(3671, u'(?i)\\\\b(drosophilas|drosophila)\\\\b')"
p40
aS"(7539, u'(?i)\\\\b(mammals|mammal)\\\\b')"
p41
aS"(3196, u'(?i)\\\\b(human|humans)\\\\b')"
p42
aS"(1057, u'(?i)\\\\b(humans|human)\\\\b')"
p43
aS"(4091, u'(?i)\\\\b(adults|adult)\\\\b')"
p44
aS"(5967, u'(?i)\\\\b(males|male)\\\\b')"
p45
atp46
Rp47
sb.