(ifile_types
ParseObject
p0
(dp1
S'antagonists'
p2
c__builtin__
set
p3
((lp4
S"(23, u'\\\\brisperidone')"
p5
aS"(59, u'\\\\brisperidone')"
p6
aS"(36, u'\\\\baripiprazole')"
p7
atp8
Rp9
sS'methods'
p10
g3
((lp11
S'Method.AGONIST'
p12
atp13
Rp14
sS'topics'
p15
g3
((lp16
S"(15, u'\\\\bschizophreni')"
p17
atp18
Rp19
sS'receptors'
p20
g3
((lp21
S'5ht1a'
p22
atp23
Rp24
sS'regions'
p25
g3
((lp26
tp27
Rp28
sS'year'
p29
V2011
p30
sS'agonists'
p31
g3
((lp32
S"(16, u'\\\\baripiprazole')"
p33
atp34
Rp35
sS'species'
p36
g3
((lp37
S"(5958, u'(?i)(rats|rat)')"
p38
aS"(1055, u'(?i)(men|man)')"
p39
aS"(7094, u'(?i)(curs|cur)')"
p40
aS"(6249, u'(?i)(ants|ant)')"
p41
aS"(6356, u'(?i)(ais|ai)')"
p42
aS"(6391, u'(?i)(asses|ass)')"
p43
atp44
Rp45
sb.