(ifile_types
ParseObject
p0
(dp1
S'antagonists'
p2
c__builtin__
set
p3
((lp4
S"(32, u'\\\\bway ?100635')"
p5
aS"(123, u'\\\\bclozapine')"
p6
aS"(56, u'\\\\bclozapine')"
p7
aS"(67, u'\\\\bhaloperidol')"
p8
aS"(41, u'\\\\bziprasidone')"
p9
aS"(124, u'\\\\bolanzapine')"
p10
aS"(61, u'\\\\bmdl ?100907')"
p11
aS"(57, u'\\\\bolanzapine')"
p12
atp13
Rp14
sS'methods'
p15
g3
((lp16
S'Method.ANTAGONIST'
p17
aS'Method.AGONIST'
p18
atp19
Rp20
sS'topics'
p21
g3
((lp22
tp23
Rp24
sS'receptors'
p25
g3
((lp26
S'5ht1a'
p27
aS'5ht5'
p28
aS'5ht2a'
p29
atp30
Rp31
sS'regions'
p32
g3
((lp33
S"(220, u'(?i)(striatums|striatum)')"
p34
aS"(254, u'(?i)(prefrontals|prefrontal)(-|\\\\s+)?(cortexes|cortex)')"
p35
aS"(255, u'(?i)(pres|pre)(-|\\\\s+)?(frontals|frontal)(-|\\\\s+)?(cortexes|cortex)')"
p36
aS"(34, u'(?i)(pon|pons)')"
p37
atp38
Rp39
sS'year'
p40
V2000
p41
sS'agonists'
p42
g3
((lp43
S"(91, u'\\\\bziprasidone')"
p44
aS"(92, u'\\\\b8 ?oh ?dpat')"
p45
aS"(64, u'\\\\bolanzapine')"
p46
aS"(48, u'\\\\bhaloperidol')"
p47
aS"(27, u'\\\\bclozapine')"
p48
atp49
Rp50
sS'species'
p51
g3
((lp52
S"(5958, u'(?i)(rats|rat)')"
p53
aS"(6753, u'(?i)(da|das)')"
p54
aS"(468, u'(?i)(oxen|ox)')"
p55
aS"(1055, u'(?i)(men|man)')"
p56
aS"(3726, u'(?i)(mates|mate)')"
p57
aS"(1349, u'(?i)(rams|ram)')"
p58
aS"(6356, u'(?i)(ais|ai)')"
p59
aS"(6249, u'(?i)(ants|ant)')"
p60
aS"(3812, u'(?i)(studs|stud)')"
p61
aS"(6391, u'(?i)(asses|ass)')"
p62
aS"(2809, u'(?i)(toms|tom)')"
p63
atp64
Rp65
sb.