(ifile_types
ParseObject
p0
(dp1
S'antagonists'
p2
c__builtin__
set
p3
((lp4
S"(38, u'\\\\bsb ?224289')"
p5
aS"(11, u'\\\\bisamoltane')"
p6
atp7
Rp8
sS'methods'
p9
g3
((lp10
S'Method.ANTAGONIST'
p11
atp12
Rp13
sS'topics'
p14
g3
((lp15
S"(9, u'\\\\bdepress')"
p16
aS"(16, u'\\\\bfeed')"
p17
atp18
Rp19
sS'receptors'
p20
g3
((lp21
S'5ht1b'
p22
aS'5ht5'
p23
atp24
Rp25
sS'regions'
p26
g3
((lp27
S"(105, u'(?i)\\\\b(par|pars)(-|\\\\s+)?(reticulatas|reticulata)\\\\b')"
p28
aS"(103, u'(?i)\\\\b(substantias|substantia)(-|\\\\s+)?(nigras|nigra)\\\\b')"
p29
aS"(219, u'(?i)\\\\b(basals|basal)(-|\\\\s+)?(ganglias|ganglia)\\\\b')"
p30
atp31
Rp32
sS'year'
p33
V2010
p34
sS'agonists'
p35
g3
((lp36
tp37
Rp38
sS'species'
p39
g3
((lp40
S"(7540, u'(?i)\\\\b(mammalians|mammalian)\\\\b')"
p41
aS"(5958, u'(?i)\\\\b(rats|rat)\\\\b')"
p42
atp43
Rp44
sb.