(ifile_types
ParseObject
p0
(dp1
S'antagonists'
p2
c__builtin__
set
p3
((lp4
tp5
Rp6
sS'methods'
p7
g3
((lp8
S'Method.AGONIST'
p9
atp10
Rp11
sS'topics'
p12
g3
((lp13
S"(8, u'\\\\blearning')"
p14
aS"(7, u'\\\\bmemory')"
p15
atp16
Rp17
sS'receptors'
p18
g3
((lp19
S'5ht5'
p20
aS'5ht1a'
p21
aS'5ht5a'
p22
aS'5ht2'
p23
atp24
Rp25
sS'regions'
p26
g3
((lp27
S"(34, u'(?i)(pon|pons)')"
p28
atp29
Rp30
sS'year'
p31
V1994
p32
sS'agonists'
p33
g3
((lp34
S"(24, u'\\\\bbuspirone')"
p35
aS"(155, u'\\\\bmem')"
p36
atp37
Rp38
sS'species'
p39
g3
((lp40
S"(2568, u'(?i)(hens|hen)')"
p41
aS"(7609, u'(?i)(erns|ern)')"
p42
aS"(4091, u'(?i)(adults|adult)')"
p43
aS"(6682, u'(?i)(tera|teras)')"
p44
aS"(6249, u'(?i)(ants|ant)')"
p45
aS"(6356, u'(?i)(ais|ai)')"
p46
aS"(5958, u'(?i)(rats|rat)')"
p47
aS"(1961, u'(?i)(pens|pen)')"
p48
aS"(3812, u'(?i)(studs|stud)')"
p49
aS"(1683, u'(?i)(terns|tern)')"
p50
atp51
Rp52
sb.