(ifile_types
ParseObject
p0
(dp1
S'methods'
p2
c__builtin__
set
p3
((lp4
tp5
Rp6
sS'topics'
p7
g3
((lp8
S"(14, u'\\\\bcogniti')"
p9
atp10
Rp11
sS'receptors'
p12
g3
((lp13
(S'5ht1a'
p14
I1344
I1350
tp15
a(S'5ht1a'
p16
I675
I681
tp17
a(S'5ht1'
p18
I1705
I1710
tp19
a(S'5ht1a'
p20
I640
I646
tp21
a(S'5ht1a'
p22
I1197
I1203
tp23
a(S'5ht1a'
p24
I1117
I1123
tp25
a(S'5ht1a'
p26
I462
I468
tp27
a(S'5ht1a'
p28
I39
I45
tp29
atp30
Rp31
sS'raw_text_methods'
p32
g3
((lp33
S"(14, u'\\\\bknockdown')"
p34
atp35
Rp36
sS'regions'
p37
g3
((lp38
S"(20, u'(?i)\\\\b(prefrontals|prefrontal)\\\\b')"
p39
aS"(19, u'(?i)\\\\b(cortexes|cortex)\\\\b')"
p40
atp41
Rp42
sS'year'
p43
V2005
p44
sS'species'
p45
g3
((lp46
tp47
Rp48
sb.