(ifile_types
ParseObject
p0
(dp1
S'antagonists'
p2
c__builtin__
set
p3
((lp4
tp5
Rp6
sS'methods'
p7
g3
((lp8
S'Method.ANTAGONIST'
p9
atp10
Rp11
sS'topics'
p12
g3
((lp13
S"(37, u'\\\\baddict')"
p14
aS"(8, u'\\\\blearning')"
p15
aS"(3, u'\\\\bsleep')"
p16
aS"(4, u'\\\\blocomot')"
p17
aS"(9, u'\\\\bdepress')"
p18
aS"(1, u'\\\\bmood')"
p19
aS"(29, u'\\\\bsex')"
p20
aS"(21, u'\\\\bpain')"
p21
aS"(20, u'\\\\baggressi')"
p22
aS"(6, u'\\\\bcognit')"
p23
aS"(10, u'\\\\banxiety')"
p24
atp25
Rp26
sS'receptors'
p27
g3
((lp28
S'5ht1a'
p29
atp30
Rp31
sS'regions'
p32
g3
((lp33
tp34
Rp35
sS'year'
p36
V2005
p37
sS'agonists'
p38
g3
((lp39
S"(176, u'\\\\bdom')"
p40
aS"(149, u'\\\\bmem')"
p41
atp42
Rp43
sS'species'
p44
g3
((lp45
tp46
Rp47
sb.