(ifile_types
ParseObject
p0
(dp1
S'antagonists'
p2
c__builtin__
set
p3
((lp4
S"(32, u'\\\\bway ?100635')"
p5
atp6
Rp7
sS'methods'
p8
g3
((lp9
S'Method.ANTAGONIST'
p10
aS'Method.AGONIST'
p11
atp12
Rp13
sS'topics'
p14
g3
((lp15
S"(18, u'\\\\bpsychostim')"
p16
aS"(4, u'\\\\blocomot')"
p17
atp18
Rp19
sS'receptors'
p20
g3
((lp21
S'5ht1a'
p22
atp23
Rp24
sS'regions'
p25
g3
((lp26
S"(34, u'(?i)(pon|pons)')"
p27
atp28
Rp29
sS'year'
p30
V2005
p31
sS'agonists'
p32
g3
((lp33
S"(92, u'\\\\b8 ?oh ?dpat')"
p34
atp35
Rp36
sS'species'
p37
g3
((lp38
S"(5958, u'(?i)(rats|rat)')"
p39
aS"(931, u'(?i)(divers|diver)')"
p40
aS"(6753, u'(?i)(da|das)')"
p41
aS"(1055, u'(?i)(men|man)')"
p42
aS"(5743, u'(?i)(bots|bot)')"
p43
aS"(6249, u'(?i)(ants|ant)')"
p44
aS"(1961, u'(?i)(pens|pen)')"
p45
aS"(6356, u'(?i)(ais|ai)')"
p46
aS"(7609, u'(?i)(erns|ern)')"
p47
aS"(1683, u'(?i)(terns|tern)')"
p48
atp49
Rp50
sb.