(ifile_types
ParseObject
p0
(dp1
S'antagonists'
p2
c__builtin__
set
p3
((lp4
S"(32, u'\\\\bway ?100635')"
p5
aS"(105, u'\\\\bmethysergide')"
p6
atp7
Rp8
sS'methods'
p9
g3
((lp10
S'Method.ANTAGONIST'
p11
atp12
Rp13
sS'topics'
p14
g3
((lp15
S"(21, u'\\\\bpain')"
p16
aS"(9, u'\\\\bdepress')"
p17
aS"(24, u'\\\\banalgesi')"
p18
atp19
Rp20
sS'receptors'
p21
g3
((lp22
S'5ht1a'
p23
atp24
Rp25
sS'regions'
p26
g3
((lp27
tp28
Rp29
sS'year'
p30
V2014
p31
sS'agonists'
p32
g3
((lp33
S"(60, u'\\\\bmethysergide')"
p34
atp35
Rp36
sS'species'
p37
g3
((lp38
S"(3550, u'(?i)(anis|ani)')"
p39
aS"(6753, u'(?i)(da|das)')"
p40
aS"(81, u'(?i)(asps|asp)')"
p41
aS"(5958, u'(?i)(rats|rat)')"
p42
aS"(163, u'(?i)(mice|mouse)')"
p43
aS"(6682, u'(?i)(tera|teras)')"
p44
aS"(1961, u'(?i)(pens|pen)')"
p45
aS"(4163, u'(?i)(ermines|ermine)')"
p46
aS"(1055, u'(?i)(men|man)')"
p47
aS"(6249, u'(?i)(ants|ant)')"
p48
aS"(6215, u'(?i)(racers|racer)')"
p49
aS"(5743, u'(?i)(bots|bot)')"
p50
aS"(2568, u'(?i)(hens|hen)')"
p51
aS"(7094, u'(?i)(curs|cur)')"
p52
aS"(1291, u'(?i)(ratels|ratel)')"
p53
aS"(3812, u'(?i)(studs|stud)')"
p54
aS"(6356, u'(?i)(ais|ai)')"
p55
aS"(7552, u'(?i)(bats|bat)')"
p56
atp57
Rp58
sb.