(ifile_types
ParseObject
p0
(dp1
S'antagonists'
p2
c__builtin__
set
p3
((lp4
tp5
Rp6
sS'methods'
p7
g3
((lp8
S'Method.PET'
p9
aS'Method.AGONIST'
p10
atp11
Rp12
sS'topics'
p13
g3
((lp14
S"(29, u'\\\\bsex')"
p15
atp16
Rp17
sS'receptors'
p18
g3
((lp19
S'5ht2a'
p20
atp21
Rp22
sS'regions'
p23
g3
((lp24
tp25
Rp26
sS'year'
p27
V2019
p28
sS'agonists'
p29
g3
((lp30
S"(70, u'\\\\bpsilocybin')"
p31
atp32
Rp33
sS'species'
p34
g3
((lp35
S"(1070, u'(?i)(pets|pet)')"
p36
aS"(6753, u'(?i)(da|das)')"
p37
aS"(5958, u'(?i)(rats|rat)')"
p38
aS"(6125, u'(?i)(females|female)')"
p39
aS"(4979, u'(?i)(cats|cat)')"
p40
aS"(479, u'(?i)(lings|ling)')"
p41
aS"(5967, u'(?i)(males|male)')"
p42
aS"(6682, u'(?i)(tera|teras)')"
p43
aS"(4964, u'(?i)(serins|serin)')"
p44
aS"(6249, u'(?i)(ants|ant)')"
p45
aS"(1961, u'(?i)(pens|pen)')"
p46
aS"(3812, u'(?i)(studs|stud)')"
p47
aS"(6391, u'(?i)(asses|ass)')"
p48
aS"(2809, u'(?i)(toms|tom)')"
p49
aS"(6356, u'(?i)(ais|ai)')"
p50
atp51
Rp52
sb.