(ifile_types
ParseObject
p0
(dp1
S'methods'
p2
c__builtin__
set
p3
((lp4
tp5
Rp6
sS'topics'
p7
g3
((lp8
S"(13, u'\\\\bantidepress')"
p9
atp10
Rp11
sS'receptors'
p12
g3
((lp13
(S'5ht3'
p14
I427
I432
tp15
a(S'5ht1c'
p16
I394
I402
tp17
a(S'5ht1c'
p18
I545
I551
tp19
a(S'5ht1a'
p20
I394
I400
tp21
a(S'5ht2'
p22
I415
I420
tp23
a(S'5ht1b'
p24
I394
I401
tp25
atp26
Rp27
sS'raw_text_methods'
p28
g3
((lp29
S"(11, u'\\\\bfluoxetine')"
p30
atp31
Rp32
sS'regions'
p33
g3
((lp34
tp35
Rp36
sS'year'
p37
V1991
p38
sS'species'
p39
g3
((lp40
tp41
Rp42
sb.