(ifile_types
ParseObject
p0
(dp1
S'antagonists'
p2
c__builtin__
set
p3
((lp4
S"(32, u'\\\\bway ?100635')"
p5
aS"(21, u'\\\\bpindolol')"
p6
atp7
Rp8
sS'methods'
p9
g3
((lp10
S'Method.AGONIST'
p11
atp12
Rp13
sS'topics'
p14
g3
((lp15
S"(24, u'\\\\banalgesi')"
p16
atp17
Rp18
sS'receptors'
p19
g3
((lp20
S'5ht1a'
p21
atp22
Rp23
sS'regions'
p24
g3
((lp25
S"(318, u'(?i)(raphes|raphe)(-|\\\\s+)?(nuclei|nucleus)')"
p26
aS"(94, u'(?i)(dorsals|dorsal)(-|\\\\s+)?(raphes|raphe)(-|\\\\s+)?(nuclei|nucleus)')"
p27
aS"(34, u'(?i)(pon|pons)')"
p28
atp29
Rp30
sS'year'
p31
V2003
p32
sS'agonists'
p33
g3
((lp34
tp35
Rp36
sS'species'
p37
g3
((lp38
S"(5958, u'(?i)(rats|rat)')"
p39
aS"(5743, u'(?i)(bots|bot)')"
p40
aS"(468, u'(?i)(oxen|ox)')"
p41
aS"(3726, u'(?i)(mates|mate)')"
p42
aS"(4979, u'(?i)(cats|cat)')"
p43
aS"(6249, u'(?i)(ants|ant)')"
p44
aS"(1961, u'(?i)(pens|pen)')"
p45
aS"(3812, u'(?i)(studs|stud)')"
p46
aS"(6356, u'(?i)(ais|ai)')"
p47
atp48
Rp49
sb.