(ifile_types
ParseObject
p0
(dp1
S'antagonists'
p2
c__builtin__
set
p3
((lp4
S"(84, u'\\\\bsb ?206553')"
p5
aS"(117, u'\\\\bketanserin')"
p6
atp7
Rp8
sS'methods'
p9
g3
((lp10
S'Method.ANTAGONIST'
p11
atp12
Rp13
sS'topics'
p14
g3
((lp15
tp16
Rp17
sS'receptors'
p18
g3
((lp19
S'5ht2c'
p20
aS'5ht2'
p21
aS'5ht2a'
p22
atp23
Rp24
sS'regions'
p25
g3
((lp26
S"(170, u'(?i)\\\\b(ventromedials|ventromedial)(-|\\\\s+)?(nuclei|nucleus)\\\\b')"
p27
atp28
Rp29
sS'year'
p30
V2004
p31
sS'agonists'
p32
g3
((lp33
tp34
Rp35
sS'species'
p36
g3
((lp37
S"(5958, u'(?i)\\\\b(rats|rat)\\\\b')"
p38
aS"(6125, u'(?i)\\\\b(females|female)\\\\b')"
p39
atp40
Rp41
sb.