(ifile_types
ParseObject
p0
(dp1
S'methods'
p2
c__builtin__
set
p3
((lp4
S'Method.ANTAGONIST'
p5
atp6
Rp7
sS'topics'
p8
g3
((lp9
S"(24, u'\\\\banxiolytic')"
p10
aS"(13, u'\\\\bantidepress')"
p11
aS"(25, u'\\\\bsocial')"
p12
aS"(7, u'\\\\bdepressi')"
p13
aS"(9, u'\\\\bstress')"
p14
aS"(29, u'\\\\bhyperactiv')"
p15
aS"(26, u'\\\\bbehav')"
p16
aS"(8, u'\\\\banxi')"
p17
atp18
Rp19
sS'receptors'
p20
g3
((lp21
(S'5ht3'
p22
I1870
I1875
tp23
a(S'5ht2a'
p24
I1690
I1696
tp25
atp26
Rp27
sS'raw_text_methods'
p28
g3
((lp29
S"(16, u'\\\\bdiazepam')"
p30
aS"(12, u'\\\\bantagonist')"
p31
aS"(10, u'\\\\bmethamphetamine')"
p32
atp33
Rp34
sS'regions'
p35
g3
((lp36
S"(20, u'(?i)\\\\b(prefrontals|prefrontal)\\\\b')"
p37
aS"(19, u'(?i)\\\\b(cortexes|cortex)\\\\b')"
p38
atp39
Rp40
sS'year'
p41
V2017
p42
sS'species'
p43
g3
((lp44
S"(1, u'(?i)\\\\b(mice|mouse)\\\\b')"
p45
aS"(5, u'(?i)\\\\b(mices|mice)\\\\b')"
p46
aS"(3, u'(?i)\\\\b(males|male)\\\\b')"
p47
atp48
Rp49
sb.