(ifile_types
ParseObject
p0
(dp1
S'antagonists'
p2
c__builtin__
set
p3
((lp4
S"(112, u'\\\\bamitriptyline')"
p5
atp6
Rp7
sS'methods'
p8
g3
((lp9
tp10
Rp11
sS'topics'
p12
g3
((lp13
S"(6, u'\\\\bcognit')"
p14
aS"(7, u'\\\\bmemory')"
p15
aS"(1, u'\\\\bmood')"
p16
atp17
Rp18
sS'receptors'
p19
g3
((lp20
S'5ht7'
p21
aS'5ht1a'
p22
aS'5ht2c'
p23
aS'5ht5'
p24
aS'5ht2a'
p25
atp26
Rp27
sS'regions'
p28
g3
((lp29
S"(318, u'(?i)(raphes|raphe)(-|\\\\s+)?(nuclei|nucleus)')"
p30
aS"(94, u'(?i)(dorsals|dorsal)(-|\\\\s+)?(raphes|raphe)(-|\\\\s+)?(nuclei|nucleus)')"
p31
aS"(34, u'(?i)(pon|pons)')"
p32
atp33
Rp34
sS'year'
p35
V1999
p36
sS'agonists'
p37
g3
((lp38
S"(155, u'\\\\bmem')"
p39
atp40
Rp41
sS'species'
p42
g3
((lp43
S"(5537, u'(?i)(hippos|hippo)')"
p44
aS"(5958, u'(?i)(rats|rat)')"
p45
aS"(1055, u'(?i)(men|man)')"
p46
aS"(6356, u'(?i)(ais|ai)')"
p47
aS"(6249, u'(?i)(ants|ant)')"
p48
aS"(3247, u'(?i)(youngs|young)')"
p49
atp50
Rp51
sb.