(ifile_types
ParseObject
p0
(dp1
S'methods'
p2
c__builtin__
set
p3
((lp4
S'Method.ANTAGONIST'
p5
aS'Method.AGONIST'
p6
atp7
Rp8
sS'topics'
p9
g3
((lp10
S"(14, u'\\\\bcogniti')"
p11
atp12
Rp13
sS'receptors'
p14
g3
((lp15
(S'5ht1a'
p16
I1164
I1170
tp17
a(S'5ht1a'
p18
I1364
I1370
tp19
a(S'5ht1a'
p20
I236
I242
tp21
a(S'5ht1a'
p22
I1256
I1262
tp23
a(S'5ht1a'
p24
I418
I424
tp25
a(S'5ht1a'
p26
I34
I40
tp27
atp28
Rp29
sS'raw_text_methods'
p30
g3
((lp31
S"(13, u'\\\\bagonist')"
p32
aS"(15, u'\\\\b8ohdpat')"
p33
aS"(12, u'\\\\bantagonist')"
p34
atp35
Rp36
sS'regions'
p37
g3
((lp38
S"(20, u'(?i)\\\\b(prefrontals|prefrontal)\\\\b')"
p39
aS"(21, u'(?i)\\\\b(mpfcs|mpfc)\\\\b')"
p40
aS"(19, u'(?i)\\\\b(cortexes|cortex)\\\\b')"
p41
atp42
Rp43
sS'year'
p44
V2006
p45
sS'species'
p46
g3
((lp47
S"(4, u'(?i)\\\\b(rats|rat)\\\\b')"
p48
atp49
Rp50
sb.