(ifile_types
ParseObject
p0
(dp1
S'antagonists'
p2
c__builtin__
set
p3
((lp4
tp5
Rp6
sS'methods'
p7
g3
((lp8
tp9
Rp10
sS'topics'
p11
g3
((lp12
S"(22, u'\\\\bsuicide')"
p13
aS"(9, u'\\\\bdepress')"
p14
atp15
Rp16
sS'receptors'
p17
g3
((lp18
S'5ht1a'
p19
aS'5ht2a'
p20
atp21
Rp22
sS'regions'
p23
g3
((lp24
S"(254, u'(?i)(prefrontals|prefrontal)(-|\\\\s+)?(cortexes|cortex)')"
p25
aS"(255, u'(?i)(pres|pre)(-|\\\\s+)?(frontals|frontal)(-|\\\\s+)?(cortexes|cortex)')"
p26
atp27
Rp28
sS'year'
p29
V2012
p30
sS'agonists'
p31
g3
((lp32
tp33
Rp34
sS'species'
p35
g3
((lp36
S"(5958, u'(?i)(rats|rat)')"
p37
aS"(6125, u'(?i)(females|female)')"
p38
aS"(867, u'(?i)(tits|tit)')"
p39
aS"(5743, u'(?i)(bots|bot)')"
p40
aS"(6682, u'(?i)(tera|teras)')"
p41
aS"(5967, u'(?i)(males|male)')"
p42
aS"(4163, u'(?i)(ermines|ermine)')"
p43
aS"(1055, u'(?i)(men|man)')"
p44
aS"(3812, u'(?i)(studs|stud)')"
p45
aS"(6249, u'(?i)(ants|ant)')"
p46
aS"(1961, u'(?i)(pens|pen)')"
p47
aS"(1414, u'(?i)(chars|char)')"
p48
aS"(7609, u'(?i)(erns|ern)')"
p49
aS"(6356, u'(?i)(ais|ai)')"
p50
aS"(1683, u'(?i)(terns|tern)')"
p51
atp52
Rp53
sb.