(ifile_types
ParseObject
p0
(dp1
S'antagonists'
p2
c__builtin__
set
p3
((lp4
S"(117, u'\\\\bketanserin')"
p5
atp6
Rp7
sS'methods'
p8
g3
((lp9
S'Method.AGONIST'
p10
atp11
Rp12
sS'topics'
p13
g3
((lp14
S"(34, u'\\\\bdementia')"
p15
aS"(35, u'\\\\bstress')"
p16
aS"(16, u'\\\\bfeed')"
p17
aS"(13, u'\\\\bpsychedel')"
p18
aS"(20, u'\\\\baggressi')"
p19
atp20
Rp21
sS'receptors'
p22
g3
((lp23
S'5ht2a'
p24
atp25
Rp26
sS'regions'
p27
g3
((lp28
S"(254, u'(?i)\\\\b(prefrontals|prefrontal)(-|\\\\s+)?(cortexes|cortex)\\\\b')"
p29
aS"(255, u'(?i)\\\\b(pres|pre)(-|\\\\s+)?(frontals|frontal)(-|\\\\s+)?(cortexes|cortex)\\\\b')"
p30
atp31
Rp32
sS'year'
p33
V2015
p34
sS'agonists'
p35
g3
((lp36
S"(149, u'\\\\bmem')"
p37
aS"(175, u'\\\\bdoi')"
p38
atp39
Rp40
sS'species'
p41
g3
((lp42
S"(5967, u'(?i)\\\\b(males|male)\\\\b')"
p43
aS"(2054, u'(?i)\\\\b(heads|head)\\\\b')"
p44
aS"(163, u'(?i)\\\\b(mice|mouse)\\\\b')"
p45
atp46
Rp47
sb.