(ifile_types
ParseObject
p0
(dp1
S'methods'
p2
c__builtin__
set
p3
((lp4
S'Method.ANTAGONIST'
p5
atp6
Rp7
sS'topics'
p8
g3
((lp9
S"(13, u'\\\\bantidepress')"
p10
aS"(4, u'\\\\btreatment')"
p11
atp12
Rp13
sS'receptors'
p14
g3
((lp15
(S'5ht2c'
p16
I1225
I1233
tp17
a(S'5ht3a'
p18
I1263
I1269
tp19
a(S'5ht1a'
p20
I1191
I1197
tp21
a(S'5ht2a'
p22
I1225
I1231
tp23
atp24
Rp25
sS'raw_text_methods'
p26
g3
((lp27
S"(20, u'\\\\bondansetron')"
p28
aS"(4, u'\\\\bpcpa')"
p29
aS"(9, u'\\\\britanserin')"
p30
aS"(12, u'\\\\bantagonist')"
p31
atp32
Rp33
sS'regions'
p34
g3
((lp35
tp36
Rp37
sS'year'
p38
V2015
p39
sS'species'
p40
g3
((lp41
S"(1, u'(?i)\\\\b(mice|mouse)\\\\b')"
p42
aS"(5, u'(?i)\\\\b(mices|mice)\\\\b')"
p43
atp44
Rp45
sb.