(ifile_types
ParseObject
p0
(dp1
S'methods'
p2
c__builtin__
set
p3
((lp4
S'Method.ANTAGONIST'
p5
aS'Method.AGONIST'
p6
atp7
Rp8
sS'topics'
p9
g3
((lp10
S"(26, u'\\\\bbehav')"
p11
atp12
Rp13
sS'receptors'
p14
g3
((lp15
(S'5ht1b'
p16
I1337
I1343
tp17
a(S'5ht1a'
p18
I901
I907
tp19
a(S'5ht1b'
p20
I567
I573
tp21
a(S'5ht1a'
p22
I504
I510
tp23
a(S'5ht2'
p24
I1087
I1092
tp25
a(S'5ht2'
p26
I515
I520
tp27
a(S'5ht2'
p28
I1269
I1274
tp29
atp30
Rp31
sS'raw_text_methods'
p32
g3
((lp33
S"(53, u'\\\\bketanserin')"
p34
aS"(33, u'\\\\bmcpp')"
p35
aS"(15, u'\\\\b8ohdpat')"
p36
aS"(13, u'\\\\bagonist')"
p37
aS"(4, u'\\\\bpcpa')"
p38
aS"(37, u'\\\\bpiperazine')"
p39
aS"(12, u'\\\\bantagonist')"
p40
atp41
Rp42
sS'regions'
p43
g3
((lp44
tp45
Rp46
sS'year'
p47
V1989
p48
sS'species'
p49
g3
((lp50
S"(4, u'(?i)\\\\b(rats|rat)\\\\b')"
p51
atp52
Rp53
sb.