(ifile_types
ParseObject
p0
(dp1
S'antagonists'
p2
c__builtin__
set
p3
((lp4
S"(61, u'\\\\bmdl ?100907')"
p5
atp6
Rp7
sS'methods'
p8
g3
((lp9
S'Method.ANTAGONIST'
p10
aS'Method.AGONIST'
p11
atp12
Rp13
sS'topics'
p14
g3
((lp15
S"(15, u'\\\\bschizophreni')"
p16
aS"(6, u'\\\\bcognit')"
p17
aS"(16, u'\\\\bfeed')"
p18
aS"(7, u'\\\\bmemory')"
p19
atp20
Rp21
sS'receptors'
p22
g3
((lp23
S'5ht2a'
p24
atp25
Rp26
sS'regions'
p27
g3
((lp28
S"(257, u'(?i)(dorsolaterals|dorsolateral)(-|\\\\s+)?(prefrontals|prefrontal)(-|\\\\s+)?(cortexes|cortex)')"
p29
aS"(254, u'(?i)(prefrontals|prefrontal)(-|\\\\s+)?(cortexes|cortex)')"
p30
aS"(255, u'(?i)(pres|pre)(-|\\\\s+)?(frontals|frontal)(-|\\\\s+)?(cortexes|cortex)')"
p31
aS"(34, u'(?i)(pon|pons)')"
p32
atp33
Rp34
sS'year'
p35
V2002
p36
sS'agonists'
p37
g3
((lp38
S"(155, u'\\\\bmem')"
p39
atp40
Rp41
sS'species'
p42
g3
((lp43
S"(6753, u'(?i)(da|das)')"
p44
aS"(6249, u'(?i)(ants|ant)')"
p45
aS"(7609, u'(?i)(erns|ern)')"
p46
aS"(5743, u'(?i)(bots|bot)')"
p47
aS"(2389, u'(?i)(spats|spat)')"
p48
aS"(6682, u'(?i)(tera|teras)')"
p49
aS"(1055, u'(?i)(men|man)')"
p50
aS"(1349, u'(?i)(rams|ram)')"
p51
aS"(4979, u'(?i)(cats|cat)')"
p52
aS"(1961, u'(?i)(pens|pen)')"
p53
aS"(7610, u'(?i)(ernes|erne)')"
p54
aS"(2341, u'(?i)(monkeys|monkey)')"
p55
aS"(1683, u'(?i)(terns|tern)')"
p56
atp57
Rp58
sb.