(ifile_types
ParseObject
p0
(dp1
S'methods'
p2
c__builtin__
set
p3
((lp4
S'Method.STIMULATION'
p5
aS'Method.AGONIST'
p6
atp7
Rp8
sS'topics'
p9
g3
((lp10
S"(24, u'\\\\banxiolytic')"
p11
aS"(8, u'\\\\banxi')"
p12
aS"(4, u'\\\\btreatment')"
p13
aS"(2, u'\\\\bdisorder')"
p14
atp15
Rp16
sS'receptors'
p17
g3
((lp18
(S'5ht1'
p19
I672
I677
tp20
a(S'5ht2'
p21
I1393
I1398
tp22
a(S'5ht1a'
p23
I50
I56
tp24
a(S'5ht2'
p25
I1682
I1687
tp26
a(S'5ht1a'
p27
I1216
I1222
tp28
a(S'5ht2'
p29
I62
I67
tp30
a(S'5ht1'
p31
I50
I56
tp32
a(S'5ht2'
p33
I683
I688
tp34
atp35
Rp36
sS'raw_text_methods'
p37
g3
((lp38
S"(13, u'\\\\bagonist')"
p39
aS"(15, u'\\\\b8ohdpat')"
p40
aS"(49, u'\\\\bdoi')"
p41
aS"(53, u'\\\\bketanserin')"
p42
aS"(51, u'\\\\bway100635')"
p43
atp44
Rp45
sS'regions'
p46
g3
((lp47
S"(12, u'(?i)\\\\b(amygdalas|amygdala)\\\\b')"
p48
atp49
Rp50
sS'year'
p51
V2005
p52
sS'species'
p53
g3
((lp54
S"(4, u'(?i)\\\\b(rats|rat)\\\\b')"
p55
atp56
Rp57
sb.