(ifile_types
ParseObject
p0
(dp1
S'antagonists'
p2
c__builtin__
set
p3
((lp4
tp5
Rp6
sS'methods'
p7
g3
((lp8
S'Method.PET'
p9
atp10
Rp11
sS'topics'
p12
g3
((lp13
S"(35, u'\\\\bstress')"
p14
aS"(15, u'\\\\bschizophreni')"
p15
aS"(3, u'\\\\bsleep')"
p16
aS"(10, u'\\\\banxiety')"
p17
atp18
Rp19
sS'receptors'
p20
g3
((lp21
S'5ht1b'
p22
aS'5ht1a'
p23
aS'5ht2a'
p24
atp25
Rp26
sS'regions'
p27
g3
((lp28
tp29
Rp30
sS'year'
p31
V2012
p32
sS'agonists'
p33
g3
((lp34
tp35
Rp36
sS'species'
p37
g3
((lp38
S"(6548, u'(?i)(takins|takin)')"
p39
aS"(468, u'(?i)(oxen|ox)')"
p40
aS"(7094, u'(?i)(curs|cur)')"
p41
aS"(6356, u'(?i)(ais|ai)')"
p42
aS"(6249, u'(?i)(ants|ant)')"
p43
aS"(3048, u'(?i)(hogs|hog)')"
p44
aS"(3812, u'(?i)(studs|stud)')"
p45
aS"(3196, u'(?i)(human|humans)')"
p46
aS"(1070, u'(?i)(pets|pet)')"
p47
aS"(931, u'(?i)(divers|diver)')"
p48
aS"(479, u'(?i)(lings|ling)')"
p49
aS"(5967, u'(?i)(males|male)')"
p50
aS"(5551, u'(?i)(owls|owl)')"
p51
aS"(2809, u'(?i)(toms|tom)')"
p52
aS"(5958, u'(?i)(rats|rat)')"
p53
aS"(6682, u'(?i)(tera|teras)')"
p54
aS"(1055, u'(?i)(men|man)')"
p55
aS"(6215, u'(?i)(racers|racer)')"
p56
aS"(4979, u'(?i)(cats|cat)')"
p57
aS"(1057, u'(?i)(humans|human)')"
p58
aS"(2568, u'(?i)(hens|hen)')"
p59
aS"(6753, u'(?i)(da|das)')"
p60
aS"(3726, u'(?i)(mates|mate)')"
p61
aS"(4964, u'(?i)(serins|serin)')"
p62
atp63
Rp64
sb.