(ifile_types
ParseObject
p0
(dp1
S'methods'
p2
c__builtin__
set
p3
((lp4
tp5
Rp6
sS'topics'
p7
g3
((lp8
tp9
Rp10
sS'receptors'
p11
g3
((lp12
(S'5ht1e'
p13
I1421
I1427
tp14
a(S'5ht1d'
p15
I553
I559
tp16
a(S'5ht1d'
p17
I58
I64
tp18
a(S'5ht1f'
p19
I628
I634
tp20
a(S'5ht1e'
p21
I72
I78
tp22
a(S'5ht1'
p23
I1934
I1942
tp24
a(S'5ht1b'
p25
I50
I56
tp26
a(S'5ht1d'
p27
I1005
I1011
tp28
a(S'5ht1'
p29
I1921
I1926
tp30
a(S'5ht1'
p31
I2183
I2188
tp32
a(S'5ht1'
p33
I484
I489
tp34
a(S'5ht1'
p35
I381
I386
tp36
a(S'5ht1d'
p37
I722
I728
tp38
a(S'5ht1'
p39
I1469
I1474
tp40
a(S'5ht1d'
p41
I1149
I1155
tp42
a(S'5ht1b'
p43
I1138
I1144
tp44
a(S'5ht1'
p45
I2057
I2062
tp46
a(S'5ht1'
p47
I1670
I1675
tp48
a(S'5ht1b'
p49
I1934
I1942
tp50
a(S'5ht1'
p51
I272
I277
tp52
a(S'5ht1b'
p53
I711
I717
tp54
a(S'5ht1e'
p55
I617
I623
tp56
a(S'5ht1a'
p57
I1934
I1940
tp58
a(S'5ht1b'
p59
I542
I548
tp60
a(S'5ht1b'
p61
I836
I842
tp62
a(S'5ht1f'
p63
I83
I89
tp64
a(S'5ht1f'
p65
I1724
I1730
tp66
a(S'5ht1b'
p67
I948
I954
tp68
atp69
Rp70
sS'raw_text_methods'
p71
g3
((lp72
S"(34, u'\\\\b5ct')"
p73
atp74
Rp75
sS'regions'
p76
g3
((lp77
S"(9, u'(?i)\\\\b(cerebellums|cerebellum)\\\\b')"
p78
aS"(4, u'(?i)\\\\b(presynaptics|presynaptic)\\\\b')"
p79
aS"(11, u'(?i)\\\\b(cerebrals|cerebral)\\\\b')"
p80
aS"(18, u'(?i)\\\\b(putamens|putamen)\\\\b')"
p81
aS"(8, u'(?i)\\\\b(centrals|central)(-|\\\\s+)?(nervouses|nervous)(-|\\\\s+)?(systems|system)\\\\b')"
p82
aS"(12, u'(?i)\\\\b(amygdalas|amygdala)\\\\b')"
p83
aS"(17, u'(?i)\\\\b(caudates|caudate)\\\\b')"
p84
atp85
Rp86
sS'year'
p87
V1994
p88
sS'species'
p89
g3
((lp90
S"(8, u'(?i)\\\\b(primates|primate)\\\\b')"
p91
aS"(1, u'(?i)\\\\b(mice|mouse)\\\\b')"
p92
aS"(6, u'(?i)\\\\b(rodents|rodent)\\\\b')"
p93
aS"(7, u'(?i)\\\\b(guineas|guinea)(-|\\\\s+)?(pigs|pig)\\\\b')"
p94
aS"(4, u'(?i)\\\\b(rats|rat)\\\\b')"
p95
atp96
Rp97
sb.