(ifile_types
ParseObject
p0
(dp1
S'antagonists'
p2
c__builtin__
set
p3
((lp4
S"(32, u'\\\\bway ?100635')"
p5
atp6
Rp7
sS'methods'
p8
g3
((lp9
S'Method.STAINING'
p10
aS'Method.IMMUNOHISTOCHEMISTRY'
p11
aS'Method.ANTAGONIST'
p12
atp13
Rp14
sS'topics'
p15
g3
((lp16
S"(9, u'\\\\bdepress')"
p17
aS"(35, u'\\\\bstress')"
p18
aS"(4, u'\\\\blocomot')"
p19
atp20
Rp21
sS'receptors'
p22
g3
((lp23
S'5ht1a'
p24
atp25
Rp26
sS'regions'
p27
g3
((lp28
S"(254, u'(?i)(prefrontals|prefrontal)(-|\\\\s+)?(cortexes|cortex)')"
p29
aS"(255, u'(?i)(pres|pre)(-|\\\\s+)?(frontals|frontal)(-|\\\\s+)?(cortexes|cortex)')"
p30
aS"(34, u'(?i)(pon|pons)')"
p31
atp32
Rp33
sS'year'
p34
V2018
p35
sS'agonists'
p36
g3
((lp37
tp38
Rp39
sS'species'
p40
g3
((lp41
S"(2323, u'(?i)(bees|bee)')"
p42
aS"(5537, u'(?i)(hippos|hippo)')"
p43
aS"(5799, u'(?i)(rodents|rodent)')"
p44
aS"(5958, u'(?i)(rats|rat)')"
p45
aS"(6356, u'(?i)(ais|ai)')"
p46
aS"(7609, u'(?i)(erns|ern)')"
p47
aS"(163, u'(?i)(mice|mouse)')"
p48
aS"(6753, u'(?i)(da|das)')"
p49
aS"(468, u'(?i)(oxen|ox)')"
p50
aS"(1055, u'(?i)(men|man)')"
p51
aS"(6249, u'(?i)(ants|ant)')"
p52
aS"(4979, u'(?i)(cats|cat)')"
p53
aS"(3550, u'(?i)(anis|ani)')"
p54
aS"(3191, u'(?i)(worlds|world)')"
p55
aS"(1961, u'(?i)(pens|pen)')"
p56
aS"(3812, u'(?i)(studs|stud)')"
p57
aS"(6391, u'(?i)(asses|ass)')"
p58
aS"(1683, u'(?i)(terns|tern)')"
p59
aS"(5949, u'(?i)(dogs|dog)')"
p60
atp61
Rp62
sb.