(ifile_types
ParseObject
p0
(dp1
S'methods'
p2
c__builtin__
set
p3
((lp4
S'Method.ANTAGONIST'
p5
atp6
Rp7
sS'topics'
p8
g3
((lp9
S"(13, u'\\\\bantidepress')"
p10
atp11
Rp12
sS'receptors'
p13
g3
((lp14
(S'5ht1a'
p15
I1041
I1047
tp16
a(S'5ht1b'
p17
I2786
I2792
tp18
a(S'5ht1b'
p19
I2497
I2503
tp20
a(S'5ht1a'
p21
I405
I411
tp22
a(S'5ht1b'
p23
I1301
I1307
tp24
a(S'5ht1b'
p25
I2622
I2628
tp26
a(S'5ht1b'
p27
I492
I498
tp28
a(S'5ht1b'
p29
I650
I656
tp30
a(S'5ht1a'
p31
I639
I645
tp32
a(S'5ht1b'
p33
I104
I110
tp34
a(S'5ht1a'
p35
I2468
I2474
tp36
a(S'5ht1a'
p37
I93
I99
tp38
a(S'5ht1d'
p39
I1301
I1308
tp40
atp41
Rp42
sS'raw_text_methods'
p43
g3
((lp44
S"(51, u'\\\\bway100635')"
p45
aS"(38, u'\\\\bssri')"
p46
aS"(6, u'\\\\bgr127935')"
p47
aS"(12, u'\\\\bantagonist')"
p48
atp49
Rp50
sS'regions'
p51
g3
((lp52
S"(19, u'(?i)\\\\b(cortexes|cortex)\\\\b')"
p53
aS"(16, u'(?i)\\\\b(drns|drn)\\\\b')"
p54
aS"(23, u'(?i)\\\\b(forebrains|forebrain)\\\\b')"
p55
atp56
Rp57
sS'year'
p58
V1997
p59
sS'species'
p60
g3
((lp61
S"(4, u'(?i)\\\\b(rats|rat)\\\\b')"
p62
atp63
Rp64
sb.