(ifile_types
ParseObject
p0
(dp1
S'methods'
p2
c__builtin__
set
p3
((lp4
S'Method.ANTAGONIST'
p5
aS'Method.AGONIST'
p6
atp7
Rp8
sS'topics'
p9
g3
((lp10
S"(1, u'\\\\bpatient')"
p11
aS"(4, u'\\\\btreatment')"
p12
atp13
Rp14
sS'receptors'
p15
g3
((lp16
(S'5ht2a'
p17
I644
I650
tp18
a(S'5ht1'
p19
I1615
I1620
tp20
a(S'5ht2a'
p21
I1957
I1963
tp22
a(S'5ht1'
p23
I48
I53
tp24
a(S'5ht1d'
p25
I2534
I2540
tp26
a(S'5ht1'
p27
I2383
I2388
tp28
a(S'5ht1'
p29
I629
I634
tp30
a(S'5ht2'
p31
I715
I720
tp32
a(S'5ht2a'
p33
I2341
I2347
tp34
a(S'5ht2a'
p35
I2688
I2694
tp36
a(S'5ht1'
p37
I403
I408
tp38
a(S'5ht1'
p39
I1676
I1681
tp40
a(S'5ht1'
p41
I2465
I2470
tp42
a(S'5ht1d'
p43
I2507
I2513
tp44
a(S'5ht2a'
p45
I418
I424
tp46
a(S'5ht2a'
p47
I63
I69
tp48
atp49
Rp50
sS'raw_text_methods'
p51
g3
((lp52
S"(13, u'\\\\bagonist')"
p53
aS"(53, u'\\\\bketanserin')"
p54
aS"(47, u'\\\\bsumatriptan')"
p55
aS"(12, u'\\\\bantagonist')"
p56
atp57
Rp58
sS'regions'
p59
g3
((lp60
tp61
Rp62
sS'year'
p63
V1996
p64
sS'species'
p65
g3
((lp66
tp67
Rp68
sb.