(ifile_types
ParseObject
p0
(dp1
S'methods'
p2
c__builtin__
set
p3
((lp4
tp5
Rp6
sS'topics'
p7
g3
((lp8
S"(7, u'\\\\bdepressi')"
p9
aS"(8, u'\\\\banxi')"
p10
aS"(3, u'\\\\bclinical')"
p11
aS"(4, u'\\\\btreatment')"
p12
aS"(2, u'\\\\bdisorder')"
p13
atp14
Rp15
sS'receptors'
p16
g3
((lp17
(S'5ht2'
p18
I844
I848
tp19
a(S'5ht2'
p20
I1486
I1490
tp21
a(S'5ht2a'
p22
I114
I119
tp23
a(S'5ht2a'
p24
I821
I832
tp25
a(S'5ht2'
p26
I1343
I1347
tp27
a(S'5ht2'
p28
I1423
I1427
tp29
atp30
Rp31
sS'raw_text_methods'
p32
g3
((lp33
S"(11, u'\\\\bfluoxetine')"
p34
aS"(39, u'\\\\bselective serotonin reuptake inhibitor')"
p35
atp36
Rp37
sS'regions'
p38
g3
((lp39
tp40
Rp41
sS'year'
p42
V2004
p43
sS'species'
p44
g3
((lp45
tp46
Rp47
sb.