(ifile_types
ParseObject
p0
(dp1
S'antagonists'
p2
c__builtin__
set
p3
((lp4
tp5
Rp6
sS'methods'
p7
g3
((lp8
S'Method.AGONIST'
p9
atp10
Rp11
sS'topics'
p12
g3
((lp13
S"(6, u'\\\\bcognit')"
p14
atp15
Rp16
sS'receptors'
p17
g3
((lp18
S'5ht1a'
p19
atp20
Rp21
sS'regions'
p22
g3
((lp23
S"(302, u'(?i)(corpuses|corpus)(-|\\\\s+)?(callosums|callosum)')"
p24
aS"(219, u'(?i)(basals|basal)(-|\\\\s+)?(ganglias|ganglia)')"
p25
aS"(209, u'(?i)(amygdalas|amygdala)')"
p26
atp27
Rp28
sS'year'
p29
V2011
p30
sS'agonists'
p31
g3
((lp32
tp33
Rp34
sS'species'
p35
g3
((lp36
S"(2323, u'(?i)(bees|bee)')"
p37
aS"(949, u'(?i)(cohoes|coho)')"
p38
aS"(2183, u'(?i)(gars|gar)')"
p39
aS"(1055, u'(?i)(men|man)')"
p40
aS"(6249, u'(?i)(ants|ant)')"
p41
aS"(3592, u'(?i)(ravens|raven)')"
p42
aS"(6753, u'(?i)(da|das)')"
p43
aS"(5958, u'(?i)(rats|rat)')"
p44
aS"(6580, u'(?i)(dams|dam)')"
p45
aS"(1488, u'(?i)(yaks|yak)')"
p46
aS"(5917, u'(?i)(roaches|roach)')"
p47
aS"(6356, u'(?i)(ais|ai)')"
p48
aS"(6391, u'(?i)(asses|ass)')"
p49
aS"(2809, u'(?i)(toms|tom)')"
p50
atp51
Rp52
sb.