(ifile_types
ParseObject
p0
(dp1
S'antagonists'
p2
c__builtin__
set
p3
((lp4
S"(54, u'\\\\bpizotifen')"
p5
aS"(34, u'\\\\bmetergoline')"
p6
aS"(14, u'\\\\bmethiothepin')"
p7
aS"(117, u'\\\\bketanserin')"
p8
aS"(194, u'\\\\bmethysergide')"
p9
aS"(40, u'\\\\bergotamine')"
p10
atp11
Rp12
sS'methods'
p13
g3
((lp14
S'Method.STIMULATION'
p15
aS'Method.ANTAGONIST'
p16
aS'Method.AGONIST'
p17
atp18
Rp19
sS'topics'
p20
g3
((lp21
tp22
Rp23
sS'receptors'
p24
g3
((lp25
S'5ht1b'
p26
aS'5ht3'
p27
aS'5ht1f'
p28
aS'5ht1'
p29
aS'5ht1d'
p30
aS'5ht2'
p31
atp32
Rp33
sS'regions'
p34
g3
((lp35
S"(374, u'(?i)\\\\b(duras|dura)(-|\\\\s+)?(maters|mater)\\\\b')"
p36
atp37
Rp38
sS'year'
p39
V1991
p40
sS'agonists'
p41
g3
((lp42
S"(96, u'\\\\bsumatriptan')"
p43
aS"(25, u'\\\\bdihydroergotamine')"
p44
aS"(33, u'\\\\bergotamine')"
p45
aS"(53, u'\\\\bmethysergide')"
p46
aS"(98, u'\\\\b5 ?carboxamidotryptamine')"
p47
aS"(85, u'\\\\b8 ?oh ?dpat')"
p48
aS"(219, u'\\\\b5 ?ct')"
p49
atp50
Rp51
sS'species'
p52
g3
((lp53
S"(2327, u'(?i)\\\\b(bovines|bovine)\\\\b')"
p54
aS"(5958, u'(?i)\\\\b(rats|rat)\\\\b')"
p55
atp56
Rp57
sb.