(ifile_types
ParseObject
p0
(dp1
S'antagonists'
p2
c__builtin__
set
p3
((lp4
tp5
Rp6
sS'methods'
p7
g3
((lp8
S'Method.AGONIST'
p9
atp10
Rp11
sS'topics'
p12
g3
((lp13
tp14
Rp15
sS'receptors'
p16
g3
((lp17
S'5ht1a'
p18
atp19
Rp20
sS'regions'
p21
g3
((lp22
tp23
Rp24
sS'year'
p25
V1997
p26
sS'agonists'
p27
g3
((lp28
S"(24, u'\\\\bbuspirone')"
p29
atp30
Rp31
sS'species'
p32
g3
((lp33
S"(2323, u'(?i)(bees|bee)')"
p34
aS"(4624, u'(?i)(apes|ape)')"
p35
aS"(5958, u'(?i)(rats|rat)')"
p36
aS"(6356, u'(?i)(ais|ai)')"
p37
aS"(867, u'(?i)(tits|tit)')"
p38
aS"(4201, u'(?i)(kines|kine)')"
p39
aS"(2866, u'(?i)(sables|sable)')"
p40
aS"(468, u'(?i)(oxen|ox)')"
p41
aS"(1055, u'(?i)(men|man)')"
p42
aS"(3726, u'(?i)(mates|mate)')"
p43
aS"(853, u'(?i)(minas|mina)')"
p44
aS"(7094, u'(?i)(curs|cur)')"
p45
aS"(6249, u'(?i)(ants|ant)')"
p46
aS"(1057, u'(?i)(humans|human)')"
p47
aS"(5917, u'(?i)(roaches|roach)')"
p48
aS"(1414, u'(?i)(chars|char)')"
p49
aS"(3196, u'(?i)(human|humans)')"
p50
aS"(4979, u'(?i)(cats|cat)')"
p51
atp52
Rp53
sb.