(ifile_types
ParseObject
p0
(dp1
S'methods'
p2
c__builtin__
set
p3
((lp4
S'Method.ANTAGONIST'
p5
aS'Method.AGONIST'
p6
atp7
Rp8
sS'topics'
p9
g3
((lp10
S"(7, u'\\\\bdepressi')"
p11
aS"(13, u'\\\\bantidepress')"
p12
aS"(2, u'\\\\bdisorder')"
p13
atp14
Rp15
sS'receptors'
p16
g3
((lp17
(S'5ht1a'
p18
I329
I340
tp19
a(S'5ht1a'
p20
I1313
I1324
tp21
a(S'5ht1a'
p22
I74
I85
tp23
a(S'5ht1a'
p24
I596
I607
tp25
a(S'5ht1a'
p26
I193
I204
tp27
a(S'5ht1a'
p28
I1815
I1826
tp29
a(S'5ht1a'
p30
I1532
I1543
tp31
atp32
Rp33
sS'raw_text_methods'
p34
g3
((lp35
S"(1, u'\\\\bneuroimag')"
p36
aS"(2, u'\\\\blabeling')"
p37
aS"(13, u'\\\\bagonist')"
p38
aS"(12, u'\\\\bantagonist')"
p39
atp40
Rp41
sS'regions'
p42
g3
((lp43
S"(19, u'(?i)\\\\b(cortexes|cortex)\\\\b')"
p44
atp45
Rp46
sS'year'
p47
V2009
p48
sS'species'
p49
g3
((lp50
tp51
Rp52
sb.