(ifile_types
ParseObject
p0
(dp1
S'antagonists'
p2
c__builtin__
set
p3
((lp4
S"(174, u'\\\\bsb ?258585')"
p5
aS"(38, u'\\\\bsb ?224289')"
p6
aS"(144, u'\\\\bgr ?113808')"
p7
aS"(31, u'\\\\bway ?100635')"
p8
aS"(198, u'\\\\bsb ?269970')"
p9
aS"(96, u'\\\\brs ?102221')"
p10
aS"(117, u'\\\\bketanserin')"
p11
aS"(78, u'\\\\brs ?127445')"
p12
aS"(41, u'\\\\bbrl ?15572')"
p13
aS"(124, u'\\\\bondansetron')"
p14
aS"(157, u'\\\\bsb ?699551')"
p15
aS"(43, u'\\\\bgr ?127935')"
p16
aS"(91, u'\\\\bfluoxetine')"
p17
atp18
Rp19
sS'methods'
p20
g3
((lp21
S'Method.ANTAGONIST'
p22
atp23
Rp24
sS'topics'
p25
g3
((lp26
tp27
Rp28
sS'receptors'
p29
g3
((lp30
S'5ht7'
p31
aS'5ht6'
p32
aS'5ht1a'
p33
aS'5ht4'
p34
aS'5ht3'
p35
aS'5ht2c'
p36
aS'5ht2a'
p37
aS'5ht5'
p38
aS'5ht1d'
p39
aS'5ht1b'
p40
aS'5ht5a'
p41
aS'5ht2b'
p42
atp43
Rp44
sS'regions'
p45
g3
((lp46
tp47
Rp48
sS'year'
p49
V2013
p50
sS'agonists'
p51
g3
((lp52
tp53
Rp54
sS'species'
p55
g3
((lp56
S"(5958, u'(?i)\\\\b(rats|rat)\\\\b')"
p57
atp58
Rp59
sb.