(ifile_types
ParseObject
p0
(dp1
S'methods'
p2
c__builtin__
set
p3
((lp4
S'Method.PET'
p5
atp6
Rp7
sS'topics'
p8
g3
((lp9
S"(3, u'\\\\bclinical')"
p10
atp11
Rp12
sS'receptors'
p13
g3
((lp14
(S'5ht1a'
p15
I249
I255
tp16
atp17
Rp18
sS'raw_text_methods'
p19
g3
((lp20
S"(17, u'\\\\bpet')"
p21
aS"(19, u'\\\\bpositron emission tomography')"
p22
aS"(18, u'\\\\bimaging')"
p23
atp24
Rp25
sS'regions'
p26
g3
((lp27
S"(19, u'(?i)\\\\b(cortexes|cortex)\\\\b')"
p28
aS"(9, u'(?i)\\\\b(cerebellums|cerebellum)\\\\b')"
p29
atp30
Rp31
sS'year'
p32
V2007
p33
sS'species'
p34
g3
((lp35
S"(3, u'(?i)\\\\b(males|male)\\\\b')"
p36
atp37
Rp38
sb.