(ifile_types
ParseObject
p0
(dp1
S'methods'
p2
c__builtin__
set
p3
((lp4
S'Method.ANTAGONIST'
p5
aS'Method.AGONIST'
p6
atp7
Rp8
sS'topics'
p9
g3
((lp10
S"(34, u'\\\\bparkinson')"
p11
atp12
Rp13
sS'receptors'
p14
g3
((lp15
(S'5ht3'
p16
I301
I306
tp17
a(S'5ht3'
p18
I865
I870
tp19
a(S'5ht3'
p20
I1446
I1451
tp21
a(S'5ht3'
p22
I1681
I1686
tp23
atp24
Rp25
sS'raw_text_methods'
p26
g3
((lp27
S"(13, u'\\\\bagonist')"
p28
aS"(32, u'\\\\blesions')"
p29
aS"(12, u'\\\\bantagonist')"
p30
atp31
Rp32
sS'regions'
p33
g3
((lp34
S"(15, u'(?i)\\\\b(substantias|substantia)(-|\\\\s+)?(nigras|nigra)\\\\b')"
p35
aS"(20, u'(?i)\\\\b(prefrontals|prefrontal)\\\\b')"
p36
aS"(21, u'(?i)\\\\b(mpfcs|mpfc)\\\\b')"
p37
aS"(19, u'(?i)\\\\b(cortexes|cortex)\\\\b')"
p38
atp39
Rp40
sS'year'
p41
V2011
p42
sS'species'
p43
g3
((lp44
S"(6, u'(?i)\\\\b(rodents|rodent)\\\\b')"
p45
aS"(4, u'(?i)\\\\b(rats|rat)\\\\b')"
p46
atp47
Rp48
sb.