(ifile_types
ParseObject
p0
(dp1
S'antagonists'
p2
c__builtin__
set
p3
((lp4
S"(53, u'\\\\bketanserin')"
p5
aS"(128, u'\\\\bketanserin')"
p6
atp7
Rp8
sS'methods'
p9
g3
((lp10
S'Method.ANTAGONIST'
p11
aS'Method.AGONIST'
p12
atp13
Rp14
sS'topics'
p15
g3
((lp16
tp17
Rp18
sS'receptors'
p19
g3
((lp20
S'5ht5'
p21
aS'5ht2b'
p22
aS'5ht2c'
p23
aS'5ht2'
p24
aS'5ht2a'
p25
atp26
Rp27
sS'regions'
p28
g3
((lp29
S"(34, u'(?i)(pon|pons)')"
p30
atp31
Rp32
sS'year'
p33
V1998
p34
sS'agonists'
p35
g3
((lp36
S"(163, u'\\\\bdmt')"
p37
aS"(237, u'\\\\bnn ?dimethyltryptamine')"
p38
aS"(33, u'\\\\bdoi')"
p39
atp40
Rp41
sS'species'
p42
g3
((lp43
S"(7058, u'(?i)(does|doe)')"
p44
aS"(2670, u'(?i)(arabs|arab)')"
p45
aS"(2568, u'(?i)(hens|hen)')"
p46
aS"(867, u'(?i)(tits|tit)')"
p47
aS"(4964, u'(?i)(serins|serin)')"
p48
aS"(479, u'(?i)(lings|ling)')"
p49
aS"(5958, u'(?i)(rats|rat)')"
p50
aS"(468, u'(?i)(oxen|ox)')"
p51
aS"(1055, u'(?i)(men|man)')"
p52
aS"(6249, u'(?i)(ants|ant)')"
p53
aS"(853, u'(?i)(minas|mina)')"
p54
aS"(3550, u'(?i)(anis|ani)')"
p55
aS"(1057, u'(?i)(humans|human)')"
p56
aS"(5917, u'(?i)(roaches|roach)')"
p57
aS"(3812, u'(?i)(studs|stud)')"
p58
aS"(3196, u'(?i)(human|humans)')"
p59
aS"(5743, u'(?i)(bots|bot)')"
p60
aS"(6356, u'(?i)(ais|ai)')"
p61
aS"(5949, u'(?i)(dogs|dog)')"
p62
atp63
Rp64
sb.