(ifile_types
ParseObject
p0
(dp1
S'antagonists'
p2
c__builtin__
set
p3
((lp4
tp5
Rp6
sS'methods'
p7
g3
((lp8
S'Method.STAINING'
p9
aS'Method.IMMUNOHISTOCHEMISTRY'
p10
atp11
Rp12
sS'topics'
p13
g3
((lp14
S"(15, u'\\\\bschizophreni')"
p15
aS"(9, u'\\\\bdepress')"
p16
atp17
Rp18
sS'receptors'
p19
g3
((lp20
S'5ht2a'
p21
atp22
Rp23
sS'regions'
p24
g3
((lp25
S"(241, u'(?i)\\\\b(olfactories|olfactory)(-|\\\\s+)?(bulbs|bulb)\\\\b')"
p26
aS"(220, u'(?i)\\\\b(striatums|striatum)\\\\b')"
p27
aS"(209, u'(?i)\\\\b(amygdalas|amygdala)\\\\b')"
p28
aS"(302, u'(?i)\\\\b(corpuses|corpus)(-|\\\\s+)?(callosums|callosum)\\\\b')"
p29
aS"(222, u'(?i)\\\\b(neostriatums|neostriatum)\\\\b')"
p30
atp31
Rp32
sS'year'
p33
V2000
p34
sS'agonists'
p35
g3
((lp36
tp37
Rp38
sS'species'
p39
g3
((lp40
S"(3152, u'(?i)\\\\b(layers|layer)\\\\b')"
p41
aS"(5958, u'(?i)\\\\b(rats|rat)\\\\b')"
p42
aS"(4074, u'(?i)\\\\b(bulls|bull)\\\\b')"
p43
atp44
Rp45
sb.