(ifile_types
ParseObject
p0
(dp1
S'methods'
p2
c__builtin__
set
p3
((lp4
S'Method.ANTAGONIST'
p5
aS'Method.AGONIST'
p6
atp7
Rp8
sS'topics'
p9
g3
((lp10
tp11
Rp12
sS'receptors'
p13
g3
((lp14
(S'5ht3'
p15
I42
I47
tp16
a(S'5ht3'
p17
I673
I678
tp18
a(S'5ht6'
p19
I766
I771
tp20
a(S'5ht3'
p21
I1643
I1648
tp22
a(S'5ht2'
p23
I1161
I1166
tp24
a(S'5ht3'
p25
I1364
I1369
tp26
a(S'5ht3'
p27
I996
I1001
tp28
a(S'5ht1'
p29
I1155
I1160
tp30
a(S'5ht2'
p31
I1095
I1100
tp32
atp33
Rp34
sS'raw_text_methods'
p35
g3
((lp36
S"(13, u'\\\\bagonist')"
p37
aS"(53, u'\\\\bketanserin')"
p38
aS"(20, u'\\\\bondansetron')"
p39
aS"(28, u'\\\\bzacopride')"
p40
aS"(12, u'\\\\bantagonist')"
p41
atp42
Rp43
sS'regions'
p44
g3
((lp45
tp46
Rp47
sS'year'
p48
V1996
p49
sS'species'
p50
g3
((lp51
S"(4, u'(?i)\\\\b(rats|rat)\\\\b')"
p52
atp53
Rp54
sb.