(ifile_types
ParseObject
p0
(dp1
S'methods'
p2
c__builtin__
set
p3
((lp4
S'Method.ANTAGONIST'
p5
atp6
Rp7
sS'topics'
p8
g3
((lp9
S"(8, u'\\\\banxi')"
p10
aS"(1, u'\\\\bpatient')"
p11
aS"(26, u'\\\\bbehav')"
p12
aS"(10, u'\\\\bocd')"
p13
aS"(2, u'\\\\bdisorder')"
p14
atp15
Rp16
sS'receptors'
p17
g3
((lp18
(S'5ht3'
p19
I389
I394
tp20
a(S'5ht3'
p21
I542
I547
tp22
a(S'5ht3'
p23
I1272
I1277
tp24
a(S'5ht3'
p25
I464
I469
tp26
atp27
Rp28
sS'raw_text_methods'
p29
g3
((lp30
S"(20, u'\\\\bondansetron')"
p31
aS"(33, u'\\\\bmcpp')"
p32
aS"(12, u'\\\\bantagonist')"
p33
atp34
Rp35
sS'regions'
p36
g3
((lp37
tp38
Rp39
sS'year'
p40
V1998
p41
sS'species'
p42
g3
((lp43
tp44
Rp45
sb.