(ifile_types
ParseObject
p0
(dp1
S'methods'
p2
c__builtin__
set
p3
((lp4
S'Method.STAINING'
p5
aS'Method.IMMUNOHISTOCHEMISTRY'
p6
atp7
Rp8
sS'topics'
p9
g3
((lp10
S"(14, u'\\\\bcogniti')"
p11
aS"(26, u'\\\\bbehav')"
p12
aS"(2, u'\\\\bdisorder')"
p13
atp14
Rp15
sS'receptors'
p16
g3
((lp17
(S'5ht2a'
p18
I1092
I1103
tp19
a(S'5ht2'
p20
I1658
I1663
tp21
a(S'5ht2'
p22
I1468
I1473
tp23
a(S'5ht2'
p24
I1106
I1111
tp25
atp26
Rp27
sS'raw_text_methods'
p28
g3
((lp29
S"(2, u'\\\\blabeling')"
p30
atp31
Rp32
sS'regions'
p33
g3
((lp34
tp35
Rp36
sS'year'
p37
V2013
p38
sS'species'
p39
g3
((lp40
S"(3, u'(?i)\\\\b(males|male)\\\\b')"
p41
aS"(4, u'(?i)\\\\b(rats|rat)\\\\b')"
p42
atp43
Rp44
sb.