(ifile_types
ParseObject
p0
(dp1
S'antagonists'
p2
c__builtin__
set
p3
((lp4
S"(32, u'\\\\bway ?100635')"
p5
atp6
Rp7
sS'methods'
p8
g3
((lp9
S'Method.PET'
p10
atp11
Rp12
sS'topics'
p13
g3
((lp14
S"(10, u'\\\\banxiety')"
p15
aS"(1, u'\\\\bmood')"
p16
atp17
Rp18
sS'receptors'
p19
g3
((lp20
S'5ht1a'
p21
atp22
Rp23
sS'regions'
p24
g3
((lp25
S"(291, u'(?i)(cingulates|cingulate)(-|\\\\s+)?(cortexes|cortex)')"
p26
aS"(219, u'(?i)(basals|basal)(-|\\\\s+)?(ganglias|ganglia)')"
p27
aS"(126, u'(?i)(thalamuses|thalamus)')"
p28
aS"(220, u'(?i)(striatums|striatum)')"
p29
aS"(318, u'(?i)(raphes|raphe)(-|\\\\s+)?(nuclei|nucleus)')"
p30
aS"(94, u'(?i)(dorsals|dorsal)(-|\\\\s+)?(raphes|raphe)(-|\\\\s+)?(nuclei|nucleus)')"
p31
atp32
Rp33
sS'year'
p34
V2011
p35
sS'agonists'
p36
g3
((lp37
tp38
Rp39
sS'species'
p40
g3
((lp41
S"(1070, u'(?i)(pets|pet)')"
p42
aS"(5537, u'(?i)(hippos|hippo)')"
p43
aS"(5176, u'(?i)(tegs|teg)')"
p44
aS"(5958, u'(?i)(rats|rat)')"
p45
aS"(6356, u'(?i)(ais|ai)')"
p46
aS"(7609, u'(?i)(erns|ern)')"
p47
aS"(4979, u'(?i)(cats|cat)')"
p48
aS"(6753, u'(?i)(da|das)')"
p49
aS"(468, u'(?i)(oxen|ox)')"
p50
aS"(1055, u'(?i)(men|man)')"
p51
aS"(6215, u'(?i)(racers|racer)')"
p52
aS"(3812, u'(?i)(studs|stud)')"
p53
aS"(6249, u'(?i)(ants|ant)')"
p54
aS"(1057, u'(?i)(humans|human)')"
p55
aS"(3247, u'(?i)(youngs|young)')"
p56
aS"(3196, u'(?i)(human|humans)')"
p57
aS"(2809, u'(?i)(toms|tom)')"
p58
aS"(5743, u'(?i)(bots|bot)')"
p59
aS"(1683, u'(?i)(terns|tern)')"
p60
atp61
Rp62
sb.