(ifile_types
ParseObject
p0
(dp1
S'antagonists'
p2
c__builtin__
set
p3
((lp4
S"(99, u'\\\\bsb ?242084')"
p5
atp6
Rp7
sS'methods'
p8
g3
((lp9
S'Method.ANTAGONIST'
p10
aS'Method.AGONIST'
p11
atp12
Rp13
sS'topics'
p14
g3
((lp15
S"(12, u'\\\\banxiogen')"
p16
aS"(10, u'\\\\banxiety')"
p17
atp18
Rp19
sS'receptors'
p20
g3
((lp21
S'5ht2a'
p22
aS'5ht2b'
p23
aS'5ht2c'
p24
aS'5ht2'
p25
atp26
Rp27
sS'regions'
p28
g3
((lp29
S"(215, u'(?i)\\\\b(basolaterals|basolateral)(-|\\\\s+)?(amygdalas|amygdala)\\\\b')"
p30
aS"(254, u'(?i)\\\\b(prefrontals|prefrontal)(-|\\\\s+)?(cortexes|cortex)\\\\b')"
p31
aS"(209, u'(?i)\\\\b(amygdalas|amygdala)\\\\b')"
p32
aS"(255, u'(?i)\\\\b(pres|pre)(-|\\\\s+)?(frontals|frontal)(-|\\\\s+)?(cortexes|cortex)\\\\b')"
p33
atp34
Rp35
sS'year'
p36
V2003
p37
sS'agonists'
p38
g3
((lp39
S"(155, u'\\\\bmcpp')"
p40
atp41
Rp42
sS'species'
p43
g3
((lp44
S"(5958, u'(?i)\\\\b(rats|rat)\\\\b')"
p45
atp46
Rp47
sb.