(ifile_types
ParseObject
p0
(dp1
S'methods'
p2
c__builtin__
set
p3
((lp4
S'Method.AGONIST'
p5
aS'Method.IMMUNOHISTOCHEMISTRY'
p6
aS'Method.ANTAGONIST'
p7
atp8
Rp9
sS'topics'
p10
g3
((lp11
S"(26, u'\\\\bbehav')"
p12
aS"(32, u'\\\\bvomit')"
p13
atp14
Rp15
sS'receptors'
p16
g3
((lp17
(S'5ht3'
p18
I1473
I1478
tp19
a(S'5ht3'
p20
I2273
I2278
tp21
a(S'5ht3'
p22
I287
I292
tp23
a(S'5ht3'
p24
I414
I419
tp25
a(S'5ht3'
p26
I230
I235
tp27
a(S'5ht3'
p28
I2450
I2455
tp29
a(S'5ht3'
p30
I915
I920
tp31
a(S'5ht2'
p32
I252
I262
tp33
a(S'5ht3'
p34
I213
I218
tp35
a(S'5ht3'
p36
I655
I660
tp37
a(S'5ht3'
p38
I40
I45
tp39
atp40
Rp41
sS'raw_text_methods'
p42
g3
((lp43
S"(13, u'\\\\bagonist')"
p44
aS"(30, u'\\\\b2methyl')"
p45
aS"(12, u'\\\\bantagonist')"
p46
atp47
Rp48
sS'regions'
p49
g3
((lp50
tp51
Rp52
sS'year'
p53
V2014
p54
sS'species'
p55
g3
((lp56
tp57
Rp58
sb.