(ifile_types
ParseObject
p0
(dp1
S'antagonists'
p2
c__builtin__
set
p3
((lp4
S"(32, u'\\\\bway ?100635')"
p5
aS"(102, u'\\\\bfluoxetine')"
p6
atp7
Rp8
sS'methods'
p9
g3
((lp10
S'Method.ANTAGONIST'
p11
atp12
Rp13
sS'topics'
p14
g3
((lp15
tp16
Rp17
sS'receptors'
p18
g3
((lp19
S'5ht5'
p20
aS'5ht1a'
p21
atp22
Rp23
sS'regions'
p24
g3
((lp25
tp26
Rp27
sS'year'
p28
V2002
p29
sS'agonists'
p30
g3
((lp31
tp32
Rp33
sS'species'
p34
g3
((lp35
S"(2568, u'(?i)(hens|hen)')"
p36
aS"(6356, u'(?i)(ais|ai)')"
p37
aS"(468, u'(?i)(oxen|ox)')"
p38
aS"(1055, u'(?i)(men|man)')"
p39
aS"(6249, u'(?i)(ants|ant)')"
p40
aS"(1349, u'(?i)(rams|ram)')"
p41
aS"(2334, u'(?i)(eels|eel)')"
p42
aS"(5743, u'(?i)(bots|bot)')"
p43
aS"(5958, u'(?i)(rats|rat)')"
p44
aS"(1961, u'(?i)(pens|pen)')"
p45
aS"(3812, u'(?i)(studs|stud)')"
p46
aS"(7609, u'(?i)(erns|ern)')"
p47
aS"(1683, u'(?i)(terns|tern)')"
p48
atp49
Rp50
sb.