(ifile_types
ParseObject
p0
(dp1
S'methods'
p2
c__builtin__
set
p3
((lp4
tp5
Rp6
sS'topics'
p7
g3
((lp8
S"(26, u'\\\\bbehav')"
p9
atp10
Rp11
sS'receptors'
p12
g3
((lp13
(S'5ht2a'
p14
I485
I491
tp15
a(S'5ht2a'
p16
I1036
I1042
tp17
a(S'5ht2a'
p18
I945
I951
tp19
a(S'5ht2a'
p20
I417
I423
tp21
a(S'5ht2a'
p22
I67
I73
tp23
atp24
Rp25
sS'raw_text_methods'
p26
g3
((lp27
S"(49, u'\\\\bdoi')"
p28
atp29
Rp30
sS'regions'
p31
g3
((lp32
tp33
Rp34
sS'year'
p35
V1995
p36
sS'species'
p37
g3
((lp38
S"(4, u'(?i)\\\\b(rats|rat)\\\\b')"
p39
atp40
Rp41
sb.