(ifile_types
ParseObject
p0
(dp1
S'methods'
p2
c__builtin__
set
p3
((lp4
S'Method.ANTAGONIST'
p5
atp6
Rp7
sS'topics'
p8
g3
((lp9
S"(22, u'\\\\bschizophreni')"
p10
aS"(14, u'\\\\bcogniti')"
p11
aS"(26, u'\\\\bbehav')"
p12
aS"(19, u'\\\\bpsychosis')"
p13
aS"(2, u'\\\\bdisorder')"
p14
aS"(7, u'\\\\bdepressi')"
p15
aS"(23, u'\\\\bantipsychotic')"
p16
aS"(15, u'\\\\bmemory')"
p17
aS"(5, u'\\\\btherap')"
p18
aS"(8, u'\\\\banxi')"
p19
atp20
Rp21
sS'receptors'
p22
g3
((lp23
(S'5ht7'
p24
I56
I61
tp25
a(S'5ht7'
p26
I1608
I1613
tp27
a(S'5ht7'
p28
I213
I218
tp29
a(S'5ht7'
p30
I487
I492
tp31
a(S'5ht7'
p32
I664
I669
tp33
a(S'5ht2a'
p34
I1147
I1153
tp35
atp36
Rp37
sS'raw_text_methods'
p38
g3
((lp39
S"(23, u'\\\\bmdl')"
p40
aS"(12, u'\\\\bantagonist')"
p41
atp42
Rp43
sS'regions'
p44
g3
((lp45
tp46
Rp47
sS'year'
p48
V2012
p49
sS'species'
p50
g3
((lp51
S"(4, u'(?i)\\\\b(rats|rat)\\\\b')"
p52
atp53
Rp54
sb.