(ifile_types
ParseObject
p0
(dp1
S'antagonists'
p2
c__builtin__
set
p3
((lp4
S"(31, u'\\\\bway ?100135')"
p5
atp6
Rp7
sS'methods'
p8
g3
((lp9
S'Method.STAINING'
p10
aS'Method.AGONIST'
p11
aS'Method.ANTAGONIST'
p12
atp13
Rp14
sS'topics'
p15
g3
((lp16
tp17
Rp18
sS'receptors'
p19
g3
((lp20
S'5ht1a'
p21
atp22
Rp23
sS'regions'
p24
g3
((lp25
tp26
Rp27
sS'year'
p28
V1994
p29
sS'agonists'
p30
g3
((lp31
S"(47, u'\\\\bgepirone')"
p32
aS"(92, u'\\\\b8 ?oh ?dpat')"
p33
aS"(24, u'\\\\bbuspirone')"
p34
aS"(50, u'\\\\bipsapirone')"
p35
atp36
Rp37
sS'species'
p38
g3
((lp39
S"(5958, u'(?i)(rats|rat)')"
p40
aS"(1055, u'(?i)(men|man)')"
p41
aS"(6753, u'(?i)(da|das)')"
p42
aS"(6249, u'(?i)(ants|ant)')"
p43
aS"(6356, u'(?i)(ais|ai)')"
p44
aS"(6391, u'(?i)(asses|ass)')"
p45
atp46
Rp47
sb.