(ifile_types
ParseObject
p0
(dp1
S'methods'
p2
c__builtin__
set
p3
((lp4
tp5
Rp6
sS'topics'
p7
g3
((lp8
S"(26, u'\\\\bbehav')"
p9
atp10
Rp11
sS'receptors'
p12
g3
((lp13
(S'5ht1a'
p14
I59
I70
tp15
a(S'5ht1a'
p16
I329
I340
tp17
a(S'5ht1a'
p18
I608
I614
tp19
a(S'5ht1a'
p20
I344
I350
tp21
atp22
Rp23
sS'raw_text_methods'
p24
g3
((lp25
S"(54, u'\\\\bautoradiography')"
p26
atp27
Rp28
sS'regions'
p29
g3
((lp30
tp31
Rp32
sS'year'
p33
V2003
p34
sS'species'
p35
g3
((lp36
S"(4, u'(?i)\\\\b(rats|rat)\\\\b')"
p37
atp38
Rp39
sb.