(ifile_types
ParseObject
p0
(dp1
S'antagonists'
p2
c__builtin__
set
p3
((lp4
S"(35, u'\\\\baripiprazole')"
p5
aS"(58, u'\\\\bhaloperidol')"
p6
atp7
Rp8
sS'methods'
p9
g3
((lp10
S'Method.KNOCKOUT'
p11
aS'Method.AGONIST'
p12
atp13
Rp14
sS'topics'
p15
g3
((lp16
tp17
Rp18
sS'receptors'
p19
g3
((lp20
S'5ht1a'
p21
aS'5ht2c'
p22
aS'5ht2a'
p23
atp24
Rp25
sS'regions'
p26
g3
((lp27
S"(94, u'(?i)\\\\b(dorsals|dorsal)(-|\\\\s+)?(raphes|raphe)(-|\\\\s+)?(nuclei|nucleus)\\\\b')"
p28
aS"(96, u'(?i)\\\\b(ventrals|ventral)(-|\\\\s+)?(tegmentals|tegmental)(-|\\\\s+)?(areas|area)\\\\b')"
p29
aS"(254, u'(?i)\\\\b(prefrontals|prefrontal)(-|\\\\s+)?(cortexes|cortex)\\\\b')"
p30
aS"(255, u'(?i)\\\\b(pres|pre)(-|\\\\s+)?(frontals|frontal)(-|\\\\s+)?(cortexes|cortex)\\\\b')"
p31
aS"(318, u'(?i)\\\\b(raphes|raphe)(-|\\\\s+)?(nuclei|nucleus)\\\\b')"
p32
atp33
Rp34
sS'year'
p35
V2007
p36
sS'agonists'
p37
g3
((lp38
S"(175, u'\\\\bdoi')"
p39
aS"(223, u'\\\\baripiprazole')"
p40
aS"(43, u'\\\\bhaloperidol')"
p41
atp42
Rp43
sS'species'
p44
g3
((lp45
S"(5799, u'(?i)\\\\b(rodents|rodent)\\\\b')"
p46
aS"(6753, u'(?i)\\\\b(da|das)\\\\b')"
p47
aS"(163, u'(?i)\\\\b(mice|mouse)\\\\b')"
p48
aS"(5958, u'(?i)\\\\b(rats|rat)\\\\b')"
p49
atp50
Rp51
sb.