(ifile_types
ParseObject
p0
(dp1
S'methods'
p2
c__builtin__
set
p3
((lp4
S'Method.ANTAGONIST'
p5
atp6
Rp7
sS'topics'
p8
g3
((lp9
S"(23, u'\\\\bantipsychotic')"
p10
atp11
Rp12
sS'receptors'
p13
g3
((lp14
(S'5ht2c'
p15
I78
I86
tp16
a(S'5ht2b'
p17
I78
I84
tp18
a(S'5ht2c'
p19
I365
I373
tp20
a(S'5ht2b'
p21
I365
I371
tp22
atp23
Rp24
sS'raw_text_methods'
p25
g3
((lp26
S"(40, u'\\\\bclozapine')"
p27
aS"(12, u'\\\\bantagonist')"
p28
atp29
Rp30
sS'regions'
p31
g3
((lp32
S"(15, u'(?i)\\\\b(substantias|substantia)(-|\\\\s+)?(nigras|nigra)\\\\b')"
p33
atp34
Rp35
sS'year'
p36
V2006
p37
sS'species'
p38
g3
((lp39
S"(3, u'(?i)\\\\b(males|male)\\\\b')"
p40
aS"(4, u'(?i)\\\\b(rats|rat)\\\\b')"
p41
atp42
Rp43
sb.