(ifile_types
ParseObject
p0
(dp1
S'methods'
p2
c__builtin__
set
p3
((lp4
S'Method.ANTAGONIST'
p5
aS'Method.AGONIST'
p6
atp7
Rp8
sS'topics'
p9
g3
((lp10
tp11
Rp12
sS'receptors'
p13
g3
((lp14
(S'5ht1'
p15
I1263
I1268
tp16
a(S'5ht2'
p17
I1313
I1318
tp18
a(S'5ht3'
p19
I2341
I2346
tp20
a(S'5ht1'
p21
I1718
I1723
tp22
a(S'5ht3'
p23
I1175
I1180
tp24
a(S'5ht2'
p25
I2247
I2252
tp26
a(S'5ht3'
p27
I1110
I1115
tp28
a(S'5ht3'
p29
I1032
I1037
tp30
a(S'5ht2'
p31
I1269
I1274
tp32
atp33
Rp34
sS'raw_text_methods'
p35
g3
((lp36
S"(53, u'\\\\bketanserin')"
p37
aS"(17, u'\\\\bpet')"
p38
aS"(23, u'\\\\bmdl')"
p39
aS"(26, u'\\\\bmdl72222')"
p40
aS"(13, u'\\\\bagonist')"
p41
aS"(30, u'\\\\b2methyl')"
p42
aS"(46, u'\\\\bspiperone')"
p43
aS"(12, u'\\\\bantagonist')"
p44
atp45
Rp46
sS'regions'
p47
g3
((lp48
tp49
Rp50
sS'year'
p51
V1999
p52
sS'species'
p53
g3
((lp54
S"(4, u'(?i)\\\\b(rats|rat)\\\\b')"
p55
atp56
Rp57
sb.