(ifile_types
ParseObject
p0
(dp1
S'antagonists'
p2
c__builtin__
set
p3
((lp4
tp5
Rp6
sS'methods'
p7
g3
((lp8
tp9
Rp10
sS'topics'
p11
g3
((lp12
tp13
Rp14
sS'receptors'
p15
g3
((lp16
S'5ht2c'
p17
aS'5ht5a'
p18
atp19
Rp20
sS'regions'
p21
g3
((lp22
tp23
Rp24
sS'year'
p25
V2004
p26
sS'agonists'
p27
g3
((lp28
tp29
Rp30
sS'species'
p31
g3
((lp32
S"(5958, u'(?i)(rats|rat)')"
p33
aS"(479, u'(?i)(lings|ling)')"
p34
aS"(468, u'(?i)(oxen|ox)')"
p35
aS"(3152, u'(?i)(layers|layer)')"
p36
aS"(4979, u'(?i)(cats|cat)')"
p37
aS"(6356, u'(?i)(ais|ai)')"
p38
aS"(6642, u'(?i)(lions|lion)')"
p39
aS"(1628, u'(?i)(cod|cod)')"
p40
atp41
Rp42
sb.