(ifile_types
ParseObject
p0
(dp1
S'antagonists'
p2
c__builtin__
set
p3
((lp4
S"(32, u'\\\\bway ?100635')"
p5
atp6
Rp7
sS'methods'
p8
g3
((lp9
S'Method.ANTAGONIST'
p10
aS'Method.AGONIST'
p11
atp12
Rp13
sS'topics'
p14
g3
((lp15
S"(8, u'\\\\blearning')"
p16
aS"(19, u'\\\\bimpulsiv')"
p17
aS"(7, u'\\\\bmemory')"
p18
atp19
Rp20
sS'receptors'
p21
g3
((lp22
S'5ht1a'
p23
atp24
Rp25
sS'regions'
p26
g3
((lp27
S"(34, u'(?i)(pon|pons)')"
p28
atp29
Rp30
sS'year'
p31
V2000
p32
sS'agonists'
p33
g3
((lp34
S"(92, u'\\\\b8 ?oh ?dpat')"
p35
aS"(155, u'\\\\bmem')"
p36
atp37
Rp38
sS'species'
p39
g3
((lp40
S"(5958, u'(?i)(rats|rat)')"
p41
aS"(4979, u'(?i)(cats|cat)')"
p42
aS"(4163, u'(?i)(ermines|ermine)')"
p43
aS"(468, u'(?i)(oxen|ox)')"
p44
aS"(1055, u'(?i)(men|man)')"
p45
aS"(6249, u'(?i)(ants|ant)')"
p46
aS"(1349, u'(?i)(rams|ram)')"
p47
aS"(6215, u'(?i)(racers|racer)')"
p48
aS"(853, u'(?i)(minas|mina)')"
p49
aS"(3550, u'(?i)(anis|ani)')"
p50
aS"(7094, u'(?i)(curs|cur)')"
p51
aS"(1961, u'(?i)(pens|pen)')"
p52
aS"(3812, u'(?i)(studs|stud)')"
p53
aS"(6356, u'(?i)(ais|ai)')"
p54
atp55
Rp56
sb.