(ifile_types
ParseObject
p0
(dp1
S'methods'
p2
c__builtin__
set
p3
((lp4
S'Method.ANTAGONIST'
p5
aS'Method.AGONIST'
p6
atp7
Rp8
sS'topics'
p9
g3
((lp10
tp11
Rp12
sS'receptors'
p13
g3
((lp14
(S'5ht1a'
p15
I1762
I1768
tp16
a(S'5ht1a'
p17
I1225
I1231
tp18
a(S'5ht1a'
p19
I1233
I1239
tp20
a(S'5ht2'
p21
I1184
I1189
tp22
a(S'5ht1a'
p23
I714
I720
tp24
a(S'5ht1'
p25
I900
I905
tp26
a(S'5ht1a'
p27
I278
I284
tp28
a(S'5ht3'
p29
I1203
I1208
tp30
a(S'5ht1a'
p31
I1442
I1448
tp32
a(S'5ht3'
p33
I997
I1002
tp34
a(S'5ht1a'
p35
I142
I148
tp36
a(S'5ht1a'
p37
I1572
I1578
tp38
a(S'5ht1a'
p39
I1927
I1933
tp40
atp41
Rp42
sS'raw_text_methods'
p43
g3
((lp44
S"(13, u'\\\\bagonist')"
p45
aS"(15, u'\\\\b8ohdpat')"
p46
aS"(23, u'\\\\bmdl')"
p47
aS"(53, u'\\\\bketanserin')"
p48
aS"(12, u'\\\\bantagonist')"
p49
atp50
Rp51
sS'regions'
p52
g3
((lp53
S"(11, u'(?i)\\\\b(cerebrals|cerebral)\\\\b')"
p54
atp55
Rp56
sS'year'
p57
V1994
p58
sS'species'
p59
g3
((lp60
tp61
Rp62
sb.