(ifile_types
ParseObject
p0
(dp1
S'methods'
p2
c__builtin__
set
p3
((lp4
S'Method.STAINING'
p5
aS'Method.ANTAGONIST'
p6
atp7
Rp8
sS'topics'
p9
g3
((lp10
tp11
Rp12
sS'receptors'
p13
g3
((lp14
(S'5ht2'
p15
I924
I928
tp16
a(S'5ht3'
p17
I875
I879
tp18
a(S'5ht1'
p19
I919
I923
tp20
atp21
Rp22
sS'raw_text_methods'
p23
g3
((lp24
S"(41, u'\\\\bhaloperidol')"
p25
aS"(23, u'\\\\bmdl')"
p26
aS"(26, u'\\\\bmdl72222')"
p27
aS"(3, u'\\\\bimmunoreactiv')"
p28
aS"(12, u'\\\\bantagonist')"
p29
aS"(45, u'\\\\bmetergoline')"
p30
atp31
Rp32
sS'regions'
p33
g3
((lp34
S"(15, u'(?i)\\\\b(substantias|substantia)(-|\\\\s+)?(nigras|nigra)\\\\b')"
p35
atp36
Rp37
sS'year'
p38
V1995
p39
sS'species'
p40
g3
((lp41
S"(4, u'(?i)\\\\b(rats|rat)\\\\b')"
p42
atp43
Rp44
sb.