(ifile_types
ParseObject
p0
(dp1
S'antagonists'
p2
c__builtin__
set
p3
((lp4
S"(33, u'\\\\byohimbine')"
p5
atp6
Rp7
sS'methods'
p8
g3
((lp9
S'Method.ANTAGONIST'
p10
aS'Method.AGONIST'
p11
atp12
Rp13
sS'topics'
p14
g3
((lp15
S"(9, u'\\\\bdepress')"
p16
atp17
Rp18
sS'receptors'
p19
g3
((lp20
S'5ht1d'
p21
atp22
Rp23
sS'regions'
p24
g3
((lp25
tp26
Rp27
sS'year'
p28
V1996
p29
sS'agonists'
p30
g3
((lp31
S"(96, u'\\\\bsumatriptan')"
p32
aS"(163, u'\\\\bfenfluramine')"
p33
aS"(11, u'\\\\bamphetamine')"
p34
aS"(82, u'\\\\byohimbine')"
p35
atp36
Rp37
sS'species'
p38
g3
((lp39
S"(3051, u'(?i)\\\\b(pigs|pig)\\\\b')"
p40
aS"(4480, u'(?i)\\\\b(guineas|guinea)(-|\\\\s+)?(pigs|pig)\\\\b')"
p41
aS"(3062, u'(?i)\\\\b(guineas|guinea)\\\\b')"
p42
atp43
Rp44
sb.