(ifile_types
ParseObject
p0
(dp1
S'antagonists'
p2
c__builtin__
set
p3
((lp4
tp5
Rp6
sS'methods'
p7
g3
((lp8
S'Method.ANTAGONIST'
p9
atp10
Rp11
sS'topics'
p12
g3
((lp13
tp14
Rp15
sS'receptors'
p16
g3
((lp17
tp18
Rp19
sS'regions'
p20
g3
((lp21
S"(219, u'(?i)(basals|basal)(-|\\\\s+)?(ganglias|ganglia)')"
p22
aS"(126, u'(?i)(thalamuses|thalamus)')"
p23
atp24
Rp25
sS'year'
p26
V2008
p27
sS'agonists'
p28
g3
((lp29
tp30
Rp31
sS'species'
p32
g3
((lp33
S"(2323, u'(?i)(bees|bee)')"
p34
aS"(4624, u'(?i)(apes|ape)')"
p35
aS"(2568, u'(?i)(hens|hen)')"
p36
aS"(6753, u'(?i)(da|das)')"
p37
aS"(5686, u'(?i)(foxes|fox)')"
p38
aS"(6682, u'(?i)(tera|teras)')"
p39
aS"(468, u'(?i)(oxen|ox)')"
p40
aS"(1055, u'(?i)(men|man)')"
p41
aS"(6249, u'(?i)(ants|ant)')"
p42
aS"(6580, u'(?i)(dams|dam)')"
p43
aS"(5743, u'(?i)(bots|bot)')"
p44
aS"(5958, u'(?i)(rats|rat)')"
p45
aS"(1057, u'(?i)(humans|human)')"
p46
aS"(3196, u'(?i)(human|humans)')"
p47
aS"(3812, u'(?i)(studs|stud)')"
p48
aS"(3048, u'(?i)(hogs|hog)')"
p49
aS"(6391, u'(?i)(asses|ass)')"
p50
aS"(2809, u'(?i)(toms|tom)')"
p51
aS"(6356, u'(?i)(ais|ai)')"
p52
aS"(3426, u'(?i)(hares|hare)')"
p53
atp54
Rp55
sb.