(ifile_types
ParseObject
p0
(dp1
S'antagonists'
p2
c__builtin__
set
p3
((lp4
S"(21, u'\\\\bpindolol')"
p5
atp6
Rp7
sS'methods'
p8
g3
((lp9
S'Method.PET'
p10
atp11
Rp12
sS'topics'
p13
g3
((lp14
tp15
Rp16
sS'receptors'
p17
g3
((lp18
S'5ht1b'
p19
aS'5ht1a'
p20
aS'5ht5'
p21
atp22
Rp23
sS'regions'
p24
g3
((lp25
S"(302, u'(?i)(corpuses|corpus)(-|\\\\s+)?(callosums|callosum)')"
p26
aS"(293, u'(?i)(posteriors|posterior)(-|\\\\s+)?(cingulates|cingulate)')"
p27
aS"(267, u'(?i)(precuneuses|precuneus)')"
p28
aS"(174, u'(?i)(posteriors|posterior)')"
p29
aS"(126, u'(?i)(thalamuses|thalamus)')"
p30
aS"(220, u'(?i)(striatums|striatum)')"
p31
aS"(276, u'(?i)(cuneuses|cuneus)')"
p32
atp33
Rp34
sS'year'
p35
V1997
p36
sS'agonists'
p37
g3
((lp38
tp39
Rp40
sS'species'
p41
g3
((lp42
S"(1070, u'(?i)(pets|pet)')"
p43
aS"(5626, u'(?i)(posters|poster)')"
p44
aS"(5958, u'(?i)(rats|rat)')"
p45
aS"(1055, u'(?i)(men|man)')"
p46
aS"(7094, u'(?i)(curs|cur)')"
p47
aS"(2665, u'(?i)(rays|ray)')"
p48
aS"(1054, u'(?i)(homoes|homo)')"
p49
aS"(3812, u'(?i)(studs|stud)')"
p50
aS"(1057, u'(?i)(humans|human)')"
p51
aS"(3592, u'(?i)(ravens|raven)')"
p52
aS"(3196, u'(?i)(human|humans)')"
p53
aS"(4177, u'(?i)(grays|gray)')"
p54
aS"(6356, u'(?i)(ais|ai)')"
p55
aS"(7127, u'(?i)(monitors|monitor)')"
p56
atp57
Rp58
sb.