(ifile_types
ParseObject
p0
(dp1
S'methods'
p2
c__builtin__
set
p3
((lp4
S'Method.ANTAGONIST'
p5
atp6
Rp7
sS'topics'
p8
g3
((lp9
S"(26, u'\\\\bbehav')"
p10
aS"(33, u'\\\\blocomot')"
p11
atp12
Rp13
sS'receptors'
p14
g3
((lp15
(S'5ht7'
p16
I285
I290
tp17
a(S'5ht7'
p18
I378
I383
tp19
a(S'5ht7'
p20
I1713
I1718
tp21
a(S'5ht7'
p22
I41
I46
tp23
a(S'5ht5'
p24
I253
I263
tp25
atp26
Rp27
sS'raw_text_methods'
p28
g3
((lp29
S"(12, u'\\\\bantagonist')"
p30
atp31
Rp32
sS'regions'
p33
g3
((lp34
S"(12, u'(?i)\\\\b(amygdalas|amygdala)\\\\b')"
p35
atp36
Rp37
sS'year'
p38
V2005
p39
sS'species'
p40
g3
((lp41
S"(1, u'(?i)\\\\b(mice|mouse)\\\\b')"
p42
aS"(5, u'(?i)\\\\b(mices|mice)\\\\b')"
p43
atp44
Rp45
sb.