(ifile_types
ParseObject
p0
(dp1
S'antagonists'
p2
c__builtin__
set
p3
((lp4
tp5
Rp6
sS'methods'
p7
g3
((lp8
S'Method.AGONIST'
p9
atp10
Rp11
sS'topics'
p12
g3
((lp13
tp14
Rp15
sS'receptors'
p16
g3
((lp17
S'5ht1a'
p18
aS'5ht3'
p19
aS'5ht2'
p20
aS'5ht1'
p21
atp22
Rp23
sS'regions'
p24
g3
((lp25
tp26
Rp27
sS'year'
p28
V1991
p29
sS'agonists'
p30
g3
((lp31
S"(195, u'\\\\bphenylbiguanide')"
p32
aS"(92, u'\\\\b8 ?oh ?dpat')"
p33
aS"(44, u'\\\\bflesinoxan')"
p34
aS"(33, u'\\\\bdoi')"
p35
atp36
Rp37
sS'species'
p38
g3
((lp39
S"(2568, u'(?i)(hens|hen)')"
p40
aS"(3137, u'(?i)(iguanids|iguanid)')"
p41
aS"(5958, u'(?i)(rats|rat)')"
p42
aS"(6249, u'(?i)(ants|ant)')"
p43
aS"(468, u'(?i)(oxen|ox)')"
p44
aS"(3726, u'(?i)(mates|mate)')"
p45
aS"(3550, u'(?i)(anis|ani)')"
p46
aS"(3522, u'(?i)(tetras|tetra)')"
p47
aS"(1961, u'(?i)(pens|pen)')"
p48
aS"(6878, u'(?i)(guans|guan)')"
p49
atp50
Rp51
sb.