(ifile_types
ParseObject
p0
(dp1
S'methods'
p2
c__builtin__
set
p3
((lp4
S'Method.ANTAGONIST'
p5
aS'Method.AGONIST'
p6
atp7
Rp8
sS'topics'
p9
g3
((lp10
S"(26, u'\\\\bbehav')"
p11
atp12
Rp13
sS'receptors'
p14
g3
((lp15
(S'5ht2a'
p16
I452
I458
tp17
a(S'5ht2a'
p18
I1700
I1706
tp19
a(S'5ht1a'
p20
I1667
I1673
tp21
a(S'5ht2a'
p22
I153
I159
tp23
a(S'5ht1a'
p24
I1388
I1394
tp25
a(S'5ht2a'
p26
I1150
I1156
tp27
a(S'5ht1a'
p28
I1437
I1443
tp29
a(S'5ht2a'
p30
I890
I896
tp31
a(S'5ht1a'
p32
I142
I148
tp33
a(S'5ht2a'
p34
I2236
I2242
tp35
a(S'5ht2a'
p36
I1793
I1799
tp37
a(S'5ht1a'
p38
I699
I705
tp39
a(S'5ht1a'
p40
I754
I760
tp41
a(S'5ht1a'
p42
I445
I451
tp43
a(S'5ht1a'
p44
I1567
I1573
tp45
a(S'5ht1a'
p46
I1016
I1022
tp47
a(S'5ht1a'
p48
I2229
I2235
tp49
a(S'5ht1a'
p50
I1291
I1297
tp51
atp52
Rp53
sS'raw_text_methods'
p54
g3
((lp55
S"(13, u'\\\\bagonist')"
p56
aS"(15, u'\\\\b8ohdpat')"
p57
aS"(49, u'\\\\bdoi')"
p58
aS"(12, u'\\\\bantagonist')"
p59
atp60
Rp61
sS'regions'
p62
g3
((lp63
S"(4, u'(?i)\\\\b(presynaptics|presynaptic)\\\\b')"
p64
aS"(3, u'(?i)\\\\b(postsynaptics|postsynaptic)\\\\b')"
p65
atp66
Rp67
sS'year'
p68
V2001
p69
sS'species'
p70
g3
((lp71
S"(1, u'(?i)\\\\b(mice|mouse)\\\\b')"
p72
aS"(5, u'(?i)\\\\b(mices|mice)\\\\b')"
p73
aS"(4, u'(?i)\\\\b(rats|rat)\\\\b')"
p74
atp75
Rp76
sb.