(ifile_types
ParseObject
p0
(dp1
S'methods'
p2
c__builtin__
set
p3
((lp4
S'Method.STIMULATION'
p5
aS'Method.ANTAGONIST'
p6
aS'Method.AGONIST'
p7
atp8
Rp9
sS'topics'
p10
g3
((lp11
tp12
Rp13
sS'receptors'
p14
g3
((lp15
(S'5ht1b'
p16
I59
I65
tp17
a(S'5ht1a'
p18
I51
I57
tp19
a(S'5ht1d'
p20
I1881
I1887
tp21
a(S'5ht1a'
p22
I805
I811
tp23
a(S'5ht1b'
p24
I357
I363
tp25
a(S'5ht1d'
p26
I627
I633
tp27
a(S'5ht1a'
p28
I608
I614
tp29
a(S'5ht1b'
p30
I1870
I1876
tp31
a(S'5ht1d'
p32
I1519
I1525
tp33
a(S'5ht1b'
p34
I616
I622
tp35
a(S'5ht1b'
p36
I816
I822
tp37
a(S'5ht1d'
p38
I368
I374
tp39
a(S'5ht1a'
p40
I349
I355
tp41
a(S'5ht1a'
p42
I1862
I1868
tp43
a(S'5ht1d'
p44
I70
I76
tp45
a(S'5ht1b'
p46
I1508
I1514
tp47
atp48
Rp49
sS'raw_text_methods'
p50
g3
((lp51
S"(13, u'\\\\bagonist')"
p52
aS"(15, u'\\\\b8ohdpat')"
p53
aS"(6, u'\\\\bgr127935')"
p54
aS"(47, u'\\\\bsumatriptan')"
p55
aS"(12, u'\\\\bantagonist')"
p56
atp57
Rp58
sS'regions'
p59
g3
((lp60
tp61
Rp62
sS'year'
p63
V2001
p64
sS'species'
p65
g3
((lp66
S"(7, u'(?i)\\\\b(guineas|guinea)(-|\\\\s+)?(pigs|pig)\\\\b')"
p67
aS"(4, u'(?i)\\\\b(rats|rat)\\\\b')"
p68
atp69
Rp70
sb.