(ifile_types
ParseObject
p0
(dp1
S'antagonists'
p2
c__builtin__
set
p3
((lp4
tp5
Rp6
sS'methods'
p7
g3
((lp8
tp9
Rp10
sS'topics'
p11
g3
((lp12
S"(16, u'\\\\bfeed')"
p13
atp14
Rp15
sS'receptors'
p16
g3
((lp17
S'5ht1b'
p18
aS'5ht2c'
p19
aS'5ht2a'
p20
atp21
Rp22
sS'regions'
p23
g3
((lp24
S"(362, u'(?i)\\\\b(brains|brain)(-|\\\\s+)?(stems|stem)\\\\b')"
p25
atp26
Rp27
sS'year'
p28
V2003
p29
sS'agonists'
p30
g3
((lp31
tp32
Rp33
sS'species'
p34
g3
((lp35
tp36
Rp37
sb.