(ifile_types
ParseObject
p0
(dp1
S'antagonists'
p2
c__builtin__
set
p3
((lp4
S"(110, u'\\\\bclozapine')"
p5
aS"(113, u'\\\\brisperidone')"
p6
aS"(111, u'\\\\bolanzapine')"
p7
aS"(119, u'\\\\britanserin')"
p8
aS"(35, u'\\\\baripiprazole')"
p9
aS"(91, u'\\\\bfluoxetine')"
p10
aS"(73, u'\\\\bamisulpride')"
p11
aS"(58, u'\\\\bhaloperidol')"
p12
atp13
Rp14
sS'methods'
p15
g3
((lp16
S'Method.ANTAGONIST'
p17
aS'Method.AGONIST'
p18
atp19
Rp20
sS'topics'
p21
g3
((lp22
S"(10, u'\\\\banxiety')"
p23
atp24
Rp25
sS'receptors'
p26
g3
((lp27
S'5ht1a'
p28
aS'5ht2b'
p29
aS'5ht2c'
p30
aS'5ht2'
p31
aS'5ht2a'
p32
atp33
Rp34
sS'regions'
p35
g3
((lp36
tp37
Rp38
sS'year'
p39
V2008
p40
sS'agonists'
p41
g3
((lp42
S"(71, u'\\\\bssr ?181507')"
p43
aS"(57, u'\\\\bolanzapine')"
p44
aS"(69, u'\\\\bsarizotan')"
p45
aS"(43, u'\\\\bhaloperidol')"
p46
aS"(223, u'\\\\baripiprazole')"
p47
aS"(23, u'\\\\bclozapine')"
p48
aS"(85, u'\\\\b8 ?oh ?dpat')"
p49
atp50
Rp51
sS'species'
p52
g3
((lp53
S"(5967, u'(?i)\\\\b(males|male)\\\\b')"
p54
aS"(465, u'(?i)\\\\b(bruins|bruin)\\\\b')"
p55
aS"(163, u'(?i)\\\\b(mice|mouse)\\\\b')"
p56
atp57
Rp58
sb.