(ifile_types
ParseObject
p0
(dp1
S'antagonists'
p2
c__builtin__
set
p3
((lp4
S"(110, u'\\\\bclozapine')"
p5
aS"(58, u'\\\\bhaloperidol')"
p6
atp7
Rp8
sS'methods'
p9
g3
((lp10
S'Method.AGONIST'
p11
aS'Method.IMMUNOHISTOCHEMISTRY'
p12
atp13
Rp14
sS'topics'
p15
g3
((lp16
tp17
Rp18
sS'receptors'
p19
g3
((lp20
S'5ht2c'
p21
aS'5ht2'
p22
aS'5ht2a'
p23
atp24
Rp25
sS'regions'
p26
g3
((lp27
S"(220, u'(?i)\\\\b(striatums|striatum)\\\\b')"
p28
aS"(226, u'(?i)\\\\b(nuclei|nucleus)(-|\\\\s+)?(accumben|accumbens)\\\\b')"
p29
atp30
Rp31
sS'year'
p32
V2010
p33
sS'agonists'
p34
g3
((lp35
S"(175, u'\\\\bdoi')"
p36
aS"(23, u'\\\\bclozapine')"
p37
aS"(43, u'\\\\bhaloperidol')"
p38
atp39
Rp40
sS'species'
p41
g3
((lp42
S"(5958, u'(?i)\\\\b(rats|rat)\\\\b')"
p43
aS"(3722, u'(?i)\\\\b(pups|pup)\\\\b')"
p44
aS"(6125, u'(?i)\\\\b(females|female)\\\\b')"
p45
atp46
Rp47
sb.