(ifile_types
ParseObject
p0
(dp1
S'methods'
p2
c__builtin__
set
p3
((lp4
S'Method.ANTAGONIST'
p5
aS'Method.AGONIST'
p6
atp7
Rp8
sS'topics'
p9
g3
((lp10
S"(12, u'\\\\bsleep')"
p11
atp12
Rp13
sS'receptors'
p14
g3
((lp15
(S'5ht1b'
p16
I322
I330
tp17
a(S'5ht1a'
p18
I1138
I1144
tp19
a(S'5ht1a'
p20
I1293
I1299
tp21
a(S'5ht1a'
p22
I322
I328
tp23
a(S'5ht1a'
p24
I60
I66
tp25
atp26
Rp27
sS'raw_text_methods'
p28
g3
((lp29
S"(13, u'\\\\bagonist')"
p30
aS"(21, u'\\\\bipsapirone')"
p31
aS"(12, u'\\\\bantagonist')"
p32
atp33
Rp34
sS'regions'
p35
g3
((lp36
tp37
Rp38
sS'year'
p39
V1997
p40
sS'species'
p41
g3
((lp42
tp43
Rp44
sb.