(ifile_types
ParseObject
p0
(dp1
S'antagonists'
p2
c__builtin__
set
p3
((lp4
S"(58, u'\\\\bhaloperidol')"
p5
atp6
Rp7
sS'methods'
p8
g3
((lp9
S'Method.ANTAGONIST'
p10
aS'Method.AGONIST'
p11
atp12
Rp13
sS'topics'
p14
g3
((lp15
S"(9, u'\\\\bdepress')"
p16
atp17
Rp18
sS'receptors'
p19
g3
((lp20
S'5ht1a'
p21
atp22
Rp23
sS'regions'
p24
g3
((lp25
S"(103, u'(?i)\\\\b(substantias|substantia)(-|\\\\s+)?(nigras|nigra)\\\\b')"
p26
aS"(104, u'(?i)\\\\b(par|pars)(-|\\\\s+)?(compactas|compacta)\\\\b')"
p27
atp28
Rp29
sS'year'
p30
V1994
p31
sS'agonists'
p32
g3
((lp33
S"(20, u'\\\\bbuspirone')"
p34
aS"(45, u'\\\\bipsapirone')"
p35
aS"(43, u'\\\\bhaloperidol')"
p36
aS"(11, u'\\\\bamphetamine')"
p37
aS"(42, u'\\\\bgepirone')"
p38
atp39
Rp40
sS'species'
p41
g3
((lp42
S"(6753, u'(?i)\\\\b(da|das)\\\\b')"
p43
atp44
Rp45
sb.