(ifile_types
ParseObject
p0
(dp1
S'antagonists'
p2
c__builtin__
set
p3
((lp4
S"(32, u'\\\\bway ?100635')"
p5
aS"(113, u'\\\\bclomipramine')"
p6
aS"(102, u'\\\\bfluoxetine')"
p7
atp8
Rp9
sS'methods'
p10
g3
((lp11
S'Method.ANTAGONIST'
p12
atp13
Rp14
sS'topics'
p15
g3
((lp16
tp17
Rp18
sS'receptors'
p19
g3
((lp20
S'5ht1a'
p21
aS'5ht5'
p22
atp23
Rp24
sS'regions'
p25
g3
((lp26
tp27
Rp28
sS'year'
p29
V1996
p30
sS'agonists'
p31
g3
((lp32
tp33
Rp34
sS'species'
p35
g3
((lp36
S"(6249, u'(?i)(ants|ant)')"
p37
aS"(5958, u'(?i)(rats|rat)')"
p38
aS"(6753, u'(?i)(da|das)')"
p39
aS"(468, u'(?i)(oxen|ox)')"
p40
aS"(1349, u'(?i)(rams|ram)')"
p41
aS"(4979, u'(?i)(cats|cat)')"
p42
aS"(2568, u'(?i)(hens|hen)')"
p43
aS"(6356, u'(?i)(ais|ai)')"
p44
atp45
Rp46
sb.