(ifile_types
ParseObject
p0
(dp1
S'antagonists'
p2
c__builtin__
set
p3
((lp4
S"(26, u'\\\\bspiperone')"
p5
aS"(76, u'\\\\blisuride')"
p6
aS"(119, u'\\\\britanserin')"
p7
atp8
Rp9
sS'methods'
p10
g3
((lp11
S'Method.ANTAGONIST'
p12
aS'Method.AGONIST'
p13
atp14
Rp15
sS'topics'
p16
g3
((lp17
S"(15, u'\\\\bschizophreni')"
p18
atp19
Rp20
sS'receptors'
p21
g3
((lp22
S'5ht2'
p23
aS'5ht2a'
p24
atp25
Rp26
sS'regions'
p27
g3
((lp28
S"(291, u'(?i)\\\\b(cingulates|cingulate)(-|\\\\s+)?(cortexes|cortex)\\\\b')"
p29
atp30
Rp31
sS'year'
p32
V2000
p33
sS'agonists'
p34
g3
((lp35
S"(137, u'\\\\blisuride')"
p36
aS"(175, u'\\\\bdoi')"
p37
aS"(157, u'\\\\bdmt')"
p38
aS"(176, u'\\\\bdom')"
p39
aS"(158, u'\\\\blsd')"
p40
atp41
Rp42
sS'species'
p43
g3
((lp44
S"(6753, u'(?i)\\\\b(da|das)\\\\b')"
p45
aS"(1057, u'(?i)\\\\b(humans|human)\\\\b')"
p46
aS"(5958, u'(?i)\\\\b(rats|rat)\\\\b')"
p47
aS"(3196, u'(?i)\\\\b(human|humans)\\\\b')"
p48
atp49
Rp50
sb.