(ifile_types
ParseObject
p0
(dp1
S'methods'
p2
c__builtin__
set
p3
((lp4
S'Method.ANTAGONIST'
p5
aS'Method.AGONIST'
p6
atp7
Rp8
sS'topics'
p9
g3
((lp10
S"(5, u'\\\\btherap')"
p11
atp12
Rp13
sS'receptors'
p14
g3
((lp15
(S'5ht2c'
p16
I43
I49
tp17
a(S'5ht2c'
p18
I1085
I1091
tp19
a(S'5ht2c'
p20
I183
I189
tp21
a(S'5ht2c'
p22
I683
I689
tp23
a(S'5ht2c'
p24
I272
I278
tp25
a(S'5ht2c'
p26
I757
I763
tp27
atp28
Rp29
sS'raw_text_methods'
p30
g3
((lp31
S"(13, u'\\\\bagonist')"
p32
aS"(12, u'\\\\bantagonist')"
p33
atp34
Rp35
sS'regions'
p36
g3
((lp37
S"(11, u'(?i)\\\\b(cerebrals|cerebral)\\\\b')"
p38
atp39
Rp40
sS'year'
p41
V2000
p42
sS'species'
p43
g3
((lp44
S"(4, u'(?i)\\\\b(rats|rat)\\\\b')"
p45
atp46
Rp47
sb.