(ifile_types
ParseObject
p0
(dp1
S'antagonists'
p2
c__builtin__
set
p3
((lp4
tp5
Rp6
sS'methods'
p7
g3
((lp8
S'Method.AGONIST'
p9
atp10
Rp11
sS'topics'
p12
g3
((lp13
S"(16, u'\\\\bfeed')"
p14
aS"(20, u'\\\\baggressi')"
p15
atp16
Rp17
sS'receptors'
p18
g3
((lp19
S'5ht2f'
p20
aS'5ht1b'
p21
aS'5ht1a'
p22
aS'5ht1f'
p23
aS'5ht2a'
p24
aS'5ht2'
p25
aS'5ht2c'
p26
atp27
Rp28
sS'regions'
p29
g3
((lp30
S"(254, u'(?i)\\\\b(prefrontals|prefrontal)(-|\\\\s+)?(cortexes|cortex)\\\\b')"
p31
aS"(255, u'(?i)\\\\b(pres|pre)(-|\\\\s+)?(frontals|frontal)(-|\\\\s+)?(cortexes|cortex)\\\\b')"
p32
atp33
Rp34
sS'year'
p35
V2011
p36
sS'agonists'
p37
g3
((lp38
tp39
Rp40
sS'species'
p41
g3
((lp42
S"(5799, u'(?i)\\\\b(rodents|rodent)\\\\b')"
p43
aS"(1057, u'(?i)\\\\b(humans|human)\\\\b')"
p44
aS"(3196, u'(?i)\\\\b(human|humans)\\\\b')"
p45
atp46
Rp47
sb.