(ifile_types
ParseObject
p0
(dp1
S'methods'
p2
c__builtin__
set
p3
((lp4
S'Method.ANTAGONIST'
p5
atp6
Rp7
sS'topics'
p8
g3
((lp9
S"(13, u'\\\\bantidepress')"
p10
aS"(2, u'\\\\bdisorder')"
p11
aS"(7, u'\\\\bdepressi')"
p12
aS"(33, u'\\\\blocomot')"
p13
aS"(5, u'\\\\btherap')"
p14
aS"(4, u'\\\\btreatment')"
p15
atp16
Rp17
sS'receptors'
p18
g3
((lp19
(S'5ht2c'
p20
I1384
I1392
tp21
a(S'5ht1a'
p22
I1834
I1840
tp23
a(S'5ht1a'
p24
I920
I926
tp25
a(S'5ht3'
p26
I1445
I1450
tp27
a(S'5ht1a'
p28
I79
I85
tp29
a(S'5ht2a'
p30
I1384
I1390
tp31
atp32
Rp33
sS'raw_text_methods'
p34
g3
((lp35
S"(53, u'\\\\bketanserin')"
p36
aS"(7, u'\\\\bpropranolol')"
p37
aS"(23, u'\\\\bmdl')"
p38
aS"(26, u'\\\\bmdl72222')"
p39
aS"(11, u'\\\\bfluoxetine')"
p40
aS"(4, u'\\\\bpcpa')"
p41
aS"(51, u'\\\\bway100635')"
p42
aS"(12, u'\\\\bantagonist')"
p43
atp44
Rp45
sS'regions'
p46
g3
((lp47
tp48
Rp49
sS'year'
p50
V2013
p51
sS'species'
p52
g3
((lp53
S"(1, u'(?i)\\\\b(mice|mouse)\\\\b')"
p54
aS"(5, u'(?i)\\\\b(mices|mice)\\\\b')"
p55
atp56
Rp57
sb.