(ifile_types
ParseObject
p0
(dp1
S'methods'
p2
c__builtin__
set
p3
((lp4
tp5
Rp6
sS'topics'
p7
g3
((lp8
S"(13, u'\\\\bantidepress')"
p9
aS"(9, u'\\\\bstress')"
p10
aS"(4, u'\\\\btreatment')"
p11
aS"(3, u'\\\\bclinical')"
p12
atp13
Rp14
sS'receptors'
p15
g3
((lp16
(S'5ht1'
p17
I2483
I2488
tp18
a(S'5ht1a'
p19
I1151
I1157
tp20
a(S'5ht1a'
p21
I2019
I2025
tp22
atp23
Rp24
sS'raw_text_methods'
p25
g3
((lp26
tp27
Rp28
sS'regions'
p29
g3
((lp30
tp31
Rp32
sS'year'
p33
V2001
p34
sS'species'
p35
g3
((lp36
S"(4, u'(?i)\\\\b(rats|rat)\\\\b')"
p37
atp38
Rp39
sb.