(ifile_types
ParseObject
p0
(dp1
S'antagonists'
p2
c__builtin__
set
p3
((lp4
S"(125, u'\\\\btropisetron')"
p5
atp6
Rp7
sS'methods'
p8
g3
((lp9
S'Method.ANTAGONIST'
p10
aS'Method.AGONIST'
p11
atp12
Rp13
sS'topics'
p14
g3
((lp15
tp16
Rp17
sS'receptors'
p18
g3
((lp19
S'5ht3'
p20
atp21
Rp22
sS'regions'
p23
g3
((lp24
S"(285, u'(?i)\\\\b(entorhinals|entorhinal)(-|\\\\s+)?(cortexes|cortex)\\\\b')"
p25
atp26
Rp27
sS'year'
p28
V1998
p29
sS'agonists'
p30
g3
((lp31
S"(149, u'\\\\bmem')"
p32
aS"(186, u'\\\\b2 ?methyl ?5 ?ht')"
p33
atp34
Rp35
sS'species'
p36
g3
((lp37
S"(5958, u'(?i)\\\\b(rats|rat)\\\\b')"
p38
aS"(3051, u'(?i)\\\\b(pigs|pig)\\\\b')"
p39
aS"(4480, u'(?i)\\\\b(guineas|guinea)(-|\\\\s+)?(pigs|pig)\\\\b')"
p40
aS"(3062, u'(?i)\\\\b(guineas|guinea)\\\\b')"
p41
atp42
Rp43
sb.