(ifile_types
ParseObject
p0
(dp1
S'antagonists'
p2
c__builtin__
set
p3
((lp4
S"(123, u'\\\\bgranisetron')"
p5
atp6
Rp7
sS'methods'
p8
g3
((lp9
S'Method.ANTAGONIST'
p10
atp11
Rp12
sS'topics'
p13
g3
((lp14
S"(32, u'\\\\bnausea')"
p15
aS"(28, u'\\\\bemesis')"
p16
atp17
Rp18
sS'receptors'
p19
g3
((lp20
S'5ht3'
p21
atp22
Rp23
sS'regions'
p24
g3
((lp25
tp26
Rp27
sS'year'
p28
V2014
p29
sS'agonists'
p30
g3
((lp31
tp32
Rp33
sS'species'
p34
g3
((lp35
S"(1057, u'(?i)\\\\b(humans|human)\\\\b')"
p36
aS"(5958, u'(?i)\\\\b(rats|rat)\\\\b')"
p37
aS"(3196, u'(?i)\\\\b(human|humans)\\\\b')"
p38
atp39
Rp40
sb.