(ifile_types
ParseObject
p0
(dp1
S'methods'
p2
c__builtin__
set
p3
((lp4
tp5
Rp6
sS'topics'
p7
g3
((lp8
S"(29, u'\\\\bhyperactiv')"
p9
aS"(33, u'\\\\blocomot')"
p10
aS"(2, u'\\\\bdisorder')"
p11
atp12
Rp13
sS'receptors'
p14
g3
((lp15
(S'5ht2a'
p16
I880
I885
tp17
a(S'5ht2'
p18
I880
I885
tp19
atp20
Rp21
sS'raw_text_methods'
p22
g3
((lp23
tp24
Rp25
sS'regions'
p26
g3
((lp27
tp28
Rp29
sS'year'
p30
V2012
p31
sS'species'
p32
g3
((lp33
S"(1, u'(?i)\\\\b(mice|mouse)\\\\b')"
p34
aS"(5, u'(?i)\\\\b(mices|mice)\\\\b')"
p35
aS"(3, u'(?i)\\\\b(males|male)\\\\b')"
p36
atp37
Rp38
sb.