(ifile_types
ParseObject
p0
(dp1
S'antagonists'
p2
c__builtin__
set
p3
((lp4
tp5
Rp6
sS'methods'
p7
g3
((lp8
tp9
Rp10
sS'topics'
p11
g3
((lp12
tp13
Rp14
sS'receptors'
p15
g3
((lp16
S'5ht1b'
p17
aS'5ht5'
p18
aS'5ht2'
p19
aS'5ht2a'
p20
atp21
Rp22
sS'regions'
p23
g3
((lp24
S"(248, u'(?i)(cerebrals|cerebral)(-|\\\\s+)?(cortexes|cortex)')"
p25
atp26
Rp27
sS'year'
p28
V1992
p29
sS'agonists'
p30
g3
((lp31
tp32
Rp33
sS'species'
p34
g3
((lp35
S"(3248, u'(?i)(offspring|offspring)')"
p36
aS"(6753, u'(?i)(da|das)')"
p37
aS"(1349, u'(?i)(rams|ram)')"
p38
aS"(6249, u'(?i)(ants|ant)')"
p39
aS"(6356, u'(?i)(ais|ai)')"
p40
aS"(5958, u'(?i)(rats|rat)')"
p41
aS"(3722, u'(?i)(pups|pup)')"
p42
atp43
Rp44
sb.