(ifile_types
ParseObject
p0
(dp1
S'methods'
p2
c__builtin__
set
p3
((lp4
S'Method.ANTAGONIST'
p5
aS'Method.AGONIST'
p6
atp7
Rp8
sS'topics'
p9
g3
((lp10
S"(4, u'\\\\btreatment')"
p11
atp12
Rp13
sS'receptors'
p14
g3
((lp15
(S'5ht1f'
p16
I1511
I1517
tp17
a(S'5ht1f'
p18
I266
I272
tp19
a(S'5ht1f'
p20
I1396
I1402
tp21
a(S'5ht1f'
p22
I367
I373
tp23
a(S'5ht1f'
p24
I40
I46
tp25
a(S'5ht1f'
p26
I602
I608
tp27
a(S'5ht1d'
p28
I1350
I1356
tp29
a(S'5ht1f'
p30
I1684
I1690
tp31
atp32
Rp33
sS'raw_text_methods'
p34
g3
((lp35
S"(13, u'\\\\bagonist')"
p36
aS"(6, u'\\\\bgr127935')"
p37
aS"(47, u'\\\\bsumatriptan')"
p38
aS"(12, u'\\\\bantagonist')"
p39
atp40
Rp41
sS'regions'
p42
g3
((lp43
tp44
Rp45
sS'year'
p46
V1998
p47
sS'species'
p48
g3
((lp49
S"(7, u'(?i)\\\\b(guineas|guinea)(-|\\\\s+)?(pigs|pig)\\\\b')"
p50
atp51
Rp52
sb.