(ifile_types
ParseObject
p0
(dp1
S'antagonists'
p2
c__builtin__
set
p3
((lp4
tp5
Rp6
sS'methods'
p7
g3
((lp8
S'Method.AGONIST'
p9
atp10
Rp11
sS'topics'
p12
g3
((lp13
S"(3, u'\\\\bsleep')"
p14
atp15
Rp16
sS'receptors'
p17
g3
((lp18
S'5ht1a'
p19
atp20
Rp21
sS'regions'
p22
g3
((lp23
S"(35, u'(?i)(pontines|pontine)(-|\\\\s+)?(nuclei|nucleus)')"
p24
aS"(321, u'(?i)(mesopontines|mesopontine)(-|\\\\s+)?(nuclei|nucleus)')"
p25
aS"(50, u'(?i)(pedunculopontines|pedunculopontine)(-|\\\\s+)?(nuclei|nucleus)')"
p26
aS"(90, u'(?i)(tegmentums|tegmentum)')"
p27
aS"(34, u'(?i)(pon|pons)')"
p28
atp29
Rp30
sS'year'
p31
V1998
p32
sS'agonists'
p33
g3
((lp34
S"(92, u'\\\\b8 ?oh ?dpat')"
p35
atp36
Rp37
sS'species'
p38
g3
((lp39
S"(4404, u'(?i)(duns|dun)')"
p40
aS"(5176, u'(?i)(tegs|teg)')"
p41
aS"(4979, u'(?i)(cats|cat)')"
p42
aS"(6753, u'(?i)(da|das)')"
p43
aS"(468, u'(?i)(oxen|ox)')"
p44
aS"(1055, u'(?i)(men|man)')"
p45
aS"(2334, u'(?i)(eels|eel)')"
p46
aS"(3812, u'(?i)(studs|stud)')"
p47
aS"(3550, u'(?i)(anis|ani)')"
p48
aS"(3522, u'(?i)(tetras|tetra)')"
p49
aS"(1414, u'(?i)(chars|char)')"
p50
aS"(5743, u'(?i)(bots|bot)')"
p51
atp52
Rp53
sb.