(ifile_types
ParseObject
p0
(dp1
S'antagonists'
p2
c__builtin__
set
p3
((lp4
S"(30, u'\\\\bway ?100135')"
p5
aS"(108, u'\\\\bfluphenazine')"
p6
aS"(117, u'\\\\bketanserin')"
p7
atp8
Rp9
sS'methods'
p10
g3
((lp11
S'Method.ANTAGONIST'
p12
aS'Method.IMMUNOHISTOCHEMISTRY'
p13
atp14
Rp15
sS'topics'
p16
g3
((lp17
S"(9, u'\\\\bdepress')"
p18
aS"(35, u'\\\\bstress')"
p19
atp20
Rp21
sS'receptors'
p22
g3
((lp23
S'5ht1a'
p24
aS'5ht2a'
p25
atp26
Rp27
sS'regions'
p28
g3
((lp29
S"(362, u'(?i)\\\\b(brains|brain)(-|\\\\s+)?(stems|stem)\\\\b')"
p30
atp31
Rp32
sS'year'
p33
V1995
p34
sS'agonists'
p35
g3
((lp36
tp37
Rp38
sS'species'
p39
g3
((lp40
S"(163, u'(?i)\\\\b(mice|mouse)\\\\b')"
p41
atp42
Rp43
sb.