(ifile_types
ParseObject
p0
(dp1
S'methods'
p2
c__builtin__
set
p3
((lp4
S'Method.AGONIST'
p5
atp6
Rp7
sS'topics'
p8
g3
((lp9
S"(4, u'\\\\btreatment')"
p10
atp11
Rp12
sS'receptors'
p13
g3
((lp14
(S'5ht7'
p15
I315
I320
tp16
a(S'5ht7'
p17
I420
I425
tp18
a(S'5ht7'
p19
I1759
I1764
tp20
a(S'5ht5'
p21
I1314
I1319
tp22
a(S'5ht1a'
p23
I1666
I1672
tp24
atp25
Rp26
sS'raw_text_methods'
p27
g3
((lp28
S"(13, u'\\\\bagonist')"
p29
aS"(30, u'\\\\b2methyl')"
p30
aS"(34, u'\\\\b5ct')"
p31
atp32
Rp33
sS'regions'
p34
g3
((lp35
S"(19, u'(?i)\\\\b(cortexes|cortex)\\\\b')"
p36
atp37
Rp38
sS'year'
p39
V1998
p40
sS'species'
p41
g3
((lp42
S"(4, u'(?i)\\\\b(rats|rat)\\\\b')"
p43
atp44
Rp45
sb.