(ifile_types
ParseObject
p0
(dp1
S'antagonists'
p2
c__builtin__
set
p3
((lp4
S"(153, u'\\\\bgr ?113808')"
p5
atp6
Rp7
sS'methods'
p8
g3
((lp9
S'Method.ANTAGONIST'
p10
atp11
Rp12
sS'topics'
p13
g3
((lp14
tp15
Rp16
sS'receptors'
p17
g3
((lp18
S'5ht1b'
p19
aS'5ht1a'
p20
aS'5ht4'
p21
atp22
Rp23
sS'regions'
p24
g3
((lp25
S"(34, u'(?i)(pon|pons)')"
p26
atp27
Rp28
sS'year'
p29
V1994
p30
sS'agonists'
p31
g3
((lp32
tp33
Rp34
sS'species'
p35
g3
((lp36
S"(1070, u'(?i)(pets|pet)')"
p37
aS"(2323, u'(?i)(bees|bee)')"
p38
aS"(2568, u'(?i)(hens|hen)')"
p39
aS"(6356, u'(?i)(ais|ai)')"
p40
aS"(867, u'(?i)(tits|tit)')"
p41
aS"(6753, u'(?i)(da|das)')"
p42
aS"(1266, u'(?i)(embryos|embryo)')"
p43
aS"(4091, u'(?i)(adults|adult)')"
p44
aS"(468, u'(?i)(oxen|ox)')"
p45
aS"(1055, u'(?i)(men|man)')"
p46
aS"(6249, u'(?i)(ants|ant)')"
p47
aS"(3404, u'(?i)(titis|titi)')"
p48
aS"(4979, u'(?i)(cats|cat)')"
p49
aS"(5958, u'(?i)(rats|rat)')"
p50
aS"(3812, u'(?i)(studs|stud)')"
p51
aS"(6391, u'(?i)(asses|ass)')"
p52
aS"(4624, u'(?i)(apes|ape)')"
p53
aS"(5537, u'(?i)(hippos|hippo)')"
p54
aS"(7488, u'(?i)(molas|mola)')"
p55
aS"(821, u'(?i)(lice|louse)')"
p56
aS"(5783, u'(?i)(hinds|hind)')"
p57
atp58
Rp59
sb.