(ifile_types
ParseObject
p0
(dp1
S'methods'
p2
c__builtin__
set
p3
((lp4
S'Method.ANTAGONIST'
p5
aS'Method.AGONIST'
p6
atp7
Rp8
sS'topics'
p9
g3
((lp10
tp11
Rp12
sS'receptors'
p13
g3
((lp14
(S'5ht1a'
p15
I41
I47
tp16
a(S'5ht1'
p17
I1423
I1428
tp18
a(S'5ht1a'
p19
I283
I289
tp20
a(S'5ht1'
p21
I1364
I1369
tp22
a(S'5ht2'
p23
I1094
I1099
tp24
atp25
Rp26
sS'raw_text_methods'
p27
g3
((lp28
S"(53, u'\\\\bketanserin')"
p29
aS"(7, u'\\\\bpropranolol')"
p30
aS"(41, u'\\\\bhaloperidol')"
p31
aS"(15, u'\\\\b8ohdpat')"
p32
aS"(13, u'\\\\bagonist')"
p33
aS"(12, u'\\\\bantagonist')"
p34
atp35
Rp36
sS'regions'
p37
g3
((lp38
S"(4, u'(?i)\\\\b(presynaptics|presynaptic)\\\\b')"
p39
atp40
Rp41
sS'year'
p42
V1987
p43
sS'species'
p44
g3
((lp45
S"(4, u'(?i)\\\\b(rats|rat)\\\\b')"
p46
atp47
Rp48
sb.