(ifile_types
ParseObject
p0
(dp1
S'methods'
p2
c__builtin__
set
p3
((lp4
S'Method.ANTAGONIST'
p5
aS'Method.AGONIST'
p6
atp7
Rp8
sS'topics'
p9
g3
((lp10
S"(13, u'\\\\bantidepress')"
p11
aS"(4, u'\\\\btreatment')"
p12
atp13
Rp14
sS'receptors'
p15
g3
((lp16
(S'5ht2c'
p17
I630
I636
tp18
a(S'5ht2a'
p19
I1049
I1055
tp20
a(S'5ht2c'
p21
I1210
I1216
tp22
a(S'5ht1c'
p23
I675
I681
tp24
a(S'5ht2c'
p25
I76
I82
tp26
a(S'5ht2a'
p27
I790
I796
tp28
a(S'5ht2'
p29
I835
I840
tp30
atp31
Rp32
sS'raw_text_methods'
p33
g3
((lp34
S"(13, u'\\\\bagonist')"
p35
aS"(53, u'\\\\bketanserin')"
p36
aS"(11, u'\\\\bfluoxetine')"
p37
aS"(12, u'\\\\bantagonist')"
p38
atp39
Rp40
sS'regions'
p41
g3
((lp42
tp43
Rp44
sS'year'
p45
V1995
p46
sS'species'
p47
g3
((lp48
tp49
Rp50
sb.