(ifile_types
ParseObject
p0
(dp1
S'methods'
p2
c__builtin__
set
p3
((lp4
S'Method.PET'
p5
atp6
Rp7
sS'topics'
p8
g3
((lp9
S"(4, u'\\\\btreatment')"
p10
aS"(3, u'\\\\bclinical')"
p11
atp12
Rp13
sS'receptors'
p14
g3
((lp15
(S'5ht1a'
p16
I1113
I1119
tp17
a(S'5ht1a'
p18
I51
I57
tp19
a(S'5ht1a'
p20
I922
I928
tp21
a(S'5ht1a'
p22
I1701
I1707
tp23
a(S'5ht1a'
p24
I2621
I2627
tp25
a(S'5ht1a'
p26
I2501
I2507
tp27
a(S'5ht1a'
p28
I635
I641
tp29
a(S'5ht1a'
p30
I420
I426
tp31
a(S'5ht1a'
p32
I1549
I1555
tp33
a(S'5ht1a'
p34
I406
I417
tp35
atp36
Rp37
sS'raw_text_methods'
p38
g3
((lp39
S"(17, u'\\\\bpet')"
p40
aS"(18, u'\\\\bimaging')"
p41
atp42
Rp43
sS'regions'
p44
g3
((lp45
S"(9, u'(?i)\\\\b(cerebellums|cerebellum)\\\\b')"
p46
atp47
Rp48
sS'year'
p49
V2006
p50
sS'species'
p51
g3
((lp52
S"(6, u'(?i)\\\\b(rodents|rodent)\\\\b')"
p53
aS"(4, u'(?i)\\\\b(rats|rat)\\\\b')"
p54
atp55
Rp56
sb.