(ifile_types
ParseObject
p0
(dp1
S'antagonists'
p2
c__builtin__
set
p3
((lp4
tp5
Rp6
sS'methods'
p7
g3
((lp8
S'Method.KNOCKOUT'
p9
atp10
Rp11
sS'topics'
p12
g3
((lp13
S"(29, u'\\\\bsex')"
p14
aS"(9, u'\\\\bdepress')"
p15
aS"(35, u'\\\\bstress')"
p16
aS"(10, u'\\\\banxiety')"
p17
atp18
Rp19
sS'receptors'
p20
g3
((lp21
S'5ht1b'
p22
aS'5ht1a'
p23
aS'5ht1'
p24
atp25
Rp26
sS'regions'
p27
g3
((lp28
tp29
Rp30
sS'year'
p31
V2012
p32
sS'agonists'
p33
g3
((lp34
tp35
Rp36
sS'species'
p37
g3
((lp38
S"(2395, u'(?i)\\\\b(mutants|mutant)\\\\b')"
p39
aS"(163, u'(?i)\\\\b(mice|mouse)\\\\b')"
p40
aS"(6125, u'(?i)\\\\b(females|female)\\\\b')"
p41
aS"(5967, u'(?i)\\\\b(males|male)\\\\b')"
p42
atp43
Rp44
sb.