(ifile_types
ParseObject
p0
(dp1
S'antagonists'
p2
c__builtin__
set
p3
((lp4
S"(38, u'\\\\bsb ?224289')"
p5
aS"(117, u'\\\\bketanserin')"
p6
atp7
Rp8
sS'methods'
p9
g3
((lp10
tp11
Rp12
sS'topics'
p13
g3
((lp14
tp15
Rp16
sS'receptors'
p17
g3
((lp18
S'5ht1b'
p19
aS'5ht1d'
p20
atp21
Rp22
sS'regions'
p23
g3
((lp24
S"(248, u'(?i)\\\\b(cerebrals|cerebral)(-|\\\\s+)?(cortexes|cortex)\\\\b')"
p25
aS"(209, u'(?i)\\\\b(amygdalas|amygdala)\\\\b')"
p26
aS"(220, u'(?i)\\\\b(striatums|striatum)\\\\b')"
p27
aS"(126, u'(?i)\\\\b(thalamuses|thalamus)\\\\b')"
p28
aS"(230, u'(?i)\\\\b(ventrals|ventral)(-|\\\\s+)?(pallidums|pallidum)\\\\b')"
p29
aS"(103, u'(?i)\\\\b(substantias|substantia)(-|\\\\s+)?(nigras|nigra)\\\\b')"
p30
atp31
Rp32
sS'year'
p33
V2001
p34
sS'agonists'
p35
g3
((lp36
tp37
Rp38
sS'species'
p39
g3
((lp40
S"(1057, u'(?i)\\\\b(humans|human)\\\\b')"
p41
aS"(3196, u'(?i)\\\\b(human|humans)\\\\b')"
p42
atp43
Rp44
sb.