(ifile_types
ParseObject
p0
(dp1
S'antagonists'
p2
c__builtin__
set
p3
((lp4
S"(83, u'\\\\bcariprazine')"
p5
atp6
Rp7
sS'methods'
p8
g3
((lp9
S'Method.PET'
p10
aS'Method.AGONIST'
p11
atp12
Rp13
sS'topics'
p14
g3
((lp15
tp16
Rp17
sS'receptors'
p18
g3
((lp19
S'5ht1a'
p20
atp21
Rp22
sS'regions'
p23
g3
((lp24
S"(220, u'(?i)(striatums|striatum)')"
p25
aS"(126, u'(?i)(thalamuses|thalamus)')"
p26
aS"(71, u'(?i)(cerebellums|cerebellum)')"
p27
atp28
Rp29
sS'year'
p30
V2013
p31
sS'agonists'
p32
g3
((lp33
S"(26, u'\\\\bcariprazine')"
p34
atp35
Rp36
sS'species'
p37
g3
((lp38
S"(1070, u'(?i)(pets|pet)')"
p39
aS"(6753, u'(?i)(da|das)')"
p40
aS"(5958, u'(?i)(rats|rat)')"
p41
aS"(2401, u'(?i)(primates|primate)')"
p42
aS"(468, u'(?i)(oxen|ox)')"
p43
aS"(1055, u'(?i)(men|man)')"
p44
aS"(3726, u'(?i)(mates|mate)')"
p45
aS"(4979, u'(?i)(cats|cat)')"
p46
aS"(6249, u'(?i)(ants|ant)')"
p47
aS"(1057, u'(?i)(humans|human)')"
p48
aS"(5229, u'(?i)(moles|mole)')"
p49
aS"(1961, u'(?i)(pens|pen)')"
p50
aS"(3812, u'(?i)(studs|stud)')"
p51
aS"(3196, u'(?i)(human|humans)')"
p52
aS"(2809, u'(?i)(toms|tom)')"
p53
aS"(2341, u'(?i)(monkeys|monkey)')"
p54
aS"(6356, u'(?i)(ais|ai)')"
p55
atp56
Rp57
sb.