(ifile_types
ParseObject
p0
(dp1
S'methods'
p2
c__builtin__
set
p3
((lp4
S'Method.ANTAGONIST'
p5
aS'Method.AGONIST'
p6
atp7
Rp8
sS'topics'
p9
g3
((lp10
S"(4, u'\\\\btreatment')"
p11
atp12
Rp13
sS'receptors'
p14
g3
((lp15
(S'5ht1a'
p16
I538
I544
tp17
a(S'5ht1a'
p18
I1845
I1851
tp19
a(S'5ht1a'
p20
I74
I80
tp21
a(S'5ht1a'
p22
I2094
I2100
tp23
a(S'5ht1a'
p24
I363
I369
tp25
a(S'5ht1a'
p26
I306
I312
tp27
a(S'5ht1a'
p28
I637
I643
tp29
a(S'5ht1a'
p30
I2368
I2374
tp31
a(S'5ht1'
p32
I988
I993
tp33
atp34
Rp35
sS'raw_text_methods'
p36
g3
((lp37
S"(13, u'\\\\bagonist')"
p38
aS"(15, u'\\\\b8ohdpat')"
p39
aS"(21, u'\\\\bipsapirone')"
p40
aS"(22, u'\\\\bbuspirone')"
p41
aS"(12, u'\\\\bantagonist')"
p42
atp43
Rp44
sS'regions'
p45
g3
((lp46
S"(4, u'(?i)\\\\b(presynaptics|presynaptic)\\\\b')"
p47
atp48
Rp49
sS'year'
p50
V1993
p51
sS'species'
p52
g3
((lp53
S"(4, u'(?i)\\\\b(rats|rat)\\\\b')"
p54
atp55
Rp56
sb.