(ifile_types
ParseObject
p0
(dp1
S'methods'
p2
c__builtin__
set
p3
((lp4
S'Method.ANTAGONIST'
p5
aS'Method.AGONIST'
p6
atp7
Rp8
sS'topics'
p9
g3
((lp10
tp11
Rp12
sS'receptors'
p13
g3
((lp14
(S'5ht3'
p15
I1385
I1390
tp16
a(S'5ht4'
p17
I43
I48
tp18
a(S'5ht1'
p19
I1151
I1156
tp20
a(S'5ht4'
p21
I1531
I1536
tp22
a(S'5ht4'
p23
I1385
I1391
tp24
a(S'5ht2'
p25
I1770
I1775
tp26
a(S'5ht2a'
p27
I1228
I1234
tp28
a(S'5ht1'
p29
I1763
I1768
tp30
a(S'5ht3'
p31
I1779
I1784
tp32
a(S'5ht4'
p33
I1744
I1749
tp34
a(S'5ht3'
p35
I1302
I1307
tp36
atp37
Rp38
sS'raw_text_methods'
p39
g3
((lp40
S"(13, u'\\\\bagonist')"
p41
aS"(53, u'\\\\bketanserin')"
p42
aS"(20, u'\\\\bondansetron')"
p43
aS"(44, u'\\\\btetrodotoxin')"
p44
aS"(12, u'\\\\bantagonist')"
p45
atp46
Rp47
sS'regions'
p48
g3
((lp49
tp50
Rp51
sS'year'
p52
V1995
p53
sS'species'
p54
g3
((lp55
S"(4, u'(?i)\\\\b(rats|rat)\\\\b')"
p56
atp57
Rp58
sb.