(ifile_types
ParseObject
p0
(dp1
S'methods'
p2
c__builtin__
set
p3
((lp4
S'Method.ANTAGONIST'
p5
aS'Method.AGONIST'
p6
atp7
Rp8
sS'topics'
p9
g3
((lp10
S"(5, u'\\\\btherap')"
p11
atp12
Rp13
sS'receptors'
p14
g3
((lp15
(S'5ht1b'
p16
I811
I817
tp17
a(S'5ht1a'
p18
I883
I889
tp19
a(S'5ht1a'
p20
I724
I730
tp21
a(S'5ht1'
p22
I1945
I1951
tp23
a(S'5ht1c'
p24
I811
I819
tp25
a(S'5ht1a'
p26
I1945
I1951
tp27
a(S'5ht3'
p28
I1436
I1441
tp29
a(S'5ht1b'
p30
I724
I732
tp31
a(S'5ht1'
p32
I1767
I1772
tp33
a(S'5ht1c'
p34
I1149
I1157
tp35
a(S'5ht1b'
p36
I1149
I1155
tp37
a(S'5ht1c'
p38
I1282
I1289
tp39
a(S'5ht1a'
p40
I215
I221
tp41
a(S'5ht2'
p42
I1282
I1287
tp43
a(S'5ht1a'
p44
I1094
I1100
tp45
a(S'5ht2'
p46
I1219
I1226
tp47
a(S'5ht1'
p48
I978
I983
tp49
a(S'5ht1a'
p50
I1780
I1786
tp51
a(S'5ht2'
p52
I1403
I1408
tp53
a(S'5ht1b'
p54
I215
I223
tp55
a(S'5ht5'
p56
I1767
I1773
tp57
a(S'5ht1b'
p58
I1959
I1965
tp59
a(S'5ht1c'
p60
I1219
I1225
tp61
a(S'5ht1b'
p62
I1791
I1797
tp63
atp64
Rp65
sS'raw_text_methods'
p66
g3
((lp67
S"(53, u'\\\\bketanserin')"
p68
aS"(33, u'\\\\bmcpp')"
p69
aS"(22, u'\\\\bbuspirone')"
p70
aS"(15, u'\\\\b8ohdpat')"
p71
aS"(13, u'\\\\bagonist')"
p72
aS"(49, u'\\\\bdoi')"
p73
aS"(12, u'\\\\bantagonist')"
p74
atp75
Rp76
sS'regions'
p77
g3
((lp78
tp79
Rp80
sS'year'
p81
V1992
p82
sS'species'
p83
g3
((lp84
S"(4, u'(?i)\\\\b(rats|rat)\\\\b')"
p85
atp86
Rp87
sb.