(ifile_types
ParseObject
p0
(dp1
S'antagonists'
p2
c__builtin__
set
p3
((lp4
S"(36, u'\\\\bar ?a000002')"
p5
atp6
Rp7
sS'methods'
p8
g3
((lp9
S'Method.STIMULATION'
p10
aS'Method.ANTAGONIST'
p11
aS'Method.AGONIST'
p12
atp13
Rp14
sS'topics'
p15
g3
((lp16
tp17
Rp18
sS'receptors'
p19
g3
((lp20
S'5ht1b'
p21
aS'5ht1d'
p22
atp23
Rp24
sS'regions'
p25
g3
((lp26
tp27
Rp28
sS'year'
p29
V2004
p30
sS'agonists'
p31
g3
((lp32
S"(96, u'\\\\bsumatriptan')"
p33
atp34
Rp35
sS'species'
p36
g3
((lp37
S"(473, u'(?i)\\\\b(rabbits|rabbit)\\\\b')"
p38
aS"(3051, u'(?i)\\\\b(pigs|pig)\\\\b')"
p39
aS"(4480, u'(?i)\\\\b(guineas|guinea)(-|\\\\s+)?(pigs|pig)\\\\b')"
p40
aS"(3062, u'(?i)\\\\b(guineas|guinea)\\\\b')"
p41
atp42
Rp43
sb.