(ifile_types
ParseObject
p0
(dp1
S'antagonists'
p2
c__builtin__
set
p3
((lp4
S"(125, u'\\\\btropisetron')"
p5
atp6
Rp7
sS'methods'
p8
g3
((lp9
S'Method.ANTAGONIST'
p10
aS'Method.AGONIST'
p11
atp12
Rp13
sS'topics'
p14
g3
((lp15
S"(32, u'\\\\bnausea')"
p16
aS"(33, u'\\\\balzheimers')"
p17
aS"(6, u'\\\\bcognit')"
p18
aS"(7, u'\\\\bmemory')"
p19
atp20
Rp21
sS'receptors'
p22
g3
((lp23
S'5ht3'
p24
atp25
Rp26
sS'regions'
p27
g3
((lp28
tp29
Rp30
sS'year'
p31
V2017
p32
sS'agonists'
p33
g3
((lp34
S"(149, u'\\\\bmem')"
p35
atp36
Rp37
sS'species'
p38
g3
((lp39
S"(4596, u'(?i)\\\\b(rhesuses|rhesus)\\\\b')"
p40
aS"(4597, u'(?i)\\\\b(rhesuses|rhesus)(-|\\\\s+)?(monkeys|monkey)\\\\b')"
p41
aS"(3247, u'(?i)\\\\b(youngs|young)\\\\b')"
p42
aS"(2341, u'(?i)\\\\b(monkeys|monkey)\\\\b')"
p43
aS"(3196, u'(?i)\\\\b(human|humans)\\\\b')"
p44
aS"(1057, u'(?i)\\\\b(humans|human)\\\\b')"
p45
aS"(5958, u'(?i)\\\\b(rats|rat)\\\\b')"
p46
aS"(5967, u'(?i)\\\\b(males|male)\\\\b')"
p47
aS"(6125, u'(?i)\\\\b(females|female)\\\\b')"
p48
atp49
Rp50
sb.