(ifile_types
ParseObject
p0
(dp1
S'antagonists'
p2
c__builtin__
set
p3
((lp4
S"(185, u'\\\\bsb ?399885')"
p5
atp6
Rp7
sS'methods'
p8
g3
((lp9
S'Method.ANTAGONIST'
p10
atp11
Rp12
sS'topics'
p13
g3
((lp14
tp15
Rp16
sS'receptors'
p17
g3
((lp18
S'5ht6'
p19
atp20
Rp21
sS'regions'
p22
g3
((lp23
tp24
Rp25
sS'year'
p26
V2015
p27
sS'agonists'
p28
g3
((lp29
tp30
Rp31
sS'species'
p32
g3
((lp33
S"(4624, u'(?i)(apes|ape)')"
p34
aS"(5958, u'(?i)(rats|rat)')"
p35
aS"(7609, u'(?i)(erns|ern)')"
p36
aS"(5917, u'(?i)(roaches|roach)')"
p37
aS"(7539, u'(?i)(mammals|mammal)')"
p38
aS"(1725, u'(?i)(clams|clam)')"
p39
aS"(468, u'(?i)(oxen|ox)')"
p40
aS"(1349, u'(?i)(rams|ram)')"
p41
aS"(3726, u'(?i)(mates|mate)')"
p42
aS"(1055, u'(?i)(men|man)')"
p43
aS"(1249, u'(?i)(carp|carp)')"
p44
aS"(5743, u'(?i)(bots|bot)')"
p45
aS"(7094, u'(?i)(curs|cur)')"
p46
aS"(3550, u'(?i)(anis|ani)')"
p47
aS"(1057, u'(?i)(humans|human)')"
p48
aS"(5229, u'(?i)(moles|mole)')"
p49
aS"(7540, u'(?i)(mammalians|mammalian)')"
p50
aS"(3196, u'(?i)(human|humans)')"
p51
aS"(1683, u'(?i)(terns|tern)')"
p52
aS"(6249, u'(?i)(ants|ant)')"
p53
atp54
Rp55
sb.