(ifile_types
ParseObject
p0
(dp1
S'antagonists'
p2
c__builtin__
set
p3
((lp4
tp5
Rp6
sS'methods'
p7
g3
((lp8
tp9
Rp10
sS'topics'
p11
g3
((lp12
S"(35, u'\\\\bstress')"
p13
atp14
Rp15
sS'receptors'
p16
g3
((lp17
S'5ht1a'
p18
atp19
Rp20
sS'regions'
p21
g3
((lp22
S"(302, u'(?i)\\\\b(corpuses|corpus)(-|\\\\s+)?(callosums|callosum)\\\\b')"
p23
atp24
Rp25
sS'year'
p26
V2006
p27
sS'agonists'
p28
g3
((lp29
tp30
Rp31
sS'species'
p32
g3
((lp33
S"(5958, u'(?i)\\\\b(rats|rat)\\\\b')"
p34
atp35
Rp36
sb.