(ifile_types
ParseObject
p0
(dp1
S'antagonists'
p2
c__builtin__
set
p3
((lp4
tp5
Rp6
sS'methods'
p7
g3
((lp8
S'Method.AGONIST'
p9
atp10
Rp11
sS'topics'
p12
g3
((lp13
tp14
Rp15
sS'receptors'
p16
g3
((lp17
S'5ht1a'
p18
aS'5ht2b'
p19
aS'5ht2'
p20
aS'5ht1'
p21
aS'5ht2a'
p22
atp23
Rp24
sS'regions'
p25
g3
((lp26
tp27
Rp28
sS'year'
p29
V1988
p30
sS'agonists'
p31
g3
((lp32
S"(222, u'\\\\b5 ?meot')"
p33
aS"(67, u'\\\\bru ?24969')"
p34
atp35
Rp36
sS'species'
p37
g3
((lp38
tp39
Rp40
sb.