(ifile_types
ParseObject
p0
(dp1
S'antagonists'
p2
c__builtin__
set
p3
((lp4
tp5
Rp6
sS'methods'
p7
g3
((lp8
tp9
Rp10
sS'topics'
p11
g3
((lp12
S"(21, u'\\\\bpain')"
p13
aS"(35, u'\\\\bstress')"
p14
atp15
Rp16
sS'receptors'
p17
g3
((lp18
S'5ht3'
p19
atp20
Rp21
sS'regions'
p22
g3
((lp23
S"(318, u'(?i)(raphes|raphe)(-|\\\\s+)?(nuclei|nucleus)')"
p24
aS"(94, u'(?i)(dorsals|dorsal)(-|\\\\s+)?(raphes|raphe)(-|\\\\s+)?(nuclei|nucleus)')"
p25
aS"(34, u'(?i)(pon|pons)')"
p26
atp27
Rp28
sS'year'
p29
V2007
p30
sS'agonists'
p31
g3
((lp32
tp33
Rp34
sS'species'
p35
g3
((lp36
S"(3812, u'(?i)(studs|stud)')"
p37
aS"(6249, u'(?i)(ants|ant)')"
p38
aS"(6356, u'(?i)(ais|ai)')"
p39
aS"(6391, u'(?i)(asses|ass)')"
p40
aS"(1438, u'(?i)(ceroes|cero)')"
p41
aS"(5743, u'(?i)(bots|bot)')"
p42
aS"(479, u'(?i)(lings|ling)')"
p43
aS"(5967, u'(?i)(males|male)')"
p44
aS"(2942, u'(?i)(daws|daw)')"
p45
aS"(3550, u'(?i)(anis|ani)')"
p46
aS"(2670, u'(?i)(arabs|arab)')"
p47
aS"(5958, u'(?i)(rats|rat)')"
p48
aS"(7609, u'(?i)(erns|ern)')"
p49
aS"(867, u'(?i)(tits|tit)')"
p50
aS"(1055, u'(?i)(men|man)')"
p51
aS"(930, u'(?i)(loons|loon)')"
p52
aS"(6753, u'(?i)(da|das)')"
p53
aS"(4979, u'(?i)(cats|cat)')"
p54
aS"(2323, u'(?i)(bees|bee)')"
p55
aS"(853, u'(?i)(minas|mina)')"
p56
aS"(3726, u'(?i)(mates|mate)')"
p57
aS"(1683, u'(?i)(terns|tern)')"
p58
atp59
Rp60
sb.