(ifile_types
ParseObject
p0
(dp1
S'antagonists'
p2
c__builtin__
set
p3
((lp4
S"(131, u'\\\\bm1')"
p5
atp6
Rp7
sS'methods'
p8
g3
((lp9
S'Method.KNOCKOUT'
p10
atp11
Rp12
sS'topics'
p13
g3
((lp14
S"(9, u'\\\\bdepress')"
p15
aS"(10, u'\\\\banxiety')"
p16
atp17
Rp18
sS'receptors'
p19
g3
((lp20
S'5ht1a'
p21
atp22
Rp23
sS'regions'
p24
g3
((lp25
S"(223, u'(?i)\\\\b(putamens|putamen)\\\\b')"
p26
aS"(248, u'(?i)\\\\b(cerebrals|cerebral)(-|\\\\s+)?(cortexes|cortex)\\\\b')"
p27
aS"(203, u'(?i)\\\\b(dentates|dentate)(-|\\\\s+)?(gyruses|gyrus)\\\\b')"
p28
aS"(226, u'(?i)\\\\b(nuclei|nucleus)(-|\\\\s+)?(accumben|accumbens)\\\\b')"
p29
atp30
Rp31
sS'year'
p32
V2004
p33
sS'agonists'
p34
g3
((lp35
tp36
Rp37
sS'species'
p38
g3
((lp39
S"(6325, u'(?i)\\\\b(caudates|caudate)\\\\b')"
p40
aS"(163, u'(?i)\\\\b(mice|mouse)\\\\b')"
p41
atp42
Rp43
sb.