(ifile_types
ParseObject
p0
(dp1
S'antagonists'
p2
c__builtin__
set
p3
((lp4
tp5
Rp6
sS'methods'
p7
g3
((lp8
S'Method.IMMUNOHISTOCHEMISTRY'
p9
atp10
Rp11
sS'topics'
p12
g3
((lp13
S"(15, u'\\\\bschizophreni')"
p14
aS"(1, u'\\\\bmood')"
p15
atp16
Rp17
sS'receptors'
p18
g3
((lp19
S'5ht1b'
p20
aS'5ht1a'
p21
atp22
Rp23
sS'regions'
p24
g3
((lp25
S"(34, u'(?i)(pon|pons)')"
p26
atp27
Rp28
sS'year'
p29
V2011
p30
sS'agonists'
p31
g3
((lp32
tp33
Rp34
sS'species'
p35
g3
((lp36
S"(6753, u'(?i)(da|das)')"
p37
aS"(6249, u'(?i)(ants|ant)')"
p38
aS"(6356, u'(?i)(ais|ai)')"
p39
aS"(4979, u'(?i)(cats|cat)')"
p40
aS"(2183, u'(?i)(gars|gar)')"
p41
aS"(81, u'(?i)(asps|asp)')"
p42
aS"(468, u'(?i)(oxen|ox)')"
p43
aS"(1055, u'(?i)(men|man)')"
p44
aS"(3726, u'(?i)(mates|mate)')"
p45
aS"(1054, u'(?i)(homoes|homo)')"
p46
aS"(853, u'(?i)(minas|mina)')"
p47
aS"(6682, u'(?i)(tera|teras)')"
p48
aS"(1414, u'(?i)(chars|char)')"
p49
aS"(5743, u'(?i)(bots|bot)')"
p50
aS"(3812, u'(?i)(studs|stud)')"
p51
atp52
Rp53
sb.