(ifile_types
ParseObject
p0
(dp1
S'antagonists'
p2
c__builtin__
set
p3
((lp4
S"(128, u'\\\\bmetoclopramide')"
p5
aS"(124, u'\\\\bondansetron')"
p6
aS"(117, u'\\\\bketanserin')"
p7
aS"(194, u'\\\\bmethysergide')"
p8
atp9
Rp10
sS'methods'
p11
g3
((lp12
S'Method.ANTAGONIST'
p13
aS'Method.AGONIST'
p14
atp15
Rp16
sS'topics'
p17
g3
((lp18
tp19
Rp20
sS'receptors'
p21
g3
((lp22
S'5ht4'
p23
aS'5ht3'
p24
aS'5ht1'
p25
atp26
Rp27
sS'regions'
p28
g3
((lp29
tp30
Rp31
sS'year'
p32
V1993
p33
sS'agonists'
p34
g3
((lp35
S"(220, u'\\\\b5 ?methoxytryptamine')"
p36
aS"(209, u'\\\\bmetoclopramide')"
p37
aS"(53, u'\\\\bmethysergide')"
p38
aS"(186, u'\\\\b2 ?methyl ?5 ?ht')"
p39
aS"(191, u'\\\\bphenylbiguanide')"
p40
atp41
Rp42
sS'species'
p43
g3
((lp44
S"(163, u'(?i)\\\\b(mice|mouse)\\\\b')"
p45
atp46
Rp47
sb.