(ifile_types
ParseObject
p0
(dp1
S'antagonists'
p2
c__builtin__
set
p3
((lp4
S"(32, u'\\\\bway ?100635')"
p5
aS"(43, u'\\\\bbrl ?15572')"
p6
aS"(38, u'\\\\bsb ?216641')"
p7
atp8
Rp9
sS'methods'
p10
g3
((lp11
S'Method.ANTAGONIST'
p12
aS'Method.AGONIST'
p13
atp14
Rp15
sS'topics'
p16
g3
((lp17
tp18
Rp19
sS'receptors'
p20
g3
((lp21
S'5ht1b'
p22
aS'5ht1a'
p23
aS'5ht1d'
p24
atp25
Rp26
sS'regions'
p27
g3
((lp28
S"(96, u'(?i)(ventrals|ventral)(-|\\\\s+)?(tegmentals|tegmental)(-|\\\\s+)?(areas|area)')"
p29
aS"(226, u'(?i)(nuclei|nucleus)(-|\\\\s+)?(accumben|accumbens)')"
p30
aS"(178, u'(?i)(laterals|lateral)(-|\\\\s+)?(nuclei|nucleus)')"
p31
atp32
Rp33
sS'year'
p34
V2005
p35
sS'agonists'
p36
g3
((lp37
S"(108, u'\\\\bcp ?94253')"
p38
aS"(193, u'\\\\bethanol')"
p39
atp40
Rp41
sS'species'
p42
g3
((lp43
S"(2323, u'(?i)(bees|bee)')"
p44
aS"(4624, u'(?i)(apes|ape)')"
p45
aS"(5176, u'(?i)(tegs|teg)')"
p46
aS"(5958, u'(?i)(rats|rat)')"
p47
aS"(4979, u'(?i)(cats|cat)')"
p48
aS"(6753, u'(?i)(da|das)')"
p49
aS"(6682, u'(?i)(tera|teras)')"
p50
aS"(4091, u'(?i)(adults|adult)')"
p51
aS"(468, u'(?i)(oxen|ox)')"
p52
aS"(1055, u'(?i)(men|man)')"
p53
aS"(2334, u'(?i)(eels|eel)')"
p54
aS"(2942, u'(?i)(daws|daw)')"
p55
aS"(6249, u'(?i)(ants|ant)')"
p56
aS"(3812, u'(?i)(studs|stud)')"
p57
aS"(6391, u'(?i)(asses|ass)')"
p58
aS"(5743, u'(?i)(bots|bot)')"
p59
aS"(6356, u'(?i)(ais|ai)')"
p60
atp61
Rp62
sb.