(ifile_types
ParseObject
p0
(dp1
S'methods'
p2
c__builtin__
set
p3
((lp4
S'Method.IMMUNOHISTOCHEMISTRY'
p5
atp6
Rp7
sS'topics'
p8
g3
((lp9
tp10
Rp11
sS'receptors'
p12
g3
((lp13
(S'5ht2b'
p14
I1085
I1096
tp15
a(S'5ht2b'
p16
I31
I42
tp17
a(S'5ht2b'
p18
I846
I857
tp19
a(S'5ht2b'
p20
I1210
I1221
tp21
a(S'5ht2b'
p22
I539
I550
tp23
a(S'5ht2b'
p24
I437
I448
tp25
atp26
Rp27
sS'raw_text_methods'
p28
g3
((lp29
tp30
Rp31
sS'regions'
p32
g3
((lp33
S"(19, u'(?i)\\\\b(cortexes|cortex)\\\\b')"
p34
atp35
Rp36
sS'year'
p37
V2007
p38
sS'species'
p39
g3
((lp40
S"(1, u'(?i)\\\\b(mice|mouse)\\\\b')"
p41
aS"(5, u'(?i)\\\\b(mices|mice)\\\\b')"
p42
atp43
Rp44
sb.