(ifile_types
ParseObject
p0
(dp1
S'methods'
p2
c__builtin__
set
p3
((lp4
S'Method.ANTAGONIST'
p5
aS'Method.AGONIST'
p6
atp7
Rp8
sS'topics'
p9
g3
((lp10
S"(13, u'\\\\bantidepress')"
p11
aS"(7, u'\\\\bdepressi')"
p12
aS"(33, u'\\\\blocomot')"
p13
aS"(20, u'\\\\bmood')"
p14
aS"(26, u'\\\\bbehav')"
p15
aS"(1, u'\\\\bpatient')"
p16
aS"(4, u'\\\\btreatment')"
p17
atp18
Rp19
sS'receptors'
p20
g3
((lp21
(S'5ht1a'
p22
I885
I891
tp23
a(S'5ht1a'
p24
I1507
I1513
tp25
a(S'5ht1a'
p26
I848
I854
tp27
atp28
Rp29
sS'raw_text_methods'
p30
g3
((lp31
S"(13, u'\\\\bagonist')"
p32
aS"(15, u'\\\\b8ohdpat')"
p33
aS"(51, u'\\\\bway100635')"
p34
aS"(12, u'\\\\bantagonist')"
p35
atp36
Rp37
sS'regions'
p38
g3
((lp39
tp40
Rp41
sS'year'
p42
V2010
p43
sS'species'
p44
g3
((lp45
S"(4, u'(?i)\\\\b(rats|rat)\\\\b')"
p46
atp47
Rp48
sb.