(ifile_types
ParseObject
p0
(dp1
S'antagonists'
p2
c__builtin__
set
p3
((lp4
S"(183, u'\\\\bsb ?271046')"
p5
atp6
Rp7
sS'methods'
p8
g3
((lp9
S'Method.ANTAGONIST'
p10
aS'Method.AGONIST'
p11
atp12
Rp13
sS'topics'
p14
g3
((lp15
S"(10, u'\\\\banxiety')"
p16
atp17
Rp18
sS'receptors'
p19
g3
((lp20
S'5ht6'
p21
aS'5ht5'
p22
aS'5ht6a'
p23
atp24
Rp25
sS'regions'
p26
g3
((lp27
S"(220, u'(?i)(striatums|striatum)')"
p28
aS"(226, u'(?i)(nuclei|nucleus)(-|\\\\s+)?(accumben|accumbens)')"
p29
aS"(126, u'(?i)(thalamuses|thalamus)')"
p30
aS"(209, u'(?i)(amygdalas|amygdala)')"
p31
aS"(34, u'(?i)(pon|pons)')"
p32
atp33
Rp34
sS'year'
p35
V2008
p36
sS'agonists'
p37
g3
((lp38
S"(218, u'\\\\bway ?181187')"
p39
aS"(219, u'\\\\bway ?208466')"
p40
atp41
Rp42
sS'species'
p43
g3
((lp44
S"(4624, u'(?i)(apes|ape)')"
p45
aS"(5537, u'(?i)(hippos|hippo)')"
p46
aS"(6753, u'(?i)(da|das)')"
p47
aS"(5958, u'(?i)(rats|rat)')"
p48
aS"(6356, u'(?i)(ais|ai)')"
p49
aS"(4979, u'(?i)(cats|cat)')"
p50
aS"(7309, u'(?i)(gnats|gnat)')"
p51
aS"(4371, u'(?i)(lizas|liza)')"
p52
aS"(468, u'(?i)(oxen|ox)')"
p53
aS"(1055, u'(?i)(men|man)')"
p54
aS"(3726, u'(?i)(mates|mate)')"
p55
aS"(3812, u'(?i)(studs|stud)')"
p56
aS"(3550, u'(?i)(anis|ani)')"
p57
aS"(1057, u'(?i)(humans|human)')"
p58
aS"(1961, u'(?i)(pens|pen)')"
p59
aS"(1414, u'(?i)(chars|char)')"
p60
aS"(3196, u'(?i)(human|humans)')"
p61
aS"(7058, u'(?i)(does|doe)')"
p62
aS"(5743, u'(?i)(bots|bot)')"
p63
aS"(821, u'(?i)(lice|louse)')"
p64
aS"(6249, u'(?i)(ants|ant)')"
p65
atp66
Rp67
sb.