(ifile_types
ParseObject
p0
(dp1
S'methods'
p2
c__builtin__
set
p3
((lp4
tp5
Rp6
sS'topics'
p7
g3
((lp8
S"(30, u'\\\\bpain')"
p9
aS"(26, u'\\\\bbehav')"
p10
aS"(4, u'\\\\btreatment')"
p11
atp12
Rp13
sS'receptors'
p14
g3
((lp15
(S'5ht2'
p16
I1494
I1502
tp17
a(S'5ht5'
p18
I986
I996
tp19
a(S'5ht1b'
p20
I1494
I1499
tp21
a(S'5ht2a'
p22
I1494
I1501
tp23
atp24
Rp25
sS'raw_text_methods'
p26
g3
((lp27
tp28
Rp29
sS'regions'
p30
g3
((lp31
tp32
Rp33
sS'year'
p34
V2015
p35
sS'species'
p36
g3
((lp37
S"(1, u'(?i)\\\\b(mice|mouse)\\\\b')"
p38
aS"(5, u'(?i)\\\\b(mices|mice)\\\\b')"
p39
atp40
Rp41
sb.