(ifile_types
ParseObject
p0
(dp1
S'methods'
p2
c__builtin__
set
p3
((lp4
tp5
Rp6
sS'topics'
p7
g3
((lp8
S"(5, u'\\\\btherap')"
p9
aS"(7, u'\\\\bdepressi')"
p10
aS"(4, u'\\\\btreatment')"
p11
atp12
Rp13
sS'receptors'
p14
g3
((lp15
(S'5ht1a'
p16
I1453
I1459
tp17
atp18
Rp19
sS'raw_text_methods'
p20
g3
((lp21
S"(41, u'\\\\bhaloperidol')"
p22
aS"(11, u'\\\\bfluoxetine')"
p23
atp24
Rp25
sS'regions'
p26
g3
((lp27
tp28
Rp29
sS'year'
p30
V2003
p31
sS'species'
p32
g3
((lp33
S"(4, u'(?i)\\\\b(rats|rat)\\\\b')"
p34
atp35
Rp36
sb.