(ifile_types
ParseObject
p0
(dp1
S'antagonists'
p2
c__builtin__
set
p3
((lp4
S"(198, u'\\\\bsb ?269970')"
p5
aS"(38, u'\\\\bsb ?224289')"
p6
aS"(31, u'\\\\bway ?100635')"
p7
atp8
Rp9
sS'methods'
p10
g3
((lp11
S'Method.STIMULATION'
p12
aS'Method.PET'
p13
aS'Method.ANTAGONIST'
p14
aS'Method.AGONIST'
p15
atp16
Rp17
sS'topics'
p18
g3
((lp19
tp20
Rp21
sS'receptors'
p22
g3
((lp23
S'5ht7'
p24
aS'5ht1b'
p25
atp26
Rp27
sS'regions'
p28
g3
((lp29
S"(94, u'(?i)\\\\b(dorsals|dorsal)(-|\\\\s+)?(raphes|raphe)(-|\\\\s+)?(nuclei|nucleus)\\\\b')"
p30
aS"(318, u'(?i)\\\\b(raphes|raphe)(-|\\\\s+)?(nuclei|nucleus)\\\\b')"
p31
atp32
Rp33
sS'year'
p34
V2001
p35
sS'agonists'
p36
g3
((lp37
S"(85, u'\\\\b8 ?oh ?dpat')"
p38
aS"(219, u'\\\\b5 ?ct')"
p39
atp40
Rp41
sS'species'
p42
g3
((lp43
S"(4480, u'(?i)\\\\b(guineas|guinea)(-|\\\\s+)?(pigs|pig)\\\\b')"
p44
aS"(5958, u'(?i)\\\\b(rats|rat)\\\\b')"
p45
aS"(3051, u'(?i)\\\\b(pigs|pig)\\\\b')"
p46
aS"(1070, u'(?i)\\\\b(pets|pet)\\\\b')"
p47
aS"(3062, u'(?i)\\\\b(guineas|guinea)\\\\b')"
p48
atp49
Rp50
sb.