(ifile_types
ParseObject
p0
(dp1
S'antagonists'
p2
c__builtin__
set
p3
((lp4
S"(14, u'\\\\bmethiothepin')"
p5
aS"(142, u'\\\\bm1')"
p6
atp7
Rp8
sS'methods'
p9
g3
((lp10
S'Method.ANTAGONIST'
p11
aS'Method.AGONIST'
p12
atp13
Rp14
sS'topics'
p15
g3
((lp16
tp17
Rp18
sS'receptors'
p19
g3
((lp20
S'5ht1b'
p21
aS'5ht5'
p22
aS'5ht1'
p23
aS'5ht2a'
p24
aS'5ht1a'
p25
aS'5ht5a'
p26
atp27
Rp28
sS'regions'
p29
g3
((lp30
S"(307, u'(?i)(fornixes|fornix)')"
p31
atp32
Rp33
sS'year'
p34
V1995
p35
sS'agonists'
p36
g3
((lp37
S"(92, u'\\\\b8 ?oh ?dpat')"
p38
aS"(107, u'\\\\bcp ?93129')"
p39
atp40
Rp41
sS'species'
p42
g3
((lp43
S"(2103, u'(?i)(nesters|nester)')"
p44
aS"(5537, u'(?i)(hippos|hippo)')"
p45
aS"(6753, u'(?i)(da|das)')"
p46
aS"(2568, u'(?i)(hens|hen)')"
p47
aS"(6125, u'(?i)(females|female)')"
p48
aS"(4979, u'(?i)(cats|cat)')"
p49
aS"(6682, u'(?i)(tera|teras)')"
p50
aS"(4091, u'(?i)(adults|adult)')"
p51
aS"(5967, u'(?i)(males|male)')"
p52
aS"(468, u'(?i)(oxen|ox)')"
p53
aS"(1349, u'(?i)(rams|ram)')"
p54
aS"(6249, u'(?i)(ants|ant)')"
p55
aS"(853, u'(?i)(minas|mina)')"
p56
aS"(5958, u'(?i)(rats|rat)')"
p57
aS"(1961, u'(?i)(pens|pen)')"
p58
aS"(6356, u'(?i)(ais|ai)')"
p59
aS"(6391, u'(?i)(asses|ass)')"
p60
aS"(5743, u'(?i)(bots|bot)')"
p61
aS"(821, u'(?i)(lice|louse)')"
p62
atp63
Rp64
sb.