(ifile_types
ParseObject
p0
(dp1
S'methods'
p2
c__builtin__
set
p3
((lp4
S'Method.ANTAGONIST'
p5
aS'Method.AGONIST'
p6
atp7
Rp8
sS'topics'
p9
g3
((lp10
tp11
Rp12
sS'receptors'
p13
g3
((lp14
(S'5ht7'
p15
I403
I410
tp16
a(S'5ht1a'
p17
I403
I409
tp18
a(S'5ht1a'
p19
I362
I368
tp20
a(S'5ht1a'
p21
I512
I518
tp22
a(S'5ht1a'
p23
I861
I867
tp24
a(S'5ht1a'
p25
I62
I68
tp26
atp27
Rp28
sS'raw_text_methods'
p29
g3
((lp30
S"(13, u'\\\\bagonist')"
p31
aS"(15, u'\\\\b8ohdpat')"
p32
aS"(51, u'\\\\bway100635')"
p33
aS"(12, u'\\\\bantagonist')"
p34
atp35
Rp36
sS'regions'
p37
g3
((lp38
tp39
Rp40
sS'year'
p41
V2008
p42
sS'species'
p43
g3
((lp44
tp45
Rp46
sb.