(ifile_types
ParseObject
p0
(dp1
S'antagonists'
p2
c__builtin__
set
p3
((lp4
tp5
Rp6
sS'methods'
p7
g3
((lp8
S'Method.ANTAGONIST'
p9
atp10
Rp11
sS'topics'
p12
g3
((lp13
S"(9, u'\\\\bdepress')"
p14
atp15
Rp16
sS'receptors'
p17
g3
((lp18
tp19
Rp20
sS'regions'
p21
g3
((lp22
S"(165, u'(?i)\\\\b(preoptics|preoptic)(-|\\\\s+)?(areas|area)\\\\b')"
p23
atp24
Rp25
sS'year'
p26
V2006
p27
sS'agonists'
p28
g3
((lp29
tp30
Rp31
sS'species'
p32
g3
((lp33
S"(5967, u'(?i)\\\\b(males|male)\\\\b')"
p34
aS"(5958, u'(?i)\\\\b(rats|rat)\\\\b')"
p35
atp36
Rp37
sb.