(ifile_types
ParseObject
p0
(dp1
S'methods'
p2
c__builtin__
set
p3
((lp4
tp5
Rp6
sS'topics'
p7
g3
((lp8
S"(1, u'\\\\bpatient')"
p9
aS"(23, u'\\\\bantipsychotic')"
p10
aS"(4, u'\\\\btreatment')"
p11
aS"(2, u'\\\\bdisorder')"
p12
atp13
Rp14
sS'receptors'
p15
g3
((lp16
(S'5ht1a'
p17
I985
I991
tp18
a(S'5ht1a'
p19
I1146
I1152
tp20
a(S'5ht1a'
p21
I1626
I1632
tp22
a(S'5ht2a'
p23
I1450
I1456
tp24
a(S'5ht2a'
p25
I1639
I1645
tp26
a(S'5ht1a'
p27
I590
I596
tp28
a(S'5ht1a'
p29
I1437
I1443
tp30
a(S'5ht2a'
p31
I1298
I1304
tp32
a(S'5ht2a'
p33
I603
I609
tp34
atp35
Rp36
sS'raw_text_methods'
p37
g3
((lp38
S"(2, u'\\\\blabeling')"
p39
atp40
Rp41
sS'regions'
p42
g3
((lp43
S"(20, u'(?i)\\\\b(prefrontals|prefrontal)\\\\b')"
p44
aS"(23, u'(?i)\\\\b(forebrains|forebrain)\\\\b')"
p45
atp46
Rp47
sS'year'
p48
V2010
p49
sS'species'
p50
g3
((lp51
S"(4, u'(?i)\\\\b(rats|rat)\\\\b')"
p52
atp53
Rp54
sb.