(ifile_types
ParseObject
p0
(dp1
S'antagonists'
p2
c__builtin__
set
p3
((lp4
S"(50, u'\\\\btrazodone')"
p5
atp6
Rp7
sS'methods'
p8
g3
((lp9
S'Method.ANTAGONIST'
p10
aS'Method.AGONIST'
p11
atp12
Rp13
sS'topics'
p14
g3
((lp15
S"(24, u'\\\\banalgesi')"
p16
atp17
Rp18
sS'receptors'
p19
g3
((lp20
S'5ht5'
p21
aS'5ht1a'
p22
atp23
Rp24
sS'regions'
p25
g3
((lp26
S"(34, u'(?i)(pon|pons)')"
p27
atp28
Rp29
sS'year'
p30
V2001
p31
sS'agonists'
p32
g3
((lp33
S"(24, u'\\\\bbuspirone')"
p34
aS"(82, u'\\\\btrazodone')"
p35
atp36
Rp37
sS'species'
p38
g3
((lp39
S"(5958, u'(?i)(rats|rat)')"
p40
aS"(7609, u'(?i)(erns|ern)')"
p41
aS"(867, u'(?i)(tits|tit)')"
p42
aS"(163, u'(?i)(mice|mouse)')"
p43
aS"(3051, u'(?i)(pigs|pig)')"
p44
aS"(468, u'(?i)(oxen|ox)')"
p45
aS"(3062, u'(?i)(guineas|guinea)')"
p46
aS"(6249, u'(?i)(ants|ant)')"
p47
aS"(3550, u'(?i)(anis|ani)')"
p48
aS"(6356, u'(?i)(ais|ai)')"
p49
aS"(6391, u'(?i)(asses|ass)')"
p50
aS"(4480, u'(?i)(guineas|guinea)(-|\\\\s+)?(pigs|pig)')"
p51
aS"(7610, u'(?i)(ernes|erne)')"
p52
atp53
Rp54
sb.