(ifile_types
ParseObject
p0
(dp1
S'methods'
p2
c__builtin__
set
p3
((lp4
S'Method.ANTAGONIST'
p5
aS'Method.AGONIST'
p6
atp7
Rp8
sS'topics'
p9
g3
((lp10
S"(5, u'\\\\btherap')"
p11
aS"(13, u'\\\\bantidepress')"
p12
aS"(4, u'\\\\btreatment')"
p13
atp14
Rp15
sS'receptors'
p16
g3
((lp17
(S'5ht1a'
p18
I161
I167
tp19
a(S'5ht1a'
p20
I451
I457
tp21
a(S'5ht1a'
p22
I1033
I1039
tp23
a(S'5ht1a'
p24
I90
I96
tp25
a(S'5ht1a'
p26
I382
I388
tp27
a(S'5ht1a'
p28
I1499
I1505
tp29
a(S'5ht1a'
p30
I1766
I1772
tp31
a(S'5ht1a'
p32
I1684
I1690
tp33
a(S'5ht1a'
p34
I640
I646
tp35
a(S'5ht1a'
p36
I1995
I2001
tp37
atp38
Rp39
sS'raw_text_methods'
p40
g3
((lp41
S"(15, u'\\\\b8ohdpat')"
p42
aS"(13, u'\\\\bagonist')"
p43
aS"(11, u'\\\\bfluoxetine')"
p44
aS"(51, u'\\\\bway100635')"
p45
aS"(38, u'\\\\bssri')"
p46
aS"(39, u'\\\\bselective serotonin reuptake inhibitor')"
p47
aS"(12, u'\\\\bantagonist')"
p48
atp49
Rp50
sS'regions'
p51
g3
((lp52
S"(16, u'(?i)\\\\b(drns|drn)\\\\b')"
p53
atp54
Rp55
sS'year'
p56
V2008
p57
sS'species'
p58
g3
((lp59
S"(4, u'(?i)\\\\b(rats|rat)\\\\b')"
p60
atp61
Rp62
sb.