(ifile_types
ParseObject
p0
(dp1
S'antagonists'
p2
c__builtin__
set
p3
((lp4
S"(38, u'\\\\bsb ?224289')"
p5
aS"(31, u'\\\\bway ?100635')"
p6
atp7
Rp8
sS'methods'
p9
g3
((lp10
S'Method.ANTAGONIST'
p11
aS'Method.AGONIST'
p12
atp13
Rp14
sS'topics'
p15
g3
((lp16
S"(17, u'\\\\bgroom')"
p17
aS"(19, u'\\\\bimpulsiv')"
p18
aS"(20, u'\\\\baggressi')"
p19
atp20
Rp21
sS'receptors'
p22
g3
((lp23
S'5ht1b'
p24
aS'5ht1a'
p25
atp26
Rp27
sS'regions'
p28
g3
((lp29
S"(256, u'(?i)\\\\b(orbitofrontals|orbitofrontal)(-|\\\\s+)?(cortexes|cortex)\\\\b')"
p30
aS"(254, u'(?i)\\\\b(prefrontals|prefrontal)(-|\\\\s+)?(cortexes|cortex)\\\\b')"
p31
aS"(255, u'(?i)\\\\b(pres|pre)(-|\\\\s+)?(frontals|frontal)(-|\\\\s+)?(cortexes|cortex)\\\\b')"
p32
atp33
Rp34
sS'year'
p35
V2008
p36
sS'agonists'
p37
g3
((lp38
S"(100, u'\\\\bcp ?93129')"
p39
aS"(85, u'\\\\b8 ?oh ?dpat')"
p40
atp41
Rp42
sS'species'
p43
g3
((lp44
S"(5799, u'(?i)\\\\b(rodents|rodent)\\\\b')"
p45
aS"(5967, u'(?i)\\\\b(males|male)\\\\b')"
p46
aS"(163, u'(?i)\\\\b(mice|mouse)\\\\b')"
p47
atp48
Rp49
sb.