(ifile_types
ParseObject
p0
(dp1
S'antagonists'
p2
c__builtin__
set
p3
((lp4
S"(68, u'\\\\bchlorpromazine')"
p5
atp6
Rp7
sS'methods'
p8
g3
((lp9
S'Method.ANTAGONIST'
p10
atp11
Rp12
sS'topics'
p13
g3
((lp14
S"(34, u'\\\\bdementia')"
p15
atp16
Rp17
sS'receptors'
p18
g3
((lp19
S'5ht2a'
p20
atp21
Rp22
sS'regions'
p23
g3
((lp24
S"(389, u'(?i)(cerebrospinals|cerebrospinal)(-|\\\\s+)?(fluids|fluid)')"
p25
atp26
Rp27
sS'year'
p28
V2007
p29
sS'agonists'
p30
g3
((lp31
tp32
Rp33
sS'species'
p34
g3
((lp35
S"(6249, u'(?i)(ants|ant)')"
p36
aS"(1055, u'(?i)(men|man)')"
p37
aS"(5176, u'(?i)(tegs|teg)')"
p38
aS"(5958, u'(?i)(rats|rat)')"
p39
aS"(6356, u'(?i)(ais|ai)')"
p40
aS"(2809, u'(?i)(toms|tom)')"
p41
atp42
Rp43
sb.