(ifile_types
ParseObject
p0
(dp1
S'methods'
p2
c__builtin__
set
p3
((lp4
S'Method.ANTAGONIST'
p5
aS'Method.AGONIST'
p6
atp7
Rp8
sS'topics'
p9
g3
((lp10
S"(4, u'\\\\btreatment')"
p11
atp12
Rp13
sS'receptors'
p14
g3
((lp15
(S'5ht2b'
p16
I1244
I1250
tp17
a(S'5ht1d'
p18
I837
I843
tp19
a(S'5ht1a'
p20
I1568
I1574
tp21
a(S'5ht1a'
p22
I2338
I2344
tp23
a(S'5ht1d'
p24
I2475
I2481
tp25
a(S'5ht2'
p26
I1461
I1466
tp27
a(S'5ht1d'
p28
I1588
I1594
tp29
a(S'5ht1d'
p30
I881
I887
tp31
a(S'5ht1b'
p32
I1036
I1042
tp33
a(S'5ht2'
p34
I1244
I1249
tp35
a(S'5ht1b'
p36
I1576
I1582
tp37
a(S'5ht1c'
p38
I1678
I1684
tp39
a(S'5ht1b'
p40
I2463
I2469
tp41
a(S'5ht1a'
p42
I2455
I2461
tp43
a(S'5ht1c'
p44
I1106
I1112
tp45
a(S'5ht1'
p46
I825
I831
tp47
a(S'5ht1b'
p48
I2172
I2178
tp49
a(S'5ht1a'
p50
I870
I876
tp51
a(S'5ht1c'
p52
I1301
I1307
tp53
a(S'5ht1a'
p54
I817
I823
tp55
a(S'5ht1b'
p56
I825
I831
tp57
a(S'5ht2'
p58
I1689
I1694
tp59
a(S'5ht1'
p60
I2463
I2469
tp61
a(S'5ht1d'
p62
I2349
I2355
tp63
a(S'5ht1'
p64
I1576
I1582
tp65
atp66
Rp67
sS'raw_text_methods'
p68
g3
((lp69
S"(13, u'\\\\bagonist')"
p70
aS"(46, u'\\\\bspiperone')"
p71
aS"(12, u'\\\\bantagonist')"
p72
atp73
Rp74
sS'regions'
p75
g3
((lp76
tp77
Rp78
sS'year'
p79
V1988
p80
sS'species'
p81
g3
((lp82
S"(4, u'(?i)\\\\b(rats|rat)\\\\b')"
p83
atp84
Rp85
sb.