(ifile_types
ParseObject
p0
(dp1
S'methods'
p2
c__builtin__
set
p3
((lp4
S'Method.STIMULATION'
p5
aS'Method.KNOCKOUT'
p6
aS'Method.ANTAGONIST'
p7
aS'Method.AGONIST'
p8
atp9
Rp10
sS'topics'
p11
g3
((lp12
S"(26, u'\\\\bbehav')"
p13
aS"(2, u'\\\\bdisorder')"
p14
aS"(7, u'\\\\bdepressi')"
p15
aS"(15, u'\\\\bmemory')"
p16
aS"(30, u'\\\\bpain')"
p17
aS"(8, u'\\\\banxi')"
p18
atp19
Rp20
sS'receptors'
p21
g3
((lp22
(S'5ht7'
p23
I288
I293
tp24
a(S'5ht7'
p25
I73
I78
tp26
a(S'5ht7'
p27
I1297
I1302
tp28
a(S'5ht7'
p29
I1379
I1384
tp30
a(S'5ht7'
p31
I1201
I1206
tp32
a(S'5ht7'
p33
I212
I217
tp34
a(S'5ht7'
p35
I60
I70
tp36
a(S'5ht7'
p37
I442
I447
tp38
a(S'5ht7'
p39
I199
I209
tp40
a(S'5ht7'
p41
I621
I626
tp42
a(S'5ht7'
p43
I1620
I1625
tp44
atp45
Rp46
sS'raw_text_methods'
p47
g3
((lp48
S"(13, u'\\\\bagonist')"
p49
aS"(12, u'\\\\bantagonist')"
p50
atp51
Rp52
sS'regions'
p53
g3
((lp54
tp55
Rp56
sS'year'
p57
V2007
p58
sS'species'
p59
g3
((lp60
S"(1, u'(?i)\\\\b(mice|mouse)\\\\b')"
p61
aS"(5, u'(?i)\\\\b(mices|mice)\\\\b')"
p62
atp63
Rp64
sb.