(ifile_types
ParseObject
p0
(dp1
S'methods'
p2
c__builtin__
set
p3
((lp4
S'Method.ANTAGONIST'
p5
atp6
Rp7
sS'topics'
p8
g3
((lp9
tp10
Rp11
sS'receptors'
p12
g3
((lp13
(S'5ht3'
p14
I34
I39
tp15
a(S'5ht3'
p16
I210
I215
tp17
a(S'5ht3'
p18
I590
I595
tp19
a(S'5ht3'
p20
I1463
I1468
tp21
a(S'5ht3'
p22
I1553
I1558
tp23
atp24
Rp25
sS'raw_text_methods'
p26
g3
((lp27
S"(12, u'\\\\bantagonist')"
p28
atp29
Rp30
sS'regions'
p31
g3
((lp32
S"(12, u'(?i)\\\\b(amygdalas|amygdala)\\\\b')"
p33
atp34
Rp35
sS'year'
p36
V2001
p37
sS'species'
p38
g3
((lp39
S"(4, u'(?i)\\\\b(rats|rat)\\\\b')"
p40
atp41
Rp42
sb.