(ifile_types
ParseObject
p0
(dp1
S'antagonists'
p2
c__builtin__
set
p3
((lp4
S"(34, u'\\\\byohimbine')"
p5
atp6
Rp7
sS'methods'
p8
g3
((lp9
S'Method.ANTAGONIST'
p10
aS'Method.AGONIST'
p11
atp12
Rp13
sS'topics'
p14
g3
((lp15
S"(30, u'\\\\bparkinsons')"
p16
atp17
Rp18
sS'receptors'
p19
g3
((lp20
S'5ht1b'
p21
aS'5ht1a'
p22
atp23
Rp24
sS'regions'
p25
g3
((lp26
S"(34, u'(?i)(pon|pons)')"
p27
atp28
Rp29
sS'year'
p30
V2012
p31
sS'agonists'
p32
g3
((lp33
S"(89, u'\\\\byohimbine')"
p34
aS"(92, u'\\\\b8 ?oh ?dpat')"
p35
aS"(108, u'\\\\bcp ?94253')"
p36
aS"(14, u'\\\\bamphetamine')"
p37
atp38
Rp39
sS'species'
p40
g3
((lp41
S"(2323, u'(?i)(bees|bee)')"
p42
aS"(6753, u'(?i)(da|das)')"
p43
aS"(5958, u'(?i)(rats|rat)')"
p44
aS"(2666, u'(?i)(mantas|manta)')"
p45
aS"(4201, u'(?i)(kines|kine)')"
p46
aS"(5551, u'(?i)(owls|owl)')"
p47
aS"(6249, u'(?i)(ants|ant)')"
p48
aS"(468, u'(?i)(oxen|ox)')"
p49
aS"(1055, u'(?i)(men|man)')"
p50
aS"(3726, u'(?i)(mates|mate)')"
p51
aS"(6580, u'(?i)(dams|dam)')"
p52
aS"(4979, u'(?i)(cats|cat)')"
p53
aS"(3550, u'(?i)(anis|ani)')"
p54
aS"(1961, u'(?i)(pens|pen)')"
p55
aS"(1414, u'(?i)(chars|char)')"
p56
aS"(6391, u'(?i)(asses|ass)')"
p57
aS"(6356, u'(?i)(ais|ai)')"
p58
atp59
Rp60
sb.