(ifile_types
ParseObject
p0
(dp1
S'antagonists'
p2
c__builtin__
set
p3
((lp4
S"(53, u'\\\\bketanserin')"
p5
aS"(108, u'\\\\brs ?102221')"
p6
aS"(128, u'\\\\bketanserin')"
p7
atp8
Rp9
sS'methods'
p10
g3
((lp11
S'Method.ANTAGONIST'
p12
aS'Method.AGONIST'
p13
atp14
Rp15
sS'topics'
p16
g3
((lp17
tp18
Rp19
sS'receptors'
p20
g3
((lp21
S'5ht4a'
p22
aS'5ht4'
p23
aS'5ht2'
p24
aS'5ht1'
p25
aS'5ht2c'
p26
atp27
Rp28
sS'regions'
p29
g3
((lp30
S"(219, u'(?i)(basals|basal)(-|\\\\s+)?(ganglias|ganglia)')"
p31
aS"(318, u'(?i)(raphes|raphe)(-|\\\\s+)?(nuclei|nucleus)')"
p32
aS"(189, u'(?i)(subthalamics|subthalamic)(-|\\\\s+)?(nuclei|nucleus)')"
p33
aS"(34, u'(?i)(pon|pons)')"
p34
atp35
Rp36
sS'year'
p37
V2005
p38
sS'agonists'
p39
g3
((lp40
S"(202, u'\\\\bcisapride')"
p41
aS"(155, u'\\\\bmem')"
p42
aS"(33, u'\\\\bdoi')"
p43
atp44
Rp45
sS'species'
p46
g3
((lp47
S"(6753, u'(?i)(da|das)')"
p48
aS"(5958, u'(?i)(rats|rat)')"
p49
aS"(7609, u'(?i)(erns|ern)')"
p50
aS"(4979, u'(?i)(cats|cat)')"
p51
aS"(7094, u'(?i)(curs|cur)')"
p52
aS"(4964, u'(?i)(serins|serin)')"
p53
aS"(6249, u'(?i)(ants|ant)')"
p54
aS"(821, u'(?i)(lice|louse)')"
p55
aS"(1961, u'(?i)(pens|pen)')"
p56
aS"(6356, u'(?i)(ais|ai)')"
p57
aS"(6391, u'(?i)(asses|ass)')"
p58
aS"(1683, u'(?i)(terns|tern)')"
p59
atp60
Rp61
sb.