(ifile_types
ParseObject
p0
(dp1
S'antagonists'
p2
c__builtin__
set
p3
((lp4
tp5
Rp6
sS'methods'
p7
g3
((lp8
S'Method.ANTAGONIST'
p9
atp10
Rp11
sS'topics'
p12
g3
((lp13
S"(9, u'\\\\bdepress')"
p14
aS"(14, u'\\\\bpsychosis')"
p15
atp16
Rp17
sS'receptors'
p18
g3
((lp19
S'5ht7'
p20
aS'5ht1b'
p21
aS'5ht5'
p22
aS'5ht1a'
p23
aS'5ht2a'
p24
atp25
Rp26
sS'regions'
p27
g3
((lp28
S"(34, u'(?i)(pon|pons)')"
p29
atp30
Rp31
sS'year'
p32
V2014
p33
sS'agonists'
p34
g3
((lp35
tp36
Rp37
sS'species'
p38
g3
((lp39
S"(4624, u'(?i)(apes|ape)')"
p40
aS"(2568, u'(?i)(hens|hen)')"
p41
aS"(7609, u'(?i)(erns|ern)')"
p42
aS"(867, u'(?i)(tits|tit)')"
p43
aS"(6753, u'(?i)(da|das)')"
p44
aS"(468, u'(?i)(oxen|ox)')"
p45
aS"(1055, u'(?i)(men|man)')"
p46
aS"(6249, u'(?i)(ants|ant)')"
p47
aS"(4979, u'(?i)(cats|cat)')"
p48
aS"(5958, u'(?i)(rats|rat)')"
p49
aS"(1683, u'(?i)(terns|tern)')"
p50
atp51
Rp52
sb.