(ifile_types
ParseObject
p0
(dp1
S'antagonists'
p2
c__builtin__
set
p3
((lp4
S"(21, u'\\\\bpindolol')"
p5
aS"(31, u'\\\\bway ?100635')"
p6
atp7
Rp8
sS'methods'
p9
g3
((lp10
S'Method.PET'
p11
atp12
Rp13
sS'topics'
p14
g3
((lp15
S"(9, u'\\\\bdepress')"
p16
aS"(10, u'\\\\banxiety')"
p17
atp18
Rp19
sS'receptors'
p20
g3
((lp21
S'5ht1a'
p22
atp23
Rp24
sS'regions'
p25
g3
((lp26
tp27
Rp28
sS'year'
p29
V2000
p30
sS'agonists'
p31
g3
((lp32
S"(20, u'\\\\bbuspirone')"
p33
aS"(68, u'\\\\bs ?15535')"
p34
atp35
Rp36
sS'species'
p37
g3
((lp38
S"(1055, u'(?i)\\\\b(men|man)\\\\b')"
p39
aS"(1070, u'(?i)\\\\b(pets|pet)\\\\b')"
p40
atp41
Rp42
sb.