(ifile_types
ParseObject
p0
(dp1
S'methods'
p2
c__builtin__
set
p3
((lp4
S'Method.STIMULATION'
p5
aS'Method.ANTAGONIST'
p6
atp7
Rp8
sS'topics'
p9
g3
((lp10
S"(26, u'\\\\bbehav')"
p11
aS"(35, u'\\\\bnocicept')"
p12
atp13
Rp14
sS'receptors'
p15
g3
((lp16
(S'5ht3'
p17
I1874
I1879
tp18
a(S'5ht1'
p19
I2133
I2138
tp20
a(S'5ht2'
p21
I1823
I1828
tp22
atp23
Rp24
sS'raw_text_methods'
p25
g3
((lp26
S"(23, u'\\\\bmdl')"
p27
aS"(26, u'\\\\bmdl72222')"
p28
aS"(12, u'\\\\bantagonist')"
p29
atp30
Rp31
sS'regions'
p32
g3
((lp33
tp34
Rp35
sS'year'
p36
V1991
p37
sS'species'
p38
g3
((lp39
S"(4, u'(?i)\\\\b(rats|rat)\\\\b')"
p40
atp41
Rp42
sb.