(ifile_types
ParseObject
p0
(dp1
S'antagonists'
p2
c__builtin__
set
p3
((lp4
tp5
Rp6
sS'methods'
p7
g3
((lp8
S'Method.IMMUNOHISTOCHEMISTRY'
p9
atp10
Rp11
sS'topics'
p12
g3
((lp13
S"(35, u'\\\\bstress')"
p14
atp15
Rp16
sS'receptors'
p17
g3
((lp18
S'5ht1a'
p19
atp20
Rp21
sS'regions'
p22
g3
((lp23
S"(318, u'(?i)(raphes|raphe)(-|\\\\s+)?(nuclei|nucleus)')"
p24
aS"(94, u'(?i)(dorsals|dorsal)(-|\\\\s+)?(raphes|raphe)(-|\\\\s+)?(nuclei|nucleus)')"
p25
atp26
Rp27
sS'year'
p28
V2012
p29
sS'agonists'
p30
g3
((lp31
tp32
Rp33
sS'species'
p34
g3
((lp35
S"(2568, u'(?i)(hens|hen)')"
p36
aS"(6356, u'(?i)(ais|ai)')"
p37
aS"(7609, u'(?i)(erns|ern)')"
p38
aS"(5958, u'(?i)(rats|rat)')"
p39
aS"(6753, u'(?i)(da|das)')"
p40
aS"(479, u'(?i)(lings|ling)')"
p41
aS"(5967, u'(?i)(males|male)')"
p42
aS"(468, u'(?i)(oxen|ox)')"
p43
aS"(1349, u'(?i)(rams|ram)')"
p44
aS"(6249, u'(?i)(ants|ant)')"
p45
aS"(5743, u'(?i)(bots|bot)')"
p46
aS"(3550, u'(?i)(anis|ani)')"
p47
aS"(5229, u'(?i)(moles|mole)')"
p48
aS"(1961, u'(?i)(pens|pen)')"
p49
aS"(3812, u'(?i)(studs|stud)')"
p50
aS"(6391, u'(?i)(asses|ass)')"
p51
aS"(1683, u'(?i)(terns|tern)')"
p52
atp53
Rp54
sb.