(ifile_types
ParseObject
p0
(dp1
S'antagonists'
p2
c__builtin__
set
p3
((lp4
tp5
Rp6
sS'methods'
p7
g3
((lp8
S'Method.AGONIST'
p9
atp10
Rp11
sS'topics'
p12
g3
((lp13
tp14
Rp15
sS'receptors'
p16
g3
((lp17
S'5ht1a'
p18
atp19
Rp20
sS'regions'
p21
g3
((lp22
S"(115, u'(?i)\\\\b(aqueducts|aqueduct)(-|\\\\s+)?(ofs|of)(-|\\\\s+)?(sylviuses|sylvius)\\\\b')"
p23
aS"(390, u'(?i)\\\\b(laterals|lateral)(-|\\\\s+)?(ventricle|ventricles)\\\\b')"
p24
aS"(70, u'(?i)\\\\b(fourths|fourth)(-|\\\\s+)?(ventricles|ventricle)\\\\b')"
p25
atp26
Rp27
sS'year'
p28
V2003
p29
sS'agonists'
p30
g3
((lp31
S"(85, u'\\\\b8 ?oh ?dpat')"
p32
atp33
Rp34
sS'species'
p35
g3
((lp36
S"(5958, u'(?i)\\\\b(rats|rat)\\\\b')"
p37
atp38
Rp39
sb.