(ifile_types
ParseObject
p0
(dp1
S'antagonists'
p2
c__builtin__
set
p3
((lp4
S"(97, u'\\\\bsb ?200646')"
p5
atp6
Rp7
sS'methods'
p8
g3
((lp9
S'Method.ANTAGONIST'
p10
atp11
Rp12
sS'topics'
p13
g3
((lp14
S"(11, u'\\\\banxiolyt')"
p15
atp16
Rp17
sS'receptors'
p18
g3
((lp19
S'5ht2b'
p20
aS'5ht2'
p21
aS'5ht2c'
p22
atp23
Rp24
sS'regions'
p25
g3
((lp26
S"(220, u'(?i)\\\\b(striatums|striatum)\\\\b')"
p27
aS"(209, u'(?i)\\\\b(amygdalas|amygdala)\\\\b')"
p28
atp29
Rp30
sS'year'
p31
V2011
p32
sS'agonists'
p33
g3
((lp34
tp35
Rp36
sS'species'
p37
g3
((lp38
S"(6753, u'(?i)\\\\b(da|das)\\\\b')"
p39
aS"(163, u'(?i)\\\\b(mice|mouse)\\\\b')"
p40
atp41
Rp42
sb.