(ifile_types
ParseObject
p0
(dp1
S'antagonists'
p2
c__builtin__
set
p3
((lp4
S"(114, u'\\\\bimipramine')"
p5
aS"(141, u'\\\\bzacopride')"
p6
atp7
Rp8
sS'methods'
p9
g3
((lp10
tp11
Rp12
sS'topics'
p13
g3
((lp14
tp15
Rp16
sS'receptors'
p17
g3
((lp18
S'5ht1a'
p19
aS'5ht4'
p20
atp21
Rp22
sS'regions'
p23
g3
((lp24
tp25
Rp26
sS'year'
p27
V2006
p28
sS'agonists'
p29
g3
((lp30
S"(92, u'\\\\b8 ?oh ?dpat')"
p31
aS"(212, u'\\\\bzacopride')"
p32
atp33
Rp34
sS'species'
p35
g3
((lp36
S"(1070, u'(?i)(pets|pet)')"
p37
aS"(5537, u'(?i)(hippos|hippo)')"
p38
aS"(5958, u'(?i)(rats|rat)')"
p39
aS"(6356, u'(?i)(ais|ai)')"
p40
aS"(867, u'(?i)(tits|tit)')"
p41
aS"(6753, u'(?i)(da|das)')"
p42
aS"(1055, u'(?i)(men|man)')"
p43
aS"(6682, u'(?i)(tera|teras)')"
p44
aS"(1349, u'(?i)(rams|ram)')"
p45
aS"(3404, u'(?i)(titis|titi)')"
p46
aS"(4979, u'(?i)(cats|cat)')"
p47
aS"(3812, u'(?i)(studs|stud)')"
p48
aS"(821, u'(?i)(lice|louse)')"
p49
aS"(4133, u'(?i)(pikes|pike)')"
p50
atp51
Rp52
sb.