(ifile_types
ParseObject
p0
(dp1
S'methods'
p2
c__builtin__
set
p3
((lp4
S'Method.ANTAGONIST'
p5
aS'Method.AGONIST'
p6
atp7
Rp8
sS'topics'
p9
g3
((lp10
S"(16, u'\\\\blearning')"
p11
aS"(4, u'\\\\btreatment')"
p12
aS"(15, u'\\\\bmemory')"
p13
atp14
Rp15
sS'receptors'
p16
g3
((lp17
(S'5ht1a'
p18
I1561
I1567
tp19
a(S'5ht1a'
p20
I1801
I1807
tp21
a(S'5ht1a'
p22
I42
I48
tp23
a(S'5ht1a'
p24
I1269
I1275
tp25
a(S'5ht1a'
p26
I984
I990
tp27
a(S'5ht1a'
p28
I717
I723
tp29
a(S'5ht1a'
p30
I256
I262
tp31
atp32
Rp33
sS'raw_text_methods'
p34
g3
((lp35
S"(13, u'\\\\bagonist')"
p36
aS"(15, u'\\\\b8ohdpat')"
p37
aS"(12, u'\\\\bantagonist')"
p38
atp39
Rp40
sS'regions'
p41
g3
((lp42
S"(19, u'(?i)\\\\b(cortexes|cortex)\\\\b')"
p43
aS"(4, u'(?i)\\\\b(presynaptics|presynaptic)\\\\b')"
p44
aS"(3, u'(?i)\\\\b(postsynaptics|postsynaptic)\\\\b')"
p45
aS"(7, u'(?i)\\\\b(entorhinals|entorhinal)\\\\b')"
p46
atp47
Rp48
sS'year'
p49
V1998
p50
sS'species'
p51
g3
((lp52
S"(4, u'(?i)\\\\b(rats|rat)\\\\b')"
p53
atp54
Rp55
sb.