(ifile_types
ParseObject
p0
(dp1
S'antagonists'
p2
c__builtin__
set
p3
((lp4
tp5
Rp6
sS'methods'
p7
g3
((lp8
S'Method.AGONIST'
p9
atp10
Rp11
sS'topics'
p12
g3
((lp13
tp14
Rp15
sS'receptors'
p16
g3
((lp17
S'5ht5'
p18
aS'5ht1a'
p19
aS'5ht2'
p20
atp21
Rp22
sS'regions'
p23
g3
((lp24
S"(236, u'(?i)(septals|septal)(-|\\\\s+)?(nuclei|nucleus)')"
p25
aS"(34, u'(?i)(pon|pons)')"
p26
atp27
Rp28
sS'year'
p29
V1996
p30
sS'agonists'
p31
g3
((lp32
S"(92, u'\\\\b8 ?oh ?dpat')"
p33
aS"(155, u'\\\\bmem')"
p34
atp35
Rp36
sS'species'
p37
g3
((lp38
S"(5958, u'(?i)(rats|rat)')"
p39
aS"(3601, u'(?i)(efts|eft)')"
p40
aS"(6753, u'(?i)(da|das)')"
p41
aS"(4163, u'(?i)(ermines|ermine)')"
p42
aS"(1725, u'(?i)(clams|clam)')"
p43
aS"(468, u'(?i)(oxen|ox)')"
p44
aS"(1055, u'(?i)(men|man)')"
p45
aS"(7094, u'(?i)(curs|cur)')"
p46
aS"(3592, u'(?i)(ravens|raven)')"
p47
aS"(4979, u'(?i)(cats|cat)')"
p48
aS"(6249, u'(?i)(ants|ant)')"
p49
aS"(6682, u'(?i)(tera|teras)')"
p50
aS"(6356, u'(?i)(ais|ai)')"
p51
aS"(821, u'(?i)(lice|louse)')"
p52
atp53
Rp54
sb.