(ifile_types
ParseObject
p0
(dp1
S'methods'
p2
c__builtin__
set
p3
((lp4
tp5
Rp6
sS'topics'
p7
g3
((lp8
S"(26, u'\\\\bbehav')"
p9
aS"(7, u'\\\\bdepressi')"
p10
aS"(13, u'\\\\bantidepress')"
p11
aS"(2, u'\\\\bdisorder')"
p12
atp13
Rp14
sS'receptors'
p15
g3
((lp16
(S'5ht1a'
p17
I1535
I1541
tp18
a(S'5ht1a'
p19
I28
I34
tp20
a(S'5ht1a'
p21
I814
I820
tp22
a(S'5ht1a'
p23
I879
I885
tp24
a(S'5ht1a'
p25
I671
I677
tp26
a(S'5ht1a'
p27
I1727
I1733
tp28
a(S'5ht1a'
p29
I1355
I1361
tp30
atp31
Rp32
sS'raw_text_methods'
p33
g3
((lp34
tp35
Rp36
sS'regions'
p37
g3
((lp38
S"(16, u'(?i)\\\\b(drns|drn)\\\\b')"
p39
atp40
Rp41
sS'year'
p42
V2016
p43
sS'species'
p44
g3
((lp45
S"(1, u'(?i)\\\\b(mice|mouse)\\\\b')"
p46
aS"(5, u'(?i)\\\\b(mices|mice)\\\\b')"
p47
aS"(4, u'(?i)\\\\b(rats|rat)\\\\b')"
p48
atp49
Rp50
sb.