(ifile_types
ParseObject
p0
(dp1
S'methods'
p2
c__builtin__
set
p3
((lp4
S'Method.IMMUNOHISTOCHEMISTRY'
p5
atp6
Rp7
sS'topics'
p8
g3
((lp9
tp10
Rp11
sS'receptors'
p12
g3
((lp13
(S'5ht1a'
p14
I633
I638
tp15
a(S'5ht1a'
p16
I1244
I1249
tp17
a(S'5ht1a'
p18
I947
I952
tp19
a(S'5ht1a'
p20
I782
I787
tp21
atp22
Rp23
sS'raw_text_methods'
p24
g3
((lp25
tp26
Rp27
sS'regions'
p28
g3
((lp29
tp30
Rp31
sS'year'
p32
V2007
p33
sS'species'
p34
g3
((lp35
S"(4, u'(?i)\\\\b(rats|rat)\\\\b')"
p36
atp37
Rp38
sb.