(ifile_types
ParseObject
p0
(dp1
S'antagonists'
p2
c__builtin__
set
p3
((lp4
tp5
Rp6
sS'methods'
p7
g3
((lp8
S'Method.PET'
p9
aS'Method.AGONIST'
p10
atp11
Rp12
sS'topics'
p13
g3
((lp14
tp15
Rp16
sS'receptors'
p17
g3
((lp18
S'5ht5'
p19
aS'5ht1a'
p20
atp21
Rp22
sS'regions'
p23
g3
((lp24
S"(209, u'(?i)(amygdalas|amygdala)')"
p25
aS"(291, u'(?i)(cingulates|cingulate)(-|\\\\s+)?(cortexes|cortex)')"
p26
aS"(259, u'(?i)(middles|middle)(-|\\\\s+)?(frontals|frontal)(-|\\\\s+)?(gyruses|gyrus)')"
p27
aS"(292, u'(?i)(anteriors|anterior)(-|\\\\s+)?(cingulates|cingulate)')"
p28
aS"(267, u'(?i)(precuneuses|precuneus)')"
p29
aS"(276, u'(?i)(cuneuses|cuneus)')"
p30
aS"(34, u'(?i)(pon|pons)')"
p31
aS"(318, u'(?i)(raphes|raphe)(-|\\\\s+)?(nuclei|nucleus)')"
p32
aS"(94, u'(?i)(dorsals|dorsal)(-|\\\\s+)?(raphes|raphe)(-|\\\\s+)?(nuclei|nucleus)')"
p33
atp34
Rp35
sS'year'
p36
V2015
p37
sS'agonists'
p38
g3
((lp39
tp40
Rp41
sS'species'
p42
g3
((lp43
S"(2568, u'(?i)(hens|hen)')"
p44
aS"(3601, u'(?i)(efts|eft)')"
p45
aS"(6753, u'(?i)(da|das)')"
p46
aS"(6682, u'(?i)(tera|teras)')"
p47
aS"(6249, u'(?i)(ants|ant)')"
p48
aS"(468, u'(?i)(oxen|ox)')"
p49
aS"(1349, u'(?i)(rams|ram)')"
p50
aS"(3726, u'(?i)(mates|mate)')"
p51
aS"(1055, u'(?i)(men|man)')"
p52
aS"(3812, u'(?i)(studs|stud)')"
p53
aS"(5958, u'(?i)(rats|rat)')"
p54
aS"(1057, u'(?i)(humans|human)')"
p55
aS"(6391, u'(?i)(asses|ass)')"
p56
aS"(1414, u'(?i)(chars|char)')"
p57
aS"(3196, u'(?i)(human|humans)')"
p58
aS"(2809, u'(?i)(toms|tom)')"
p59
aS"(6356, u'(?i)(ais|ai)')"
p60
atp61
Rp62
sb.