(ifile_types
ParseObject
p0
(dp1
S'antagonists'
p2
c__builtin__
set
p3
((lp4
S"(194, u'\\\\bmethysergide')"
p5
aS"(33, u'\\\\byohimbine')"
p6
atp7
Rp8
sS'methods'
p9
g3
((lp10
S'Method.ANTAGONIST'
p11
aS'Method.AGONIST'
p12
atp13
Rp14
sS'topics'
p15
g3
((lp16
S"(9, u'\\\\bdepress')"
p17
aS"(3, u'\\\\bsleep')"
p18
atp19
Rp20
sS'receptors'
p21
g3
((lp22
S'5ht1a'
p23
atp24
Rp25
sS'regions'
p26
g3
((lp27
S"(318, u'(?i)\\\\b(raphes|raphe)(-|\\\\s+)?(nuclei|nucleus)\\\\b')"
p28
atp29
Rp30
sS'year'
p31
V2018
p32
sS'agonists'
p33
g3
((lp34
S"(53, u'\\\\bmethysergide')"
p35
aS"(85, u'\\\\b8 ?oh ?dpat')"
p36
aS"(82, u'\\\\byohimbine')"
p37
atp38
Rp39
sS'species'
p40
g3
((lp41
S"(5967, u'(?i)\\\\b(males|male)\\\\b')"
p42
aS"(4091, u'(?i)\\\\b(adults|adult)\\\\b')"
p43
aS"(5958, u'(?i)\\\\b(rats|rat)\\\\b')"
p44
atp45
Rp46
sb.