(ifile_types
ParseObject
p0
(dp1
S'methods'
p2
c__builtin__
set
p3
((lp4
S'Method.ANTAGONIST'
p5
atp6
Rp7
sS'topics'
p8
g3
((lp9
S"(5, u'\\\\btherap')"
p10
aS"(23, u'\\\\bantipsychotic')"
p11
aS"(4, u'\\\\btreatment')"
p12
aS"(3, u'\\\\bclinical')"
p13
atp14
Rp15
sS'receptors'
p16
g3
((lp17
(S'5ht2c'
p18
I225
I231
tp19
a(S'5ht2c'
p20
I1177
I1183
tp21
a(S'5ht2c'
p22
I1276
I1282
tp23
a(S'5ht2c'
p24
I1924
I1930
tp25
atp26
Rp27
sS'raw_text_methods'
p28
g3
((lp29
S"(40, u'\\\\bclozapine')"
p30
aS"(12, u'\\\\bantagonist')"
p31
atp32
Rp33
sS'regions'
p34
g3
((lp35
tp36
Rp37
sS'year'
p38
V2005
p39
sS'species'
p40
g3
((lp41
S"(4, u'(?i)\\\\b(rats|rat)\\\\b')"
p42
atp43
Rp44
sb.