(ifile_types
ParseObject
p0
(dp1
S'antagonists'
p2
c__builtin__
set
p3
((lp4
S"(114, u'\\\\bimipramine')"
p5
atp6
Rp7
sS'methods'
p8
g3
((lp9
S'Method.ANTAGONIST'
p10
atp11
Rp12
sS'topics'
p13
g3
((lp14
S"(9, u'\\\\bdepress')"
p15
aS"(35, u'\\\\bstress')"
p16
aS"(4, u'\\\\blocomot')"
p17
atp18
Rp19
sS'receptors'
p20
g3
((lp21
S'5ht2a'
p22
atp23
Rp24
sS'regions'
p25
g3
((lp26
tp27
Rp28
sS'year'
p29
V2018
p30
sS'agonists'
p31
g3
((lp32
tp33
Rp34
sS'species'
p35
g3
((lp36
S"(5958, u'(?i)(rats|rat)')"
p37
aS"(6356, u'(?i)(ais|ai)')"
p38
aS"(867, u'(?i)(tits|tit)')"
p39
aS"(163, u'(?i)(mice|mouse)')"
p40
aS"(4201, u'(?i)(kines|kine)')"
p41
aS"(468, u'(?i)(oxen|ox)')"
p42
aS"(1349, u'(?i)(rams|ram)')"
p43
aS"(1055, u'(?i)(men|man)')"
p44
aS"(3812, u'(?i)(studs|stud)')"
p45
aS"(6249, u'(?i)(ants|ant)')"
p46
aS"(1961, u'(?i)(pens|pen)')"
p47
aS"(1414, u'(?i)(chars|char)')"
p48
aS"(5743, u'(?i)(bots|bot)')"
p49
aS"(5674, u'(?i)(ewes|ewe)')"
p50
atp51
Rp52
sb.