(ifile_types
ParseObject
p0
(dp1
S'antagonists'
p2
c__builtin__
set
p3
((lp4
S"(32, u'\\\\bway ?100635')"
p5
atp6
Rp7
sS'methods'
p8
g3
((lp9
S'Method.ANTAGONIST'
p10
aS'Method.AGONIST'
p11
atp12
Rp13
sS'topics'
p14
g3
((lp15
S"(8, u'\\\\blearning')"
p16
aS"(6, u'\\\\bcognit')"
p17
aS"(7, u'\\\\bmemory')"
p18
atp19
Rp20
sS'receptors'
p21
g3
((lp22
S'5ht5'
p23
aS'5ht3'
p24
aS'5ht1a'
p25
aS'5ht1'
p26
atp27
Rp28
sS'regions'
p29
g3
((lp30
tp31
Rp32
sS'year'
p33
V2012
p34
sS'agonists'
p35
g3
((lp36
S"(155, u'\\\\bmem')"
p37
atp38
Rp39
sS'species'
p40
g3
((lp41
S"(5537, u'(?i)(hippos|hippo)')"
p42
aS"(2568, u'(?i)(hens|hen)')"
p43
aS"(3137, u'(?i)(iguanids|iguanid)')"
p44
aS"(5958, u'(?i)(rats|rat)')"
p45
aS"(6753, u'(?i)(da|das)')"
p46
aS"(468, u'(?i)(oxen|ox)')"
p47
aS"(1055, u'(?i)(men|man)')"
p48
aS"(6249, u'(?i)(ants|ant)')"
p49
aS"(1349, u'(?i)(rams|ram)')"
p50
aS"(6356, u'(?i)(ais|ai)')"
p51
aS"(3550, u'(?i)(anis|ani)')"
p52
aS"(7094, u'(?i)(curs|cur)')"
p53
aS"(1961, u'(?i)(pens|pen)')"
p54
aS"(3812, u'(?i)(studs|stud)')"
p55
aS"(6878, u'(?i)(guans|guan)')"
p56
atp57
Rp58
sb.