(ifile_types
ParseObject
p0
(dp1
S'antagonists'
p2
c__builtin__
set
p3
((lp4
tp5
Rp6
sS'methods'
p7
g3
((lp8
S'Method.KNOCKOUT'
p9
aS'Method.STAINING'
p10
aS'Method.IMMUNOHISTOCHEMISTRY'
p11
atp12
Rp13
sS'topics'
p14
g3
((lp15
tp16
Rp17
sS'receptors'
p18
g3
((lp19
S'5ht5'
p20
aS'5ht2c'
p21
aS'5ht2'
p22
aS'5ht2a'
p23
atp24
Rp25
sS'regions'
p26
g3
((lp27
S"(96, u'(?i)(ventrals|ventral)(-|\\\\s+)?(tegmentals|tegmental)(-|\\\\s+)?(areas|area)')"
p28
atp29
Rp30
sS'year'
p31
V2005
p32
sS'agonists'
p33
g3
((lp34
tp35
Rp36
sS'species'
p37
g3
((lp38
S"(5176, u'(?i)(tegs|teg)')"
p39
aS"(2568, u'(?i)(hens|hen)')"
p40
aS"(5958, u'(?i)(rats|rat)')"
p41
aS"(163, u'(?i)(mice|mouse)')"
p42
aS"(6753, u'(?i)(da|das)')"
p43
aS"(479, u'(?i)(lings|ling)')"
p44
aS"(5967, u'(?i)(males|male)')"
p45
aS"(5551, u'(?i)(owls|owl)')"
p46
aS"(1055, u'(?i)(men|man)')"
p47
aS"(6249, u'(?i)(ants|ant)')"
p48
aS"(2942, u'(?i)(daws|daw)')"
p49
aS"(3550, u'(?i)(anis|ani)')"
p50
aS"(5799, u'(?i)(rodents|rodent)')"
p51
aS"(4371, u'(?i)(lizas|liza)')"
p52
aS"(3812, u'(?i)(studs|stud)')"
p53
aS"(6391, u'(?i)(asses|ass)')"
p54
aS"(5743, u'(?i)(bots|bot)')"
p55
aS"(6356, u'(?i)(ais|ai)')"
p56
atp57
Rp58
sb.