(ifile_types
ParseObject
p0
(dp1
S'antagonists'
p2
c__builtin__
set
p3
((lp4
tp5
Rp6
sS'methods'
p7
g3
((lp8
S'Method.AGONIST'
p9
atp10
Rp11
sS'topics'
p12
g3
((lp13
tp14
Rp15
sS'receptors'
p16
g3
((lp17
S'5ht1c'
p18
aS'5ht1b'
p19
aS'5ht5'
p20
aS'5ht1a'
p21
aS'5ht2'
p22
atp23
Rp24
sS'regions'
p25
g3
((lp26
tp27
Rp28
sS'year'
p29
V1988
p30
sS'agonists'
p31
g3
((lp32
S"(56, u'\\\\blsd')"
p33
aS"(181, u'\\\\bdom')"
p34
aS"(57, u'\\\\bmescaline')"
p35
atp36
Rp37
sS'species'
p38
g3
((lp39
S"(2323, u'(?i)(bees|bee)')"
p40
aS"(2568, u'(?i)(hens|hen)')"
p41
aS"(867, u'(?i)(tits|tit)')"
p42
aS"(6753, u'(?i)(da|das)')"
p43
aS"(468, u'(?i)(oxen|ox)')"
p44
aS"(4163, u'(?i)(ermines|ermine)')"
p45
aS"(4979, u'(?i)(cats|cat)')"
p46
aS"(3550, u'(?i)(anis|ani)')"
p47
aS"(6682, u'(?i)(tera|teras)')"
p48
aS"(5958, u'(?i)(rats|rat)')"
p49
aS"(6356, u'(?i)(ais|ai)')"
p50
atp51
Rp52
sb.