(ifile_types
ParseObject
p0
(dp1
S'methods'
p2
c__builtin__
set
p3
((lp4
S'Method.ANTAGONIST'
p5
atp6
Rp7
sS'topics'
p8
g3
((lp9
tp10
Rp11
sS'receptors'
p12
g3
((lp13
(S'5ht1a'
p14
I790
I801
tp15
a(S'5ht1a'
p16
I1700
I1706
tp17
a(S'5ht1a'
p18
I176
I187
tp19
a(S'5ht1a'
p20
I804
I810
tp21
atp22
Rp23
sS'raw_text_methods'
p24
g3
((lp25
S"(51, u'\\\\bway100635')"
p26
aS"(32, u'\\\\blesions')"
p27
aS"(12, u'\\\\bantagonist')"
p28
atp29
Rp30
sS'regions'
p31
g3
((lp32
S"(20, u'(?i)\\\\b(prefrontals|prefrontal)\\\\b')"
p33
aS"(19, u'(?i)\\\\b(cortexes|cortex)\\\\b')"
p34
atp35
Rp36
sS'year'
p37
V2005
p38
sS'species'
p39
g3
((lp40
tp41
Rp42
sb.