(ifile_types
ParseObject
p0
(dp1
S'antagonists'
p2
c__builtin__
set
p3
((lp4
S"(193, u'\\\\bmesulergine')"
p5
atp6
Rp7
sS'methods'
p8
g3
((lp9
tp10
Rp11
sS'topics'
p12
g3
((lp13
tp14
Rp15
sS'receptors'
p16
g3
((lp17
S'5ht2c'
p18
atp19
Rp20
sS'regions'
p21
g3
((lp22
tp23
Rp24
sS'year'
p25
V1997
p26
sS'agonists'
p27
g3
((lp28
S"(165, u'\\\\bmesulergine')"
p29
aS"(176, u'\\\\bdom')"
p30
atp31
Rp32
sS'species'
p33
g3
((lp34
S"(7168, u'(?i)\\\\b(kittens|kitten)\\\\b')"
p35
atp36
Rp37
sb.