(ifile_types
ParseObject
p0
(dp1
S'methods'
p2
c__builtin__
set
p3
((lp4
S'Method.ANTAGONIST'
p5
aS'Method.AGONIST'
p6
atp7
Rp8
sS'topics'
p9
g3
((lp10
S"(24, u'\\\\banxiolytic')"
p11
aS"(8, u'\\\\banxi')"
p12
aS"(26, u'\\\\bbehav')"
p13
atp14
Rp15
sS'receptors'
p16
g3
((lp17
(S'5ht3'
p18
I705
I710
tp19
a(S'5ht2a'
p20
I578
I584
tp21
atp22
Rp23
sS'raw_text_methods'
p24
g3
((lp25
S"(53, u'\\\\bketanserin')"
p26
aS"(7, u'\\\\bpropranolol')"
p27
aS"(16, u'\\\\bdiazepam')"
p28
aS"(20, u'\\\\bondansetron')"
p29
aS"(36, u'\\\\bbenzodiazepine')"
p30
aS"(13, u'\\\\bagonist')"
p31
aS"(12, u'\\\\bantagonist')"
p32
atp33
Rp34
sS'regions'
p35
g3
((lp36
S"(23, u'(?i)\\\\b(forebrains|forebrain)\\\\b')"
p37
atp38
Rp39
sS'year'
p40
V1996
p41
sS'species'
p42
g3
((lp43
S"(3, u'(?i)\\\\b(males|male)\\\\b')"
p44
aS"(4, u'(?i)\\\\b(rats|rat)\\\\b')"
p45
atp46
Rp47
sb.