(ifile_types
ParseObject
p0
(dp1
S'antagonists'
p2
c__builtin__
set
p3
((lp4
tp5
Rp6
sS'methods'
p7
g3
((lp8
tp9
Rp10
sS'topics'
p11
g3
((lp12
tp13
Rp14
sS'receptors'
p15
g3
((lp16
S'5ht5'
p17
atp18
Rp19
sS'regions'
p20
g3
((lp21
S"(220, u'(?i)(striatums|striatum)')"
p22
aS"(318, u'(?i)(raphes|raphe)(-|\\\\s+)?(nuclei|nucleus)')"
p23
aS"(34, u'(?i)(pon|pons)')"
p24
atp25
Rp26
sS'year'
p27
V1992
p28
sS'agonists'
p29
g3
((lp30
S"(92, u'\\\\b8 ?oh ?dpat')"
p31
atp32
Rp33
sS'species'
p34
g3
((lp35
S"(5537, u'(?i)(hippos|hippo)')"
p36
aS"(2568, u'(?i)(hens|hen)')"
p37
aS"(5958, u'(?i)(rats|rat)')"
p38
aS"(6753, u'(?i)(da|das)')"
p39
aS"(468, u'(?i)(oxen|ox)')"
p40
aS"(1055, u'(?i)(men|man)')"
p41
aS"(4979, u'(?i)(cats|cat)')"
p42
aS"(3550, u'(?i)(anis|ani)')"
p43
aS"(3522, u'(?i)(tetras|tetra)')"
p44
aS"(3812, u'(?i)(studs|stud)')"
p45
aS"(2809, u'(?i)(toms|tom)')"
p46
aS"(6356, u'(?i)(ais|ai)')"
p47
atp48
Rp49
sb.