(ifile_types
ParseObject
p0
(dp1
S'antagonists'
p2
c__builtin__
set
p3
((lp4
S"(102, u'\\\\bfluoxetine')"
p5
aS"(106, u'\\\\bnorfluoxetine')"
p6
atp7
Rp8
sS'methods'
p9
g3
((lp10
S'Method.AGONIST'
p11
atp12
Rp13
sS'topics'
p14
g3
((lp15
S"(9, u'\\\\bdepress')"
p16
atp17
Rp18
sS'receptors'
p19
g3
((lp20
S'5ht2c'
p21
aS'5ht2a'
p22
atp23
Rp24
sS'regions'
p25
g3
((lp26
tp27
Rp28
sS'year'
p29
V2006
p30
sS'agonists'
p31
g3
((lp32
S"(155, u'\\\\bmem')"
p33
aS"(33, u'\\\\bdoi')"
p34
atp35
Rp36
sS'species'
p37
g3
((lp38
S"(4163, u'(?i)(ermines|ermine)')"
p39
aS"(2568, u'(?i)(hens|hen)')"
p40
aS"(867, u'(?i)(tits|tit)')"
p41
aS"(6753, u'(?i)(da|das)')"
p42
aS"(479, u'(?i)(lings|ling)')"
p43
aS"(468, u'(?i)(oxen|ox)')"
p44
aS"(1055, u'(?i)(men|man)')"
p45
aS"(6249, u'(?i)(ants|ant)')"
p46
aS"(3592, u'(?i)(ravens|raven)')"
p47
aS"(5176, u'(?i)(tegs|teg)')"
p48
aS"(7094, u'(?i)(curs|cur)')"
p49
aS"(5958, u'(?i)(rats|rat)')"
p50
aS"(1057, u'(?i)(humans|human)')"
p51
aS"(1961, u'(?i)(pens|pen)')"
p52
aS"(6356, u'(?i)(ais|ai)')"
p53
aS"(3196, u'(?i)(human|humans)')"
p54
atp55
Rp56
sb.