(ifile_types
ParseObject
p0
(dp1
S'antagonists'
p2
c__builtin__
set
p3
((lp4
tp5
Rp6
sS'methods'
p7
g3
((lp8
S'Method.AGONIST'
p9
atp10
Rp11
sS'topics'
p12
g3
((lp13
tp14
Rp15
sS'receptors'
p16
g3
((lp17
S'5ht7'
p18
atp19
Rp20
sS'regions'
p21
g3
((lp22
S"(220, u'(?i)(striatums|striatum)')"
p23
aS"(254, u'(?i)(prefrontals|prefrontal)(-|\\\\s+)?(cortexes|cortex)')"
p24
aS"(255, u'(?i)(pres|pre)(-|\\\\s+)?(frontals|frontal)(-|\\\\s+)?(cortexes|cortex)')"
p25
aS"(225, u'(?i)(ventrals|ventral)(-|\\\\s+)?(striatums|striatum)')"
p26
atp27
Rp28
sS'year'
p29
V2014
p30
sS'agonists'
p31
g3
((lp32
S"(233, u'\\\\blp ?211')"
p33
atp34
Rp35
sS'species'
p36
g3
((lp37
S"(5958, u'(?i)(rats|rat)')"
p38
aS"(867, u'(?i)(tits|tit)')"
p39
aS"(6753, u'(?i)(da|das)')"
p40
aS"(2389, u'(?i)(spats|spat)')"
p41
aS"(4091, u'(?i)(adults|adult)')"
p42
aS"(81, u'(?i)(asps|asp)')"
p43
aS"(1055, u'(?i)(men|man)')"
p44
aS"(3726, u'(?i)(mates|mate)')"
p45
aS"(6356, u'(?i)(ais|ai)')"
p46
aS"(6249, u'(?i)(ants|ant)')"
p47
aS"(3812, u'(?i)(studs|stud)')"
p48
aS"(6391, u'(?i)(asses|ass)')"
p49
atp50
Rp51
sb.