(ifile_types
ParseObject
p0
(dp1
S'antagonists'
p2
c__builtin__
set
p3
((lp4
S"(91, u'\\\\bfluoxetine')"
p5
atp6
Rp7
sS'methods'
p8
g3
((lp9
S'Method.AGONIST'
p10
atp11
Rp12
sS'topics'
p13
g3
((lp14
tp15
Rp16
sS'receptors'
p17
g3
((lp18
S'5ht1a'
p19
atp20
Rp21
sS'regions'
p22
g3
((lp23
S"(396, u'(?i)\\\\b(subventriculars|subventricular)(-|\\\\s+)?(zones|zone)\\\\b')"
p24
atp25
Rp26
sS'year'
p27
V2014
p28
sS'agonists'
p29
g3
((lp30
tp31
Rp32
sS'species'
p33
g3
((lp34
S"(5864, u'(?i)\\\\b(fetuses|fetus)\\\\b')"
p35
aS"(1057, u'(?i)\\\\b(humans|human)\\\\b')"
p36
aS"(4091, u'(?i)\\\\b(adults|adult)\\\\b')"
p37
aS"(163, u'(?i)\\\\b(mice|mouse)\\\\b')"
p38
aS"(3196, u'(?i)\\\\b(human|humans)\\\\b')"
p39
atp40
Rp41
sb.