(ifile_types
ParseObject
p0
(dp1
S'methods'
p2
c__builtin__
set
p3
((lp4
S'Method.AGONIST'
p5
atp6
Rp7
sS'topics'
p8
g3
((lp9
S"(22, u'\\\\bschizophreni')"
p10
aS"(7, u'\\\\bdepressi')"
p11
aS"(2, u'\\\\bdisorder')"
p12
atp13
Rp14
sS'receptors'
p15
g3
((lp16
(S'5ht2c'
p17
I195
I201
tp18
a(S'5ht2'
p19
I655
I660
tp20
a(S'5ht2c'
p21
I60
I66
tp22
a(S'5ht2'
p23
I422
I427
tp24
a(S'5ht2'
p25
I213
I218
tp26
atp27
Rp28
sS'raw_text_methods'
p29
g3
((lp30
S"(13, u'\\\\bagonist')"
p31
aS"(49, u'\\\\bdoi')"
p32
atp33
Rp34
sS'regions'
p35
g3
((lp36
tp37
Rp38
sS'year'
p39
V2005
p40
sS'species'
p41
g3
((lp42
tp43
Rp44
sb.