(ifile_types
ParseObject
p0
(dp1
S'antagonists'
p2
c__builtin__
set
p3
((lp4
S"(105, u'\\\\bmethysergide')"
p5
atp6
Rp7
sS'methods'
p8
g3
((lp9
S'Method.ANTAGONIST'
p10
atp11
Rp12
sS'topics'
p13
g3
((lp14
S"(21, u'\\\\bpain')"
p15
aS"(24, u'\\\\banalgesi')"
p16
atp17
Rp18
sS'receptors'
p19
g3
((lp20
S'5ht7'
p21
aS'5ht6'
p22
aS'5ht5'
p23
aS'5ht2c'
p24
aS'5ht2a'
p25
aS'5ht6a'
p26
aS'5ht5a'
p27
aS'5ht1f'
p28
atp29
Rp30
sS'regions'
p31
g3
((lp32
S"(34, u'(?i)(pon|pons)')"
p33
atp34
Rp35
sS'year'
p36
V2017
p37
sS'agonists'
p38
g3
((lp39
S"(60, u'\\\\bmethysergide')"
p40
atp41
Rp42
sS'species'
p43
g3
((lp44
S"(5958, u'(?i)(rats|rat)')"
p45
aS"(479, u'(?i)(lings|ling)')"
p46
aS"(468, u'(?i)(oxen|ox)')"
p47
aS"(1055, u'(?i)(men|man)')"
p48
aS"(6249, u'(?i)(ants|ant)')"
p49
aS"(4979, u'(?i)(cats|cat)')"
p50
aS"(3550, u'(?i)(anis|ani)')"
p51
aS"(7127, u'(?i)(monitors|monitor)')"
p52
aS"(5229, u'(?i)(moles|mole)')"
p53
aS"(3812, u'(?i)(studs|stud)')"
p54
aS"(6356, u'(?i)(ais|ai)')"
p55
aS"(5949, u'(?i)(dogs|dog)')"
p56
atp57
Rp58
sb.