(ifile_types
ParseObject
p0
(dp1
S'methods'
p2
c__builtin__
set
p3
((lp4
S'Method.AGONIST'
p5
atp6
Rp7
sS'topics'
p8
g3
((lp9
S"(4, u'\\\\btreatment')"
p10
atp11
Rp12
sS'receptors'
p13
g3
((lp14
(S'5ht1a'
p15
I848
I854
tp16
atp17
Rp18
sS'raw_text_methods'
p19
g3
((lp20
S"(13, u'\\\\bagonist')"
p21
aS"(15, u'\\\\b8ohdpat')"
p22
atp23
Rp24
sS'regions'
p25
g3
((lp26
S"(1, u'(?i)\\\\b(neocortexes|neocortex)\\\\b')"
p27
aS"(11, u'(?i)\\\\b(cerebrals|cerebral)\\\\b')"
p28
aS"(23, u'(?i)\\\\b(forebrains|forebrain)\\\\b')"
p29
atp30
Rp31
sS'year'
p32
V1989
p33
sS'species'
p34
g3
((lp35
S"(4, u'(?i)\\\\b(rats|rat)\\\\b')"
p36
atp37
Rp38
sb.