(ifile_types
ParseObject
p0
(dp1
S'methods'
p2
c__builtin__
set
p3
((lp4
S'Method.ANTAGONIST'
p5
aS'Method.AGONIST'
p6
atp7
Rp8
sS'topics'
p9
g3
((lp10
tp11
Rp12
sS'receptors'
p13
g3
((lp14
(S'5ht2c'
p15
I353
I359
tp16
a(S'5ht2b'
p17
I839
I845
tp18
a(S'5ht2c'
p19
I50
I56
tp20
a(S'5ht2c'
p21
I690
I696
tp22
a(S'5ht2b'
p23
I353
I361
tp24
a(S'5ht2b'
p25
I61
I67
tp26
a(S'5ht2c'
p27
I1159
I1165
tp28
a(S'5ht2c'
p29
I1354
I1360
tp30
a(S'5ht2b'
p31
I690
I698
tp32
atp33
Rp34
sS'raw_text_methods'
p35
g3
((lp36
S"(13, u'\\\\bagonist')"
p37
aS"(33, u'\\\\bmcpp')"
p38
aS"(12, u'\\\\bantagonist')"
p39
atp40
Rp41
sS'regions'
p42
g3
((lp43
tp44
Rp45
sS'year'
p46
V1998
p47
sS'species'
p48
g3
((lp49
S"(1, u'(?i)\\\\b(mice|mouse)\\\\b')"
p50
aS"(6, u'(?i)\\\\b(rodents|rodent)\\\\b')"
p51
aS"(5, u'(?i)\\\\b(mices|mice)\\\\b')"
p52
aS"(4, u'(?i)\\\\b(rats|rat)\\\\b')"
p53
atp54
Rp55
sb.