(ifile_types
ParseObject
p0
(dp1
S'methods'
p2
c__builtin__
set
p3
((lp4
S'Method.AGONIST'
p5
atp6
Rp7
sS'topics'
p8
g3
((lp9
S"(13, u'\\\\bantidepress')"
p10
atp11
Rp12
sS'receptors'
p13
g3
((lp14
(S'5ht1a'
p15
I1889
I1895
tp16
a(S'5ht1a'
p17
I209
I215
tp18
a(S'5ht1a'
p19
I2084
I2090
tp20
a(S'5ht1a'
p21
I196
I207
tp22
a(S'5ht1a'
p23
I472
I478
tp24
atp25
Rp26
sS'raw_text_methods'
p27
g3
((lp28
S"(13, u'\\\\bagonist')"
p29
aS"(11, u'\\\\bfluoxetine')"
p30
aS"(22, u'\\\\bbuspirone')"
p31
atp32
Rp33
sS'regions'
p34
g3
((lp35
S"(11, u'(?i)\\\\b(cerebrals|cerebral)\\\\b')"
p36
aS"(19, u'(?i)\\\\b(cortexes|cortex)\\\\b')"
p37
atp38
Rp39
sS'year'
p40
V1996
p41
sS'species'
p42
g3
((lp43
S"(4, u'(?i)\\\\b(rats|rat)\\\\b')"
p44
atp45
Rp46
sb.