(ifile_types
ParseObject
p0
(dp1
S'methods'
p2
c__builtin__
set
p3
((lp4
S'Method.ANTAGONIST'
p5
aS'Method.AGONIST'
p6
atp7
Rp8
sS'topics'
p9
g3
((lp10
tp11
Rp12
sS'receptors'
p13
g3
((lp14
(S'5ht3'
p15
I927
I932
tp16
a(S'5ht2'
p17
I866
I871
tp18
a(S'5ht2a'
p19
I298
I304
tp20
a(S'5ht2c'
p21
I1636
I1642
tp22
a(S'5ht2'
p23
I1384
I1389
tp24
a(S'5ht2a'
p25
I622
I628
tp26
a(S'5ht3'
p27
I883
I888
tp28
a(S'5ht2'
p29
I1591
I1596
tp30
a(S'5ht2c'
p31
I1237
I1243
tp32
a(S'5ht2a'
p33
I1226
I1232
tp34
a(S'5ht3'
p35
I504
I509
tp36
a(S'5ht2c'
p37
I298
I305
tp38
a(S'5ht2'
p39
I710
I715
tp40
atp41
Rp42
sS'raw_text_methods'
p43
g3
((lp44
S"(53, u'\\\\bketanserin')"
p45
aS"(13, u'\\\\bagonist')"
p46
aS"(49, u'\\\\bdoi')"
p47
aS"(46, u'\\\\bspiperone')"
p48
aS"(9, u'\\\\britanserin')"
p49
aS"(12, u'\\\\bantagonist')"
p50
atp51
Rp52
sS'regions'
p53
g3
((lp54
tp55
Rp56
sS'year'
p57
V1999
p58
sS'species'
p59
g3
((lp60
S"(4, u'(?i)\\\\b(rats|rat)\\\\b')"
p61
atp62
Rp63
sb.