(ifile_types
ParseObject
p0
(dp1
S'methods'
p2
c__builtin__
set
p3
((lp4
S'Method.AGONIST'
p5
atp6
Rp7
sS'topics'
p8
g3
((lp9
S"(26, u'\\\\bbehav')"
p10
aS"(4, u'\\\\btreatment')"
p11
atp12
Rp13
sS'receptors'
p14
g3
((lp15
(S'5ht1a'
p16
I803
I809
tp17
atp18
Rp19
sS'raw_text_methods'
p20
g3
((lp21
S"(13, u'\\\\bagonist')"
p22
aS"(15, u'\\\\b8ohdpat')"
p23
atp24
Rp25
sS'regions'
p26
g3
((lp27
S"(19, u'(?i)\\\\b(cortexes|cortex)\\\\b')"
p28
atp29
Rp30
sS'year'
p31
V1988
p32
sS'species'
p33
g3
((lp34
S"(6, u'(?i)\\\\b(rodents|rodent)\\\\b')"
p35
aS"(2, u'(?i)\\\\b(females|female)\\\\b')"
p36
aS"(4, u'(?i)\\\\b(rats|rat)\\\\b')"
p37
atp38
Rp39
sb.