(ifile_types
ParseObject
p0
(dp1
S'methods'
p2
c__builtin__
set
p3
((lp4
S'Method.ANTAGONIST'
p5
atp6
Rp7
sS'topics'
p8
g3
((lp9
tp10
Rp11
sS'receptors'
p12
g3
((lp13
(S'5ht6'
p14
I1657
I1662
tp15
a(S'5ht6'
p16
I1811
I1816
tp17
a(S'5ht6'
p18
I1763
I1768
tp19
a(S'5ht6'
p20
I900
I905
tp21
a(S'5ht6'
p22
I412
I417
tp23
a(S'5ht6'
p24
I725
I730
tp25
a(S'5ht6'
p26
I562
I567
tp27
atp28
Rp29
sS'raw_text_methods'
p30
g3
((lp31
S"(40, u'\\\\bclozapine')"
p32
aS"(9, u'\\\\britanserin')"
p33
aS"(45, u'\\\\bmetergoline')"
p34
aS"(29, u'\\\\bdiethylamide')"
p35
aS"(12, u'\\\\bantagonist')"
p36
atp37
Rp38
sS'regions'
p39
g3
((lp40
tp41
Rp42
sS'year'
p43
V1998
p44
sS'species'
p45
g3
((lp46
S"(4, u'(?i)\\\\b(rats|rat)\\\\b')"
p47
atp48
Rp49
sb.