(ifile_types
ParseObject
p0
(dp1
S'methods'
p2
c__builtin__
set
p3
((lp4
S'Method.ANTAGONIST'
p5
aS'Method.AGONIST'
p6
atp7
Rp8
sS'topics'
p9
g3
((lp10
S"(22, u'\\\\bschizophreni')"
p11
aS"(14, u'\\\\bcogniti')"
p12
aS"(5, u'\\\\btherap')"
p13
aS"(29, u'\\\\bhyperactiv')"
p14
aS"(23, u'\\\\bantipsychotic')"
p15
atp16
Rp17
sS'receptors'
p18
g3
((lp19
(S'5ht1a'
p20
I403
I409
tp21
a(S'5ht2a'
p22
I485
I491
tp23
a(S'5ht1a'
p24
I890
I896
tp25
a(S'5ht1a'
p26
I1862
I1868
tp27
a(S'5ht2a'
p28
I1724
I1730
tp29
a(S'5ht1a'
p30
I1464
I1470
tp31
atp32
Rp33
sS'raw_text_methods'
p34
g3
((lp35
S"(13, u'\\\\bagonist')"
p36
aS"(51, u'\\\\bway100635')"
p37
aS"(12, u'\\\\bantagonist')"
p38
atp39
Rp40
sS'regions'
p41
g3
((lp42
S"(20, u'(?i)\\\\b(prefrontals|prefrontal)\\\\b')"
p43
aS"(21, u'(?i)\\\\b(mpfcs|mpfc)\\\\b')"
p44
aS"(19, u'(?i)\\\\b(cortexes|cortex)\\\\b')"
p45
atp46
Rp47
sS'year'
p48
V2017
p49
sS'species'
p50
g3
((lp51
tp52
Rp53
sb.