(ifile_types
ParseObject
p0
(dp1
S'methods'
p2
c__builtin__
set
p3
((lp4
S'Method.AGONIST'
p5
atp6
Rp7
sS'topics'
p8
g3
((lp9
S"(8, u'\\\\banxi')"
p10
aS"(7, u'\\\\bdepressi')"
p11
aS"(9, u'\\\\bstress')"
p12
aS"(2, u'\\\\bdisorder')"
p13
atp14
Rp15
sS'receptors'
p16
g3
((lp17
(S'5ht1b'
p18
I1190
I1196
tp19
a(S'5ht5'
p20
I268
I278
tp21
a(S'5ht1b'
p22
I793
I799
tp23
a(S'5ht1b'
p24
I1381
I1387
tp25
a(S'5ht1b'
p26
I981
I987
tp27
a(S'5ht1b'
p28
I1610
I1616
tp29
a(S'5ht1b'
p30
I108
I114
tp31
a(S'5ht1b'
p32
I906
I912
tp33
a(S'5ht1b'
p34
I596
I602
tp35
a(S'5ht1b'
p36
I472
I478
tp37
a(S'5ht1b'
p38
I1243
I1249
tp39
a(S'5ht1b'
p40
I1821
I1827
tp41
a(S'5ht1b'
p42
I1661
I1667
tp43
a(S'5ht1b'
p44
I644
I650
tp45
atp46
Rp47
sS'raw_text_methods'
p48
g3
((lp49
S"(13, u'\\\\bagonist')"
p50
aS"(54, u'\\\\bautoradiography')"
p51
atp52
Rp53
sS'regions'
p54
g3
((lp55
S"(15, u'(?i)\\\\b(substantias|substantia)(-|\\\\s+)?(nigras|nigra)\\\\b')"
p56
aS"(4, u'(?i)\\\\b(presynaptics|presynaptic)\\\\b')"
p57
aS"(3, u'(?i)\\\\b(postsynaptics|postsynaptic)\\\\b')"
p58
atp59
Rp60
sS'year'
p61
V1995
p62
sS'species'
p63
g3
((lp64
S"(4, u'(?i)\\\\b(rats|rat)\\\\b')"
p65
atp66
Rp67
sb.