(ifile_types
ParseObject
p0
(dp1
S'antagonists'
p2
c__builtin__
set
p3
((lp4
tp5
Rp6
sS'methods'
p7
g3
((lp8
S'Method.ANTAGONIST'
p9
aS'Method.AGONIST'
p10
atp11
Rp12
sS'topics'
p13
g3
((lp14
tp15
Rp16
sS'receptors'
p17
g3
((lp18
S'5ht1a'
p19
aS'5ht2a'
p20
atp21
Rp22
sS'regions'
p23
g3
((lp24
S"(364, u'(?i)\\\\b(middles|middle)(-|\\\\s+)?(cerebrals|cerebral)(-|\\\\s+)?(arteries|artery)\\\\b')"
p25
aS"(285, u'(?i)\\\\b(entorhinals|entorhinal)(-|\\\\s+)?(cortexes|cortex)\\\\b')"
p26
atp27
Rp28
sS'year'
p29
V1993
p30
sS'agonists'
p31
g3
((lp32
S"(79, u'\\\\burapidil')"
p33
aS"(45, u'\\\\bipsapirone')"
p34
atp35
Rp36
sS'species'
p37
g3
((lp38
S"(5967, u'(?i)\\\\b(males|male)\\\\b')"
p39
aS"(163, u'(?i)\\\\b(mice|mouse)\\\\b')"
p40
aS"(5958, u'(?i)\\\\b(rats|rat)\\\\b')"
p41
atp42
Rp43
sb.