(ifile_types
ParseObject
p0
(dp1
S'antagonists'
p2
c__builtin__
set
p3
((lp4
S"(114, u'\\\\bimipramine')"
p5
aS"(102, u'\\\\bfluoxetine')"
p6
atp7
Rp8
sS'methods'
p9
g3
((lp10
S'Method.AGONIST'
p11
atp12
Rp13
sS'topics'
p14
g3
((lp15
tp16
Rp17
sS'receptors'
p18
g3
((lp19
S'5ht1a'
p20
atp21
Rp22
sS'regions'
p23
g3
((lp24
tp25
Rp26
sS'year'
p27
V2001
p28
sS'agonists'
p29
g3
((lp30
S"(45, u'\\\\bflibanserin')"
p31
aS"(92, u'\\\\b8 ?oh ?dpat')"
p32
atp33
Rp34
sS'species'
p35
g3
((lp36
S"(4624, u'(?i)(apes|ape)')"
p37
aS"(5958, u'(?i)(rats|rat)')"
p38
aS"(6356, u'(?i)(ais|ai)')"
p39
aS"(6682, u'(?i)(tera|teras)')"
p40
aS"(468, u'(?i)(oxen|ox)')"
p41
aS"(1349, u'(?i)(rams|ram)')"
p42
aS"(4964, u'(?i)(serins|serin)')"
p43
aS"(6249, u'(?i)(ants|ant)')"
p44
aS"(3812, u'(?i)(studs|stud)')"
p45
aS"(7609, u'(?i)(erns|ern)')"
p46
aS"(2809, u'(?i)(toms|tom)')"
p47
aS"(1683, u'(?i)(terns|tern)')"
p48
aS"(5783, u'(?i)(hinds|hind)')"
p49
atp50
Rp51
sb.