(ifile_types
ParseObject
p0
(dp1
S'antagonists'
p2
c__builtin__
set
p3
((lp4
S"(26, u'\\\\bspiperone')"
p5
aS"(14, u'\\\\bmethiothepin')"
p6
aS"(34, u'\\\\bmetergoline')"
p7
aS"(193, u'\\\\bmesulergine')"
p8
atp9
Rp10
sS'methods'
p11
g3
((lp12
S'Method.AGONIST'
p13
atp14
Rp15
sS'topics'
p16
g3
((lp17
tp18
Rp19
sS'receptors'
p20
g3
((lp21
S'5ht1c'
p22
aS'5ht1b'
p23
aS'5ht1a'
p24
aS'5ht2b'
p25
aS'5ht2'
p26
aS'5ht1'
p27
aS'5ht1d'
p28
atp29
Rp30
sS'regions'
p31
g3
((lp32
S"(224, u'(?i)\\\\b(caudates|caudate)(-|\\\\s+)?(nuclei|nucleus)\\\\b')"
p33
atp34
Rp35
sS'year'
p36
V1989
p37
sS'agonists'
p38
g3
((lp39
S"(165, u'\\\\bmesulergine')"
p40
aS"(149, u'\\\\bmem')"
p41
aS"(85, u'\\\\b8 ?oh ?dpat')"
p42
atp43
Rp44
sS'species'
p45
g3
((lp46
S"(473, u'(?i)\\\\b(rabbits|rabbit)\\\\b')"
p47
aS"(2327, u'(?i)\\\\b(bovines|bovine)\\\\b')"
p48
aS"(6325, u'(?i)\\\\b(caudates|caudate)\\\\b')"
p49
atp50
Rp51
sb.