(ifile_types
ParseObject
p0
(dp1
S'methods'
p2
c__builtin__
set
p3
((lp4
S'Method.ANTAGONIST'
p5
aS'Method.OPTOGENETICS'
p6
atp7
Rp8
sS'topics'
p9
g3
((lp10
S"(8, u'\\\\banxi')"
p11
aS"(1, u'\\\\bpatient')"
p12
aS"(26, u'\\\\bbehav')"
p13
aS"(4, u'\\\\btreatment')"
p14
atp15
Rp16
sS'receptors'
p17
g3
((lp18
(S'5ht2a'
p19
I1164
I1170
tp20
a(S'5ht2a'
p21
I1686
I1692
tp22
a(S'5ht2a'
p23
I1367
I1373
tp24
a(S'5ht2a'
p25
I1301
I1307
tp26
a(S'5ht2a'
p27
I1031
I1037
tp28
atp29
Rp30
sS'raw_text_methods'
p31
g3
((lp32
S"(23, u'\\\\bmdl')"
p33
aS"(12, u'\\\\bantagonist')"
p34
atp35
Rp36
sS'regions'
p37
g3
((lp38
S"(9, u'(?i)\\\\b(cerebellums|cerebellum)\\\\b')"
p39
atp40
Rp41
sS'year'
p42
V2019
p43
sS'species'
p44
g3
((lp45
S"(1, u'(?i)\\\\b(mice|mouse)\\\\b')"
p46
aS"(5, u'(?i)\\\\b(mices|mice)\\\\b')"
p47
atp48
Rp49
sb.