(ifile_types
ParseObject
p0
(dp1
S'antagonists'
p2
c__builtin__
set
p3
((lp4
S"(53, u'\\\\bketanserin')"
p5
aS"(128, u'\\\\bketanserin')"
p6
atp7
Rp8
sS'methods'
p9
g3
((lp10
S'Method.ANTAGONIST'
p11
atp12
Rp13
sS'topics'
p14
g3
((lp15
S"(21, u'\\\\bpain')"
p16
atp17
Rp18
sS'receptors'
p19
g3
((lp20
S'5ht5'
p21
aS'5ht3'
p22
aS'5ht2a'
p23
atp24
Rp25
sS'regions'
p26
g3
((lp27
tp28
Rp29
sS'year'
p30
V1999
p31
sS'agonists'
p32
g3
((lp33
tp34
Rp35
sS'species'
p36
g3
((lp37
S"(2323, u'(?i)(bees|bee)')"
p38
aS"(5958, u'(?i)(rats|rat)')"
p39
aS"(6356, u'(?i)(ais|ai)')"
p40
aS"(7609, u'(?i)(erns|ern)')"
p41
aS"(6753, u'(?i)(da|das)')"
p42
aS"(6249, u'(?i)(ants|ant)')"
p43
aS"(6580, u'(?i)(dams|dam)')"
p44
aS"(4964, u'(?i)(serins|serin)')"
p45
aS"(3550, u'(?i)(anis|ani)')"
p46
aS"(3426, u'(?i)(hares|hare)')"
p47
aS"(1961, u'(?i)(pens|pen)')"
p48
aS"(3812, u'(?i)(studs|stud)')"
p49
aS"(6391, u'(?i)(asses|ass)')"
p50
aS"(1683, u'(?i)(terns|tern)')"
p51
aS"(5783, u'(?i)(hinds|hind)')"
p52
atp53
Rp54
sb.