(ifile_types
ParseObject
p0
(dp1
S'methods'
p2
c__builtin__
set
p3
((lp4
S'Method.ANTAGONIST'
p5
aS'Method.AGONIST'
p6
atp7
Rp8
sS'topics'
p9
g3
((lp10
S"(5, u'\\\\btherap')"
p11
aS"(7, u'\\\\bdepressi')"
p12
aS"(13, u'\\\\bantidepress')"
p13
aS"(26, u'\\\\bbehav')"
p14
atp15
Rp16
sS'receptors'
p17
g3
((lp18
(S'5ht1a'
p19
I2092
I2098
tp20
a(S'5ht1a'
p21
I1333
I1339
tp22
a(S'5ht1a'
p23
I1478
I1484
tp24
a(S'5ht5'
p25
I240
I250
tp26
a(S'5ht1a'
p27
I303
I309
tp28
a(S'5ht1a'
p29
I1634
I1640
tp30
a(S'5ht1a'
p31
I125
I131
tp32
a(S'5ht1a'
p33
I667
I673
tp34
atp35
Rp36
sS'raw_text_methods'
p37
g3
((lp38
S"(13, u'\\\\bagonist')"
p39
aS"(15, u'\\\\b8ohdpat')"
p40
atp41
Rp42
sS'regions'
p43
g3
((lp44
S"(4, u'(?i)\\\\b(presynaptics|presynaptic)\\\\b')"
p45
atp46
Rp47
sS'year'
p48
V2002
p49
sS'species'
p50
g3
((lp51
S"(1, u'(?i)\\\\b(mice|mouse)\\\\b')"
p52
aS"(5, u'(?i)\\\\b(mices|mice)\\\\b')"
p53
aS"(4, u'(?i)\\\\b(rats|rat)\\\\b')"
p54
atp55
Rp56
sb.