(ifile_types
ParseObject
p0
(dp1
S'antagonists'
p2
c__builtin__
set
p3
((lp4
S"(32, u'\\\\bway ?100635')"
p5
atp6
Rp7
sS'methods'
p8
g3
((lp9
S'Method.ANTAGONIST'
p10
aS'Method.AGONIST'
p11
atp12
Rp13
sS'topics'
p14
g3
((lp15
S"(10, u'\\\\banxiety')"
p16
atp17
Rp18
sS'receptors'
p19
g3
((lp20
S'5ht1a'
p21
aS'5ht2c'
p22
aS'5ht2a'
p23
atp24
Rp25
sS'regions'
p26
g3
((lp27
S"(318, u'(?i)(raphes|raphe)(-|\\\\s+)?(nuclei|nucleus)')"
p28
aS"(94, u'(?i)(dorsals|dorsal)(-|\\\\s+)?(raphes|raphe)(-|\\\\s+)?(nuclei|nucleus)')"
p29
aS"(91, u'(?i)(periaqueductals|periaqueductal)(-|\\\\s+)?(grays|gray)')"
p30
aS"(34, u'(?i)(pon|pons)')"
p31
atp32
Rp33
sS'year'
p34
V2011
p35
sS'agonists'
p36
g3
((lp37
S"(92, u'\\\\b8 ?oh ?dpat')"
p38
aS"(33, u'\\\\bdoi')"
p39
atp40
Rp41
sS'species'
p42
g3
((lp43
S"(2323, u'(?i)(bees|bee)')"
p44
aS"(4624, u'(?i)(apes|ape)')"
p45
aS"(5799, u'(?i)(rodents|rodent)')"
p46
aS"(5958, u'(?i)(rats|rat)')"
p47
aS"(163, u'(?i)(mice|mouse)')"
p48
aS"(6753, u'(?i)(da|das)')"
p49
aS"(5967, u'(?i)(males|male)')"
p50
aS"(2183, u'(?i)(gars|gar)')"
p51
aS"(1055, u'(?i)(men|man)')"
p52
aS"(6249, u'(?i)(ants|ant)')"
p53
aS"(2665, u'(?i)(rays|ray)')"
p54
aS"(5743, u'(?i)(bots|bot)')"
p55
aS"(3550, u'(?i)(anis|ani)')"
p56
aS"(7094, u'(?i)(curs|cur)')"
p57
aS"(6391, u'(?i)(asses|ass)')"
p58
aS"(3812, u'(?i)(studs|stud)')"
p59
aS"(6115, u'(?i)(predators|predator)')"
p60
aS"(4177, u'(?i)(grays|gray)')"
p61
aS"(6356, u'(?i)(ais|ai)')"
p62
aS"(7552, u'(?i)(bats|bat)')"
p63
atp64
Rp65
sb.