(ifile_types
ParseObject
p0
(dp1
S'methods'
p2
c__builtin__
set
p3
((lp4
S'Method.ANTAGONIST'
p5
atp6
Rp7
sS'topics'
p8
g3
((lp9
tp10
Rp11
sS'receptors'
p12
g3
((lp13
(S'5ht1a'
p14
I1617
I1623
tp15
a(S'5ht1d'
p16
I1639
I1645
tp17
atp18
Rp19
sS'raw_text_methods'
p20
g3
((lp21
S"(12, u'\\\\bantagonist')"
p22
atp23
Rp24
sS'regions'
p25
g3
((lp26
S"(19, u'(?i)\\\\b(cortexes|cortex)\\\\b')"
p27
atp28
Rp29
sS'year'
p30
V1993
p31
sS'species'
p32
g3
((lp33
S"(7, u'(?i)\\\\b(guineas|guinea)(-|\\\\s+)?(pigs|pig)\\\\b')"
p34
aS"(4, u'(?i)\\\\b(rats|rat)\\\\b')"
p35
atp36
Rp37
sb.