(ifile_types
ParseObject
p0
(dp1
S'antagonists'
p2
c__builtin__
set
p3
((lp4
S"(157, u'\\\\bsb ?699551')"
p5
aS"(31, u'\\\\bway ?100635')"
p6
atp7
Rp8
sS'methods'
p9
g3
((lp10
S'Method.ANTAGONIST'
p11
atp12
Rp13
sS'topics'
p14
g3
((lp15
S"(9, u'\\\\bdepress')"
p16
atp17
Rp18
sS'receptors'
p19
g3
((lp20
S'5ht7'
p21
aS'5ht1b'
p22
aS'5ht5'
p23
aS'5ht2c'
p24
aS'5ht2a'
p25
aS'5ht1d'
p26
aS'5ht1a'
p27
aS'5ht5a'
p28
atp29
Rp30
sS'regions'
p31
g3
((lp32
tp33
Rp34
sS'year'
p35
V2006
p36
sS'agonists'
p37
g3
((lp38
S"(149, u'\\\\bmem')"
p39
aS"(219, u'\\\\b5 ?ct')"
p40
atp41
Rp42
sS'species'
p43
g3
((lp44
S"(3196, u'(?i)\\\\b(human|humans)\\\\b')"
p45
aS"(1057, u'(?i)\\\\b(humans|human)\\\\b')"
p46
aS"(3051, u'(?i)\\\\b(pigs|pig)\\\\b')"
p47
aS"(4480, u'(?i)\\\\b(guineas|guinea)(-|\\\\s+)?(pigs|pig)\\\\b')"
p48
aS"(3062, u'(?i)\\\\b(guineas|guinea)\\\\b')"
p49
atp50
Rp51
sb.