(ifile_types
ParseObject
p0
(dp1
S'methods'
p2
c__builtin__
set
p3
((lp4
S'Method.KNOCKOUT'
p5
aS'Method.AGONIST'
p6
atp7
Rp8
sS'topics'
p9
g3
((lp10
S"(13, u'\\\\bantidepress')"
p11
aS"(2, u'\\\\bdisorder')"
p12
aS"(7, u'\\\\bdepressi')"
p13
aS"(20, u'\\\\bmood')"
p14
aS"(5, u'\\\\btherap')"
p15
aS"(26, u'\\\\bbehav')"
p16
aS"(8, u'\\\\banxi')"
p17
aS"(4, u'\\\\btreatment')"
p18
atp19
Rp20
sS'receptors'
p21
g3
((lp22
(S'5ht4'
p23
I909
I914
tp24
a(S'5ht4'
p25
I582
I587
tp26
a(S'5ht4'
p27
I1110
I1115
tp28
a(S'5ht4'
p29
I790
I795
tp30
a(S'5ht4'
p31
I418
I423
tp32
a(S'5ht4'
p33
I1782
I1787
tp34
a(S'5ht4'
p35
I44
I49
tp36
a(S'5ht4'
p37
I1734
I1739
tp38
a(S'5ht4'
p39
I1560
I1565
tp40
atp41
Rp42
sS'raw_text_methods'
p43
g3
((lp44
S"(13, u'\\\\bagonist')"
p45
atp46
Rp47
sS'regions'
p48
g3
((lp49
S"(20, u'(?i)\\\\b(prefrontals|prefrontal)\\\\b')"
p50
aS"(21, u'(?i)\\\\b(mpfcs|mpfc)\\\\b')"
p51
aS"(19, u'(?i)\\\\b(cortexes|cortex)\\\\b')"
p52
atp53
Rp54
sS'year'
p55
V2018
p56
sS'species'
p57
g3
((lp58
S"(1, u'(?i)\\\\b(mice|mouse)\\\\b')"
p59
aS"(6, u'(?i)\\\\b(rodents|rodent)\\\\b')"
p60
aS"(5, u'(?i)\\\\b(mices|mice)\\\\b')"
p61
atp62
Rp63
sb.