(ifile_types
ParseObject
p0
(dp1
S'methods'
p2
c__builtin__
set
p3
((lp4
S'Method.ANTAGONIST'
p5
aS'Method.AGONIST'
p6
atp7
Rp8
sS'topics'
p9
g3
((lp10
tp11
Rp12
sS'receptors'
p13
g3
((lp14
(S'5ht1b'
p15
I774
I780
tp16
a(S'5ht1b'
p17
I1979
I1985
tp18
a(S'5ht1b'
p19
I71
I77
tp20
a(S'5ht1b'
p21
I220
I226
tp22
a(S'5ht1a'
p23
I336
I342
tp24
a(S'5ht1b'
p25
I336
I344
tp26
a(S'5ht1a'
p27
I1487
I1493
tp28
a(S'5ht1b'
p29
I1808
I1814
tp30
a(S'5ht1a'
p31
I1968
I1974
tp32
a(S'5ht1d'
p33
I336
I346
tp34
atp35
Rp36
sS'raw_text_methods'
p37
g3
((lp38
S"(13, u'\\\\bagonist')"
p39
aS"(16, u'\\\\bdiazepam')"
p40
aS"(4, u'\\\\bpcpa')"
p41
aS"(36, u'\\\\bbenzodiazepine')"
p42
aS"(12, u'\\\\bantagonist')"
p43
atp44
Rp45
sS'regions'
p46
g3
((lp47
tp48
Rp49
sS'year'
p50
V2006
p51
sS'species'
p52
g3
((lp53
S"(1, u'(?i)\\\\b(mice|mouse)\\\\b')"
p54
aS"(5, u'(?i)\\\\b(mices|mice)\\\\b')"
p55
atp56
Rp57
sb.