(ifile_types
ParseObject
p0
(dp1
S'methods'
p2
c__builtin__
set
p3
((lp4
S'Method.ANTAGONIST'
p5
aS'Method.AGONIST'
p6
atp7
Rp8
sS'topics'
p9
g3
((lp10
S"(26, u'\\\\bbehav')"
p11
aS"(16, u'\\\\blearning')"
p12
aS"(9, u'\\\\bstress')"
p13
atp14
Rp15
sS'receptors'
p16
g3
((lp17
(S'5ht2c'
p18
I41
I52
tp19
a(S'5ht2c'
p20
I479
I487
tp21
a(S'5ht2c'
p22
I156
I164
tp23
a(S'5ht2c'
p24
I51
I59
tp25
a(S'5ht2a'
p26
I51
I57
tp27
a(S'5ht2a'
p28
I156
I162
tp29
a(S'5ht2a'
p30
I1568
I1574
tp31
a(S'5ht2c'
p32
I1858
I1866
tp33
a(S'5ht2a'
p34
I1723
I1729
tp35
a(S'5ht2a'
p36
I528
I534
tp37
a(S'5ht2a'
p38
I1858
I1864
tp39
a(S'5ht2a'
p40
I479
I485
tp41
atp42
Rp43
sS'raw_text_methods'
p44
g3
((lp45
S"(13, u'\\\\bagonist')"
p46
aS"(9, u'\\\\britanserin')"
p47
aS"(23, u'\\\\bmdl')"
p48
aS"(12, u'\\\\bantagonist')"
p49
atp50
Rp51
sS'regions'
p52
g3
((lp53
tp54
Rp55
sS'year'
p56
V1998
p57
sS'species'
p58
g3
((lp59
tp60
Rp61
sb.