(ifile_types
ParseObject
p0
(dp1
S'antagonists'
p2
c__builtin__
set
p3
((lp4
S"(110, u'\\\\bsb ?242084')"
p5
atp6
Rp7
sS'methods'
p8
g3
((lp9
S'Method.ANTAGONIST'
p10
aS'Method.AGONIST'
p11
atp12
Rp13
sS'topics'
p14
g3
((lp15
S"(12, u'\\\\banxiogen')"
p16
aS"(10, u'\\\\banxiety')"
p17
atp18
Rp19
sS'receptors'
p20
g3
((lp21
S'5ht5'
p22
aS'5ht2a'
p23
aS'5ht2b'
p24
aS'5ht2c'
p25
aS'5ht2'
p26
atp27
Rp28
sS'regions'
p29
g3
((lp30
S"(215, u'(?i)(basolaterals|basolateral)(-|\\\\s+)?(amygdalas|amygdala)')"
p31
aS"(209, u'(?i)(amygdalas|amygdala)')"
p32
aS"(254, u'(?i)(prefrontals|prefrontal)(-|\\\\s+)?(cortexes|cortex)')"
p33
aS"(255, u'(?i)(pres|pre)(-|\\\\s+)?(frontals|frontal)(-|\\\\s+)?(cortexes|cortex)')"
p34
aS"(34, u'(?i)(pon|pons)')"
p35
aS"(214, u'(?i)(laterals|lateral)(-|\\\\s+)?(amygdalas|amygdala)')"
p36
atp37
Rp38
sS'year'
p39
V2003
p40
sS'agonists'
p41
g3
((lp42
S"(161, u'\\\\bmcpp')"
p43
atp44
Rp45
sS'species'
p46
g3
((lp47
S"(6753, u'(?i)(da|das)')"
p48
aS"(5958, u'(?i)(rats|rat)')"
p49
aS"(6356, u'(?i)(ais|ai)')"
p50
aS"(7609, u'(?i)(erns|ern)')"
p51
aS"(4979, u'(?i)(cats|cat)')"
p52
aS"(1961, u'(?i)(pens|pen)')"
p53
aS"(6682, u'(?i)(tera|teras)')"
p54
aS"(1055, u'(?i)(men|man)')"
p55
aS"(7094, u'(?i)(curs|cur)')"
p56
aS"(3812, u'(?i)(studs|stud)')"
p57
aS"(6249, u'(?i)(ants|ant)')"
p58
aS"(4371, u'(?i)(lizas|liza)')"
p59
aS"(1414, u'(?i)(chars|char)')"
p60
aS"(6391, u'(?i)(asses|ass)')"
p61
aS"(1683, u'(?i)(terns|tern)')"
p62
atp63
Rp64
sb.