(ifile_types
ParseObject
p0
(dp1
S'methods'
p2
c__builtin__
set
p3
((lp4
S'Method.ANTAGONIST'
p5
aS'Method.AGONIST'
p6
atp7
Rp8
sS'topics'
p9
g3
((lp10
S"(22, u'\\\\bschizophreni')"
p11
atp12
Rp13
sS'receptors'
p14
g3
((lp15
(S'5ht1a'
p16
I1143
I1149
tp17
a(S'5ht1a'
p18
I1944
I1950
tp19
a(S'5ht1a'
p20
I53
I59
tp21
a(S'5ht1a'
p22
I2107
I2113
tp23
a(S'5ht1a'
p24
I336
I347
tp25
a(S'5ht1a'
p26
I552
I558
tp27
a(S'5ht1a'
p28
I1895
I1901
tp29
a(S'5ht1a'
p30
I1371
I1377
tp31
a(S'5ht1a'
p32
I1748
I1754
tp33
a(S'5ht1a'
p34
I1406
I1412
tp35
a(S'5ht1a'
p36
I303
I309
tp37
atp38
Rp39
sS'raw_text_methods'
p40
g3
((lp41
S"(13, u'\\\\bagonist')"
p42
aS"(15, u'\\\\b8ohdpat')"
p43
aS"(54, u'\\\\bautoradiography')"
p44
aS"(51, u'\\\\bway100635')"
p45
aS"(12, u'\\\\bantagonist')"
p46
atp47
Rp48
sS'regions'
p49
g3
((lp50
S"(19, u'(?i)\\\\b(cortexes|cortex)\\\\b')"
p51
atp52
Rp53
sS'year'
p54
V1997
p55
sS'species'
p56
g3
((lp57
tp58
Rp59
sb.