(ifile_types
ParseObject
p0
(dp1
S'antagonists'
p2
c__builtin__
set
p3
((lp4
S"(53, u'\\\\bketanserin')"
p5
aS"(128, u'\\\\bketanserin')"
p6
aS"(27, u'\\\\bspiperone')"
p7
atp8
Rp9
sS'methods'
p10
g3
((lp11
S'Method.ANTAGONIST'
p12
aS'Method.AGONIST'
p13
atp14
Rp15
sS'topics'
p16
g3
((lp17
tp18
Rp19
sS'receptors'
p20
g3
((lp21
S'5ht1a'
p22
aS'5ht3'
p23
aS'5ht2'
p24
atp25
Rp26
sS'regions'
p27
g3
((lp28
S"(34, u'(?i)(pon|pons)')"
p29
atp30
Rp31
sS'year'
p32
V1987
p33
sS'agonists'
p34
g3
((lp35
S"(105, u'\\\\b5 ?carboxamidotryptamine')"
p36
aS"(23, u'\\\\bbufotenin')"
p37
aS"(224, u'\\\\b5 ?methoxytryptamine')"
p38
aS"(225, u'\\\\b5 ?meot')"
p39
aS"(92, u'\\\\b8 ?oh ?dpat')"
p40
aS"(155, u'\\\\bmem')"
p41
atp42
Rp43
sS'species'
p44
g3
((lp45
S"(401, u'(?i)(bufos|bufo)')"
p46
aS"(7094, u'(?i)(curs|cur)')"
p47
aS"(3404, u'(?i)(titis|titi)')"
p48
aS"(6249, u'(?i)(ants|ant)')"
p49
aS"(6356, u'(?i)(ais|ai)')"
p50
aS"(6391, u'(?i)(asses|ass)')"
p51
aS"(1070, u'(?i)(pets|pet)')"
p52
aS"(4091, u'(?i)(adults|adult)')"
p53
aS"(468, u'(?i)(oxen|ox)')"
p54
aS"(3062, u'(?i)(guineas|guinea)')"
p55
aS"(5743, u'(?i)(bots|bot)')"
p56
aS"(3522, u'(?i)(tetras|tetra)')"
p57
aS"(5537, u'(?i)(hippos|hippo)')"
p58
aS"(5958, u'(?i)(rats|rat)')"
p59
aS"(867, u'(?i)(tits|tit)')"
p60
aS"(853, u'(?i)(minas|mina)')"
p61
aS"(1414, u'(?i)(chars|char)')"
p62
aS"(4480, u'(?i)(guineas|guinea)(-|\\\\s+)?(pigs|pig)')"
p63
aS"(2568, u'(?i)(hens|hen)')"
p64
aS"(4979, u'(?i)(cats|cat)')"
p65
aS"(3051, u'(?i)(pigs|pig)')"
p66
aS"(3726, u'(?i)(mates|mate)')"
p67
aS"(1054, u'(?i)(homoes|homo)')"
p68
aS"(4964, u'(?i)(serins|serin)')"
p69
atp70
Rp71
sb.