(ifile_types
ParseObject
p0
(dp1
S'methods'
p2
c__builtin__
set
p3
((lp4
tp5
Rp6
sS'topics'
p7
g3
((lp8
S"(33, u'\\\\blocomot')"
p9
aS"(13, u'\\\\bantidepress')"
p10
aS"(26, u'\\\\bbehav')"
p11
aS"(4, u'\\\\btreatment')"
p12
atp13
Rp14
sS'receptors'
p15
g3
((lp16
(S'5ht2a'
p17
I540
I546
tp18
a(S'5ht2a'
p19
I1145
I1151
tp20
a(S'5ht2a'
p21
I1479
I1485
tp22
a(S'5ht2a'
p23
I300
I306
tp24
a(S'5ht2a'
p25
I440
I446
tp26
a(S'5ht2a'
p27
I690
I696
tp28
atp29
Rp30
sS'raw_text_methods'
p31
g3
((lp32
tp33
Rp34
sS'regions'
p35
g3
((lp36
S"(19, u'(?i)\\\\b(cortexes|cortex)\\\\b')"
p37
atp38
Rp39
sS'year'
p40
V1997
p41
sS'species'
p42
g3
((lp43
S"(1, u'(?i)\\\\b(mice|mouse)\\\\b')"
p44
aS"(5, u'(?i)\\\\b(mices|mice)\\\\b')"
p45
atp46
Rp47
sb.