(ifile_types
ParseObject
p0
(dp1
S'antagonists'
p2
c__builtin__
set
p3
((lp4
S"(91, u'\\\\bfluoxetine')"
p5
aS"(15, u'\\\\bmppf')"
p6
atp7
Rp8
sS'methods'
p9
g3
((lp10
S'Method.PET'
p11
aS'Method.AGONIST'
p12
atp13
Rp14
sS'topics'
p15
g3
((lp16
S"(9, u'\\\\bdepress')"
p17
atp18
Rp19
sS'receptors'
p20
g3
((lp21
S'5ht1a'
p22
atp23
Rp24
sS'regions'
p25
g3
((lp26
S"(94, u'(?i)\\\\b(dorsals|dorsal)(-|\\\\s+)?(raphes|raphe)(-|\\\\s+)?(nuclei|nucleus)\\\\b')"
p27
aS"(318, u'(?i)\\\\b(raphes|raphe)(-|\\\\s+)?(nuclei|nucleus)\\\\b')"
p28
atp29
Rp30
sS'year'
p31
V2008
p32
sS'agonists'
p33
g3
((lp34
tp35
Rp36
sS'species'
p37
g3
((lp38
S"(1055, u'(?i)\\\\b(men|man)\\\\b')"
p39
aS"(1057, u'(?i)\\\\b(humans|human)\\\\b')"
p40
aS"(4091, u'(?i)\\\\b(adults|adult)\\\\b')"
p41
aS"(1070, u'(?i)\\\\b(pets|pet)\\\\b')"
p42
aS"(3196, u'(?i)\\\\b(human|humans)\\\\b')"
p43
atp44
Rp45
sb.