(ifile_types
ParseObject
p0
(dp1
S'antagonists'
p2
c__builtin__
set
p3
((lp4
S"(53, u'\\\\bketanserin')"
p5
aS"(128, u'\\\\bketanserin')"
p6
atp7
Rp8
sS'methods'
p9
g3
((lp10
S'Method.STIMULATION'
p11
aS'Method.ANTAGONIST'
p12
aS'Method.AGONIST'
p13
atp14
Rp15
sS'topics'
p16
g3
((lp17
tp18
Rp19
sS'receptors'
p20
g3
((lp21
S'5ht5'
p22
aS'5ht1a'
p23
aS'5ht2'
p24
aS'5ht2a'
p25
atp26
Rp27
sS'regions'
p28
g3
((lp29
S"(209, u'(?i)(amygdalas|amygdala)')"
p30
atp31
Rp32
sS'year'
p33
V1997
p34
sS'agonists'
p35
g3
((lp36
S"(92, u'\\\\b8 ?oh ?dpat')"
p37
aS"(33, u'\\\\bdoi')"
p38
atp39
Rp40
sS'species'
p41
g3
((lp42
S"(6753, u'(?i)(da|das)')"
p43
aS"(2568, u'(?i)(hens|hen)')"
p44
aS"(5743, u'(?i)(bots|bot)')"
p45
aS"(479, u'(?i)(lings|ling)')"
p46
aS"(468, u'(?i)(oxen|ox)')"
p47
aS"(1055, u'(?i)(men|man)')"
p48
aS"(6249, u'(?i)(ants|ant)')"
p49
aS"(4964, u'(?i)(serins|serin)')"
p50
aS"(5958, u'(?i)(rats|rat)')"
p51
aS"(3522, u'(?i)(tetras|tetra)')"
p52
aS"(3812, u'(?i)(studs|stud)')"
p53
aS"(6356, u'(?i)(ais|ai)')"
p54
atp55
Rp56
sb.