(ifile_types
ParseObject
p0
(dp1
S'methods'
p2
c__builtin__
set
p3
((lp4
S'Method.AGONIST'
p5
atp6
Rp7
sS'topics'
p8
g3
((lp9
tp10
Rp11
sS'receptors'
p12
g3
((lp13
(S'5ht1c'
p14
I944
I950
tp15
a(S'5ht1c'
p16
I1785
I1791
tp17
a(S'5ht1'
p18
I1444
I1450
tp19
a(S'5ht2'
p20
I1209
I1214
tp21
a(S'5ht2'
p22
I1669
I1674
tp23
a(S'5ht1b'
p24
I675
I681
tp25
a(S'5ht1c'
p26
I687
I693
tp27
a(S'5ht1c'
p28
I1456
I1462
tp29
a(S'5ht1'
p30
I675
I681
tp31
a(S'5ht1b'
p32
I1247
I1253
tp33
a(S'5ht2'
p34
I660
I665
tp35
a(S'5ht1'
p36
I932
I938
tp37
a(S'5ht2'
p38
I79
I84
tp39
a(S'5ht1'
p40
I1538
I1543
tp41
a(S'5ht1a'
p42
I667
I673
tp43
a(S'5ht1c'
p44
I1149
I1155
tp45
a(S'5ht2'
p46
I1121
I1126
tp47
a(S'5ht1a'
p48
I1237
I1243
tp49
a(S'5ht1a'
p50
I924
I930
tp51
a(S'5ht1'
p52
I1558
I1563
tp53
a(S'5ht2'
p54
I798
I803
tp55
a(S'5ht1b'
p56
I932
I938
tp57
a(S'5ht1a'
p58
I1436
I1442
tp59
a(S'5ht1b'
p60
I1444
I1450
tp61
a(S'5ht2'
p62
I1332
I1337
tp63
atp64
Rp65
sS'raw_text_methods'
p66
g3
((lp67
S"(13, u'\\\\bagonist')"
p68
aS"(27, u'\\\\blsd')"
p69
atp70
Rp71
sS'regions'
p72
g3
((lp73
tp74
Rp75
sS'year'
p76
V1988
p77
sS'species'
p78
g3
((lp79
tp80
Rp81
sb.