(ifile_types
ParseObject
p0
(dp1
S'methods'
p2
c__builtin__
set
p3
((lp4
tp5
Rp6
sS'topics'
p7
g3
((lp8
S"(26, u'\\\\bbehav')"
p9
atp10
Rp11
sS'receptors'
p12
g3
((lp13
(S'5ht2c'
p14
I529
I535
tp15
a(S'5ht2c'
p16
I1249
I1255
tp17
a(S'5ht2c'
p18
I1026
I1032
tp19
a(S'5ht2a'
p20
I589
I595
tp21
a(S'5ht2a'
p22
I1139
I1145
tp23
a(S'5ht1b'
p24
I509
I515
tp25
a(S'5ht1b'
p26
I796
I802
tp27
a(S'5ht2a'
p28
I899
I905
tp29
a(S'5ht1b'
p30
I1128
I1134
tp31
a(S'5ht2a'
p32
I56
I69
tp33
a(S'5ht2a'
p34
I1287
I1293
tp35
a(S'5ht1b'
p36
I56
I67
tp37
a(S'5ht2a'
p38
I518
I524
tp39
atp40
Rp41
sS'raw_text_methods'
p42
g3
((lp43
tp44
Rp45
sS'regions'
p46
g3
((lp47
tp48
Rp49
sS'year'
p50
V2003
p51
sS'species'
p52
g3
((lp53
tp54
Rp55
sb.