(ifile_types
ParseObject
p0
(dp1
S'antagonists'
p2
c__builtin__
set
p3
((lp4
S"(117, u'\\\\bmianserin')"
p5
atp6
Rp7
sS'methods'
p8
g3
((lp9
S'Method.ANTAGONIST'
p10
atp11
Rp12
sS'topics'
p13
g3
((lp14
tp15
Rp16
sS'receptors'
p17
g3
((lp18
S'5ht5'
p19
aS'5ht2c'
p20
aS'5ht2a'
p21
atp22
Rp23
sS'regions'
p24
g3
((lp25
S"(203, u'(?i)(dentates|dentate)(-|\\\\s+)?(gyruses|gyrus)')"
p26
aS"(159, u'(?i)(paraventriculars|paraventricular)(-|\\\\s+)?(nuclei|nucleus)')"
p27
aS"(244, u'(?i)(piriforms|piriform)(-|\\\\s+)?(cortexes|cortex)')"
p28
aS"(126, u'(?i)(thalamuses|thalamus)')"
p29
aS"(34, u'(?i)(pon|pons)')"
p30
atp31
Rp32
sS'year'
p33
V2002
p34
sS'agonists'
p35
g3
((lp36
S"(193, u'\\\\bethanol')"
p37
atp38
Rp39
sS'species'
p40
g3
((lp41
S"(5537, u'(?i)(hippos|hippo)')"
p42
aS"(6753, u'(?i)(da|das)')"
p43
aS"(949, u'(?i)(cohoes|coho)')"
p44
aS"(5958, u'(?i)(rats|rat)')"
p45
aS"(4979, u'(?i)(cats|cat)')"
p46
aS"(6682, u'(?i)(tera|teras)')"
p47
aS"(1055, u'(?i)(men|man)')"
p48
aS"(6249, u'(?i)(ants|ant)')"
p49
aS"(2568, u'(?i)(hens|hen)')"
p50
aS"(4964, u'(?i)(serins|serin)')"
p51
aS"(3550, u'(?i)(anis|ani)')"
p52
aS"(7094, u'(?i)(curs|cur)')"
p53
aS"(5229, u'(?i)(moles|mole)')"
p54
aS"(1961, u'(?i)(pens|pen)')"
p55
aS"(3592, u'(?i)(ravens|raven)')"
p56
aS"(1349, u'(?i)(rams|ram)')"
p57
aS"(6356, u'(?i)(ais|ai)')"
p58
atp59
Rp60
sb.