(ifile_types
ParseObject
p0
(dp1
S'methods'
p2
c__builtin__
set
p3
((lp4
S'Method.ANTAGONIST'
p5
aS'Method.AGONIST'
p6
atp7
Rp8
sS'topics'
p9
g3
((lp10
S"(5, u'\\\\btherap')"
p11
aS"(7, u'\\\\bdepressi')"
p12
aS"(34, u'\\\\bparkinson')"
p13
atp14
Rp15
sS'receptors'
p16
g3
((lp17
(S'5ht2c'
p18
I801
I807
tp19
a(S'5ht2c'
p20
I1489
I1495
tp21
a(S'5ht2c'
p22
I502
I508
tp23
a(S'5ht2c'
p24
I1981
I1987
tp25
a(S'5ht2c'
p26
I1563
I1569
tp27
a(S'5ht2c'
p28
I2182
I2193
tp29
a(S'5ht2c'
p30
I39
I50
tp31
a(S'5ht2c'
p32
I215
I226
tp33
a(S'5ht2c'
p34
I629
I635
tp35
a(S'5ht2c'
p36
I229
I235
tp37
a(S'5ht2c'
p38
I396
I402
tp39
a(S'5ht2c'
p40
I972
I978
tp41
atp42
Rp43
sS'raw_text_methods'
p44
g3
((lp45
S"(13, u'\\\\bagonist')"
p46
aS"(12, u'\\\\bantagonist')"
p47
atp48
Rp49
sS'regions'
p50
g3
((lp51
S"(15, u'(?i)\\\\b(substantias|substantia)(-|\\\\s+)?(nigras|nigra)\\\\b')"
p52
aS"(17, u'(?i)\\\\b(caudates|caudate)\\\\b')"
p53
aS"(18, u'(?i)\\\\b(putamens|putamen)\\\\b')"
p54
atp55
Rp56
sS'year'
p57
V2014
p58
sS'species'
p59
g3
((lp60
S"(4, u'(?i)\\\\b(rats|rat)\\\\b')"
p61
atp62
Rp63
sb.