(ifile_types
ParseObject
p0
(dp1
S'antagonists'
p2
c__builtin__
set
p3
((lp4
S"(53, u'\\\\bketanserin')"
p5
aS"(128, u'\\\\bketanserin')"
p6
atp7
Rp8
sS'methods'
p9
g3
((lp10
S'Method.ANTAGONIST'
p11
atp12
Rp13
sS'topics'
p14
g3
((lp15
S"(35, u'\\\\bstress')"
p16
atp17
Rp18
sS'receptors'
p19
g3
((lp20
S'5ht2a'
p21
atp22
Rp23
sS'regions'
p24
g3
((lp25
S"(220, u'(?i)(striatums|striatum)')"
p26
aS"(126, u'(?i)(thalamuses|thalamus)')"
p27
atp28
Rp29
sS'year'
p30
V2007
p31
sS'agonists'
p32
g3
((lp33
S"(153, u'\\\\bmdma')"
p34
aS"(14, u'\\\\bamphetamine')"
p35
atp36
Rp37
sS'species'
p38
g3
((lp39
S"(4624, u'(?i)(apes|ape)')"
p40
aS"(7094, u'(?i)(curs|cur)')"
p41
aS"(6249, u'(?i)(ants|ant)')"
p42
aS"(6356, u'(?i)(ais|ai)')"
p43
aS"(3196, u'(?i)(human|humans)')"
p44
aS"(1070, u'(?i)(pets|pet)')"
p45
aS"(81, u'(?i)(asps|asp)')"
p46
aS"(468, u'(?i)(oxen|ox)')"
p47
aS"(3404, u'(?i)(titis|titi)')"
p48
aS"(5743, u'(?i)(bots|bot)')"
p49
aS"(3550, u'(?i)(anis|ani)')"
p50
aS"(5537, u'(?i)(hippos|hippo)')"
p51
aS"(5958, u'(?i)(rats|rat)')"
p52
aS"(867, u'(?i)(tits|tit)')"
p53
aS"(1055, u'(?i)(men|man)')"
p54
aS"(6753, u'(?i)(da|das)')"
p55
aS"(1057, u'(?i)(humans|human)')"
p56
aS"(1961, u'(?i)(pens|pen)')"
p57
aS"(6981, u'(?i)(moths|moth)')"
p58
aS"(2323, u'(?i)(bees|bee)')"
p59
aS"(853, u'(?i)(minas|mina)')"
p60
aS"(4964, u'(?i)(serins|serin)')"
p61
atp62
Rp63
sb.