(ifile_types
ParseObject
p0
(dp1
S'antagonists'
p2
c__builtin__
set
p3
((lp4
S"(15, u'\\\\bmppf')"
p5
atp6
Rp7
sS'methods'
p8
g3
((lp9
S'Method.PET'
p10
atp11
Rp12
sS'topics'
p13
g3
((lp14
S"(9, u'\\\\bdepress')"
p15
aS"(1, u'\\\\bmood')"
p16
atp17
Rp18
sS'receptors'
p19
g3
((lp20
S'5ht5'
p21
aS'5ht1a'
p22
atp23
Rp24
sS'regions'
p25
g3
((lp26
tp27
Rp28
sS'year'
p29
V2004
p30
sS'agonists'
p31
g3
((lp32
tp33
Rp34
sS'species'
p35
g3
((lp36
S"(1070, u'(?i)(pets|pet)')"
p37
aS"(2568, u'(?i)(hens|hen)')"
p38
aS"(5958, u'(?i)(rats|rat)')"
p39
aS"(7552, u'(?i)(bats|bat)')"
p40
aS"(468, u'(?i)(oxen|ox)')"
p41
aS"(1055, u'(?i)(men|man)')"
p42
aS"(6249, u'(?i)(ants|ant)')"
p43
aS"(1349, u'(?i)(rams|ram)')"
p44
aS"(6356, u'(?i)(ais|ai)')"
p45
aS"(3550, u'(?i)(anis|ani)')"
p46
aS"(7094, u'(?i)(curs|cur)')"
p47
aS"(3812, u'(?i)(studs|stud)')"
p48
aS"(2809, u'(?i)(toms|tom)')"
p49
atp50
Rp51
sb.