(ifile_types
ParseObject
p0
(dp1
S'antagonists'
p2
c__builtin__
set
p3
((lp4
S"(34, u'\\\\bmetergoline')"
p5
aS"(21, u'\\\\bpindolol')"
p6
aS"(1, u'\\\\balprenolol')"
p7
aS"(28, u'\\\\bspiroxatrine')"
p8
aS"(203, u'\\\\btfmpp')"
p9
aS"(89, u'\\\\beltoprazine')"
p10
aS"(124, u'\\\\bondansetron')"
p11
aS"(117, u'\\\\bketanserin')"
p12
aS"(110, u'\\\\bclozapine')"
p13
aS"(17, u'\\\\bnan ?190')"
p14
aS"(119, u'\\\\britanserin')"
p15
atp16
Rp17
sS'methods'
p18
g3
((lp19
S'Method.ANTAGONIST'
p20
aS'Method.AGONIST'
p21
atp22
Rp23
sS'topics'
p24
g3
((lp25
S"(20, u'\\\\baggressi')"
p26
atp27
Rp28
sS'receptors'
p29
g3
((lp30
S'5ht1a'
p31
aS'5ht3a'
p32
aS'5ht2'
p33
aS'5ht2a'
p34
atp35
Rp36
sS'regions'
p37
g3
((lp38
tp39
Rp40
sS'year'
p41
V1993
p42
sS'agonists'
p43
g3
((lp44
S"(20, u'\\\\bbuspirone')"
p45
aS"(39, u'\\\\bflesinoxan')"
p46
aS"(157, u'\\\\bdmt')"
p47
aS"(155, u'\\\\bmcpp')"
p48
aS"(42, u'\\\\bgepirone')"
p49
aS"(45, u'\\\\bipsapirone')"
p50
aS"(178, u'\\\\btfmpp')"
p51
aS"(175, u'\\\\bdoi')"
p52
aS"(15, u'\\\\bbay r 1531')"
p53
aS"(85, u'\\\\b8 ?oh ?dpat')"
p54
aS"(31, u'\\\\beltoprazine')"
p55
aS"(179, u'\\\\b5 ?meo ?dmt')"
p56
aS"(23, u'\\\\bclozapine')"
p57
aS"(67, u'\\\\bru ?24969')"
p58
atp59
Rp60
sS'species'
p61
g3
((lp62
S"(6753, u'(?i)\\\\b(da|das)\\\\b')"
p63
aS"(5967, u'(?i)\\\\b(males|male)\\\\b')"
p64
aS"(5510, u'(?i)\\\\b(bays|bay)\\\\b')"
p65
aS"(163, u'(?i)\\\\b(mice|mouse)\\\\b')"
p66
aS"(7058, u'(?i)\\\\b(does|doe)\\\\b')"
p67
atp68
Rp69
sb.