(ifile_types
ParseObject
p0
(dp1
S'antagonists'
p2
c__builtin__
set
p3
((lp4
S"(153, u'\\\\bgr ?113808')"
p5
atp6
Rp7
sS'methods'
p8
g3
((lp9
S'Method.ANTAGONIST'
p10
atp11
Rp12
sS'topics'
p13
g3
((lp14
tp15
Rp16
sS'receptors'
p17
g3
((lp18
S'5ht4a'
p19
aS'5ht4'
p20
atp21
Rp22
sS'regions'
p23
g3
((lp24
S"(124, u'(?i)(thirds|third)(-|\\\\s+)?(ventricles|ventricle)')"
p25
atp26
Rp27
sS'year'
p28
V2001
p29
sS'agonists'
p30
g3
((lp31
tp32
Rp33
sS'species'
p34
g3
((lp35
S"(7134, u'(?i)(voles|vole)')"
p36
aS"(5958, u'(?i)(rats|rat)')"
p37
aS"(5967, u'(?i)(males|male)')"
p38
aS"(7488, u'(?i)(molas|mola)')"
p39
aS"(6249, u'(?i)(ants|ant)')"
p40
aS"(6215, u'(?i)(racers|racer)')"
p41
aS"(3550, u'(?i)(anis|ani)')"
p42
atp43
Rp44
sb.