(ifile_types
ParseObject
p0
(dp1
S'antagonists'
p2
c__builtin__
set
p3
((lp4
S"(22, u'\\\\bpropranolol')"
p5
atp6
Rp7
sS'methods'
p8
g3
((lp9
S'Method.ANTAGONIST'
p10
aS'Method.AGONIST'
p11
atp12
Rp13
sS'topics'
p14
g3
((lp15
tp16
Rp17
sS'receptors'
p18
g3
((lp19
S'5ht1b'
p20
aS'5ht1a'
p21
atp22
Rp23
sS'regions'
p24
g3
((lp25
S"(34, u'(?i)(pon|pons)')"
p26
atp27
Rp28
sS'year'
p29
V1991
p30
sS'agonists'
p31
g3
((lp32
S"(92, u'\\\\b8 ?oh ?dpat')"
p33
aS"(24, u'\\\\bbuspirone')"
p34
atp35
Rp36
sS'species'
p37
g3
((lp38
S"(5958, u'(?i)(rats|rat)')"
p39
aS"(6391, u'(?i)(asses|ass)')"
p40
aS"(468, u'(?i)(oxen|ox)')"
p41
aS"(1055, u'(?i)(men|man)')"
p42
aS"(6753, u'(?i)(da|das)')"
p43
aS"(6249, u'(?i)(ants|ant)')"
p44
aS"(3522, u'(?i)(tetras|tetra)')"
p45
aS"(1961, u'(?i)(pens|pen)')"
p46
aS"(6356, u'(?i)(ais|ai)')"
p47
aS"(1949, u'(?i)(pacemakers|pacemaker)')"
p48
aS"(821, u'(?i)(lice|louse)')"
p49
atp50
Rp51
sb.