(ifile_types
ParseObject
p0
(dp1
S'antagonists'
p2
c__builtin__
set
p3
((lp4
S"(86, u'\\\\btegaserod')"
p5
aS"(34, u'\\\\byohimbine')"
p6
aS"(153, u'\\\\bgr ?113808')"
p7
atp8
Rp9
sS'methods'
p10
g3
((lp11
S'Method.ANTAGONIST'
p12
aS'Method.AGONIST'
p13
atp14
Rp15
sS'topics'
p16
g3
((lp17
S"(21, u'\\\\bpain')"
p18
aS"(24, u'\\\\banalgesi')"
p19
atp20
Rp21
sS'receptors'
p22
g3
((lp23
S'5ht4a'
p24
aS'5ht4'
p25
atp26
Rp27
sS'regions'
p28
g3
((lp29
S"(34, u'(?i)(pon|pons)')"
p30
atp31
Rp32
sS'year'
p33
V2014
p34
sS'agonists'
p35
g3
((lp36
S"(89, u'\\\\byohimbine')"
p37
aS"(211, u'\\\\btegaserod')"
p38
atp39
Rp40
sS'species'
p41
g3
((lp42
S"(2323, u'(?i)(bees|bee)')"
p43
aS"(4624, u'(?i)(apes|ape)')"
p44
aS"(1438, u'(?i)(ceroes|cero)')"
p45
aS"(2568, u'(?i)(hens|hen)')"
p46
aS"(5958, u'(?i)(rats|rat)')"
p47
aS"(5176, u'(?i)(tegs|teg)')"
p48
aS"(81, u'(?i)(asps|asp)')"
p49
aS"(468, u'(?i)(oxen|ox)')"
p50
aS"(6249, u'(?i)(ants|ant)')"
p51
aS"(6215, u'(?i)(racers|racer)')"
p52
aS"(4979, u'(?i)(cats|cat)')"
p53
aS"(3550, u'(?i)(anis|ani)')"
p54
aS"(5967, u'(?i)(males|male)')"
p55
aS"(3812, u'(?i)(studs|stud)')"
p56
aS"(6391, u'(?i)(asses|ass)')"
p57
aS"(6356, u'(?i)(ais|ai)')"
p58
atp59
Rp60
sb.