(ifile_types
ParseObject
p0
(dp1
S'antagonists'
p2
c__builtin__
set
p3
((lp4
S"(32, u'\\\\bway ?100635')"
p5
atp6
Rp7
sS'methods'
p8
g3
((lp9
S'Method.PET'
p10
aS'Method.ANTAGONIST'
p11
aS'Method.AGONIST'
p12
atp13
Rp14
sS'topics'
p15
g3
((lp16
tp17
Rp18
sS'receptors'
p19
g3
((lp20
S'5ht1a'
p21
atp22
Rp23
sS'regions'
p24
g3
((lp25
S"(318, u'(?i)(raphes|raphe)(-|\\\\s+)?(nuclei|nucleus)')"
p26
aS"(71, u'(?i)(cerebellums|cerebellum)')"
p27
aS"(34, u'(?i)(pon|pons)')"
p28
atp29
Rp30
sS'year'
p31
V1998
p32
sS'agonists'
p33
g3
((lp34
S"(92, u'\\\\b8 ?oh ?dpat')"
p35
atp36
Rp37
sS'species'
p38
g3
((lp39
S"(4133, u'(?i)(pikes|pike)')"
p40
aS"(3592, u'(?i)(ravens|raven)')"
p41
aS"(6356, u'(?i)(ais|ai)')"
p42
aS"(6249, u'(?i)(ants|ant)')"
p43
aS"(6391, u'(?i)(asses|ass)')"
p44
aS"(3812, u'(?i)(studs|stud)')"
p45
aS"(3196, u'(?i)(human|humans)')"
p46
aS"(5497, u'(?i)(fices|fice)')"
p47
aS"(1070, u'(?i)(pets|pet)')"
p48
aS"(479, u'(?i)(lings|ling)')"
p49
aS"(468, u'(?i)(oxen|ox)')"
p50
aS"(5838, u'(?i)(cubs|cub)')"
p51
aS"(3522, u'(?i)(tetras|tetra)')"
p52
aS"(2809, u'(?i)(toms|tom)')"
p53
aS"(2341, u'(?i)(monkeys|monkey)')"
p54
aS"(5537, u'(?i)(hippos|hippo)')"
p55
aS"(5958, u'(?i)(rats|rat)')"
p56
aS"(4201, u'(?i)(kines|kine)')"
p57
aS"(6682, u'(?i)(tera|teras)')"
p58
aS"(1055, u'(?i)(men|man)')"
p59
aS"(853, u'(?i)(minas|mina)')"
p60
aS"(1057, u'(?i)(humans|human)')"
p61
aS"(1961, u'(?i)(pens|pen)')"
p62
aS"(2568, u'(?i)(hens|hen)')"
p63
aS"(6753, u'(?i)(da|das)')"
p64
aS"(7552, u'(?i)(bats|bat)')"
p65
atp66
Rp67
sb.