(ifile_types
ParseObject
p0
(dp1
S'methods'
p2
c__builtin__
set
p3
((lp4
S'Method.ANTAGONIST'
p5
atp6
Rp7
sS'topics'
p8
g3
((lp9
tp10
Rp11
sS'receptors'
p12
g3
((lp13
(S'5ht1b'
p14
I476
I484
tp15
a(S'5ht1a'
p16
I476
I482
tp17
a(S'5ht1c'
p18
I304
I310
tp19
a(S'5ht2'
p20
I427
I432
tp21
a(S'5ht1c'
p22
I427
I434
tp23
a(S'5ht1c'
p24
I1036
I1042
tp25
a(S'5ht3'
p26
I533
I538
tp27
a(S'5ht2'
p28
I304
I311
tp29
atp30
Rp31
sS'raw_text_methods'
p32
g3
((lp33
S"(7, u'\\\\bpropranolol')"
p34
aS"(9, u'\\\\britanserin')"
p35
aS"(12, u'\\\\bantagonist')"
p36
aS"(11, u'\\\\bfluoxetine')"
p37
atp38
Rp39
sS'regions'
p40
g3
((lp41
tp42
Rp43
sS'year'
p44
V1993
p45
sS'species'
p46
g3
((lp47
S"(1, u'(?i)\\\\b(mice|mouse)\\\\b')"
p48
aS"(5, u'(?i)\\\\b(mices|mice)\\\\b')"
p49
atp50
Rp51
sb.