(ifile_types
ParseObject
p0
(dp1
S'antagonists'
p2
c__builtin__
set
p3
((lp4
S"(204, u'\\\\bsb ?269970')"
p5
atp6
Rp7
sS'methods'
p8
g3
((lp9
S'Method.ANTAGONIST'
p10
atp11
Rp12
sS'topics'
p13
g3
((lp14
S"(6, u'\\\\bcognit')"
p15
atp16
Rp17
sS'receptors'
p18
g3
((lp19
S'5ht7'
p20
atp21
Rp22
sS'regions'
p23
g3
((lp24
S"(203, u'(?i)(dentates|dentate)(-|\\\\s+)?(gyruses|gyrus)')"
p25
aS"(292, u'(?i)(anteriors|anterior)(-|\\\\s+)?(cingulates|cingulate)')"
p26
aS"(362, u'(?i)(brains|brain)(-|\\\\s+)?(stems|stem)')"
p27
aS"(126, u'(?i)(thalamuses|thalamus)')"
p28
aS"(209, u'(?i)(amygdalas|amygdala)')"
p29
atp30
Rp31
sS'year'
p32
V2004
p33
sS'agonists'
p34
g3
((lp35
tp36
Rp37
sS'species'
p38
g3
((lp39
S"(5537, u'(?i)(hippos|hippo)')"
p40
aS"(6753, u'(?i)(da|das)')"
p41
aS"(6249, u'(?i)(ants|ant)')"
p42
aS"(6356, u'(?i)(ais|ai)')"
p43
aS"(7609, u'(?i)(erns|ern)')"
p44
aS"(1049, u'(?i)(elands|eland)')"
p45
aS"(4979, u'(?i)(cats|cat)')"
p46
aS"(1055, u'(?i)(men|man)')"
p47
aS"(853, u'(?i)(minas|mina)')"
p48
aS"(1057, u'(?i)(humans|human)')"
p49
aS"(3812, u'(?i)(studs|stud)')"
p50
aS"(3196, u'(?i)(human|humans)')"
p51
aS"(1683, u'(?i)(terns|tern)')"
p52
atp53
Rp54
sb.