(ifile_types
ParseObject
p0
(dp1
S'methods'
p2
c__builtin__
set
p3
((lp4
S'Method.ANTAGONIST'
p5
atp6
Rp7
sS'topics'
p8
g3
((lp9
S"(5, u'\\\\btherap')"
p10
atp11
Rp12
sS'receptors'
p13
g3
((lp14
(S'5ht1a'
p15
I647
I653
tp16
a(S'5ht1a'
p17
I1820
I1826
tp18
a(S'5ht1a'
p19
I1980
I1986
tp20
a(S'5ht1a'
p21
I998
I1004
tp22
a(S'5ht1a'
p23
I1199
I1205
tp24
a(S'5ht1a'
p25
I484
I490
tp26
a(S'5ht1a'
p27
I1470
I1476
tp28
atp29
Rp30
sS'raw_text_methods'
p31
g3
((lp32
S"(12, u'\\\\bantagonist')"
p33
atp34
Rp35
sS'regions'
p36
g3
((lp37
tp38
Rp39
sS'year'
p40
V1992
p41
sS'species'
p42
g3
((lp43
S"(4, u'(?i)\\\\b(rats|rat)\\\\b')"
p44
atp45
Rp46
sb.