(ifile_types
ParseObject
p0
(dp1
S'antagonists'
p2
c__builtin__
set
p3
((lp4
S"(5, u'\\\\bcyanopindolol')"
p5
aS"(32, u'\\\\bway ?100635')"
p6
aS"(130, u'\\\\britanserin')"
p7
aS"(123, u'\\\\bclozapine')"
p8
aS"(56, u'\\\\bclozapine')"
p9
aS"(54, u'\\\\britanserin')"
p10
atp11
Rp12
sS'methods'
p13
g3
((lp14
S'Method.ANTAGONIST'
p15
aS'Method.AGONIST'
p16
atp17
Rp18
sS'topics'
p19
g3
((lp20
tp21
Rp22
sS'receptors'
p23
g3
((lp24
S'5ht7'
p25
aS'5ht1b'
p26
aS'5ht5'
p27
aS'5ht1d'
p28
aS'5ht7a'
p29
aS'5ht1a'
p30
atp31
Rp32
sS'regions'
p33
g3
((lp34
S"(158, u'(?i)(suprachiasmatics|suprachiasmatic)(-|\\\\s+)?(nuclei|nucleus)')"
p35
aS"(34, u'(?i)(pon|pons)')"
p36
atp37
Rp38
sS'year'
p39
V1997
p40
sS'agonists'
p41
g3
((lp42
S"(92, u'\\\\b8 ?oh ?dpat')"
p43
aS"(5, u'\\\\b5 ?ct')"
p44
aS"(27, u'\\\\bclozapine')"
p45
atp46
Rp47
sS'species'
p48
g3
((lp49
S"(2323, u'(?i)(bees|bee)')"
p50
aS"(5537, u'(?i)(hippos|hippo)')"
p51
aS"(6249, u'(?i)(ants|ant)')"
p52
aS"(6356, u'(?i)(ais|ai)')"
p53
aS"(4964, u'(?i)(serins|serin)')"
p54
aS"(7539, u'(?i)(mammals|mammal)')"
p55
aS"(853, u'(?i)(minas|mina)')"
p56
aS"(4099, u'(?i)(hamsters|hamster)')"
p57
aS"(1961, u'(?i)(pens|pen)')"
p58
aS"(3812, u'(?i)(studs|stud)')"
p59
aS"(4979, u'(?i)(cats|cat)')"
p60
atp61
Rp62
sb.