(ifile_types
ParseObject
p0
(dp1
S'methods'
p2
c__builtin__
set
p3
((lp4
S'Method.AGONIST'
p5
atp6
Rp7
sS'topics'
p8
g3
((lp9
S"(26, u'\\\\bbehav')"
p10
atp11
Rp12
sS'receptors'
p13
g3
((lp14
(S'5ht1a'
p15
I1459
I1465
tp16
a(S'5ht1a'
p17
I1040
I1046
tp18
a(S'5ht1a'
p19
I55
I61
tp20
a(S'5ht2'
p21
I428
I438
tp22
a(S'5ht1a'
p23
I456
I462
tp24
a(S'5ht1a'
p25
I1155
I1161
tp26
atp27
Rp28
sS'raw_text_methods'
p29
g3
((lp30
S"(13, u'\\\\bagonist')"
p31
aS"(15, u'\\\\b8ohdpat')"
p32
aS"(37, u'\\\\bpiperazine')"
p33
atp34
Rp35
sS'regions'
p36
g3
((lp37
tp38
Rp39
sS'year'
p40
V1993
p41
sS'species'
p42
g3
((lp43
S"(2, u'(?i)\\\\b(females|female)\\\\b')"
p44
aS"(3, u'(?i)\\\\b(males|male)\\\\b')"
p45
aS"(4, u'(?i)\\\\b(rats|rat)\\\\b')"
p46
atp47
Rp48
sb.