(ifile_types
ParseObject
p0
(dp1
S'antagonists'
p2
c__builtin__
set
p3
((lp4
S"(77, u'\\\\btegaserod')"
p5
atp6
Rp7
sS'methods'
p8
g3
((lp9
S'Method.ANTAGONIST'
p10
aS'Method.AGONIST'
p11
atp12
Rp13
sS'topics'
p14
g3
((lp15
S"(5, u'\\\\bgastrointestin')"
p16
aS"(21, u'\\\\bpain')"
p17
atp18
Rp19
sS'receptors'
p20
g3
((lp21
S'5ht3'
p22
aS'5ht4a'
p23
aS'5ht3a'
p24
atp25
Rp26
sS'regions'
p27
g3
((lp28
tp29
Rp30
sS'year'
p31
V2002
p32
sS'agonists'
p33
g3
((lp34
S"(202, u'\\\\bprucalopride')"
p35
aS"(207, u'\\\\btegaserod')"
p36
atp37
Rp38
sS'species'
p39
g3
((lp40
tp41
Rp42
sb.