(ifile_types
ParseObject
p0
(dp1
S'antagonists'
p2
c__builtin__
set
p3
((lp4
tp5
Rp6
sS'methods'
p7
g3
((lp8
tp9
Rp10
sS'topics'
p11
g3
((lp12
tp13
Rp14
sS'receptors'
p15
g3
((lp16
S'5ht2a'
p17
atp18
Rp19
sS'regions'
p20
g3
((lp21
S"(254, u'(?i)(prefrontals|prefrontal)(-|\\\\s+)?(cortexes|cortex)')"
p22
aS"(255, u'(?i)(pres|pre)(-|\\\\s+)?(frontals|frontal)(-|\\\\s+)?(cortexes|cortex)')"
p23
atp24
Rp25
sS'year'
p26
V2001
p27
sS'agonists'
p28
g3
((lp29
tp30
Rp31
sS'species'
p32
g3
((lp33
S"(4624, u'(?i)(apes|ape)')"
p34
aS"(2568, u'(?i)(hens|hen)')"
p35
aS"(867, u'(?i)(tits|tit)')"
p36
aS"(6753, u'(?i)(da|das)')"
p37
aS"(6682, u'(?i)(tera|teras)')"
p38
aS"(6249, u'(?i)(ants|ant)')"
p39
aS"(2183, u'(?i)(gars|gar)')"
p40
aS"(1055, u'(?i)(men|man)')"
p41
aS"(3726, u'(?i)(mates|mate)')"
p42
aS"(6580, u'(?i)(dams|dam)')"
p43
aS"(5176, u'(?i)(tegs|teg)')"
p44
aS"(7094, u'(?i)(curs|cur)')"
p45
aS"(3550, u'(?i)(anis|ani)')"
p46
aS"(5958, u'(?i)(rats|rat)')"
p47
aS"(3812, u'(?i)(studs|stud)')"
p48
aS"(6391, u'(?i)(asses|ass)')"
p49
aS"(6356, u'(?i)(ais|ai)')"
p50
atp51
Rp52
sb.