(ifile_types
ParseObject
p0
(dp1
S'antagonists'
p2
c__builtin__
set
p3
((lp4
S"(21, u'\\\\bpindolol')"
p5
atp6
Rp7
sS'methods'
p8
g3
((lp9
S'Method.ANTAGONIST'
p10
atp11
Rp12
sS'topics'
p13
g3
((lp14
S"(9, u'\\\\bdepress')"
p15
aS"(16, u'\\\\bfeed')"
p16
atp17
Rp18
sS'receptors'
p19
g3
((lp20
S'5ht5'
p21
aS'5ht1a'
p22
atp23
Rp24
sS'regions'
p25
g3
((lp26
S"(34, u'(?i)(pon|pons)')"
p27
atp28
Rp29
sS'year'
p30
V1998
p31
sS'agonists'
p32
g3
((lp33
tp34
Rp35
sS'species'
p36
g3
((lp37
S"(4624, u'(?i)(apes|ape)')"
p38
aS"(5958, u'(?i)(rats|rat)')"
p39
aS"(3636, u'(?i)(martins|martin)')"
p40
aS"(479, u'(?i)(lings|ling)')"
p41
aS"(1055, u'(?i)(men|man)')"
p42
aS"(6753, u'(?i)(da|das)')"
p43
aS"(6249, u'(?i)(ants|ant)')"
p44
aS"(5229, u'(?i)(moles|mole)')"
p45
aS"(6356, u'(?i)(ais|ai)')"
p46
aS"(5949, u'(?i)(dogs|dog)')"
p47
atp48
Rp49
sb.