(ifile_types
ParseObject
p0
(dp1
S'antagonists'
p2
c__builtin__
set
p3
((lp4
tp5
Rp6
sS'methods'
p7
g3
((lp8
tp9
Rp10
sS'topics'
p11
g3
((lp12
S"(4, u'\\\\blocomot')"
p13
atp14
Rp15
sS'receptors'
p16
g3
((lp17
S'5ht5'
p18
aS'5ht1a'
p19
atp20
Rp21
sS'regions'
p22
g3
((lp23
tp24
Rp25
sS'year'
p26
V2009
p27
sS'agonists'
p28
g3
((lp29
tp30
Rp31
sS'species'
p32
g3
((lp33
S"(7058, u'(?i)\\\\b(does|doe)\\\\b')"
p34
aS"(3671, u'(?i)\\\\b(drosophilas|drosophila)\\\\b')"
p35
aS"(4721, u'(?i)\\\\b(instars|instar)\\\\b')"
p36
aS"(2054, u'(?i)\\\\b(heads|head)\\\\b')"
p37
atp38
Rp39
sb.