(ifile_types
ParseObject
p0
(dp1
S'antagonists'
p2
c__builtin__
set
p3
((lp4
S"(124, u'\\\\bondansetron')"
p5
aS"(119, u'\\\\britanserin')"
p6
atp7
Rp8
sS'methods'
p9
g3
((lp10
S'Method.ANTAGONIST'
p11
aS'Method.AGONIST'
p12
atp13
Rp14
sS'topics'
p15
g3
((lp16
S"(12, u'\\\\banxiogen')"
p17
aS"(11, u'\\\\banxiolyt')"
p18
atp19
Rp20
sS'receptors'
p21
g3
((lp22
S'5ht1a'
p23
aS'5ht3a'
p24
aS'5ht2a'
p25
atp26
Rp27
sS'regions'
p28
g3
((lp29
tp30
Rp31
sS'year'
p32
V1992
p33
sS'agonists'
p34
g3
((lp35
S"(45, u'\\\\bipsapirone')"
p36
atp37
Rp38
sS'species'
p39
g3
((lp40
S"(5958, u'(?i)\\\\b(rats|rat)\\\\b')"
p41
atp42
Rp43
sb.