(ifile_types
ParseObject
p0
(dp1
S'antagonists'
p2
c__builtin__
set
p3
((lp4
tp5
Rp6
sS'methods'
p7
g3
((lp8
S'Method.AGONIST'
p9
atp10
Rp11
sS'topics'
p12
g3
((lp13
tp14
Rp15
sS'receptors'
p16
g3
((lp17
S'5ht1a'
p18
aS'5ht5'
p19
atp20
Rp21
sS'regions'
p22
g3
((lp23
S"(248, u'(?i)(cerebrals|cerebral)(-|\\\\s+)?(cortexes|cortex)')"
p24
aS"(291, u'(?i)(cingulates|cingulate)(-|\\\\s+)?(cortexes|cortex)')"
p25
atp26
Rp27
sS'year'
p28
V1997
p29
sS'agonists'
p30
g3
((lp31
S"(155, u'\\\\bmem')"
p32
atp33
Rp34
sS'species'
p35
g3
((lp36
S"(4163, u'(?i)(ermines|ermine)')"
p37
aS"(7094, u'(?i)(curs|cur)')"
p38
aS"(1349, u'(?i)(rams|ram)')"
p39
aS"(6356, u'(?i)(ais|ai)')"
p40
aS"(3812, u'(?i)(studs|stud)')"
p41
aS"(3196, u'(?i)(human|humans)')"
p42
aS"(1070, u'(?i)(pets|pet)')"
p43
aS"(479, u'(?i)(lings|ling)')"
p44
aS"(468, u'(?i)(oxen|ox)')"
p45
aS"(3404, u'(?i)(titis|titi)')"
p46
aS"(3550, u'(?i)(anis|ani)')"
p47
aS"(3522, u'(?i)(tetras|tetra)')"
p48
aS"(2809, u'(?i)(toms|tom)')"
p49
aS"(5958, u'(?i)(rats|rat)')"
p50
aS"(867, u'(?i)(tits|tit)')"
p51
aS"(6682, u'(?i)(tera|teras)')"
p52
aS"(1055, u'(?i)(men|man)')"
p53
aS"(6753, u'(?i)(da|das)')"
p54
aS"(1057, u'(?i)(humans|human)')"
p55
aS"(1414, u'(?i)(chars|char)')"
p56
aS"(5949, u'(?i)(dogs|dog)')"
p57
aS"(1169, u'(?i)(grades|grade)')"
p58
atp59
Rp60
sb.