(ifile_types
ParseObject
p0
(dp1
S'antagonists'
p2
c__builtin__
set
p3
((lp4
S"(56, u'\\\\bclozapine')"
p5
aS"(123, u'\\\\bclozapine')"
p6
aS"(22, u'\\\\bpropranolol')"
p7
atp8
Rp9
sS'methods'
p10
g3
((lp11
S'Method.ANTAGONIST'
p12
aS'Method.AGONIST'
p13
atp14
Rp15
sS'topics'
p16
g3
((lp17
tp18
Rp19
sS'receptors'
p20
g3
((lp21
S'5ht1a'
p22
atp23
Rp24
sS'regions'
p25
g3
((lp26
S"(220, u'(?i)(striatums|striatum)')"
p27
aS"(126, u'(?i)(thalamuses|thalamus)')"
p28
aS"(34, u'(?i)(pon|pons)')"
p29
atp30
Rp31
sS'year'
p32
V1995
p33
sS'agonists'
p34
g3
((lp35
S"(161, u'\\\\bmcpp')"
p36
aS"(92, u'\\\\b8 ?oh ?dpat')"
p37
aS"(27, u'\\\\bclozapine')"
p38
atp39
Rp40
sS'species'
p41
g3
((lp42
S"(5537, u'(?i)(hippos|hippo)')"
p43
aS"(2568, u'(?i)(hens|hen)')"
p44
aS"(5958, u'(?i)(rats|rat)')"
p45
aS"(479, u'(?i)(lings|ling)')"
p46
aS"(1055, u'(?i)(men|man)')"
p47
aS"(6249, u'(?i)(ants|ant)')"
p48
aS"(6753, u'(?i)(da|das)')"
p49
aS"(3550, u'(?i)(anis|ani)')"
p50
aS"(7094, u'(?i)(curs|cur)')"
p51
aS"(1961, u'(?i)(pens|pen)')"
p52
aS"(6356, u'(?i)(ais|ai)')"
p53
aS"(6391, u'(?i)(asses|ass)')"
p54
atp55
Rp56
sb.