(ifile_types
ParseObject
p0
(dp1
S'antagonists'
p2
c__builtin__
set
p3
((lp4
tp5
Rp6
sS'methods'
p7
g3
((lp8
tp9
Rp10
sS'topics'
p11
g3
((lp12
S"(5, u'\\\\bgastrointestin')"
p13
aS"(32, u'\\\\bnausea')"
p14
atp15
Rp16
sS'receptors'
p17
g3
((lp18
S'5ht3'
p19
atp20
Rp21
sS'regions'
p22
g3
((lp23
S"(362, u'(?i)(brains|brain)(-|\\\\s+)?(stems|stem)')"
p24
aS"(34, u'(?i)(pon|pons)')"
p25
atp26
Rp27
sS'year'
p28
V2015
p29
sS'agonists'
p30
g3
((lp31
tp32
Rp33
sS'species'
p34
g3
((lp35
S"(6249, u'(?i)(ants|ant)')"
p36
aS"(479, u'(?i)(lings|ling)')"
p37
aS"(468, u'(?i)(oxen|ox)')"
p38
aS"(3726, u'(?i)(mates|mate)')"
p39
aS"(853, u'(?i)(minas|mina)')"
p40
aS"(3550, u'(?i)(anis|ani)')"
p41
aS"(6356, u'(?i)(ais|ai)')"
p42
atp43
Rp44
sb.