(ifile_types
ParseObject
p0
(dp1
S'antagonists'
p2
c__builtin__
set
p3
((lp4
S"(53, u'\\\\bketanserin')"
p5
aS"(123, u'\\\\bclozapine')"
p6
aS"(76, u'\\\\beplivanserin')"
p7
aS"(128, u'\\\\bketanserin')"
p8
aS"(57, u'\\\\bolanzapine')"
p9
aS"(56, u'\\\\bclozapine')"
p10
aS"(124, u'\\\\bolanzapine')"
p11
aS"(125, u'\\\\bquetiapine')"
p12
aS"(61, u'\\\\bmdl ?100907')"
p13
aS"(58, u'\\\\bquetiapine')"
p14
atp15
Rp16
sS'methods'
p17
g3
((lp18
S'Method.ANTAGONIST'
p19
atp20
Rp21
sS'topics'
p22
g3
((lp23
tp24
Rp25
sS'receptors'
p26
g3
((lp27
S'5ht2a'
p28
atp29
Rp30
sS'regions'
p31
g3
((lp32
S"(34, u'(?i)(pon|pons)')"
p33
atp34
Rp35
sS'year'
p36
V2018
p37
sS'agonists'
p38
g3
((lp39
S"(71, u'\\\\bquetiapine')"
p40
aS"(64, u'\\\\bolanzapine')"
p41
aS"(27, u'\\\\bclozapine')"
p42
atp43
Rp44
sS'species'
p45
g3
((lp46
S"(6215, u'(?i)(racers|racer)')"
p47
aS"(5958, u'(?i)(rats|rat)')"
p48
aS"(4979, u'(?i)(cats|cat)')"
p49
aS"(468, u'(?i)(oxen|ox)')"
p50
aS"(4163, u'(?i)(ermines|ermine)')"
p51
aS"(1055, u'(?i)(men|man)')"
p52
aS"(3726, u'(?i)(mates|mate)')"
p53
aS"(1054, u'(?i)(homoes|homo)')"
p54
aS"(4964, u'(?i)(serins|serin)')"
p55
aS"(6249, u'(?i)(ants|ant)')"
p56
aS"(7094, u'(?i)(curs|cur)')"
p57
aS"(6356, u'(?i)(ais|ai)')"
p58
aS"(6391, u'(?i)(asses|ass)')"
p59
atp60
Rp61
sb.