(ifile_types
ParseObject
p0
(dp1
S'antagonists'
p2
c__builtin__
set
p3
((lp4
S"(34, u'\\\\bmetergoline')"
p5
aS"(9, u'\\\\bgr ?46611')"
p6
atp7
Rp8
sS'methods'
p9
g3
((lp10
S'Method.ANTAGONIST'
p11
aS'Method.AGONIST'
p12
atp13
Rp14
sS'topics'
p15
g3
((lp16
S"(16, u'\\\\bfeed')"
p17
atp18
Rp19
sS'receptors'
p20
g3
((lp21
S'5ht1b'
p22
aS'5ht2'
p23
aS'5ht1'
p24
aS'5ht1d'
p25
atp26
Rp27
sS'regions'
p28
g3
((lp29
S"(209, u'(?i)\\\\b(amygdalas|amygdala)\\\\b')"
p30
atp31
Rp32
sS'year'
p33
V2009
p34
sS'agonists'
p35
g3
((lp36
S"(112, u'\\\\bgr ?46611')"
p37
atp38
Rp39
sS'species'
p40
g3
((lp41
S"(1861, u'(?i)\\\\b(amniotes|amniote)\\\\b')"
p42
aS"(5799, u'(?i)\\\\b(rodents|rodent)\\\\b')"
p43
aS"(6356, u'(?i)\\\\b(ais|ai)\\\\b')"
p44
aS"(6666, u'(?i)\\\\b(columbas|columba)(-|\\\\s+)?(livias|livia)\\\\b')"
p45
aS"(1312, u'(?i)\\\\b(pigeons|pigeon)\\\\b')"
p46
atp47
Rp48
sb.