(ifile_types
ParseObject
p0
(dp1
S'antagonists'
p2
c__builtin__
set
p3
((lp4
tp5
Rp6
sS'methods'
p7
g3
((lp8
tp9
Rp10
sS'topics'
p11
g3
((lp12
S"(35, u'\\\\bstress')"
p13
atp14
Rp15
sS'receptors'
p16
g3
((lp17
S'5ht3d'
p18
aS'5ht5'
p19
aS'5ht3'
p20
aS'5ht2'
p21
atp22
Rp23
sS'regions'
p24
g3
((lp25
tp26
Rp27
sS'year'
p28
V2016
p29
sS'agonists'
p30
g3
((lp31
S"(153, u'\\\\bmdma')"
p32
atp33
Rp34
sS'species'
p35
g3
((lp36
S"(5799, u'(?i)(rodents|rodent)')"
p37
aS"(5958, u'(?i)(rats|rat)')"
p38
aS"(6753, u'(?i)(da|das)')"
p39
aS"(5551, u'(?i)(owls|owl)')"
p40
aS"(6249, u'(?i)(ants|ant)')"
p41
aS"(468, u'(?i)(oxen|ox)')"
p42
aS"(1055, u'(?i)(men|man)')"
p43
aS"(3726, u'(?i)(mates|mate)')"
p44
aS"(4979, u'(?i)(cats|cat)')"
p45
aS"(3550, u'(?i)(anis|ani)')"
p46
aS"(1057, u'(?i)(humans|human)')"
p47
aS"(1961, u'(?i)(pens|pen)')"
p48
aS"(3812, u'(?i)(studs|stud)')"
p49
aS"(3196, u'(?i)(human|humans)')"
p50
aS"(6356, u'(?i)(ais|ai)')"
p51
aS"(5949, u'(?i)(dogs|dog)')"
p52
atp53
Rp54
sb.