(ifile_types
ParseObject
p0
(dp1
S'antagonists'
p2
c__builtin__
set
p3
((lp4
S"(100, u'\\\\bsdz ser ?082')"
p5
aS"(52, u'\\\\bmdl ?100907')"
p6
atp7
Rp8
sS'methods'
p9
g3
((lp10
S'Method.ANTAGONIST'
p11
aS'Method.AGONIST'
p12
atp13
Rp14
sS'topics'
p15
g3
((lp16
S"(36, u'\\\\bcompulsiv')"
p17
aS"(15, u'\\\\bschizophreni')"
p18
atp19
Rp20
sS'receptors'
p21
g3
((lp22
S'5ht2c'
p23
aS'5ht2a'
p24
atp25
Rp26
sS'regions'
p27
g3
((lp28
tp29
Rp30
sS'year'
p31
V1995
p32
sS'agonists'
p33
g3
((lp34
S"(85, u'\\\\b8 ?oh ?dpat')"
p35
aS"(67, u'\\\\bru ?24969')"
p36
aS"(175, u'\\\\bdoi')"
p37
atp38
Rp39
sS'species'
p40
g3
((lp41
S"(5958, u'(?i)\\\\b(rats|rat)\\\\b')"
p42
atp43
Rp44
sb.