(ifile_types
ParseObject
p0
(dp1
S'methods'
p2
c__builtin__
set
p3
((lp4
S'Method.ANTAGONIST'
p5
aS'Method.AGONIST'
p6
atp7
Rp8
sS'topics'
p9
g3
((lp10
S"(7, u'\\\\bdepressi')"
p11
atp12
Rp13
sS'receptors'
p14
g3
((lp15
(S'5ht1b'
p16
I1122
I1128
tp17
a(S'5ht1b'
p18
I1318
I1324
tp19
a(S'5ht1a'
p20
I1004
I1010
tp21
atp22
Rp23
sS'raw_text_methods'
p24
g3
((lp25
S"(13, u'\\\\bagonist')"
p26
aS"(12, u'\\\\bantagonist')"
p27
atp28
Rp29
sS'regions'
p30
g3
((lp31
S"(9, u'(?i)\\\\b(cerebellums|cerebellum)\\\\b')"
p32
aS"(4, u'(?i)\\\\b(presynaptics|presynaptic)\\\\b')"
p33
atp34
Rp35
sS'year'
p36
V1996
p37
sS'species'
p38
g3
((lp39
S"(4, u'(?i)\\\\b(rats|rat)\\\\b')"
p40
atp41
Rp42
sb.