(ifile_types
ParseObject
p0
(dp1
S'antagonists'
p2
c__builtin__
set
p3
((lp4
S"(102, u'\\\\bfluoxetine')"
p5
atp6
Rp7
sS'methods'
p8
g3
((lp9
tp10
Rp11
sS'topics'
p12
g3
((lp13
S"(6, u'\\\\bcognit')"
p14
atp15
Rp16
sS'receptors'
p17
g3
((lp18
S'5ht1a'
p19
atp20
Rp21
sS'regions'
p22
g3
((lp23
tp24
Rp25
sS'year'
p26
V2002
p27
sS'agonists'
p28
g3
((lp29
tp30
Rp31
sS'species'
p32
g3
((lp33
S"(5958, u'(?i)(rats|rat)')"
p34
aS"(6753, u'(?i)(da|das)')"
p35
aS"(6682, u'(?i)(tera|teras)')"
p36
aS"(468, u'(?i)(oxen|ox)')"
p37
aS"(1055, u'(?i)(men|man)')"
p38
aS"(4979, u'(?i)(cats|cat)')"
p39
aS"(6249, u'(?i)(ants|ant)')"
p40
aS"(3812, u'(?i)(studs|stud)')"
p41
aS"(6391, u'(?i)(asses|ass)')"
p42
aS"(6356, u'(?i)(ais|ai)')"
p43
atp44
Rp45
sb.