(ifile_types
ParseObject
p0
(dp1
S'methods'
p2
c__builtin__
set
p3
((lp4
S'Method.ANTAGONIST'
p5
aS'Method.AGONIST'
p6
atp7
Rp8
sS'topics'
p9
g3
((lp10
S"(22, u'\\\\bschizophreni')"
p11
aS"(14, u'\\\\bcogniti')"
p12
aS"(26, u'\\\\bbehav')"
p13
aS"(25, u'\\\\bsocial')"
p14
aS"(23, u'\\\\bantipsychotic')"
p15
aS"(29, u'\\\\bhyperactiv')"
p16
aS"(3, u'\\\\bclinical')"
p17
atp18
Rp19
sS'receptors'
p20
g3
((lp21
(S'5ht1a'
p22
I1721
I1727
tp23
a(S'5ht1a'
p24
I1100
I1106
tp25
a(S'5ht1a'
p26
I1456
I1462
tp27
a(S'5ht1a'
p28
I1595
I1601
tp29
a(S'5ht1a'
p30
I686
I692
tp31
atp32
Rp33
sS'raw_text_methods'
p34
g3
((lp35
S"(13, u'\\\\bagonist')"
p36
aS"(51, u'\\\\bway100635')"
p37
aS"(49, u'\\\\bdoi')"
p38
aS"(5, u'\\\\bmk801')"
p39
aS"(12, u'\\\\bantagonist')"
p40
atp41
Rp42
sS'regions'
p43
g3
((lp44
tp45
Rp46
sS'year'
p47
V2013
p48
sS'species'
p49
g3
((lp50
tp51
Rp52
sb.