(ifile_types
ParseObject
p0
(dp1
S'methods'
p2
c__builtin__
set
p3
((lp4
S'Method.ANTAGONIST'
p5
aS'Method.AGONIST'
p6
atp7
Rp8
sS'topics'
p9
g3
((lp10
tp11
Rp12
sS'receptors'
p13
g3
((lp14
(S'5ht2c'
p15
I666
I674
tp16
a(S'5ht1a'
p17
I1639
I1645
tp18
a(S'5ht1a'
p19
I156
I162
tp20
a(S'5ht1b'
p21
I1623
I1629
tp22
a(S'5ht1b'
p23
I167
I173
tp24
a(S'5ht1a'
p25
I2006
I2012
tp26
a(S'5ht1b'
p27
I666
I672
tp28
a(S'5ht1b'
p29
I623
I630
tp30
a(S'5ht1a'
p31
I562
I568
tp32
a(S'5ht1'
p33
I1623
I1629
tp34
a(S'5ht1'
p35
I1639
I1645
tp36
a(S'5ht1a'
p37
I623
I629
tp38
atp39
Rp40
sS'raw_text_methods'
p41
g3
((lp42
S"(13, u'\\\\bagonist')"
p43
aS"(11, u'\\\\bfluoxetine')"
p44
aS"(24, u'\\\\bgepirone')"
p45
aS"(22, u'\\\\bbuspirone')"
p46
aS"(12, u'\\\\bantagonist')"
p47
atp48
Rp49
sS'regions'
p50
g3
((lp51
tp52
Rp53
sS'year'
p54
V1997
p55
sS'species'
p56
g3
((lp57
S"(4, u'(?i)\\\\b(rats|rat)\\\\b')"
p58
atp59
Rp60
sb.