(ifile_types
ParseObject
p0
(dp1
S'antagonists'
p2
c__builtin__
set
p3
((lp4
S"(27, u'\\\\bspiperone')"
p5
aS"(14, u'\\\\bmethiothepin')"
p6
aS"(123, u'\\\\bclozapine')"
p7
aS"(45, u'\\\\bgr ?127935')"
p8
aS"(56, u'\\\\bclozapine')"
p9
atp10
Rp11
sS'methods'
p12
g3
((lp13
S'Method.ANTAGONIST'
p14
aS'Method.AGONIST'
p15
atp16
Rp17
sS'topics'
p18
g3
((lp19
tp20
Rp21
sS'receptors'
p22
g3
((lp23
S'5ht7'
p24
aS'5ht1b'
p25
aS'5ht5'
p26
aS'5ht1'
p27
aS'5ht1d'
p28
aS'5ht1a'
p29
atp30
Rp31
sS'regions'
p32
g3
((lp33
S"(103, u'(?i)(substantias|substantia)(-|\\\\s+)?(nigras|nigra)')"
p34
aS"(223, u'(?i)(putamens|putamen)')"
p35
aS"(34, u'(?i)(pon|pons)')"
p36
atp37
Rp38
sS'year'
p39
V1995
p40
sS'agonists'
p41
g3
((lp42
S"(103, u'\\\\bsumatriptan')"
p43
aS"(105, u'\\\\b5 ?carboxamidotryptamine')"
p44
aS"(27, u'\\\\bclozapine')"
p45
aS"(29, u'\\\\bdihydroergotamine')"
p46
aS"(92, u'\\\\b8 ?oh ?dpat')"
p47
aS"(109, u'\\\\bcp ?122288')"
p48
atp49
Rp50
sS'species'
p51
g3
((lp52
S"(1961, u'(?i)(pens|pen)')"
p53
aS"(3812, u'(?i)(studs|stud)')"
p54
aS"(6249, u'(?i)(ants|ant)')"
p55
aS"(6356, u'(?i)(ais|ai)')"
p56
aS"(1070, u'(?i)(pets|pet)')"
p57
aS"(479, u'(?i)(lings|ling)')"
p58
aS"(468, u'(?i)(oxen|ox)')"
p59
aS"(3062, u'(?i)(guineas|guinea)')"
p60
aS"(3152, u'(?i)(layers|layer)')"
p61
aS"(3522, u'(?i)(tetras|tetra)')"
p62
aS"(391, u'(?i)(alli|allis)')"
p63
aS"(5537, u'(?i)(hippos|hippo)')"
p64
aS"(5958, u'(?i)(rats|rat)')"
p65
aS"(7609, u'(?i)(erns|ern)')"
p66
aS"(6682, u'(?i)(tera|teras)')"
p67
aS"(1055, u'(?i)(men|man)')"
p68
aS"(6753, u'(?i)(da|das)')"
p69
aS"(4371, u'(?i)(lizas|liza)')"
p70
aS"(4480, u'(?i)(guineas|guinea)(-|\\\\s+)?(pigs|pig)')"
p71
aS"(6325, u'(?i)(caudates|caudate)')"
p72
aS"(5799, u'(?i)(rodents|rodent)')"
p73
aS"(2389, u'(?i)(spats|spat)')"
p74
aS"(3051, u'(?i)(pigs|pig)')"
p75
aS"(1054, u'(?i)(homoes|homo)')"
p76
aS"(1683, u'(?i)(terns|tern)')"
p77
atp78
Rp79
sb.