(ifile_types
ParseObject
p0
(dp1
S'antagonists'
p2
c__builtin__
set
p3
((lp4
S"(129, u'\\\\bly ?53857')"
p5
aS"(54, u'\\\\britanserin')"
p6
aS"(130, u'\\\\britanserin')"
p7
atp8
Rp9
sS'methods'
p10
g3
((lp11
S'Method.ANTAGONIST'
p12
aS'Method.AGONIST'
p13
atp14
Rp15
sS'topics'
p16
g3
((lp17
tp18
Rp19
sS'receptors'
p20
g3
((lp21
S'5ht1c'
p22
aS'5ht5'
p23
aS'5ht2a'
p24
aS'5ht1a'
p25
aS'5ht2'
p26
atp27
Rp28
sS'regions'
p29
g3
((lp30
tp31
Rp32
sS'year'
p33
V1990
p34
sS'agonists'
p35
g3
((lp36
S"(92, u'\\\\b8 ?oh ?dpat')"
p37
aS"(105, u'\\\\b5 ?carboxamidotryptamine')"
p38
aS"(5, u'\\\\b5 ?ct')"
p39
aS"(181, u'\\\\bdom')"
p40
atp41
Rp42
sS'species'
p43
g3
((lp44
S"(2568, u'(?i)(hens|hen)')"
p45
aS"(6356, u'(?i)(ais|ai)')"
p46
aS"(5958, u'(?i)(rats|rat)')"
p47
aS"(4979, u'(?i)(cats|cat)')"
p48
aS"(7552, u'(?i)(bats|bat)')"
p49
aS"(468, u'(?i)(oxen|ox)')"
p50
aS"(1055, u'(?i)(men|man)')"
p51
aS"(6249, u'(?i)(ants|ant)')"
p52
aS"(3592, u'(?i)(ravens|raven)')"
p53
aS"(4964, u'(?i)(serins|serin)')"
p54
aS"(3550, u'(?i)(anis|ani)')"
p55
aS"(3522, u'(?i)(tetras|tetra)')"
p56
aS"(1414, u'(?i)(chars|char)')"
p57
aS"(821, u'(?i)(lice|louse)')"
p58
aS"(4133, u'(?i)(pikes|pike)')"
p59
atp60
Rp61
sb.