(ifile_types
ParseObject
p0
(dp1
S'methods'
p2
c__builtin__
set
p3
((lp4
S'Method.IMMUNOHISTOCHEMISTRY'
p5
atp6
Rp7
sS'topics'
p8
g3
((lp9
S"(6, u'\\\\baggressi')"
p10
aS"(8, u'\\\\banxi')"
p11
aS"(26, u'\\\\bbehav')"
p12
aS"(4, u'\\\\btreatment')"
p13
aS"(2, u'\\\\bdisorder')"
p14
atp15
Rp16
sS'receptors'
p17
g3
((lp18
(S'5ht3a'
p19
I443
I449
tp20
a(S'5ht3a'
p21
I646
I652
tp22
a(S'5ht3a'
p23
I70
I76
tp24
a(S'5ht3a'
p25
I1762
I1768
tp26
a(S'5ht3a'
p27
I784
I790
tp28
a(S'5ht3a'
p29
I1597
I1603
tp30
a(S'5ht3a'
p31
I538
I544
tp32
a(S'5ht3a'
p33
I304
I310
tp34
atp35
Rp36
sS'raw_text_methods'
p37
g3
((lp38
tp39
Rp40
sS'regions'
p41
g3
((lp42
S"(11, u'(?i)\\\\b(cerebrals|cerebral)\\\\b')"
p43
aS"(19, u'(?i)\\\\b(cortexes|cortex)\\\\b')"
p44
aS"(12, u'(?i)\\\\b(amygdalas|amygdala)\\\\b')"
p45
aS"(23, u'(?i)\\\\b(forebrains|forebrain)\\\\b')"
p46
aS"(14, u'(?i)\\\\b(caudals|caudal)\\\\b')"
p47
atp48
Rp49
sS'year'
p50
V2010
p51
sS'species'
p52
g3
((lp53
tp54
Rp55
sb.