(ifile_types
ParseObject
p0
(dp1
S'antagonists'
p2
c__builtin__
set
p3
((lp4
S"(27, u'\\\\bspiperone')"
p5
aS"(14, u'\\\\bmethiothepin')"
p6
atp7
Rp8
sS'methods'
p9
g3
((lp10
S'Method.ANTAGONIST'
p11
atp12
Rp13
sS'topics'
p14
g3
((lp15
tp16
Rp17
sS'receptors'
p18
g3
((lp19
S'5ht7'
p20
atp21
Rp22
sS'regions'
p23
g3
((lp24
tp25
Rp26
sS'year'
p27
V1994
p28
sS'agonists'
p29
g3
((lp30
S"(103, u'\\\\bsumatriptan')"
p31
aS"(181, u'\\\\bdom')"
p32
aS"(5, u'\\\\b5 ?ct')"
p33
aS"(224, u'\\\\b5 ?methoxytryptamine')"
p34
aS"(225, u'\\\\b5 ?meot')"
p35
aS"(92, u'\\\\b8 ?oh ?dpat')"
p36
atp37
Rp38
sS'species'
p39
g3
((lp40
S"(5537, u'(?i)(hippos|hippo)')"
p41
aS"(5958, u'(?i)(rats|rat)')"
p42
aS"(3051, u'(?i)(pigs|pig)')"
p43
aS"(468, u'(?i)(oxen|ox)')"
p44
aS"(3062, u'(?i)(guineas|guinea)')"
p45
aS"(1054, u'(?i)(homoes|homo)')"
p46
aS"(853, u'(?i)(minas|mina)')"
p47
aS"(6249, u'(?i)(ants|ant)')"
p48
aS"(3522, u'(?i)(tetras|tetra)')"
p49
aS"(3426, u'(?i)(hares|hare)')"
p50
aS"(6356, u'(?i)(ais|ai)')"
p51
aS"(4480, u'(?i)(guineas|guinea)(-|\\\\s+)?(pigs|pig)')"
p52
aS"(1628, u'(?i)(cod|cod)')"
p53
aS"(7309, u'(?i)(gnats|gnat)')"
p54
atp55
Rp56
sb.