(ifile_types
ParseObject
p0
(dp1
S'methods'
p2
c__builtin__
set
p3
((lp4
S'Method.ANTAGONIST'
p5
aS'Method.AGONIST'
p6
atp7
Rp8
sS'topics'
p9
g3
((lp10
tp11
Rp12
sS'receptors'
p13
g3
((lp14
(S'5ht1a'
p15
I937
I943
tp16
a(S'5ht1a'
p17
I87
I93
tp18
a(S'5ht1a'
p19
I204
I210
tp20
a(S'5ht1b'
p21
I706
I713
tp22
a(S'5ht1a'
p23
I1182
I1188
tp24
a(S'5ht1a'
p25
I706
I712
tp26
atp27
Rp28
sS'raw_text_methods'
p29
g3
((lp30
S"(7, u'\\\\bpropranolol')"
p31
aS"(23, u'\\\\bmdl')"
p32
aS"(22, u'\\\\bbuspirone')"
p33
aS"(15, u'\\\\b8ohdpat')"
p34
aS"(13, u'\\\\bagonist')"
p35
aS"(12, u'\\\\bantagonist')"
p36
atp37
Rp38
sS'regions'
p39
g3
((lp40
S"(3, u'(?i)\\\\b(postsynaptics|postsynaptic)\\\\b')"
p41
atp42
Rp43
sS'year'
p44
V1991
p45
sS'species'
p46
g3
((lp47
S"(4, u'(?i)\\\\b(rats|rat)\\\\b')"
p48
atp49
Rp50
sb.