(ifile_types
ParseObject
p0
(dp1
S'methods'
p2
c__builtin__
set
p3
((lp4
S'Method.STIMULATION'
p5
aS'Method.ANTAGONIST'
p6
atp7
Rp8
sS'topics'
p9
g3
((lp10
S"(26, u'\\\\bbehav')"
p11
aS"(2, u'\\\\bdisorder')"
p12
aS"(7, u'\\\\bdepressi')"
p13
aS"(9, u'\\\\bstress')"
p14
aS"(13, u'\\\\bantidepress')"
p15
aS"(8, u'\\\\banxi')"
p16
atp17
Rp18
sS'receptors'
p19
g3
((lp20
(S'5ht2c'
p21
I1546
I1554
tp22
a(S'5ht2a'
p23
I1546
I1552
tp24
a(S'5ht1a'
p25
I1535
I1541
tp26
atp27
Rp28
sS'raw_text_methods'
p29
g3
((lp30
S"(53, u'\\\\bketanserin')"
p31
aS"(51, u'\\\\bway100635')"
p32
aS"(12, u'\\\\bantagonist')"
p33
atp34
Rp35
sS'regions'
p36
g3
((lp37
tp38
Rp39
sS'year'
p40
V2010
p41
sS'species'
p42
g3
((lp43
S"(4, u'(?i)\\\\b(rats|rat)\\\\b')"
p44
atp45
Rp46
sb.