(ifile_types
ParseObject
p0
(dp1
S'antagonists'
p2
c__builtin__
set
p3
((lp4
S"(14, u'\\\\bmethiothepin')"
p5
aS"(117, u'\\\\bketanserin')"
p6
aS"(194, u'\\\\bmethysergide')"
p7
aS"(124, u'\\\\bondansetron')"
p8
aS"(193, u'\\\\bmesulergine')"
p9
aS"(58, u'\\\\bhaloperidol')"
p10
aS"(119, u'\\\\britanserin')"
p11
atp12
Rp13
sS'methods'
p14
g3
((lp15
S'Method.ANTAGONIST'
p16
aS'Method.AGONIST'
p17
atp18
Rp19
sS'topics'
p20
g3
((lp21
tp22
Rp23
sS'receptors'
p24
g3
((lp25
S'5ht3'
p26
aS'5ht2c'
p27
aS'5ht2'
p28
aS'5ht1'
p29
aS'5ht2a'
p30
atp31
Rp32
sS'regions'
p33
g3
((lp34
S"(220, u'(?i)\\\\b(striatums|striatum)\\\\b')"
p35
atp36
Rp37
sS'year'
p38
V1997
p39
sS'agonists'
p40
g3
((lp41
S"(165, u'\\\\bmesulergine')"
p42
aS"(175, u'\\\\bdoi')"
p43
aS"(53, u'\\\\bmethysergide')"
p44
aS"(43, u'\\\\bhaloperidol')"
p45
atp46
Rp47
sS'species'
p48
g3
((lp49
S"(5958, u'(?i)\\\\b(rats|rat)\\\\b')"
p50
atp51
Rp52
sb.