(ifile_types
ParseObject
p0
(dp1
S'methods'
p2
c__builtin__
set
p3
((lp4
tp5
Rp6
sS'topics'
p7
g3
((lp8
S"(13, u'\\\\bantidepress')"
p9
atp10
Rp11
sS'receptors'
p12
g3
((lp13
(S'5ht1d'
p14
I238
I243
tp15
a(S'5ht1a'
p16
I224
I229
tp17
a(S'5ht1b'
p18
I231
I236
tp19
a(S'5ht7'
p20
I245
I249
tp21
atp22
Rp23
sS'raw_text_methods'
p24
g3
((lp25
tp26
Rp27
sS'regions'
p28
g3
((lp29
tp30
Rp31
sS'year'
p32
V2015
p33
sS'species'
p34
g3
((lp35
tp36
Rp37
sb.