(ifile_types
ParseObject
p0
(dp1
S'antagonists'
p2
c__builtin__
set
p3
((lp4
S"(203, u'\\\\btfmpp')"
p5
atp6
Rp7
sS'methods'
p8
g3
((lp9
S'Method.AGONIST'
p10
atp11
Rp12
sS'topics'
p13
g3
((lp14
S"(35, u'\\\\bstress')"
p15
atp16
Rp17
sS'receptors'
p18
g3
((lp19
S'5ht1b'
p20
aS'5ht2c'
p21
atp22
Rp23
sS'regions'
p24
g3
((lp25
tp26
Rp27
sS'year'
p28
V1995
p29
sS'agonists'
p30
g3
((lp31
S"(178, u'\\\\btfmpp')"
p32
atp33
Rp34
sS'species'
p35
g3
((lp36
S"(5967, u'(?i)\\\\b(males|male)\\\\b')"
p37
aS"(3248, u'(?i)\\\\b(offspring|offspring)\\\\b')"
p38
aS"(4091, u'(?i)\\\\b(adults|adult)\\\\b')"
p39
aS"(5958, u'(?i)\\\\b(rats|rat)\\\\b')"
p40
aS"(6125, u'(?i)\\\\b(females|female)\\\\b')"
p41
atp42
Rp43
sb.