(ifile_types
ParseObject
p0
(dp1
S'antagonists'
p2
c__builtin__
set
p3
((lp4
S"(31, u'\\\\bway ?100635')"
p5
atp6
Rp7
sS'methods'
p8
g3
((lp9
S'Method.PET'
p10
aS'Method.AGONIST'
p11
atp12
Rp13
sS'topics'
p14
g3
((lp15
S"(9, u'\\\\bdepress')"
p16
atp17
Rp18
sS'receptors'
p19
g3
((lp20
S'5ht1a'
p21
atp22
Rp23
sS'regions'
p24
g3
((lp25
S"(71, u'(?i)\\\\b(cerebellums|cerebellum)\\\\b')"
p26
aS"(220, u'(?i)\\\\b(striatums|striatum)\\\\b')"
p27
aS"(126, u'(?i)\\\\b(thalamuses|thalamus)\\\\b')"
p28
aS"(318, u'(?i)\\\\b(raphes|raphe)(-|\\\\s+)?(nuclei|nucleus)\\\\b')"
p29
atp30
Rp31
sS'year'
p32
V2001
p33
sS'agonists'
p34
g3
((lp35
S"(85, u'\\\\b8 ?oh ?dpat')"
p36
atp37
Rp38
sS'species'
p39
g3
((lp40
S"(3247, u'(?i)\\\\b(youngs|young)\\\\b')"
p41
aS"(4598, u'(?i)\\\\b(macacas|macaca)(-|\\\\s+)?(mulattas|mulatta)\\\\b')"
p42
aS"(2341, u'(?i)\\\\b(monkeys|monkey)\\\\b')"
p43
aS"(1070, u'(?i)\\\\b(pets|pet)\\\\b')"
p44
atp45
Rp46
sb.