(ifile_types
ParseObject
p0
(dp1
S'antagonists'
p2
c__builtin__
set
p3
((lp4
S"(36, u'\\\\baripiprazole')"
p5
aS"(56, u'\\\\bclozapine')"
p6
aS"(204, u'\\\\bsb ?269970')"
p7
aS"(57, u'\\\\bolanzapine')"
p8
aS"(41, u'\\\\bziprasidone')"
p9
aS"(124, u'\\\\bolanzapine')"
p10
aS"(68, u'\\\\bchlorpromazine')"
p11
aS"(67, u'\\\\bhaloperidol')"
p12
aS"(123, u'\\\\bclozapine')"
p13
atp14
Rp15
sS'methods'
p16
g3
((lp17
S'Method.ANTAGONIST'
p18
aS'Method.AGONIST'
p19
atp20
Rp21
sS'topics'
p22
g3
((lp23
S"(15, u'\\\\bschizophreni')"
p24
atp25
Rp26
sS'receptors'
p27
g3
((lp28
S'5ht7a'
p29
aS'5ht7'
p30
aS'5ht1a'
p31
atp32
Rp33
sS'regions'
p34
g3
((lp35
S"(126, u'(?i)(thalamuses|thalamus)')"
p36
atp37
Rp38
sS'year'
p39
V2007
p40
sS'agonists'
p41
g3
((lp42
S"(91, u'\\\\bziprasidone')"
p43
aS"(16, u'\\\\baripiprazole')"
p44
aS"(48, u'\\\\bhaloperidol')"
p45
aS"(78, u'\\\\bssr ?181507')"
p46
aS"(27, u'\\\\bclozapine')"
p47
aS"(81, u'\\\\btiospirone')"
p48
aS"(76, u'\\\\bsarizotan')"
p49
aS"(5, u'\\\\b5 ?ct')"
p50
aS"(92, u'\\\\b8 ?oh ?dpat')"
p51
aS"(64, u'\\\\bolanzapine')"
p52
atp53
Rp54
sS'species'
p55
g3
((lp56
S"(1070, u'(?i)(pets|pet)')"
p57
aS"(2323, u'(?i)(bees|bee)')"
p58
aS"(5958, u'(?i)(rats|rat)')"
p59
aS"(931, u'(?i)(divers|diver)')"
p60
aS"(867, u'(?i)(tits|tit)')"
p61
aS"(4201, u'(?i)(kines|kine)')"
p62
aS"(4163, u'(?i)(ermines|ermine)')"
p63
aS"(468, u'(?i)(oxen|ox)')"
p64
aS"(1055, u'(?i)(men|man)')"
p65
aS"(3404, u'(?i)(titis|titi)')"
p66
aS"(5743, u'(?i)(bots|bot)')"
p67
aS"(6249, u'(?i)(ants|ant)')"
p68
aS"(1057, u'(?i)(humans|human)')"
p69
aS"(3812, u'(?i)(studs|stud)')"
p70
aS"(3196, u'(?i)(human|humans)')"
p71
atp72
Rp73
sb.