(ifile_types
ParseObject
p0
(dp1
S'methods'
p2
c__builtin__
set
p3
((lp4
S'Method.ANTAGONIST'
p5
aS'Method.AGONIST'
p6
atp7
Rp8
sS'topics'
p9
g3
((lp10
S"(26, u'\\\\bbehav')"
p11
atp12
Rp13
sS'receptors'
p14
g3
((lp15
(S'5ht1b'
p16
I258
I264
tp17
a(S'5ht5'
p18
I102
I112
tp19
a(S'5ht1b'
p20
I707
I713
tp21
a(S'5ht1d'
p22
I269
I275
tp23
a(S'5ht1a'
p24
I250
I256
tp25
a(S'5ht1c'
p26
I128
I134
tp27
a(S'5ht1d'
p28
I718
I724
tp29
a(S'5ht1a'
p30
I112
I118
tp31
a(S'5ht1a'
p32
I699
I705
tp33
a(S'5ht1b'
p34
I120
I126
tp35
a(S'5ht1c'
p36
I455
I461
tp37
a(S'5ht1c'
p38
I760
I766
tp39
a(S'5ht1d'
p40
I139
I145
tp41
atp42
Rp43
sS'raw_text_methods'
p44
g3
((lp45
S"(13, u'\\\\bagonist')"
p46
atp47
Rp48
sS'regions'
p49
g3
((lp50
tp51
Rp52
sS'year'
p53
V1991
p54
sS'species'
p55
g3
((lp56
tp57
Rp58
sb.