(ifile_types
ParseObject
p0
(dp1
S'methods'
p2
c__builtin__
set
p3
((lp4
S'Method.ANTAGONIST'
p5
aS'Method.AGONIST'
p6
atp7
Rp8
sS'topics'
p9
g3
((lp10
S"(26, u'\\\\bbehav')"
p11
atp12
Rp13
sS'receptors'
p14
g3
((lp15
(S'5ht2'
p16
I625
I630
tp17
a(S'5ht1a'
p18
I50
I56
tp19
a(S'5ht1a'
p20
I1652
I1658
tp21
a(S'5ht1a'
p22
I1174
I1180
tp23
a(S'5ht1a'
p24
I1834
I1840
tp25
a(S'5ht1a'
p26
I818
I824
tp27
atp28
Rp29
sS'raw_text_methods'
p30
g3
((lp31
S"(13, u'\\\\bagonist')"
p32
aS"(15, u'\\\\b8ohdpat')"
p33
aS"(12, u'\\\\bantagonist')"
p34
atp35
Rp36
sS'regions'
p37
g3
((lp38
tp39
Rp40
sS'year'
p41
V1996
p42
sS'species'
p43
g3
((lp44
S"(2, u'(?i)\\\\b(females|female)\\\\b')"
p45
aS"(3, u'(?i)\\\\b(males|male)\\\\b')"
p46
aS"(4, u'(?i)\\\\b(rats|rat)\\\\b')"
p47
atp48
Rp49
sb.