(ifile_types
ParseObject
p0
(dp1
S'methods'
p2
c__builtin__
set
p3
((lp4
tp5
Rp6
sS'topics'
p7
g3
((lp8
S"(14, u'\\\\bcogniti')"
p9
atp10
Rp11
sS'receptors'
p12
g3
((lp13
(S'5ht2'
p14
I1340
I1345
tp15
a(S'5ht2c'
p16
I162
I168
tp17
a(S'5ht2'
p18
I346
I351
tp19
a(S'5ht2'
p20
I1010
I1015
tp21
a(S'5ht2'
p22
I667
I672
tp23
a(S'5ht2c'
p24
I30
I36
tp25
a(S'5ht2'
p26
I1263
I1268
tp27
a(S'5ht2'
p28
I1604
I1609
tp29
a(S'5ht2'
p30
I573
I578
tp31
a(S'5ht2'
p32
I181
I186
tp33
atp34
Rp35
sS'raw_text_methods'
p36
g3
((lp37
S"(3, u'\\\\bimmunoreactiv')"
p38
atp39
Rp40
sS'regions'
p41
g3
((lp42
S"(14, u'(?i)\\\\b(caudals|caudal)\\\\b')"
p43
atp44
Rp45
sS'year'
p46
V2011
p47
sS'species'
p48
g3
((lp49
S"(4, u'(?i)\\\\b(rats|rat)\\\\b')"
p50
atp51
Rp52
sb.