(ifile_types
ParseObject
p0
(dp1
S'methods'
p2
c__builtin__
set
p3
((lp4
S'Method.STIMULATION'
p5
aS'Method.ANTAGONIST'
p6
aS'Method.AGONIST'
p7
atp8
Rp9
sS'topics'
p10
g3
((lp11
S"(5, u'\\\\btherap')"
p12
atp13
Rp14
sS'receptors'
p15
g3
((lp16
(S'5ht1a'
p17
I1121
I1127
tp18
a(S'5ht1b'
p19
I1062
I1068
tp20
a(S'5ht1b'
p21
I265
I271
tp22
a(S'5ht1f'
p23
I333
I339
tp24
a(S'5ht1a'
p25
I117
I123
tp26
a(S'5ht1d'
p27
I128
I136
tp28
a(S'5ht1d'
p29
I265
I273
tp30
a(S'5ht1d'
p31
I1062
I1070
tp32
a(S'5ht1b'
p33
I128
I134
tp34
a(S'5ht1a'
p35
I322
I328
tp36
a(S'5ht1d'
p37
I1645
I1653
tp38
a(S'5ht1b'
p39
I1645
I1651
tp40
a(S'5ht1a'
p41
I1659
I1665
tp42
atp43
Rp44
sS'raw_text_methods'
p45
g3
((lp46
S"(13, u'\\\\bagonist')"
p47
aS"(51, u'\\\\bway100635')"
p48
aS"(6, u'\\\\bgr127935')"
p49
aS"(12, u'\\\\bantagonist')"
p50
atp51
Rp52
sS'regions'
p53
g3
((lp54
tp55
Rp56
sS'year'
p57
V2004
p58
sS'species'
p59
g3
((lp60
tp61
Rp62
sb.