(ifile_types
ParseObject
p0
(dp1
S'antagonists'
p2
c__builtin__
set
p3
((lp4
S"(53, u'\\\\bketanserin')"
p5
aS"(128, u'\\\\bketanserin')"
p6
aS"(27, u'\\\\bspiperone')"
p7
aS"(200, u'\\\\bmesulergine')"
p8
aS"(117, u'\\\\bmianserin')"
p9
atp10
Rp11
sS'methods'
p12
g3
((lp13
S'Method.ANTAGONIST'
p14
atp15
Rp16
sS'topics'
p17
g3
((lp18
tp19
Rp20
sS'receptors'
p21
g3
((lp22
S'5ht5'
p23
aS'5ht2c'
p24
aS'5ht2'
p25
atp26
Rp27
sS'regions'
p28
g3
((lp29
S"(34, u'(?i)(pon|pons)')"
p30
atp31
Rp32
sS'year'
p33
V1995
p34
sS'agonists'
p35
g3
((lp36
S"(171, u'\\\\bmesulergine')"
p37
atp38
Rp39
sS'species'
p40
g3
((lp41
S"(2323, u'(?i)(bees|bee)')"
p42
aS"(6753, u'(?i)(da|das)')"
p43
aS"(5958, u'(?i)(rats|rat)')"
p44
aS"(5743, u'(?i)(bots|bot)')"
p45
aS"(1055, u'(?i)(men|man)')"
p46
aS"(4964, u'(?i)(serins|serin)')"
p47
aS"(6249, u'(?i)(ants|ant)')"
p48
aS"(1961, u'(?i)(pens|pen)')"
p49
aS"(6356, u'(?i)(ais|ai)')"
p50
aS"(4979, u'(?i)(cats|cat)')"
p51
atp52
Rp53
sb.