(ifile_types
ParseObject
p0
(dp1
S'methods'
p2
c__builtin__
set
p3
((lp4
S'Method.PET'
p5
aS'Method.ANTAGONIST'
p6
atp7
Rp8
sS'topics'
p9
g3
((lp10
tp11
Rp12
sS'receptors'
p13
g3
((lp14
(S'5ht2c'
p15
I1089
I1095
tp16
a(S'5ht2c'
p17
I294
I300
tp18
a(S'5ht2a'
p19
I337
I343
tp20
a(S'5ht2b'
p21
I569
I575
tp22
a(S'5ht2c'
p23
I469
I475
tp24
a(S'5ht2c'
p25
I131
I137
tp26
a(S'5ht2a'
p27
I534
I540
tp28
a(S'5ht2b'
p29
I348
I354
tp30
atp31
Rp32
sS'raw_text_methods'
p33
g3
((lp34
S"(17, u'\\\\bpet')"
p35
aS"(18, u'\\\\bimaging')"
p36
aS"(12, u'\\\\bantagonist')"
p37
atp38
Rp39
sS'regions'
p40
g3
((lp41
tp42
Rp43
sS'year'
p44
V2018
p45
sS'species'
p46
g3
((lp47
tp48
Rp49
sb.