(ifile_types
ParseObject
p0
(dp1
S'antagonists'
p2
c__builtin__
set
p3
((lp4
S"(110, u'\\\\bsb ?242084')"
p5
atp6
Rp7
sS'methods'
p8
g3
((lp9
S'Method.ANTAGONIST'
p10
aS'Method.AGONIST'
p11
atp12
Rp13
sS'topics'
p14
g3
((lp15
S"(8, u'\\\\blearning')"
p16
aS"(6, u'\\\\bcognit')"
p17
aS"(35, u'\\\\bstress')"
p18
aS"(9, u'\\\\bdepress')"
p19
aS"(16, u'\\\\bfeed')"
p20
atp21
Rp22
sS'receptors'
p23
g3
((lp24
S'5ht5'
p25
aS'5ht2c'
p26
atp27
Rp28
sS'regions'
p29
g3
((lp30
S"(34, u'(?i)(pon|pons)')"
p31
atp32
Rp33
sS'year'
p34
V2018
p35
sS'agonists'
p36
g3
((lp37
S"(187, u'\\\\bway ?163909')"
p38
atp39
Rp40
sS'species'
p41
g3
((lp42
S"(5176, u'(?i)(tegs|teg)')"
p43
aS"(5958, u'(?i)(rats|rat)')"
p44
aS"(163, u'(?i)(mice|mouse)')"
p45
aS"(81, u'(?i)(asps|asp)')"
p46
aS"(4163, u'(?i)(ermines|ermine)')"
p47
aS"(1349, u'(?i)(rams|ram)')"
p48
aS"(6249, u'(?i)(ants|ant)')"
p49
aS"(1055, u'(?i)(men|man)')"
p50
aS"(853, u'(?i)(minas|mina)')"
p51
aS"(3550, u'(?i)(anis|ani)')"
p52
aS"(1553, u'(?i)(mews|mew)')"
p53
aS"(1961, u'(?i)(pens|pen)')"
p54
aS"(6356, u'(?i)(ais|ai)')"
p55
aS"(6391, u'(?i)(asses|ass)')"
p56
aS"(2809, u'(?i)(toms|tom)')"
p57
atp58
Rp59
sb.