(ifile_types
ParseObject
p0
(dp1
S'methods'
p2
c__builtin__
set
p3
((lp4
S'Method.PET'
p5
atp6
Rp7
sS'topics'
p8
g3
((lp9
S"(14, u'\\\\bcogniti')"
p10
aS"(1, u'\\\\bpatient')"
p11
atp12
Rp13
sS'receptors'
p14
g3
((lp15
(S'5ht2a'
p16
I568
I574
tp17
a(S'5ht2a'
p18
I1102
I1108
tp19
atp20
Rp21
sS'raw_text_methods'
p22
g3
((lp23
S"(1, u'\\\\bneuroimag')"
p24
aS"(17, u'\\\\bpet')"
p25
atp26
Rp27
sS'regions'
p28
g3
((lp29
S"(11, u'(?i)\\\\b(cerebrals|cerebral)\\\\b')"
p30
atp31
Rp32
sS'year'
p33
V2005
p34
sS'species'
p35
g3
((lp36
tp37
Rp38
sb.