(ifile_types
ParseObject
p0
(dp1
S'antagonists'
p2
c__builtin__
set
p3
((lp4
S"(105, u'\\\\bmethysergide')"
p5
aS"(6, u'\\\\bcyproheptadine')"
p6
aS"(54, u'\\\\britanserin')"
p7
aS"(130, u'\\\\britanserin')"
p8
aS"(62, u'\\\\bcyproheptadine')"
p9
atp10
Rp11
sS'methods'
p12
g3
((lp13
S'Method.ANTAGONIST'
p14
aS'Method.AGONIST'
p15
atp16
Rp17
sS'topics'
p18
g3
((lp19
tp20
Rp21
sS'receptors'
p22
g3
((lp23
S'5ht1b'
p24
aS'5ht1a'
p25
aS'5ht2b'
p26
aS'5ht2'
p27
aS'5ht2a'
p28
atp29
Rp30
sS'regions'
p31
g3
((lp32
tp33
Rp34
sS'year'
p35
V1988
p36
sS'agonists'
p37
g3
((lp38
S"(74, u'\\\\bru ?24969')"
p39
aS"(5, u'\\\\b5 ?ct')"
p40
aS"(92, u'\\\\b8 ?oh ?dpat')"
p41
aS"(60, u'\\\\bmethysergide')"
p42
atp43
Rp44
sS'species'
p45
g3
((lp46
S"(6753, u'(?i)(da|das)')"
p47
aS"(2568, u'(?i)(hens|hen)')"
p48
aS"(4979, u'(?i)(cats|cat)')"
p49
aS"(6682, u'(?i)(tera|teras)')"
p50
aS"(468, u'(?i)(oxen|ox)')"
p51
aS"(7094, u'(?i)(curs|cur)')"
p52
aS"(5150, u'(?i)(gerbils|gerbil)')"
p53
aS"(6249, u'(?i)(ants|ant)')"
p54
aS"(3522, u'(?i)(tetras|tetra)')"
p55
aS"(4964, u'(?i)(serins|serin)')"
p56
atp57
Rp58
sb.