(ifile_types
ParseObject
p0
(dp1
S'antagonists'
p2
c__builtin__
set
p3
((lp4
tp5
Rp6
sS'methods'
p7
g3
((lp8
S'Method.ANTAGONIST'
p9
atp10
Rp11
sS'topics'
p12
g3
((lp13
tp14
Rp15
sS'receptors'
p16
g3
((lp17
S'5ht1b'
p18
aS'5ht5'
p19
aS'5ht1d'
p20
atp21
Rp22
sS'regions'
p23
g3
((lp24
tp25
Rp26
sS'year'
p27
V1992
p28
sS'agonists'
p29
g3
((lp30
S"(72, u'\\\\brauwolscine')"
p31
aS"(103, u'\\\\bsumatriptan')"
p32
aS"(155, u'\\\\bmem')"
p33
atp34
Rp35
sS'species'
p36
g3
((lp37
S"(1349, u'(?i)(rams|ram)')"
p38
aS"(4099, u'(?i)(hamsters|hamster)')"
p39
aS"(6249, u'(?i)(ants|ant)')"
p40
aS"(3196, u'(?i)(human|humans)')"
p41
aS"(6356, u'(?i)(ais|ai)')"
p42
aS"(6391, u'(?i)(asses|ass)')"
p43
aS"(6878, u'(?i)(guans|guan)')"
p44
aS"(1070, u'(?i)(pets|pet)')"
p45
aS"(702, u'(?i)(genets|genet)')"
p46
aS"(468, u'(?i)(oxen|ox)')"
p47
aS"(3404, u'(?i)(titis|titi)')"
p48
aS"(3550, u'(?i)(anis|ani)')"
p49
aS"(1628, u'(?i)(cod|cod)')"
p50
aS"(5958, u'(?i)(rats|rat)')"
p51
aS"(867, u'(?i)(tits|tit)')"
p52
aS"(1055, u'(?i)(men|man)')"
p53
aS"(4979, u'(?i)(cats|cat)')"
p54
aS"(1057, u'(?i)(humans|human)')"
p55
aS"(1961, u'(?i)(pens|pen)')"
p56
aS"(1414, u'(?i)(chars|char)')"
p57
aS"(1054, u'(?i)(homoes|homo)')"
p58
aS"(4208, u'(?i)(canines|canine)')"
p59
atp60
Rp61
sb.