(ifile_types
ParseObject
p0
(dp1
S'methods'
p2
c__builtin__
set
p3
((lp4
S'Method.AGONIST'
p5
atp6
Rp7
sS'topics'
p8
g3
((lp9
S"(8, u'\\\\banxi')"
p10
aS"(5, u'\\\\btherap')"
p11
aS"(7, u'\\\\bdepressi')"
p12
aS"(13, u'\\\\bantidepress')"
p13
aS"(3, u'\\\\bclinical')"
p14
atp15
Rp16
sS'receptors'
p17
g3
((lp18
(S'5ht1a'
p19
I209
I215
tp20
a(S'5ht1a'
p21
I817
I823
tp22
a(S'5ht1a'
p23
I926
I932
tp24
a(S'5ht1a'
p25
I555
I561
tp26
a(S'5ht1a'
p27
I353
I359
tp28
a(S'5ht1a'
p29
I35
I40
tp30
atp31
Rp32
sS'raw_text_methods'
p33
g3
((lp34
S"(13, u'\\\\bagonist')"
p35
atp36
Rp37
sS'regions'
p38
g3
((lp39
tp40
Rp41
sS'year'
p42
V1996
p43
sS'species'
p44
g3
((lp45
tp46
Rp47
sb.