(ifile_types
ParseObject
p0
(dp1
S'methods'
p2
c__builtin__
set
p3
((lp4
S'Method.ANTAGONIST'
p5
atp6
Rp7
sS'topics'
p8
g3
((lp9
S"(22, u'\\\\bschizophreni')"
p10
aS"(14, u'\\\\bcogniti')"
p11
aS"(5, u'\\\\btherap')"
p12
aS"(23, u'\\\\bantipsychotic')"
p13
atp14
Rp15
sS'receptors'
p16
g3
((lp17
(S'5ht2a'
p18
I1534
I1540
tp19
a(S'5ht2a'
p20
I386
I392
tp21
atp22
Rp23
sS'raw_text_methods'
p24
g3
((lp25
S"(41, u'\\\\bhaloperidol')"
p26
aS"(40, u'\\\\bclozapine')"
p27
aS"(23, u'\\\\bmdl')"
p28
aS"(50, u'\\\\bm100907')"
p29
aS"(12, u'\\\\bantagonist')"
p30
atp31
Rp32
sS'regions'
p33
g3
((lp34
S"(20, u'(?i)\\\\b(prefrontals|prefrontal)\\\\b')"
p35
aS"(21, u'(?i)\\\\b(mpfcs|mpfc)\\\\b')"
p36
aS"(19, u'(?i)\\\\b(cortexes|cortex)\\\\b')"
p37
atp38
Rp39
sS'year'
p40
V1998
p41
sS'species'
p42
g3
((lp43
S"(4, u'(?i)\\\\b(rats|rat)\\\\b')"
p44
atp45
Rp46
sb.