(ifile_types
ParseObject
p0
(dp1
S'methods'
p2
c__builtin__
set
p3
((lp4
S'Method.ANTAGONIST'
p5
aS'Method.AGONIST'
p6
atp7
Rp8
sS'topics'
p9
g3
((lp10
tp11
Rp12
sS'receptors'
p13
g3
((lp14
(S'5ht1'
p15
I1942
I1947
tp16
a(S'5ht3'
p17
I1827
I1832
tp18
a(S'5ht2'
p19
I1811
I1816
tp20
atp21
Rp22
sS'raw_text_methods'
p23
g3
((lp24
S"(53, u'\\\\bketanserin')"
p25
aS"(23, u'\\\\bmdl')"
p26
aS"(15, u'\\\\b8ohdpat')"
p27
aS"(13, u'\\\\bagonist')"
p28
aS"(46, u'\\\\bspiperone')"
p29
aS"(12, u'\\\\bantagonist')"
p30
atp31
Rp32
sS'regions'
p33
g3
((lp34
tp35
Rp36
sS'year'
p37
V1987
p38
sS'species'
p39
g3
((lp40
S"(7, u'(?i)\\\\b(guineas|guinea)(-|\\\\s+)?(pigs|pig)\\\\b')"
p41
aS"(4, u'(?i)\\\\b(rats|rat)\\\\b')"
p42
atp43
Rp44
sb.