(ifile_types
ParseObject
p0
(dp1
S'antagonists'
p2
c__builtin__
set
p3
((lp4
S"(97, u'\\\\bsb ?200646')"
p5
aS"(110, u'\\\\bclozapine')"
p6
atp7
Rp8
sS'methods'
p9
g3
((lp10
S'Method.ANTAGONIST'
p11
atp12
Rp13
sS'topics'
p14
g3
((lp15
tp16
Rp17
sS'receptors'
p18
g3
((lp19
S'5ht2b'
p20
aS'5ht2c'
p21
atp22
Rp23
sS'regions'
p24
g3
((lp25
S"(96, u'(?i)\\\\b(ventrals|ventral)(-|\\\\s+)?(tegmentals|tegmental)(-|\\\\s+)?(areas|area)\\\\b')"
p26
aS"(103, u'(?i)\\\\b(substantias|substantia)(-|\\\\s+)?(nigras|nigra)\\\\b')"
p27
aS"(104, u'(?i)\\\\b(par|pars)(-|\\\\s+)?(compactas|compacta)\\\\b')"
p28
atp29
Rp30
sS'year'
p31
V2006
p32
sS'agonists'
p33
g3
((lp34
S"(23, u'\\\\bclozapine')"
p35
atp36
Rp37
sS'species'
p38
g3
((lp39
S"(6753, u'(?i)\\\\b(da|das)\\\\b')"
p40
aS"(5967, u'(?i)\\\\b(males|male)\\\\b')"
p41
aS"(523, u'(?i)\\\\b(blackburns|blackburn)\\\\b')"
p42
aS"(5958, u'(?i)\\\\b(rats|rat)\\\\b')"
p43
atp44
Rp45
sb.