(ifile_types
ParseObject
p0
(dp1
S'methods'
p2
c__builtin__
set
p3
((lp4
S'Method.KNOCKOUT'
p5
aS'Method.ANTAGONIST'
p6
aS'Method.AGONIST'
p7
atp8
Rp9
sS'topics'
p10
g3
((lp11
S"(26, u'\\\\bbehav')"
p12
atp13
Rp14
sS'receptors'
p15
g3
((lp16
(S'5ht1a'
p17
I1892
I1898
tp18
a(S'5ht1a'
p19
I806
I812
tp20
a(S'5ht1a'
p21
I1147
I1153
tp22
a(S'5ht1a'
p23
I482
I488
tp24
atp25
Rp26
sS'raw_text_methods'
p27
g3
((lp28
S"(13, u'\\\\bagonist')"
p29
atp30
Rp31
sS'regions'
p32
g3
((lp33
tp34
Rp35
sS'year'
p36
V2010
p37
sS'species'
p38
g3
((lp39
S"(1, u'(?i)\\\\b(mice|mouse)\\\\b')"
p40
aS"(5, u'(?i)\\\\b(mices|mice)\\\\b')"
p41
atp42
Rp43
sb.