(ifile_types
ParseObject
p0
(dp1
S'antagonists'
p2
c__builtin__
set
p3
((lp4
tp5
Rp6
sS'methods'
p7
g3
((lp8
S'Method.ANTAGONIST'
p9
aS'Method.AGONIST'
p10
atp11
Rp12
sS'topics'
p13
g3
((lp14
S"(25, u'\\\\bvasoconstrict')"
p15
atp16
Rp17
sS'receptors'
p18
g3
((lp19
S'5ht1b'
p20
aS'5ht1f'
p21
aS'5ht1d'
p22
atp23
Rp24
sS'regions'
p25
g3
((lp26
tp27
Rp28
sS'year'
p29
V2015
p30
sS'agonists'
p31
g3
((lp32
tp33
Rp34
sS'species'
p35
g3
((lp36
tp37
Rp38
sb.