(ifile_types
ParseObject
p0
(dp1
S'antagonists'
p2
c__builtin__
set
p3
((lp4
S"(182, u'\\\\bsb ?258585')"
p5
aS"(114, u'\\\\bimipramine')"
p6
atp7
Rp8
sS'methods'
p9
g3
((lp10
S'Method.ANTAGONIST'
p11
atp12
Rp13
sS'topics'
p14
g3
((lp15
S"(11, u'\\\\banxiolyt')"
p16
atp17
Rp18
sS'receptors'
p19
g3
((lp20
S'5ht6'
p21
atp22
Rp23
sS'regions'
p24
g3
((lp25
tp26
Rp27
sS'year'
p28
V2007
p29
sS'agonists'
p30
g3
((lp31
tp32
Rp33
sS'species'
p34
g3
((lp35
S"(5537, u'(?i)(hippos|hippo)')"
p36
aS"(2670, u'(?i)(arabs|arab)')"
p37
aS"(2568, u'(?i)(hens|hen)')"
p38
aS"(1349, u'(?i)(rams|ram)')"
p39
aS"(6249, u'(?i)(ants|ant)')"
p40
aS"(4979, u'(?i)(cats|cat)')"
p41
aS"(5958, u'(?i)(rats|rat)')"
p42
aS"(3812, u'(?i)(studs|stud)')"
p43
aS"(3431, u'(?i)(roans|roan)')"
p44
aS"(2809, u'(?i)(toms|tom)')"
p45
aS"(6356, u'(?i)(ais|ai)')"
p46
atp47
Rp48
sb.