(ifile_types
ParseObject
p0
(dp1
S'methods'
p2
c__builtin__
set
p3
((lp4
S'Method.AGONIST'
p5
atp6
Rp7
sS'topics'
p8
g3
((lp9
S"(26, u'\\\\bbehav')"
p10
atp11
Rp12
sS'receptors'
p13
g3
((lp14
(S'5ht1a'
p15
I1680
I1686
tp16
a(S'5ht1a'
p17
I283
I289
tp18
a(S'5ht1a'
p19
I142
I148
tp20
atp21
Rp22
sS'raw_text_methods'
p23
g3
((lp24
S"(13, u'\\\\bagonist')"
p25
aS"(15, u'\\\\b8ohdpat')"
p26
atp27
Rp28
sS'regions'
p29
g3
((lp30
S"(3, u'(?i)\\\\b(postsynaptics|postsynaptic)\\\\b')"
p31
atp32
Rp33
sS'year'
p34
V1992
p35
sS'species'
p36
g3
((lp37
S"(4, u'(?i)\\\\b(rats|rat)\\\\b')"
p38
atp39
Rp40
sb.