(ifile_types
ParseObject
p0
(dp1
S'antagonists'
p2
c__builtin__
set
p3
((lp4
S"(155, u'\\\\bgr ?125487')"
p5
aS"(142, u'\\\\bm1')"
p6
atp7
Rp8
sS'methods'
p9
g3
((lp10
S'Method.STIMULATION'
p11
aS'Method.ANTAGONIST'
p12
aS'Method.AGONIST'
p13
atp14
Rp15
sS'topics'
p16
g3
((lp17
tp18
Rp19
sS'receptors'
p20
g3
((lp21
S'5ht4'
p22
atp23
Rp24
sS'regions'
p25
g3
((lp26
S"(34, u'(?i)(pon|pons)')"
p27
atp28
Rp29
sS'year'
p30
V2002
p31
sS'agonists'
p32
g3
((lp33
S"(201, u'\\\\bbimu ?8')"
p34
atp35
Rp36
sS'species'
p37
g3
((lp38
S"(1070, u'(?i)(pets|pet)')"
p39
aS"(5537, u'(?i)(hippos|hippo)')"
p40
aS"(5958, u'(?i)(rats|rat)')"
p41
aS"(867, u'(?i)(tits|tit)')"
p42
aS"(3051, u'(?i)(pigs|pig)')"
p43
aS"(6682, u'(?i)(tera|teras)')"
p44
aS"(3404, u'(?i)(titis|titi)')"
p45
aS"(3062, u'(?i)(guineas|guinea)')"
p46
aS"(6753, u'(?i)(da|das)')"
p47
aS"(6249, u'(?i)(ants|ant)')"
p48
aS"(3812, u'(?i)(studs|stud)')"
p49
aS"(4480, u'(?i)(guineas|guinea)(-|\\\\s+)?(pigs|pig)')"
p50
aS"(6580, u'(?i)(dams|dam)')"
p51
aS"(821, u'(?i)(lice|louse)')"
p52
atp53
Rp54
sb.