(ifile_types
ParseObject
p0
(dp1
S'antagonists'
p2
c__builtin__
set
p3
((lp4
tp5
Rp6
sS'methods'
p7
g3
((lp8
S'Method.PET'
p9
atp10
Rp11
sS'topics'
p12
g3
((lp13
tp14
Rp15
sS'receptors'
p16
g3
((lp17
S'5ht1b'
p18
atp19
Rp20
sS'regions'
p21
g3
((lp22
S"(71, u'(?i)\\\\b(cerebellums|cerebellum)\\\\b')"
p23
aS"(225, u'(?i)\\\\b(ventrals|ventral)(-|\\\\s+)?(striatums|striatum)\\\\b')"
p24
aS"(220, u'(?i)\\\\b(striatums|striatum)\\\\b')"
p25
atp26
Rp27
sS'year'
p28
V2011
p29
sS'agonists'
p30
g3
((lp31
tp32
Rp33
sS'species'
p34
g3
((lp35
S"(1057, u'(?i)\\\\b(humans|human)\\\\b')"
p36
aS"(1070, u'(?i)\\\\b(pets|pet)\\\\b')"
p37
aS"(3196, u'(?i)\\\\b(human|humans)\\\\b')"
p38
atp39
Rp40
sb.