(ifile_types
ParseObject
p0
(dp1
S'antagonists'
p2
c__builtin__
set
p3
((lp4
S"(134, u'\\\\bgranisetron')"
p5
aS"(140, u'\\\\brenzapride')"
p6
aS"(135, u'\\\\bondansetron')"
p7
aS"(139, u'\\\\bmetoclopramide')"
p8
aS"(102, u'\\\\bfluoxetine')"
p9
atp10
Rp11
sS'methods'
p12
g3
((lp13
S'Method.ANTAGONIST'
p14
atp15
Rp16
sS'topics'
p17
g3
((lp18
tp19
Rp20
sS'receptors'
p21
g3
((lp22
S'5ht3'
p23
aS'5ht3b'
p24
atp25
Rp26
sS'regions'
p27
g3
((lp28
S"(248, u'(?i)(cerebrals|cerebral)(-|\\\\s+)?(cortexes|cortex)')"
p29
aS"(34, u'(?i)(pon|pons)')"
p30
atp31
Rp32
sS'year'
p33
V1991
p34
sS'agonists'
p35
g3
((lp36
S"(207, u'\\\\brenzapride')"
p37
aS"(196, u'\\\\bquipazine')"
p38
aS"(213, u'\\\\bmetoclopramide')"
p39
atp40
Rp41
sS'species'
p42
g3
((lp43
S"(3404, u'(?i)(titis|titi)')"
p44
aS"(3812, u'(?i)(studs|stud)')"
p45
aS"(6249, u'(?i)(ants|ant)')"
p46
aS"(6356, u'(?i)(ais|ai)')"
p47
aS"(6391, u'(?i)(asses|ass)')"
p48
aS"(1070, u'(?i)(pets|pet)')"
p49
aS"(468, u'(?i)(oxen|ox)')"
p50
aS"(1349, u'(?i)(rams|ram)')"
p51
aS"(3550, u'(?i)(anis|ani)')"
p52
aS"(2809, u'(?i)(toms|tom)')"
p53
aS"(2670, u'(?i)(arabs|arab)')"
p54
aS"(5958, u'(?i)(rats|rat)')"
p55
aS"(7609, u'(?i)(erns|ern)')"
p56
aS"(867, u'(?i)(tits|tit)')"
p57
aS"(1055, u'(?i)(men|man)')"
p58
aS"(7488, u'(?i)(molas|mola)')"
p59
aS"(6753, u'(?i)(da|das)')"
p60
aS"(1414, u'(?i)(chars|char)')"
p61
aS"(2323, u'(?i)(bees|bee)')"
p62
aS"(2568, u'(?i)(hens|hen)')"
p63
aS"(4979, u'(?i)(cats|cat)')"
p64
aS"(1054, u'(?i)(homoes|homo)')"
p65
aS"(1683, u'(?i)(terns|tern)')"
p66
atp67
Rp68
sb.