(ifile_types
ParseObject
p0
(dp1
S'antagonists'
p2
c__builtin__
set
p3
((lp4
S"(136, u'\\\\btropisetron')"
p5
atp6
Rp7
sS'methods'
p8
g3
((lp9
S'Method.ANTAGONIST'
p10
aS'Method.AGONIST'
p11
atp12
Rp13
sS'topics'
p14
g3
((lp15
tp16
Rp17
sS'receptors'
p18
g3
((lp19
S'5ht3'
p20
aS'5ht1'
p21
atp22
Rp23
sS'regions'
p24
g3
((lp25
S"(34, u'(?i)(pon|pons)')"
p26
atp27
Rp28
sS'year'
p29
V1994
p30
sS'agonists'
p31
g3
((lp32
S"(72, u'\\\\brauwolscine')"
p33
aS"(105, u'\\\\b5 ?carboxamidotryptamine')"
p34
aS"(5, u'\\\\b5 ?ct')"
p35
aS"(190, u'\\\\b2 ?methyl ?5 ?ht')"
p36
atp37
Rp38
sS'species'
p39
g3
((lp40
S"(2568, u'(?i)(hens|hen)')"
p41
aS"(3137, u'(?i)(iguanids|iguanid)')"
p42
aS"(5958, u'(?i)(rats|rat)')"
p43
aS"(163, u'(?i)(mice|mouse)')"
p44
aS"(4163, u'(?i)(ermines|ermine)')"
p45
aS"(7094, u'(?i)(curs|cur)')"
p46
aS"(7552, u'(?i)(bats|bat)')"
p47
aS"(468, u'(?i)(oxen|ox)')"
p48
aS"(1349, u'(?i)(rams|ram)')"
p49
aS"(6249, u'(?i)(ants|ant)')"
p50
aS"(1055, u'(?i)(men|man)')"
p51
aS"(4979, u'(?i)(cats|cat)')"
p52
aS"(5838, u'(?i)(cubs|cub)')"
p53
aS"(3550, u'(?i)(anis|ani)')"
p54
aS"(3522, u'(?i)(tetras|tetra)')"
p55
aS"(7058, u'(?i)(does|doe)')"
p56
aS"(6356, u'(?i)(ais|ai)')"
p57
aS"(6878, u'(?i)(guans|guan)')"
p58
aS"(821, u'(?i)(lice|louse)')"
p59
aS"(5949, u'(?i)(dogs|dog)')"
p60
atp61
Rp62
sb.