(ifile_types
ParseObject
p0
(dp1
S'antagonists'
p2
c__builtin__
set
p3
((lp4
S"(132, u'\\\\bsb ?243213')"
p5
aS"(123, u'\\\\bclozapine')"
p6
aS"(56, u'\\\\bclozapine')"
p7
atp8
Rp9
sS'methods'
p10
g3
((lp11
S'Method.ANTAGONIST'
p12
atp13
Rp14
sS'topics'
p15
g3
((lp16
tp17
Rp18
sS'receptors'
p19
g3
((lp20
S'5ht2c'
p21
atp22
Rp23
sS'regions'
p24
g3
((lp25
S"(226, u'(?i)(nuclei|nucleus)(-|\\\\s+)?(accumben|accumbens)')"
p26
aS"(34, u'(?i)(pon|pons)')"
p27
atp28
Rp29
sS'year'
p30
V2005
p31
sS'agonists'
p32
g3
((lp33
S"(27, u'\\\\bclozapine')"
p34
atp35
Rp36
sS'species'
p37
g3
((lp38
S"(4624, u'(?i)(apes|ape)')"
p39
aS"(6753, u'(?i)(da|das)')"
p40
aS"(5958, u'(?i)(rats|rat)')"
p41
aS"(5743, u'(?i)(bots|bot)')"
p42
aS"(1055, u'(?i)(men|man)')"
p43
aS"(6249, u'(?i)(ants|ant)')"
p44
aS"(2942, u'(?i)(daws|daw)')"
p45
aS"(3550, u'(?i)(anis|ani)')"
p46
aS"(1961, u'(?i)(pens|pen)')"
p47
aS"(6391, u'(?i)(asses|ass)')"
p48
atp49
Rp50
sb.