(ifile_types
ParseObject
p0
(dp1
S'methods'
p2
c__builtin__
set
p3
((lp4
S'Method.ANTAGONIST'
p5
atp6
Rp7
sS'topics'
p8
g3
((lp9
tp10
Rp11
sS'receptors'
p12
g3
((lp13
(S'5ht1'
p14
I1487
I1492
tp15
a(S'5ht3'
p16
I1071
I1076
tp17
a(S'5ht3'
p18
I1181
I1186
tp19
a(S'5ht2'
p20
I828
I833
tp21
a(S'5ht1'
p22
I1362
I1367
tp23
a(S'5ht3'
p24
I663
I668
tp25
a(S'5ht2'
p26
I939
I944
tp27
a(S'5ht2'
p28
I653
I658
tp29
a(S'5ht2'
p30
I1172
I1177
tp31
atp32
Rp33
sS'raw_text_methods'
p34
g3
((lp35
S"(12, u'\\\\bantagonist')"
p36
atp37
Rp38
sS'regions'
p39
g3
((lp40
S"(8, u'(?i)\\\\b(centrals|central)(-|\\\\s+)?(nervouses|nervous)(-|\\\\s+)?(systems|system)\\\\b')"
p41
atp42
Rp43
sS'year'
p44
V1986
p45
sS'species'
p46
g3
((lp47
S"(7, u'(?i)\\\\b(guineas|guinea)(-|\\\\s+)?(pigs|pig)\\\\b')"
p48
atp49
Rp50
sb.