(ifile_types
ParseObject
p0
(dp1
S'antagonists'
p2
c__builtin__
set
p3
((lp4
S"(14, u'\\\\bmethiothepin')"
p5
aS"(117, u'\\\\bketanserin')"
p6
atp7
Rp8
sS'methods'
p9
g3
((lp10
S'Method.ANTAGONIST'
p11
aS'Method.AGONIST'
p12
atp13
Rp14
sS'topics'
p15
g3
((lp16
tp17
Rp18
sS'receptors'
p19
g3
((lp20
S'5ht1d'
p21
aS'5ht1'
p22
aS'5ht2a'
p23
atp24
Rp25
sS'regions'
p26
g3
((lp27
tp28
Rp29
sS'year'
p30
V1996
p31
sS'agonists'
p32
g3
((lp33
S"(96, u'\\\\bsumatriptan')"
p34
atp35
Rp36
sS'species'
p37
g3
((lp38
S"(1057, u'(?i)\\\\b(humans|human)\\\\b')"
p39
aS"(3196, u'(?i)\\\\b(human|humans)\\\\b')"
p40
atp41
Rp42
sb.