(ifile_types
ParseObject
p0
(dp1
S'antagonists'
p2
c__builtin__
set
p3
((lp4
S"(26, u'\\\\bspiperone')"
p5
aS"(117, u'\\\\bketanserin')"
p6
aS"(20, u'\\\\bpindobind')"
p7
atp8
Rp9
sS'methods'
p10
g3
((lp11
S'Method.STIMULATION'
p12
aS'Method.ANTAGONIST'
p13
aS'Method.AGONIST'
p14
atp15
Rp16
sS'topics'
p17
g3
((lp18
tp19
Rp20
sS'receptors'
p21
g3
((lp22
S'5ht1a'
p23
aS'5ht1d'
p24
aS'5ht2'
p25
aS'5ht2a'
p26
atp27
Rp28
sS'regions'
p29
g3
((lp30
tp31
Rp32
sS'year'
p33
V1994
p34
sS'agonists'
p35
g3
((lp36
S"(96, u'\\\\bsumatriptan')"
p37
aS"(149, u'\\\\bmem')"
p38
aS"(175, u'\\\\bdoi')"
p39
atp40
Rp41
sS'species'
p42
g3
((lp43
S"(3051, u'(?i)\\\\b(pigs|pig)\\\\b')"
p44
aS"(4480, u'(?i)\\\\b(guineas|guinea)(-|\\\\s+)?(pigs|pig)\\\\b')"
p45
aS"(3062, u'(?i)\\\\b(guineas|guinea)\\\\b')"
p46
atp47
Rp48
sb.