(ifile_types
ParseObject
p0
(dp1
S'antagonists'
p2
c__builtin__
set
p3
((lp4
S"(34, u'\\\\bmetergoline')"
p5
atp6
Rp7
sS'methods'
p8
g3
((lp9
S'Method.ANTAGONIST'
p10
aS'Method.AGONIST'
p11
atp12
Rp13
sS'topics'
p14
g3
((lp15
S"(37, u'\\\\baddict')"
p16
atp17
Rp18
sS'receptors'
p19
g3
((lp20
S'5ht2c'
p21
aS'5ht1d'
p22
atp23
Rp24
sS'regions'
p25
g3
((lp26
S"(96, u'(?i)\\\\b(ventrals|ventral)(-|\\\\s+)?(tegmentals|tegmental)(-|\\\\s+)?(areas|area)\\\\b')"
p27
atp28
Rp29
sS'year'
p30
V1995
p31
sS'agonists'
p32
g3
((lp33
S"(96, u'\\\\bsumatriptan')"
p34
aS"(163, u'\\\\bfenfluramine')"
p35
atp36
Rp37
sS'species'
p38
g3
((lp39
tp40
Rp41
sb.