(ifile_types
ParseObject
p0
(dp1
S'methods'
p2
c__builtin__
set
p3
((lp4
S'Method.AGONIST'
p5
atp6
Rp7
sS'topics'
p8
g3
((lp9
tp10
Rp11
sS'receptors'
p12
g3
((lp13
(S'5ht2'
p14
I553
I558
tp15
a(S'5ht2'
p16
I24
I29
tp17
a(S'5ht2'
p18
I480
I485
tp19
a(S'5ht2'
p20
I331
I336
tp21
a(S'5ht2c'
p22
I163
I169
tp23
a(S'5ht2'
p24
I182
I187
tp25
a(S'5ht2'
p26
I427
I432
tp27
a(S'5ht2'
p28
I275
I280
tp29
atp30
Rp31
sS'raw_text_methods'
p32
g3
((lp33
S"(13, u'\\\\bagonist')"
p34
atp35
Rp36
sS'regions'
p37
g3
((lp38
tp39
Rp40
sS'year'
p41
V2010
p42
sS'species'
p43
g3
((lp44
S"(1, u'(?i)\\\\b(mice|mouse)\\\\b')"
p45
aS"(5, u'(?i)\\\\b(mices|mice)\\\\b')"
p46
atp47
Rp48
sb.