(ifile_types
ParseObject
p0
(dp1
S'antagonists'
p2
c__builtin__
set
p3
((lp4
tp5
Rp6
sS'methods'
p7
g3
((lp8
tp9
Rp10
sS'topics'
p11
g3
((lp12
S"(1, u'\\\\bmood')"
p13
aS"(4, u'\\\\blocomot')"
p14
aS"(9, u'\\\\bdepress')"
p15
aS"(7, u'\\\\bmemory')"
p16
aS"(8, u'\\\\blearning')"
p17
aS"(10, u'\\\\banxiety')"
p18
atp19
Rp20
sS'receptors'
p21
g3
((lp22
S'5ht1a'
p23
atp24
Rp25
sS'regions'
p26
g3
((lp27
S"(318, u'(?i)(raphes|raphe)(-|\\\\s+)?(nuclei|nucleus)')"
p28
aS"(34, u'(?i)(pon|pons)')"
p29
atp30
Rp31
sS'year'
p32
V2015
p33
sS'agonists'
p34
g3
((lp35
S"(155, u'\\\\bmem')"
p36
atp37
Rp38
sS'species'
p39
g3
((lp40
S"(6249, u'(?i)(ants|ant)')"
p41
aS"(6753, u'(?i)(da|das)')"
p42
aS"(2568, u'(?i)(hens|hen)')"
p43
aS"(163, u'(?i)(mice|mouse)')"
p44
aS"(6682, u'(?i)(tera|teras)')"
p45
aS"(4091, u'(?i)(adults|adult)')"
p46
aS"(81, u'(?i)(asps|asp)')"
p47
aS"(468, u'(?i)(oxen|ox)')"
p48
aS"(3726, u'(?i)(mates|mate)')"
p49
aS"(4979, u'(?i)(cats|cat)')"
p50
aS"(5958, u'(?i)(rats|rat)')"
p51
aS"(5229, u'(?i)(moles|mole)')"
p52
aS"(6356, u'(?i)(ais|ai)')"
p53
aS"(6391, u'(?i)(asses|ass)')"
p54
aS"(1628, u'(?i)(cod|cod)')"
p55
aS"(5743, u'(?i)(bots|bot)')"
p56
atp57
Rp58
sb.