(ifile_types
ParseObject
p0
(dp1
S'antagonists'
p2
c__builtin__
set
p3
((lp4
S"(53, u'\\\\bketanserin')"
p5
aS"(128, u'\\\\bketanserin')"
p6
aS"(102, u'\\\\bfluoxetine')"
p7
atp8
Rp9
sS'methods'
p10
g3
((lp11
S'Method.ANTAGONIST'
p12
aS'Method.AGONIST'
p13
atp14
Rp15
sS'topics'
p16
g3
((lp17
S"(29, u'\\\\bsex')"
p18
atp19
Rp20
sS'receptors'
p21
g3
((lp22
S'5ht3'
p23
aS'5ht5'
p24
aS'5ht3a'
p25
aS'5ht2'
p26
atp27
Rp28
sS'regions'
p29
g3
((lp30
tp31
Rp32
sS'year'
p33
V2002
p34
sS'agonists'
p35
g3
((lp36
S"(214, u'\\\\bsulpiride')"
p37
atp38
Rp39
sS'species'
p40
g3
((lp41
S"(2670, u'(?i)(arabs|arab)')"
p42
aS"(6753, u'(?i)(da|das)')"
p43
aS"(5958, u'(?i)(rats|rat)')"
p44
aS"(6125, u'(?i)(females|female)')"
p45
aS"(7609, u'(?i)(erns|ern)')"
p46
aS"(4979, u'(?i)(cats|cat)')"
p47
aS"(4091, u'(?i)(adults|adult)')"
p48
aS"(5967, u'(?i)(males|male)')"
p49
aS"(468, u'(?i)(oxen|ox)')"
p50
aS"(1055, u'(?i)(men|man)')"
p51
aS"(6249, u'(?i)(ants|ant)')"
p52
aS"(4964, u'(?i)(serins|serin)')"
p53
aS"(3550, u'(?i)(anis|ani)')"
p54
aS"(821, u'(?i)(lice|louse)')"
p55
aS"(3812, u'(?i)(studs|stud)')"
p56
aS"(6391, u'(?i)(asses|ass)')"
p57
aS"(6356, u'(?i)(ais|ai)')"
p58
aS"(1683, u'(?i)(terns|tern)')"
p59
aS"(5949, u'(?i)(dogs|dog)')"
p60
atp61
Rp62
sb.