(ifile_types
ParseObject
p0
(dp1
S'methods'
p2
c__builtin__
set
p3
((lp4
S'Method.ANTAGONIST'
p5
atp6
Rp7
sS'topics'
p8
g3
((lp9
S"(13, u'\\\\bantidepress')"
p10
atp11
Rp12
sS'receptors'
p13
g3
((lp14
(S'5ht1'
p15
I1407
I1412
tp16
a(S'5ht1a'
p17
I427
I433
tp18
a(S'5ht1a'
p19
I583
I589
tp20
atp21
Rp22
sS'raw_text_methods'
p23
g3
((lp24
S"(51, u'\\\\bway100635')"
p25
aS"(18, u'\\\\bimaging')"
p26
aS"(54, u'\\\\bautoradiography')"
p27
atp28
Rp29
sS'regions'
p30
g3
((lp31
S"(9, u'(?i)\\\\b(cerebellums|cerebellum)\\\\b')"
p32
aS"(16, u'(?i)\\\\b(drns|drn)\\\\b')"
p33
atp34
Rp35
sS'year'
p36
V2002
p37
sS'species'
p38
g3
((lp39
S"(6, u'(?i)\\\\b(rodents|rodent)\\\\b')"
p40
aS"(4, u'(?i)\\\\b(rats|rat)\\\\b')"
p41
atp42
Rp43
sb.