(ifile_types
ParseObject
p0
(dp1
S'antagonists'
p2
c__builtin__
set
p3
((lp4
tp5
Rp6
sS'methods'
p7
g3
((lp8
S'Method.ANTAGONIST'
p9
atp10
Rp11
sS'topics'
p12
g3
((lp13
S"(30, u'\\\\bparkinsons')"
p14
aS"(4, u'\\\\blocomot')"
p15
atp16
Rp17
sS'receptors'
p18
g3
((lp19
S'5ht3'
p20
atp21
Rp22
sS'regions'
p23
g3
((lp24
S"(220, u'(?i)(striatums|striatum)')"
p25
aS"(104, u'(?i)(par|pars)(-|\\\\s+)?(compactas|compacta)')"
p26
aS"(103, u'(?i)(substantias|substantia)(-|\\\\s+)?(nigras|nigra)')"
p27
atp28
Rp29
sS'year'
p30
V2009
p31
sS'agonists'
p32
g3
((lp33
tp34
Rp35
sS'species'
p36
g3
((lp37
S"(6753, u'(?i)(da|das)')"
p38
aS"(2568, u'(?i)(hens|hen)')"
p39
aS"(5958, u'(?i)(rats|rat)')"
p40
aS"(4201, u'(?i)(kines|kine)')"
p41
aS"(6682, u'(?i)(tera|teras)')"
p42
aS"(6249, u'(?i)(ants|ant)')"
p43
aS"(468, u'(?i)(oxen|ox)')"
p44
aS"(1055, u'(?i)(men|man)')"
p45
aS"(3726, u'(?i)(mates|mate)')"
p46
aS"(1349, u'(?i)(rams|ram)')"
p47
aS"(4979, u'(?i)(cats|cat)')"
p48
aS"(3550, u'(?i)(anis|ani)')"
p49
aS"(3812, u'(?i)(studs|stud)')"
p50
aS"(2809, u'(?i)(toms|tom)')"
p51
aS"(5743, u'(?i)(bots|bot)')"
p52
aS"(6356, u'(?i)(ais|ai)')"
p53
atp54
Rp55
sb.