(ifile_types
ParseObject
p0
(dp1
S'methods'
p2
c__builtin__
set
p3
((lp4
S'Method.AGONIST'
p5
atp6
Rp7
sS'topics'
p8
g3
((lp9
tp10
Rp11
sS'receptors'
p12
g3
((lp13
(S'5ht1a'
p14
I2241
I2247
tp15
a(S'5ht1d'
p16
I2363
I2369
tp17
a(S'5ht1'
p18
I1473
I1478
tp19
atp20
Rp21
sS'raw_text_methods'
p22
g3
((lp23
S"(13, u'\\\\bagonist')"
p24
aS"(15, u'\\\\b8ohdpat')"
p25
aS"(33, u'\\\\bmcpp')"
p26
aS"(46, u'\\\\bspiperone')"
p27
aS"(53, u'\\\\bketanserin')"
p28
atp29
Rp30
sS'regions'
p31
g3
((lp32
S"(4, u'(?i)\\\\b(presynaptics|presynaptic)\\\\b')"
p33
aS"(3, u'(?i)\\\\b(postsynaptics|postsynaptic)\\\\b')"
p34
atp35
Rp36
sS'year'
p37
V1990
p38
sS'species'
p39
g3
((lp40
S"(7, u'(?i)\\\\b(guineas|guinea)(-|\\\\s+)?(pigs|pig)\\\\b')"
p41
atp42
Rp43
sb.