(ifile_types
ParseObject
p0
(dp1
S'antagonists'
p2
c__builtin__
set
p3
((lp4
S"(53, u'\\\\bketanserin')"
p5
aS"(128, u'\\\\bketanserin')"
p6
aS"(54, u'\\\\britanserin')"
p7
aS"(130, u'\\\\britanserin')"
p8
atp9
Rp10
sS'methods'
p11
g3
((lp12
S'Method.ANTAGONIST'
p13
atp14
Rp15
sS'topics'
p16
g3
((lp17
S"(3, u'\\\\bsleep')"
p18
atp19
Rp20
sS'receptors'
p21
g3
((lp22
S'5ht2'
p23
aS'5ht2a'
p24
atp25
Rp26
sS'regions'
p27
g3
((lp28
tp29
Rp30
sS'year'
p31
V1996
p32
sS'agonists'
p33
g3
((lp34
tp35
Rp36
sS'species'
p37
g3
((lp38
S"(1688, u'(?i)(ounces|ounce)')"
p39
aS"(6753, u'(?i)(da|das)')"
p40
aS"(949, u'(?i)(cohoes|coho)')"
p41
aS"(6125, u'(?i)(females|female)')"
p42
aS"(7609, u'(?i)(erns|ern)')"
p43
aS"(5958, u'(?i)(rats|rat)')"
p44
aS"(4979, u'(?i)(cats|cat)')"
p45
aS"(3550, u'(?i)(anis|ani)')"
p46
aS"(5967, u'(?i)(males|male)')"
p47
aS"(4163, u'(?i)(ermines|ermine)')"
p48
aS"(1349, u'(?i)(rams|ram)')"
p49
aS"(6249, u'(?i)(ants|ant)')"
p50
aS"(1055, u'(?i)(men|man)')"
p51
aS"(4964, u'(?i)(serins|serin)')"
p52
aS"(7094, u'(?i)(curs|cur)')"
p53
aS"(2568, u'(?i)(hens|hen)')"
p54
aS"(1057, u'(?i)(humans|human)')"
p55
aS"(6391, u'(?i)(asses|ass)')"
p56
aS"(6356, u'(?i)(ais|ai)')"
p57
aS"(3196, u'(?i)(human|humans)')"
p58
aS"(1683, u'(?i)(terns|tern)')"
p59
atp60
Rp61
sb.