(ifile_types
ParseObject
p0
(dp1
S'antagonists'
p2
c__builtin__
set
p3
((lp4
S"(53, u'\\\\bketanserin')"
p5
aS"(52, u'\\\\bmetergoline')"
p6
aS"(17, u'\\\\bnan ?190')"
p7
aS"(128, u'\\\\bketanserin')"
p8
aS"(22, u'\\\\bpropranolol')"
p9
aS"(26, u'\\\\bsdz ?216525')"
p10
aS"(35, u'\\\\bmetergoline')"
p11
atp12
Rp13
sS'methods'
p14
g3
((lp15
S'Method.ANTAGONIST'
p16
aS'Method.AGONIST'
p17
atp18
Rp19
sS'topics'
p20
g3
((lp21
tp22
Rp23
sS'receptors'
p24
g3
((lp25
S'5ht5'
p26
aS'5ht1a'
p27
atp28
Rp29
sS'regions'
p30
g3
((lp31
S"(318, u'(?i)(raphes|raphe)(-|\\\\s+)?(nuclei|nucleus)')"
p32
aS"(158, u'(?i)(suprachiasmatics|suprachiasmatic)(-|\\\\s+)?(nuclei|nucleus)')"
p33
aS"(126, u'(?i)(thalamuses|thalamus)')"
p34
aS"(34, u'(?i)(pon|pons)')"
p35
atp36
Rp37
sS'year'
p38
V1994
p39
sS'agonists'
p40
g3
((lp41
S"(92, u'\\\\b8 ?oh ?dpat')"
p42
aS"(5, u'\\\\b5 ?ct')"
p43
aS"(181, u'\\\\bdom')"
p44
atp45
Rp46
sS'species'
p47
g3
((lp48
S"(6753, u'(?i)(da|das)')"
p49
aS"(5958, u'(?i)(rats|rat)')"
p50
aS"(853, u'(?i)(minas|mina)')"
p51
aS"(7539, u'(?i)(mammals|mammal)')"
p52
aS"(7540, u'(?i)(mammalians|mammalian)')"
p53
aS"(4964, u'(?i)(serins|serin)')"
p54
aS"(4099, u'(?i)(hamsters|hamster)')"
p55
aS"(6249, u'(?i)(ants|ant)')"
p56
aS"(1961, u'(?i)(pens|pen)')"
p57
aS"(6356, u'(?i)(ais|ai)')"
p58
aS"(1949, u'(?i)(pacemakers|pacemaker)')"
p59
aS"(4979, u'(?i)(cats|cat)')"
p60
atp61
Rp62
sb.