(ifile_types
ParseObject
p0
(dp1
S'methods'
p2
c__builtin__
set
p3
((lp4
S'Method.ANTAGONIST'
p5
aS'Method.AGONIST'
p6
atp7
Rp8
sS'topics'
p9
g3
((lp10
tp11
Rp12
sS'receptors'
p13
g3
((lp14
(S'5ht3'
p15
I1714
I1719
tp16
a(S'5ht3'
p17
I415
I420
tp18
a(S'5ht3'
p19
I1748
I1753
tp20
a(S'5ht3'
p21
I1020
I1025
tp22
a(S'5ht1a'
p23
I1542
I1548
tp24
a(S'5ht3'
p25
I39
I44
tp26
a(S'5ht2'
p27
I1479
I1484
tp28
atp29
Rp30
sS'raw_text_methods'
p31
g3
((lp32
S"(13, u'\\\\bagonist')"
p33
aS"(12, u'\\\\bantagonist')"
p34
atp35
Rp36
sS'regions'
p37
g3
((lp38
tp39
Rp40
sS'year'
p41
V1996
p42
sS'species'
p43
g3
((lp44
S"(4, u'(?i)\\\\b(rats|rat)\\\\b')"
p45
atp46
Rp47
sb.