(ifile_types
ParseObject
p0
(dp1
S'antagonists'
p2
c__builtin__
set
p3
((lp4
tp5
Rp6
sS'methods'
p7
g3
((lp8
S'Method.AGONIST'
p9
atp10
Rp11
sS'topics'
p12
g3
((lp13
tp14
Rp15
sS'receptors'
p16
g3
((lp17
S'5ht2a'
p18
atp19
Rp20
sS'regions'
p21
g3
((lp22
S"(96, u'(?i)(ventrals|ventral)(-|\\\\s+)?(tegmentals|tegmental)(-|\\\\s+)?(areas|area)')"
p23
aS"(34, u'(?i)(pon|pons)')"
p24
atp25
Rp26
sS'year'
p27
V2017
p28
sS'agonists'
p29
g3
((lp30
tp31
Rp32
sS'species'
p33
g3
((lp34
S"(2323, u'(?i)(bees|bee)')"
p35
aS"(4624, u'(?i)(apes|ape)')"
p36
aS"(5799, u'(?i)(rodents|rodent)')"
p37
aS"(5958, u'(?i)(rats|rat)')"
p38
aS"(163, u'(?i)(mice|mouse)')"
p39
aS"(6753, u'(?i)(da|das)')"
p40
aS"(479, u'(?i)(lings|ling)')"
p41
aS"(468, u'(?i)(oxen|ox)')"
p42
aS"(1055, u'(?i)(men|man)')"
p43
aS"(5176, u'(?i)(tegs|teg)')"
p44
aS"(3550, u'(?i)(anis|ani)')"
p45
aS"(5229, u'(?i)(moles|mole)')"
p46
aS"(1961, u'(?i)(pens|pen)')"
p47
aS"(3812, u'(?i)(studs|stud)')"
p48
aS"(6391, u'(?i)(asses|ass)')"
p49
aS"(5743, u'(?i)(bots|bot)')"
p50
aS"(6356, u'(?i)(ais|ai)')"
p51
atp52
Rp53
sb.