(ifile_types
ParseObject
p0
(dp1
S'methods'
p2
c__builtin__
set
p3
((lp4
S'Method.ANTAGONIST'
p5
aS'Method.AGONIST'
p6
atp7
Rp8
sS'topics'
p9
g3
((lp10
S"(26, u'\\\\bbehav')"
p11
atp12
Rp13
sS'receptors'
p14
g3
((lp15
(S'5ht6'
p16
I1649
I1654
tp17
a(S'5ht6'
p18
I212
I217
tp19
a(S'5ht6'
p20
I591
I596
tp21
a(S'5ht6'
p22
I89
I94
tp23
a(S'5ht6'
p24
I1702
I1707
tp25
atp26
Rp27
sS'raw_text_methods'
p28
g3
((lp29
S"(27, u'\\\\blsd')"
p30
aS"(40, u'\\\\bclozapine')"
p31
aS"(13, u'\\\\bagonist')"
p32
aS"(30, u'\\\\b2methyl')"
p33
aS"(9, u'\\\\britanserin')"
p34
aS"(12, u'\\\\bantagonist')"
p35
atp36
Rp37
sS'regions'
p38
g3
((lp39
tp40
Rp41
sS'year'
p42
V1997
p43
sS'species'
p44
g3
((lp45
S"(4, u'(?i)\\\\b(rats|rat)\\\\b')"
p46
atp47
Rp48
sb.