(ifile_types
ParseObject
p0
(dp1
S'antagonists'
p2
c__builtin__
set
p3
((lp4
S"(53, u'\\\\bketanserin')"
p5
aS"(32, u'\\\\bway ?100635')"
p6
aS"(130, u'\\\\britanserin')"
p7
aS"(17, u'\\\\bnan ?190')"
p8
aS"(128, u'\\\\bketanserin')"
p9
aS"(67, u'\\\\bhaloperidol')"
p10
aS"(54, u'\\\\britanserin')"
p11
aS"(102, u'\\\\bfluoxetine')"
p12
aS"(34, u'\\\\byohimbine')"
p13
aS"(114, u'\\\\bimipramine')"
p14
atp15
Rp16
sS'methods'
p17
g3
((lp18
S'Method.ANTAGONIST'
p19
atp20
Rp21
sS'topics'
p22
g3
((lp23
tp24
Rp25
sS'receptors'
p26
g3
((lp27
S'5ht1a'
p28
aS'5ht2c'
p29
aS'5ht2a'
p30
atp31
Rp32
sS'regions'
p33
g3
((lp34
tp35
Rp36
sS'year'
p37
V2009
p38
sS'agonists'
p39
g3
((lp40
S"(89, u'\\\\byohimbine')"
p41
aS"(48, u'\\\\bhaloperidol')"
p42
aS"(214, u'\\\\bsulpiride')"
p43
atp44
Rp45
sS'species'
p46
g3
((lp47
S"(6753, u'(?i)(da|das)')"
p48
aS"(2568, u'(?i)(hens|hen)')"
p49
aS"(6356, u'(?i)(ais|ai)')"
p50
aS"(5958, u'(?i)(rats|rat)')"
p51
aS"(163, u'(?i)(mice|mouse)')"
p52
aS"(6391, u'(?i)(asses|ass)')"
p53
aS"(6682, u'(?i)(tera|teras)')"
p54
aS"(468, u'(?i)(oxen|ox)')"
p55
aS"(1349, u'(?i)(rams|ram)')"
p56
aS"(6249, u'(?i)(ants|ant)')"
p57
aS"(1055, u'(?i)(men|man)')"
p58
aS"(4964, u'(?i)(serins|serin)')"
p59
aS"(3550, u'(?i)(anis|ani)')"
p60
aS"(1057, u'(?i)(humans|human)')"
p61
aS"(1961, u'(?i)(pens|pen)')"
p62
aS"(3812, u'(?i)(studs|stud)')"
p63
aS"(3196, u'(?i)(human|humans)')"
p64
aS"(4979, u'(?i)(cats|cat)')"
p65
atp66
Rp67
sb.