(ifile_types
ParseObject
p0
(dp1
S'antagonists'
p2
c__builtin__
set
p3
((lp4
S"(102, u'\\\\bamitriptyline')"
p5
atp6
Rp7
sS'methods'
p8
g3
((lp9
S'Method.AGONIST'
p10
atp11
Rp12
sS'topics'
p13
g3
((lp14
S"(21, u'\\\\bpain')"
p15
aS"(24, u'\\\\banalgesi')"
p16
atp17
Rp18
sS'receptors'
p19
g3
((lp20
S'5ht1a'
p21
atp22
Rp23
sS'regions'
p24
g3
((lp25
tp26
Rp27
sS'year'
p28
V1990
p29
sS'agonists'
p30
g3
((lp31
S"(20, u'\\\\bbuspirone')"
p32
atp33
Rp34
sS'species'
p35
g3
((lp36
S"(6753, u'(?i)\\\\b(da|das)\\\\b')"
p37
aS"(5958, u'(?i)\\\\b(rats|rat)\\\\b')"
p38
atp39
Rp40
sb.