(ifile_types
ParseObject
p0
(dp1
S'antagonists'
p2
c__builtin__
set
p3
((lp4
tp5
Rp6
sS'methods'
p7
g3
((lp8
tp9
Rp10
sS'topics'
p11
g3
((lp12
S"(35, u'\\\\bstress')"
p13
atp14
Rp15
sS'receptors'
p16
g3
((lp17
S'5ht1b'
p18
aS'5ht1d'
p19
atp20
Rp21
sS'regions'
p22
g3
((lp23
S"(220, u'(?i)(striatums|striatum)')"
p24
aS"(126, u'(?i)(thalamuses|thalamus)')"
p25
aS"(103, u'(?i)(substantias|substantia)(-|\\\\s+)?(nigras|nigra)')"
p26
atp27
Rp28
sS'year'
p29
V1999
p30
sS'agonists'
p31
g3
((lp32
tp33
Rp34
sS'species'
p35
g3
((lp36
S"(4624, u'(?i)(apes|ape)')"
p37
aS"(4163, u'(?i)(ermines|ermine)')"
p38
aS"(6356, u'(?i)(ais|ai)')"
p39
aS"(6249, u'(?i)(ants|ant)')"
p40
aS"(6391, u'(?i)(asses|ass)')"
p41
aS"(3812, u'(?i)(studs|stud)')"
p42
aS"(3196, u'(?i)(human|humans)')"
p43
aS"(1795, u'(?i)(mounts|mount)')"
p44
aS"(1070, u'(?i)(pets|pet)')"
p45
aS"(1688, u'(?i)(ounces|ounce)')"
p46
aS"(479, u'(?i)(lings|ling)')"
p47
aS"(468, u'(?i)(oxen|ox)')"
p48
aS"(3404, u'(?i)(titis|titi)')"
p49
aS"(3550, u'(?i)(anis|ani)')"
p50
aS"(3522, u'(?i)(tetras|tetra)')"
p51
aS"(5537, u'(?i)(hippos|hippo)')"
p52
aS"(5958, u'(?i)(rats|rat)')"
p53
aS"(867, u'(?i)(tits|tit)')"
p54
aS"(163, u'(?i)(mice|mouse)')"
p55
aS"(6682, u'(?i)(tera|teras)')"
p56
aS"(1055, u'(?i)(men|man)')"
p57
aS"(6753, u'(?i)(da|das)')"
p58
aS"(1057, u'(?i)(humans|human)')"
p59
aS"(4371, u'(?i)(lizas|liza)')"
p60
aS"(1414, u'(?i)(chars|char)')"
p61
aS"(6642, u'(?i)(lions|lion)')"
p62
aS"(5949, u'(?i)(dogs|dog)')"
p63
aS"(2568, u'(?i)(hens|hen)')"
p64
atp65
Rp66
sb.