(ifile_types
ParseObject
p0
(dp1
S'methods'
p2
c__builtin__
set
p3
((lp4
S'Method.AGONIST'
p5
atp6
Rp7
sS'topics'
p8
g3
((lp9
tp10
Rp11
sS'receptors'
p12
g3
((lp13
(S'5ht1a'
p14
I1153
I1159
tp15
a(S'5ht1'
p16
I27
I32
tp17
a(S'5ht1'
p18
I424
I429
tp19
a(S'5ht1b'
p20
I1519
I1525
tp21
a(S'5ht1a'
p22
I687
I693
tp23
a(S'5ht1a'
p24
I1508
I1514
tp25
a(S'5ht1b'
p26
I1309
I1315
tp27
a(S'5ht1a'
p28
I879
I885
tp29
atp30
Rp31
sS'raw_text_methods'
p32
g3
((lp33
S"(21, u'\\\\bipsapirone')"
p34
aS"(22, u'\\\\bbuspirone')"
p35
aS"(15, u'\\\\b8ohdpat')"
p36
aS"(13, u'\\\\bagonist')"
p37
aS"(24, u'\\\\bgepirone')"
p38
aS"(37, u'\\\\bpiperazine')"
p39
atp40
Rp41
sS'regions'
p42
g3
((lp43
tp44
Rp45
sS'year'
p46
V1989
p47
sS'species'
p48
g3
((lp49
S"(4, u'(?i)\\\\b(rats|rat)\\\\b')"
p50
atp51
Rp52
sb.