(ifile_types
ParseObject
p0
(dp1
S'methods'
p2
c__builtin__
set
p3
((lp4
S'Method.ANTAGONIST'
p5
aS'Method.AGONIST'
p6
atp7
Rp8
sS'topics'
p9
g3
((lp10
S"(14, u'\\\\bcogniti')"
p11
aS"(26, u'\\\\bbehav')"
p12
aS"(17, u'\\\\balzheimer')"
p13
aS"(5, u'\\\\btherap')"
p14
aS"(8, u'\\\\banxi')"
p15
aS"(1, u'\\\\bpatient')"
p16
aS"(4, u'\\\\btreatment')"
p17
aS"(3, u'\\\\bclinical')"
p18
atp19
Rp20
sS'receptors'
p21
g3
((lp22
(S'5ht3'
p23
I1461
I1466
tp24
a(S'5ht3'
p25
I516
I521
tp26
atp27
Rp28
sS'raw_text_methods'
p29
g3
((lp30
S"(13, u'\\\\bagonist')"
p31
aS"(12, u'\\\\bantagonist')"
p32
atp33
Rp34
sS'regions'
p35
g3
((lp36
tp37
Rp38
sS'year'
p39
V1998
p40
sS'species'
p41
g3
((lp42
tp43
Rp44
sb.