(ifile_types
ParseObject
p0
(dp1
S'antagonists'
p2
c__builtin__
set
p3
((lp4
S"(33, u'\\\\bxylamidine')"
p5
aS"(105, u'\\\\bmethysergide')"
p6
atp7
Rp8
sS'methods'
p9
g3
((lp10
S'Method.STIMULATION'
p11
aS'Method.ANTAGONIST'
p12
atp13
Rp14
sS'topics'
p15
g3
((lp16
tp17
Rp18
sS'receptors'
p19
g3
((lp20
S'5ht5'
p21
aS'5ht3'
p22
aS'5ht2'
p23
aS'5ht1'
p24
atp25
Rp26
sS'regions'
p27
g3
((lp28
tp29
Rp30
sS'year'
p31
V1991
p32
sS'agonists'
p33
g3
((lp34
S"(60, u'\\\\bmethysergide')"
p35
atp36
Rp37
sS'species'
p38
g3
((lp39
S"(6249, u'(?i)(ants|ant)')"
p40
aS"(2568, u'(?i)(hens|hen)')"
p41
aS"(479, u'(?i)(lings|ling)')"
p42
aS"(5035, u'(?i)(harts|hart)')"
p43
aS"(468, u'(?i)(oxen|ox)')"
p44
aS"(1055, u'(?i)(men|man)')"
p45
aS"(3726, u'(?i)(mates|mate)')"
p46
aS"(6356, u'(?i)(ais|ai)')"
p47
aS"(5958, u'(?i)(rats|rat)')"
p48
aS"(6682, u'(?i)(tera|teras)')"
p49
aS"(3812, u'(?i)(studs|stud)')"
p50
atp51
Rp52
sb.