(ifile_types
ParseObject
p0
(dp1
S'methods'
p2
c__builtin__
set
p3
((lp4
S'Method.ANTAGONIST'
p5
aS'Method.AGONIST'
p6
atp7
Rp8
sS'topics'
p9
g3
((lp10
S"(5, u'\\\\btherap')"
p11
aS"(26, u'\\\\bbehav')"
p12
atp13
Rp14
sS'receptors'
p15
g3
((lp16
(S'5ht1a'
p17
I1089
I1095
tp18
a(S'5ht1b'
p19
I598
I604
tp20
a(S'5ht1'
p21
I1654
I1659
tp22
a(S'5ht2c'
p23
I606
I612
tp24
a(S'5ht2a'
p25
I616
I622
tp26
a(S'5ht2'
p27
I1669
I1674
tp28
atp29
Rp30
sS'raw_text_methods'
p31
g3
((lp32
S"(13, u'\\\\bagonist')"
p33
aS"(11, u'\\\\bfluoxetine')"
p34
aS"(12, u'\\\\bantagonist')"
p35
atp36
Rp37
sS'regions'
p38
g3
((lp39
S"(23, u'(?i)\\\\b(forebrains|forebrain)\\\\b')"
p40
atp41
Rp42
sS'year'
p43
V1996
p44
sS'species'
p45
g3
((lp46
S"(6, u'(?i)\\\\b(rodents|rodent)\\\\b')"
p47
aS"(4, u'(?i)\\\\b(rats|rat)\\\\b')"
p48
atp49
Rp50
sb.