(ifile_types
ParseObject
p0
(dp1
S'methods'
p2
c__builtin__
set
p3
((lp4
S'Method.ANTAGONIST'
p5
atp6
Rp7
sS'topics'
p8
g3
((lp9
S"(14, u'\\\\bcogniti')"
p10
aS"(25, u'\\\\bsocial')"
p11
aS"(19, u'\\\\bpsychosis')"
p12
aS"(16, u'\\\\blearning')"
p13
aS"(23, u'\\\\bantipsychotic')"
p14
aS"(15, u'\\\\bmemory')"
p15
aS"(18, u'\\\\bavoidan')"
p16
atp17
Rp18
sS'receptors'
p19
g3
((lp20
(S'5ht6'
p21
I478
I483
tp22
a(S'5ht6'
p23
I208
I213
tp24
a(S'5ht6'
p25
I565
I570
tp26
a(S'5ht6'
p27
I1764
I1769
tp28
a(S'5ht6'
p29
I194
I204
tp30
a(S'5ht6'
p31
I52
I57
tp32
atp33
Rp34
sS'raw_text_methods'
p35
g3
((lp36
S"(12, u'\\\\bantagonist')"
p37
atp38
Rp39
sS'regions'
p40
g3
((lp41
S"(8, u'(?i)\\\\b(centrals|central)(-|\\\\s+)?(nervouses|nervous)(-|\\\\s+)?(systems|system)\\\\b')"
p42
atp43
Rp44
sS'year'
p45
V2007
p46
sS'species'
p47
g3
((lp48
S"(3, u'(?i)\\\\b(males|male)\\\\b')"
p49
aS"(4, u'(?i)\\\\b(rats|rat)\\\\b')"
p50
atp51
Rp52
sb.