(ifile_types
ParseObject
p0
(dp1
S'antagonists'
p2
c__builtin__
set
p3
((lp4
tp5
Rp6
sS'methods'
p7
g3
((lp8
S'Method.PET'
p9
atp10
Rp11
sS'topics'
p12
g3
((lp13
S"(9, u'\\\\bdepress')"
p14
atp15
Rp16
sS'receptors'
p17
g3
((lp18
S'5ht2a'
p19
atp20
Rp21
sS'regions'
p22
g3
((lp23
S"(219, u'(?i)(basals|basal)(-|\\\\s+)?(ganglias|ganglia)')"
p24
aS"(223, u'(?i)(putamens|putamen)')"
p25
aS"(71, u'(?i)(cerebellums|cerebellum)')"
p26
aS"(34, u'(?i)(pon|pons)')"
p27
atp28
Rp29
sS'year'
p30
V2001
p31
sS'agonists'
p32
g3
((lp33
tp34
Rp35
sS'species'
p36
g3
((lp37
S"(1070, u'(?i)(pets|pet)')"
p38
aS"(2323, u'(?i)(bees|bee)')"
p39
aS"(2568, u'(?i)(hens|hen)')"
p40
aS"(5958, u'(?i)(rats|rat)')"
p41
aS"(6753, u'(?i)(da|das)')"
p42
aS"(468, u'(?i)(oxen|ox)')"
p43
aS"(6249, u'(?i)(ants|ant)')"
p44
aS"(2183, u'(?i)(gars|gar)')"
p45
aS"(1055, u'(?i)(men|man)')"
p46
aS"(4604, u'(?i)(mites|mite)')"
p47
aS"(6356, u'(?i)(ais|ai)')"
p48
aS"(3550, u'(?i)(anis|ani)')"
p49
aS"(1057, u'(?i)(humans|human)')"
p50
aS"(5229, u'(?i)(moles|mole)')"
p51
aS"(6391, u'(?i)(asses|ass)')"
p52
aS"(3812, u'(?i)(studs|stud)')"
p53
aS"(3196, u'(?i)(human|humans)')"
p54
aS"(2809, u'(?i)(toms|tom)')"
p55
aS"(6325, u'(?i)(caudates|caudate)')"
p56
atp57
Rp58
sb.