(ifile_types
ParseObject
p0
(dp1
S'antagonists'
p2
c__builtin__
set
p3
((lp4
S"(32, u'\\\\bway ?100635')"
p5
atp6
Rp7
sS'methods'
p8
g3
((lp9
S'Method.ANTAGONIST'
p10
atp11
Rp12
sS'topics'
p13
g3
((lp14
S"(9, u'\\\\bdepress')"
p15
aS"(3, u'\\\\bsleep')"
p16
aS"(1, u'\\\\bmood')"
p17
atp18
Rp19
sS'receptors'
p20
g3
((lp21
S'5ht5'
p22
aS'5ht1a'
p23
atp24
Rp25
sS'regions'
p26
g3
((lp27
S"(318, u'(?i)(raphes|raphe)(-|\\\\s+)?(nuclei|nucleus)')"
p28
aS"(94, u'(?i)(dorsals|dorsal)(-|\\\\s+)?(raphes|raphe)(-|\\\\s+)?(nuclei|nucleus)')"
p29
atp30
Rp31
sS'year'
p32
V2006
p33
sS'agonists'
p34
g3
((lp35
tp36
Rp37
sS'species'
p38
g3
((lp39
S"(3550, u'(?i)(anis|ani)')"
p40
aS"(6753, u'(?i)(da|das)')"
p41
aS"(2568, u'(?i)(hens|hen)')"
p42
aS"(6356, u'(?i)(ais|ai)')"
p43
aS"(7609, u'(?i)(erns|ern)')"
p44
aS"(5958, u'(?i)(rats|rat)')"
p45
aS"(163, u'(?i)(mice|mouse)')"
p46
aS"(2183, u'(?i)(gars|gar)')"
p47
aS"(4091, u'(?i)(adults|adult)')"
p48
aS"(468, u'(?i)(oxen|ox)')"
p49
aS"(1055, u'(?i)(men|man)')"
p50
aS"(6249, u'(?i)(ants|ant)')"
p51
aS"(4979, u'(?i)(cats|cat)')"
p52
aS"(2395, u'(?i)(mutants|mutant)')"
p53
aS"(6682, u'(?i)(tera|teras)')"
p54
aS"(1961, u'(?i)(pens|pen)')"
p55
aS"(1414, u'(?i)(chars|char)')"
p56
aS"(6391, u'(?i)(asses|ass)')"
p57
aS"(1683, u'(?i)(terns|tern)')"
p58
atp59
Rp60
sb.