(ifile_types
ParseObject
p0
(dp1
S'antagonists'
p2
c__builtin__
set
p3
((lp4
tp5
Rp6
sS'methods'
p7
g3
((lp8
S'Method.AGONIST'
p9
atp10
Rp11
sS'topics'
p12
g3
((lp13
S"(11, u'\\\\banxiolyt')"
p14
aS"(10, u'\\\\banxiety')"
p15
atp16
Rp17
sS'receptors'
p18
g3
((lp19
S'5ht5'
p20
aS'5ht1a'
p21
atp22
Rp23
sS'regions'
p24
g3
((lp25
tp26
Rp27
sS'year'
p28
V1997
p29
sS'agonists'
p30
g3
((lp31
S"(92, u'\\\\b8 ?oh ?dpat')"
p32
atp33
Rp34
sS'species'
p35
g3
((lp36
S"(4624, u'(?i)(apes|ape)')"
p37
aS"(5958, u'(?i)(rats|rat)')"
p38
aS"(6682, u'(?i)(tera|teras)')"
p39
aS"(3051, u'(?i)(pigs|pig)')"
p40
aS"(468, u'(?i)(oxen|ox)')"
p41
aS"(1055, u'(?i)(men|man)')"
p42
aS"(3062, u'(?i)(guineas|guinea)')"
p43
aS"(6753, u'(?i)(da|das)')"
p44
aS"(3550, u'(?i)(anis|ani)')"
p45
aS"(3522, u'(?i)(tetras|tetra)')"
p46
aS"(3812, u'(?i)(studs|stud)')"
p47
aS"(4480, u'(?i)(guineas|guinea)(-|\\\\s+)?(pigs|pig)')"
p48
atp49
Rp50
sb.