(ifile_types
ParseObject
p0
(dp1
S'methods'
p2
c__builtin__
set
p3
((lp4
S'Method.ANTAGONIST'
p5
atp6
Rp7
sS'topics'
p8
g3
((lp9
tp10
Rp11
sS'receptors'
p12
g3
((lp13
(S'5ht3'
p14
I816
I821
tp15
a(S'5ht3'
p16
I155
I160
tp17
a(S'5ht3'
p18
I1696
I1701
tp19
atp20
Rp21
sS'raw_text_methods'
p22
g3
((lp23
S"(12, u'\\\\bantagonist')"
p24
atp25
Rp26
sS'regions'
p27
g3
((lp28
S"(14, u'(?i)\\\\b(caudals|caudal)\\\\b')"
p29
atp30
Rp31
sS'year'
p32
V2007
p33
sS'species'
p34
g3
((lp35
S"(4, u'(?i)\\\\b(rats|rat)\\\\b')"
p36
atp37
Rp38
sb.