(ifile_types
ParseObject
p0
(dp1
S'antagonists'
p2
c__builtin__
set
p3
((lp4
S"(157, u'\\\\bsb ?699551')"
p5
atp6
Rp7
sS'methods'
p8
g3
((lp9
S'Method.KNOCKOUT'
p10
aS'Method.ANTAGONIST'
p11
atp12
Rp13
sS'topics'
p14
g3
((lp15
S"(15, u'\\\\bschizophreni')"
p16
aS"(6, u'\\\\bcognit')"
p17
aS"(9, u'\\\\bdepress')"
p18
aS"(1, u'\\\\bmood')"
p19
atp20
Rp21
sS'receptors'
p22
g3
((lp23
S'5ht5a'
p24
atp25
Rp26
sS'regions'
p27
g3
((lp28
S"(318, u'(?i)\\\\b(raphes|raphe)(-|\\\\s+)?(nuclei|nucleus)\\\\b')"
p29
aS"(248, u'(?i)\\\\b(cerebrals|cerebral)(-|\\\\s+)?(cortexes|cortex)\\\\b')"
p30
aS"(158, u'(?i)\\\\b(suprachiasmatics|suprachiasmatic)(-|\\\\s+)?(nuclei|nucleus)\\\\b')"
p31
atp32
Rp33
sS'year'
p34
V2006
p35
sS'agonists'
p36
g3
((lp37
S"(10, u'\\\\baet')"
p38
atp39
Rp40
sS'species'
p41
g3
((lp42
S"(6092, u'(?i)\\\\b(pointers|pointer)\\\\b')"
p43
aS"(1057, u'(?i)\\\\b(humans|human)\\\\b')"
p44
aS"(163, u'(?i)\\\\b(mice|mouse)\\\\b')"
p45
aS"(3196, u'(?i)\\\\b(human|humans)\\\\b')"
p46
atp47
Rp48
sb.