(ifile_types
ParseObject
p0
(dp1
S'antagonists'
p2
c__builtin__
set
p3
((lp4
tp5
Rp6
sS'methods'
p7
g3
((lp8
S'Method.PET'
p9
atp10
Rp11
sS'topics'
p12
g3
((lp13
S"(20, u'\\\\baggressi')"
p14
aS"(22, u'\\\\bsuicide')"
p15
aS"(9, u'\\\\bdepress')"
p16
aS"(19, u'\\\\bimpulsiv')"
p17
aS"(1, u'\\\\bmood')"
p18
atp19
Rp20
sS'receptors'
p21
g3
((lp22
S'5ht2a'
p23
atp24
Rp25
sS'regions'
p26
g3
((lp27
S"(277, u'(?i)(temporals|temporal)(-|\\\\s+)?(lobes|lobe)')"
p28
aS"(292, u'(?i)(anteriors|anterior)(-|\\\\s+)?(cingulates|cingulate)')"
p29
aS"(254, u'(?i)(prefrontals|prefrontal)(-|\\\\s+)?(cortexes|cortex)')"
p30
aS"(126, u'(?i)(thalamuses|thalamus)')"
p31
aS"(255, u'(?i)(pres|pre)(-|\\\\s+)?(frontals|frontal)(-|\\\\s+)?(cortexes|cortex)')"
p32
aS"(34, u'(?i)(pon|pons)')"
p33
atp34
Rp35
sS'year'
p36
V2007
p37
sS'agonists'
p38
g3
((lp39
tp40
Rp41
sS'species'
p42
g3
((lp43
S"(5537, u'(?i)(hippos|hippo)')"
p44
aS"(6753, u'(?i)(da|das)')"
p45
aS"(5958, u'(?i)(rats|rat)')"
p46
aS"(6125, u'(?i)(females|female)')"
p47
aS"(5743, u'(?i)(bots|bot)')"
p48
aS"(5967, u'(?i)(males|male)')"
p49
aS"(6682, u'(?i)(tera|teras)')"
p50
aS"(1055, u'(?i)(men|man)')"
p51
aS"(4964, u'(?i)(serins|serin)')"
p52
aS"(6249, u'(?i)(ants|ant)')"
p53
aS"(1961, u'(?i)(pens|pen)')"
p54
aS"(3812, u'(?i)(studs|stud)')"
p55
aS"(6391, u'(?i)(asses|ass)')"
p56
aS"(2809, u'(?i)(toms|tom)')"
p57
atp58
Rp59
sb.