(ifile_types
ParseObject
p0
(dp1
S'antagonists'
p2
c__builtin__
set
p3
((lp4
S"(1, u'\\\\balprenolol')"
p5
aS"(5, u'\\\\bcyanopindolol')"
p6
aS"(14, u'\\\\bmethiothepin')"
p7
aS"(209, u'\\\\btfmpp')"
p8
aS"(22, u'\\\\bpropranolol')"
p9
atp10
Rp11
sS'methods'
p12
g3
((lp13
S'Method.STIMULATION'
p14
aS'Method.ANTAGONIST'
p15
aS'Method.AGONIST'
p16
atp17
Rp18
sS'topics'
p19
g3
((lp20
tp21
Rp22
sS'receptors'
p23
g3
((lp24
S'5ht1b'
p25
atp26
Rp27
sS'regions'
p28
g3
((lp29
S"(34, u'(?i)(pon|pons)')"
p30
atp31
Rp32
sS'year'
p33
V1990
p34
sS'agonists'
p35
g3
((lp36
S"(56, u'\\\\blsd')"
p37
aS"(74, u'\\\\bru ?24969')"
p38
aS"(183, u'\\\\btfmpp')"
p39
atp40
Rp41
sS'species'
p42
g3
((lp43
S"(2323, u'(?i)(bees|bee)')"
p44
aS"(5958, u'(?i)(rats|rat)')"
p45
aS"(468, u'(?i)(oxen|ox)')"
p46
aS"(6249, u'(?i)(ants|ant)')"
p47
aS"(1414, u'(?i)(chars|char)')"
p48
aS"(6391, u'(?i)(asses|ass)')"
p49
aS"(1628, u'(?i)(cod|cod)')"
p50
atp51
Rp52
sb.