(ifile_types
ParseObject
p0
(dp1
S'antagonists'
p2
c__builtin__
set
p3
((lp4
S"(118, u'\\\\bly ?53857')"
p5
aS"(203, u'\\\\btfmpp')"
p6
aS"(17, u'\\\\bnan ?190')"
p7
aS"(58, u'\\\\bhaloperidol')"
p8
atp9
Rp10
sS'methods'
p11
g3
((lp12
S'Method.ANTAGONIST'
p13
aS'Method.AGONIST'
p14
atp15
Rp16
sS'topics'
p17
g3
((lp18
tp19
Rp20
sS'receptors'
p21
g3
((lp22
S'5ht1b'
p23
aS'5ht1a'
p24
aS'5ht2c'
p25
aS'5ht2'
p26
aS'5ht2a'
p27
atp28
Rp29
sS'regions'
p30
g3
((lp31
tp32
Rp33
sS'year'
p34
V1995
p35
sS'agonists'
p36
g3
((lp37
S"(166, u'\\\\bmk ?212')"
p38
aS"(178, u'\\\\btfmpp')"
p39
aS"(192, u'\\\\bquipazine')"
p40
aS"(67, u'\\\\bru ?24969')"
p41
aS"(155, u'\\\\bmcpp')"
p42
aS"(43, u'\\\\bhaloperidol')"
p43
aS"(85, u'\\\\b8 ?oh ?dpat')"
p44
atp45
Rp46
sS'species'
p47
g3
((lp48
S"(6753, u'(?i)\\\\b(da|das)\\\\b')"
p49
aS"(5958, u'(?i)\\\\b(rats|rat)\\\\b')"
p50
atp51
Rp52
sb.