(ifile_types
ParseObject
p0
(dp1
S'antagonists'
p2
c__builtin__
set
p3
((lp4
S"(14, u'\\\\bmethiothepin')"
p5
aS"(117, u'\\\\bketanserin')"
p6
atp7
Rp8
sS'methods'
p9
g3
((lp10
S'Method.ANTAGONIST'
p11
aS'Method.AGONIST'
p12
atp13
Rp14
sS'topics'
p15
g3
((lp16
tp17
Rp18
sS'receptors'
p19
g3
((lp20
S'5ht7'
p21
aS'5ht5'
p22
atp23
Rp24
sS'regions'
p25
g3
((lp26
tp27
Rp28
sS'year'
p29
V2014
p30
sS'agonists'
p31
g3
((lp32
S"(220, u'\\\\b5 ?methoxytryptamine')"
p33
aS"(98, u'\\\\b5 ?carboxamidotryptamine')"
p34
atp35
Rp36
sS'species'
p37
g3
((lp38
S"(2621, u'(?i)\\\\b(vertebrates|vertebrate)\\\\b')"
p39
aS"(2443, u'(?i)\\\\b(beetles|beetle)\\\\b')"
p40
aS"(5156, u'(?i)\\\\b(invertebrates|invertebrate)\\\\b')"
p41
aS"(2634, u'(?i)\\\\b(flours|flour)(-|\\\\s+)?(beetles|beetle)\\\\b')"
p42
aS"(1253, u'(?i)\\\\b(insects|insect)\\\\b')"
p43
atp44
Rp45
sb.