(ifile_types
ParseObject
p0
(dp1
S'methods'
p2
c__builtin__
set
p3
((lp4
S'Method.PET'
p5
atp6
Rp7
sS'topics'
p8
g3
((lp9
S"(22, u'\\\\bschizophreni')"
p10
aS"(1, u'\\\\bpatient')"
p11
aS"(3, u'\\\\bclinical')"
p12
aS"(2, u'\\\\bdisorder')"
p13
atp14
Rp15
sS'receptors'
p16
g3
((lp17
(S'5ht2a'
p18
I851
I857
tp19
atp20
Rp21
sS'raw_text_methods'
p22
g3
((lp23
S"(17, u'\\\\bpet')"
p24
aS"(19, u'\\\\bpositron emission tomography')"
p25
aS"(18, u'\\\\bimaging')"
p26
atp27
Rp28
sS'regions'
p29
g3
((lp30
S"(19, u'(?i)\\\\b(cortexes|cortex)\\\\b')"
p31
atp32
Rp33
sS'year'
p34
V1999
p35
sS'species'
p36
g3
((lp37
tp38
Rp39
sb.