(ifile_types
ParseObject
p0
(dp1
S'methods'
p2
c__builtin__
set
p3
((lp4
S'Method.ANTAGONIST'
p5
aS'Method.AGONIST'
p6
atp7
Rp8
sS'topics'
p9
g3
((lp10
tp11
Rp12
sS'receptors'
p13
g3
((lp14
(S'5ht2a'
p15
I765
I771
tp16
a(S'5ht2'
p17
I546
I551
tp18
a(S'5ht2'
p19
I384
I389
tp20
a(S'5ht2'
p21
I988
I993
tp22
a(S'5ht2'
p23
I671
I676
tp24
a(S'5ht2'
p25
I294
I299
tp26
atp27
Rp28
sS'raw_text_methods'
p29
g3
((lp30
S"(13, u'\\\\bagonist')"
p31
aS"(9, u'\\\\britanserin')"
p32
aS"(49, u'\\\\bdoi')"
p33
aS"(23, u'\\\\bmdl')"
p34
aS"(12, u'\\\\bantagonist')"
p35
atp36
Rp37
sS'regions'
p38
g3
((lp39
S"(16, u'(?i)\\\\b(drns|drn)\\\\b')"
p40
atp41
Rp42
sS'year'
p43
V2005
p44
sS'species'
p45
g3
((lp46
tp47
Rp48
sb.