(ifile_types
ParseObject
p0
(dp1
S'methods'
p2
c__builtin__
set
p3
((lp4
S'Method.ANTAGONIST'
p5
aS'Method.AGONIST'
p6
atp7
Rp8
sS'topics'
p9
g3
((lp10
S"(22, u'\\\\bschizophreni')"
p11
aS"(17, u'\\\\balzheimer')"
p12
aS"(4, u'\\\\btreatment')"
p13
aS"(3, u'\\\\bclinical')"
p14
atp15
Rp16
sS'receptors'
p17
g3
((lp18
(S'5ht7'
p19
I40
I45
tp20
a(S'5ht7'
p21
I951
I956
tp22
a(S'5ht7'
p23
I1436
I1441
tp24
a(S'5ht5'
p25
I225
I235
tp26
a(S'5ht1a'
p27
I885
I891
tp28
a(S'5ht1a'
p29
I1102
I1108
tp30
a(S'5ht7'
p31
I896
I901
tp32
a(S'5ht1a'
p33
I1461
I1467
tp34
atp35
Rp36
sS'raw_text_methods'
p37
g3
((lp38
S"(13, u'\\\\bagonist')"
p39
aS"(15, u'\\\\b8ohdpat')"
p40
aS"(34, u'\\\\b5ct')"
p41
aS"(12, u'\\\\bantagonist')"
p42
atp43
Rp44
sS'regions'
p45
g3
((lp46
S"(19, u'(?i)\\\\b(cortexes|cortex)\\\\b')"
p47
aS"(3, u'(?i)\\\\b(postsynaptics|postsynaptic)\\\\b')"
p48
atp49
Rp50
sS'year'
p51
V2016
p52
sS'species'
p53
g3
((lp54
S"(4, u'(?i)\\\\b(rats|rat)\\\\b')"
p55
atp56
Rp57
sb.