(ifile_types
ParseObject
p0
(dp1
S'antagonists'
p2
c__builtin__
set
p3
((lp4
tp5
Rp6
sS'methods'
p7
g3
((lp8
S'Method.AGONIST'
p9
atp10
Rp11
sS'topics'
p12
g3
((lp13
S"(37, u'\\\\baddict')"
p14
aS"(15, u'\\\\bschizophreni')"
p15
aS"(9, u'\\\\bdepress')"
p16
aS"(10, u'\\\\banxiety')"
p17
aS"(20, u'\\\\baggressi')"
p18
atp19
Rp20
sS'receptors'
p21
g3
((lp22
S'5ht1a'
p23
aS'5ht2a'
p24
atp25
Rp26
sS'regions'
p27
g3
((lp28
tp29
Rp30
sS'year'
p31
V2010
p32
sS'agonists'
p33
g3
((lp34
S"(149, u'\\\\bmem')"
p35
aS"(85, u'\\\\b8 ?oh ?dpat')"
p36
atp37
Rp38
sS'species'
p39
g3
((lp40
S"(163, u'(?i)\\\\b(mice|mouse)\\\\b')"
p41
atp42
Rp43
sb.