(ifile_types
ParseObject
p0
(dp1
S'methods'
p2
c__builtin__
set
p3
((lp4
S'Method.PET'
p5
atp6
Rp7
sS'topics'
p8
g3
((lp9
tp10
Rp11
sS'receptors'
p12
g3
((lp13
(S'5ht2a'
p14
I48
I54
tp15
a(S'5ht2a'
p16
I916
I922
tp17
a(S'5ht2a'
p18
I240
I251
tp19
a(S'5ht2a'
p20
I591
I597
tp21
a(S'5ht2a'
p22
I263
I269
tp23
atp24
Rp25
sS'raw_text_methods'
p26
g3
((lp27
S"(17, u'\\\\bpet')"
p28
aS"(19, u'\\\\bpositron emission tomography')"
p29
atp30
Rp31
sS'regions'
p32
g3
((lp33
S"(22, u'(?i)\\\\b(anteriors|anterior)(-|\\\\s+)?(cingulates|cingulate)\\\\b')"
p34
aS"(17, u'(?i)\\\\b(caudates|caudate)\\\\b')"
p35
aS"(18, u'(?i)\\\\b(putamens|putamen)\\\\b')"
p36
atp37
Rp38
sS'year'
p39
V2011
p40
sS'species'
p41
g3
((lp42
tp43
Rp44
sb.