(ifile_types
ParseObject
p0
(dp1
S'antagonists'
p2
c__builtin__
set
p3
((lp4
S"(53, u'\\\\bketanserin')"
p5
aS"(128, u'\\\\bketanserin')"
p6
aS"(135, u'\\\\bondansetron')"
p7
aS"(17, u'\\\\bnan ?190')"
p8
aS"(22, u'\\\\bpropranolol')"
p9
atp10
Rp11
sS'methods'
p12
g3
((lp13
S'Method.ANTAGONIST'
p14
atp15
Rp16
sS'topics'
p17
g3
((lp18
S"(4, u'\\\\blocomot')"
p19
atp20
Rp21
sS'receptors'
p22
g3
((lp23
S'5ht3'
p24
aS'5ht1a'
p25
aS'5ht3a'
p26
aS'5ht2c'
p27
aS'5ht2a'
p28
atp29
Rp30
sS'regions'
p31
g3
((lp32
tp33
Rp34
sS'year'
p35
V2017
p36
sS'agonists'
p37
g3
((lp38
S"(214, u'\\\\bsulpiride')"
p39
atp40
Rp41
sS'species'
p42
g3
((lp43
S"(6753, u'(?i)(da|das)')"
p44
aS"(2568, u'(?i)(hens|hen)')"
p45
aS"(3601, u'(?i)(efts|eft)')"
p46
aS"(5958, u'(?i)(rats|rat)')"
p47
aS"(163, u'(?i)(mice|mouse)')"
p48
aS"(6356, u'(?i)(ais|ai)')"
p49
aS"(1055, u'(?i)(men|man)')"
p50
aS"(6249, u'(?i)(ants|ant)')"
p51
aS"(4964, u'(?i)(serins|serin)')"
p52
aS"(3550, u'(?i)(anis|ani)')"
p53
aS"(1961, u'(?i)(pens|pen)')"
p54
aS"(3812, u'(?i)(studs|stud)')"
p55
aS"(6391, u'(?i)(asses|ass)')"
p56
aS"(391, u'(?i)(alli|allis)')"
p57
aS"(5743, u'(?i)(bots|bot)')"
p58
aS"(4979, u'(?i)(cats|cat)')"
p59
atp60
Rp61
sb.