(ifile_types
ParseObject
p0
(dp1
S'methods'
p2
c__builtin__
set
p3
((lp4
S'Method.ANTAGONIST'
p5
atp6
Rp7
sS'topics'
p8
g3
((lp9
S"(5, u'\\\\btherap')"
p10
aS"(26, u'\\\\bbehav')"
p11
aS"(33, u'\\\\blocomot')"
p12
aS"(3, u'\\\\bclinical')"
p13
atp14
Rp15
sS'receptors'
p16
g3
((lp17
(S'5ht1a'
p18
I823
I829
tp19
a(S'5ht2b'
p20
I921
I927
tp21
a(S'5ht2c'
p22
I971
I977
tp23
a(S'5ht2c'
p24
I1511
I1518
tp25
a(S'5ht1a'
p26
I1500
I1506
tp27
a(S'5ht2a'
p28
I871
I877
tp29
a(S'5ht2b'
p30
I1288
I1294
tp31
a(S'5ht2c'
p32
I1288
I1295
tp33
a(S'5ht1a'
p34
I1277
I1283
tp35
a(S'5ht2b'
p36
I1511
I1517
tp37
a(S'5ht2'
p38
I1476
I1481
tp39
atp40
Rp41
sS'raw_text_methods'
p42
g3
((lp43
S"(51, u'\\\\bway100635')"
p44
aS"(23, u'\\\\bmdl')"
p45
aS"(12, u'\\\\bantagonist')"
p46
atp47
Rp48
sS'regions'
p49
g3
((lp50
tp51
Rp52
sS'year'
p53
V2016
p54
sS'species'
p55
g3
((lp56
S"(2, u'(?i)\\\\b(females|female)\\\\b')"
p57
aS"(3, u'(?i)\\\\b(males|male)\\\\b')"
p58
aS"(4, u'(?i)\\\\b(rats|rat)\\\\b')"
p59
atp60
Rp61
sb.