(ifile_types
ParseObject
p0
(dp1
S'methods'
p2
c__builtin__
set
p3
((lp4
tp5
Rp6
sS'topics'
p7
g3
((lp8
S"(22, u'\\\\bschizophreni')"
p9
aS"(23, u'\\\\bantipsychotic')"
p10
atp11
Rp12
sS'receptors'
p13
g3
((lp14
(S'5ht2a'
p15
I164
I170
tp16
a(S'5ht2a'
p17
I1629
I1635
tp18
a(S'5ht2a'
p19
I569
I575
tp20
a(S'5ht2a'
p21
I1290
I1296
tp22
a(S'5ht2a'
p23
I275
I281
tp24
a(S'5ht2a'
p25
I1424
I1430
tp26
a(S'5ht2a'
p27
I864
I870
tp28
atp29
Rp30
sS'raw_text_methods'
p31
g3
((lp32
tp33
Rp34
sS'regions'
p35
g3
((lp36
tp37
Rp38
sS'year'
p39
V2010
p40
sS'species'
p41
g3
((lp42
tp43
Rp44
sb.