(ifile_types
ParseObject
p0
(dp1
S'antagonists'
p2
c__builtin__
set
p3
((lp4
S"(53, u'\\\\bketanserin')"
p5
aS"(52, u'\\\\bmetergoline')"
p6
aS"(128, u'\\\\bketanserin')"
p7
aS"(117, u'\\\\bmianserin')"
p8
aS"(22, u'\\\\bpropranolol')"
p9
aS"(35, u'\\\\bmetergoline')"
p10
atp11
Rp12
sS'methods'
p13
g3
((lp14
S'Method.ANTAGONIST'
p15
aS'Method.AGONIST'
p16
atp17
Rp18
sS'topics'
p19
g3
((lp20
tp21
Rp22
sS'receptors'
p23
g3
((lp24
S'5ht1c'
p25
aS'5ht5'
p26
aS'5ht2a'
p27
aS'5ht1a'
p28
aS'5ht2'
p29
atp30
Rp31
sS'regions'
p32
g3
((lp33
tp34
Rp35
sS'year'
p36
V1993
p37
sS'agonists'
p38
g3
((lp39
S"(161, u'\\\\bmcpp')"
p40
aS"(92, u'\\\\b8 ?oh ?dpat')"
p41
aS"(33, u'\\\\bdoi')"
p42
atp43
Rp44
sS'species'
p45
g3
((lp46
S"(2568, u'(?i)(hens|hen)')"
p47
aS"(4964, u'(?i)(serins|serin)')"
p48
aS"(468, u'(?i)(oxen|ox)')"
p49
aS"(7488, u'(?i)(molas|mola)')"
p50
aS"(6249, u'(?i)(ants|ant)')"
p51
aS"(5743, u'(?i)(bots|bot)')"
p52
aS"(5958, u'(?i)(rats|rat)')"
p53
aS"(3522, u'(?i)(tetras|tetra)')"
p54
aS"(3812, u'(?i)(studs|stud)')"
p55
aS"(6356, u'(?i)(ais|ai)')"
p56
atp57
Rp58
sb.