(ifile_types
ParseObject
p0
(dp1
S'methods'
p2
c__builtin__
set
p3
((lp4
S'Method.ANTAGONIST'
p5
aS'Method.AGONIST'
p6
atp7
Rp8
sS'topics'
p9
g3
((lp10
S"(22, u'\\\\bschizophreni')"
p11
aS"(5, u'\\\\btherap')"
p12
aS"(23, u'\\\\bantipsychotic')"
p13
atp14
Rp15
sS'receptors'
p16
g3
((lp17
(S'5ht2c'
p18
I42
I50
tp19
a(S'5ht2a'
p20
I1181
I1187
tp21
a(S'5ht2a'
p22
I233
I239
tp23
a(S'5ht2a'
p24
I42
I48
tp25
a(S'5ht2c'
p26
I233
I241
tp27
a(S'5ht2c'
p28
I987
I995
tp29
a(S'5ht2a'
p30
I987
I993
tp31
atp32
Rp33
sS'raw_text_methods'
p34
g3
((lp35
S"(13, u'\\\\bagonist')"
p36
aS"(9, u'\\\\britanserin')"
p37
aS"(42, u'\\\\bneuroleptics')"
p38
aS"(23, u'\\\\bmdl')"
p39
aS"(12, u'\\\\bantagonist')"
p40
atp41
Rp42
sS'regions'
p43
g3
((lp44
S"(15, u'(?i)\\\\b(substantias|substantia)(-|\\\\s+)?(nigras|nigra)\\\\b')"
p45
aS"(3, u'(?i)\\\\b(postsynaptics|postsynaptic)\\\\b')"
p46
atp47
Rp48
sS'year'
p49
V1995
p50
sS'species'
p51
g3
((lp52
S"(4, u'(?i)\\\\b(rats|rat)\\\\b')"
p53
atp54
Rp55
sb.