(ifile_types
ParseObject
p0
(dp1
S'methods'
p2
c__builtin__
set
p3
((lp4
tp5
Rp6
sS'topics'
p7
g3
((lp8
S"(4, u'\\\\btreatment')"
p9
aS"(3, u'\\\\bclinical')"
p10
atp11
Rp12
sS'receptors'
p13
g3
((lp14
(S'5ht1b'
p15
I1263
I1269
tp16
atp17
Rp18
sS'raw_text_methods'
p19
g3
((lp20
S"(38, u'\\\\bssri')"
p21
aS"(39, u'\\\\bselective serotonin reuptake inhibitor')"
p22
atp23
Rp24
sS'regions'
p25
g3
((lp26
S"(4, u'(?i)\\\\b(presynaptics|presynaptic)\\\\b')"
p27
atp28
Rp29
sS'year'
p30
V1995
p31
sS'species'
p32
g3
((lp33
S"(4, u'(?i)\\\\b(rats|rat)\\\\b')"
p34
atp35
Rp36
sb.