(ifile_types
ParseObject
p0
(dp1
S'antagonists'
p2
c__builtin__
set
p3
((lp4
tp5
Rp6
sS'methods'
p7
g3
((lp8
S'Method.AGONIST'
p9
atp10
Rp11
sS'topics'
p12
g3
((lp13
S"(18, u'\\\\bpsychostim')"
p14
aS"(4, u'\\\\blocomot')"
p15
atp16
Rp17
sS'receptors'
p18
g3
((lp19
S'5ht1a'
p20
atp21
Rp22
sS'regions'
p23
g3
((lp24
S"(34, u'(?i)(pon|pons)')"
p25
atp26
Rp27
sS'year'
p28
V2005
p29
sS'agonists'
p30
g3
((lp31
S"(92, u'\\\\b8 ?oh ?dpat')"
p32
atp33
Rp34
sS'species'
p35
g3
((lp36
S"(2568, u'(?i)(hens|hen)')"
p37
aS"(1055, u'(?i)(men|man)')"
p38
aS"(6249, u'(?i)(ants|ant)')"
p39
aS"(5743, u'(?i)(bots|bot)')"
p40
aS"(5958, u'(?i)(rats|rat)')"
p41
aS"(3812, u'(?i)(studs|stud)')"
p42
aS"(6391, u'(?i)(asses|ass)')"
p43
aS"(6356, u'(?i)(ais|ai)')"
p44
atp45
Rp46
sb.