(ifile_types
ParseObject
p0
(dp1
S'antagonists'
p2
c__builtin__
set
p3
((lp4
S"(91, u'\\\\bfluoxetine')"
p5
aS"(113, u'\\\\brisperidone')"
p6
aS"(58, u'\\\\bhaloperidol')"
p7
atp8
Rp9
sS'methods'
p10
g3
((lp11
S'Method.KNOCKOUT'
p12
aS'Method.ANTAGONIST'
p13
aS'Method.AGONIST'
p14
atp15
Rp16
sS'topics'
p17
g3
((lp18
S"(18, u'\\\\bpsychostim')"
p19
atp20
Rp21
sS'receptors'
p22
g3
((lp23
S'5ht1a'
p24
atp25
Rp26
sS'regions'
p27
g3
((lp28
tp29
Rp30
sS'year'
p31
V2003
p32
sS'agonists'
p33
g3
((lp34
S"(11, u'\\\\bamphetamine')"
p35
aS"(85, u'\\\\b8 ?oh ?dpat')"
p36
aS"(43, u'\\\\bhaloperidol')"
p37
atp38
Rp39
sS'species'
p40
g3
((lp41
S"(163, u'(?i)\\\\b(mice|mouse)\\\\b')"
p42
atp43
Rp44
sb.