(ifile_types
ParseObject
p0
(dp1
S'antagonists'
p2
c__builtin__
set
p3
((lp4
tp5
Rp6
sS'methods'
p7
g3
((lp8
S'Method.STIMULATION'
p9
aS'Method.AGONIST'
p10
atp11
Rp12
sS'topics'
p13
g3
((lp14
tp15
Rp16
sS'receptors'
p17
g3
((lp18
S'5ht1f'
p19
atp20
Rp21
sS'regions'
p22
g3
((lp23
tp24
Rp25
sS'year'
p26
V1997
p27
sS'agonists'
p28
g3
((lp29
S"(120, u'\\\\bly344864')"
p30
atp31
Rp32
sS'species'
p33
g3
((lp34
S"(1057, u'(?i)\\\\b(humans|human)\\\\b')"
p35
aS"(5958, u'(?i)\\\\b(rats|rat)\\\\b')"
p36
aS"(3196, u'(?i)\\\\b(human|humans)\\\\b')"
p37
atp38
Rp39
sb.