(ifile_types
ParseObject
p0
(dp1
S'antagonists'
p2
c__builtin__
set
p3
((lp4
S"(67, u'\\\\bhaloperidol')"
p5
aS"(123, u'\\\\bclozapine')"
p6
aS"(142, u'\\\\bm1')"
p7
aS"(56, u'\\\\bclozapine')"
p8
atp9
Rp10
sS'methods'
p11
g3
((lp12
S'Method.ANTAGONIST'
p13
aS'Method.AGONIST'
p14
atp15
Rp16
sS'topics'
p17
g3
((lp18
S"(15, u'\\\\bschizophreni')"
p19
atp20
Rp21
sS'receptors'
p22
g3
((lp23
S'5ht2c'
p24
aS'5ht2a'
p25
atp26
Rp27
sS'regions'
p28
g3
((lp29
S"(254, u'(?i)(prefrontals|prefrontal)(-|\\\\s+)?(cortexes|cortex)')"
p30
aS"(255, u'(?i)(pres|pre)(-|\\\\s+)?(frontals|frontal)(-|\\\\s+)?(cortexes|cortex)')"
p31
atp32
Rp33
sS'year'
p34
V2008
p35
sS'agonists'
p36
g3
((lp37
S"(33, u'\\\\bdoi')"
p38
aS"(48, u'\\\\bhaloperidol')"
p39
aS"(27, u'\\\\bclozapine')"
p40
atp41
Rp42
sS'species'
p43
g3
((lp44
S"(6753, u'(?i)(da|das)')"
p45
aS"(5958, u'(?i)(rats|rat)')"
p46
aS"(5743, u'(?i)(bots|bot)')"
p47
aS"(6682, u'(?i)(tera|teras)')"
p48
aS"(6580, u'(?i)(dams|dam)')"
p49
aS"(3592, u'(?i)(ravens|raven)')"
p50
aS"(6249, u'(?i)(ants|ant)')"
p51
aS"(1055, u'(?i)(men|man)')"
p52
aS"(4979, u'(?i)(cats|cat)')"
p53
aS"(3550, u'(?i)(anis|ani)')"
p54
aS"(7094, u'(?i)(curs|cur)')"
p55
aS"(6391, u'(?i)(asses|ass)')"
p56
aS"(1414, u'(?i)(chars|char)')"
p57
aS"(1349, u'(?i)(rams|ram)')"
p58
aS"(2809, u'(?i)(toms|tom)')"
p59
aS"(6356, u'(?i)(ais|ai)')"
p60
atp61
Rp62
sb.