(ifile_types
ParseObject
p0
(dp1
S'antagonists'
p2
c__builtin__
set
p3
((lp4
S"(203, u'\\\\btfmpp')"
p5
atp6
Rp7
sS'methods'
p8
g3
((lp9
S'Method.ANTAGONIST'
p10
aS'Method.AGONIST'
p11
atp12
Rp13
sS'topics'
p14
g3
((lp15
tp16
Rp17
sS'receptors'
p18
g3
((lp19
S'5ht1c'
p20
aS'5ht1b'
p21
aS'5ht1a'
p22
atp23
Rp24
sS'regions'
p25
g3
((lp26
S"(96, u'(?i)\\\\b(ventrals|ventral)(-|\\\\s+)?(tegmentals|tegmental)(-|\\\\s+)?(areas|area)\\\\b')"
p27
atp28
Rp29
sS'year'
p30
V1994
p31
sS'agonists'
p32
g3
((lp33
S"(76, u'\\\\btrifluoromethylphenylpiperazine')"
p34
aS"(178, u'\\\\btfmpp')"
p35
aS"(155, u'\\\\bmcpp')"
p36
aS"(85, u'\\\\b8 ?oh ?dpat')"
p37
atp38
Rp39
sS'species'
p40
g3
((lp41
S"(6753, u'(?i)\\\\b(da|das)\\\\b')"
p42
aS"(5958, u'(?i)\\\\b(rats|rat)\\\\b')"
p43
atp44
Rp45
sb.