(ifile_types
ParseObject
p0
(dp1
S'methods'
p2
c__builtin__
set
p3
((lp4
S'Method.PET'
p5
atp6
Rp7
sS'topics'
p8
g3
((lp9
S"(4, u'\\\\btreatment')"
p10
aS"(2, u'\\\\bdisorder')"
p11
atp12
Rp13
sS'receptors'
p14
g3
((lp15
(S'5ht1a'
p16
I121
I127
tp17
a(S'5ht1'
p18
I1216
I1221
tp19
a(S'5ht1'
p20
I832
I837
tp21
a(S'5ht1a'
p22
I240
I251
tp23
a(S'5ht1'
p24
I709
I714
tp25
a(S'5ht1'
p26
I263
I268
tp27
a(S'5ht1'
p28
I1533
I1538
tp29
a(S'5ht1'
p30
I508
I513
tp31
atp32
Rp33
sS'raw_text_methods'
p34
g3
((lp35
S"(17, u'\\\\bpet')"
p36
aS"(19, u'\\\\bpositron emission tomography')"
p37
atp38
Rp39
sS'regions'
p40
g3
((lp41
S"(11, u'(?i)\\\\b(cerebrals|cerebral)\\\\b')"
p42
aS"(19, u'(?i)\\\\b(cortexes|cortex)\\\\b')"
p43
atp44
Rp45
sS'year'
p46
V2020
p47
sS'species'
p48
g3
((lp49
tp50
Rp51
sb.