(ifile_types
ParseObject
p0
(dp1
S'antagonists'
p2
c__builtin__
set
p3
((lp4
tp5
Rp6
sS'methods'
p7
g3
((lp8
S'Method.PET'
p9
atp10
Rp11
sS'topics'
p12
g3
((lp13
S"(9, u'\\\\bdepress')"
p14
atp15
Rp16
sS'receptors'
p17
g3
((lp18
S'5ht1a'
p19
atp20
Rp21
sS'regions'
p22
g3
((lp23
S"(209, u'(?i)\\\\b(amygdalas|amygdala)\\\\b')"
p24
aS"(318, u'(?i)\\\\b(raphes|raphe)(-|\\\\s+)?(nuclei|nucleus)\\\\b')"
p25
atp26
Rp27
sS'year'
p28
V2009
p29
sS'agonists'
p30
g3
((lp31
tp32
Rp33
sS'species'
p34
g3
((lp35
S"(5967, u'(?i)\\\\b(males|male)\\\\b')"
p36
aS"(6125, u'(?i)\\\\b(females|female)\\\\b')"
p37
aS"(1070, u'(?i)\\\\b(pets|pet)\\\\b')"
p38
atp39
Rp40
sb.