(ifile_types
ParseObject
p0
(dp1
S'antagonists'
p2
c__builtin__
set
p3
((lp4
tp5
Rp6
sS'methods'
p7
g3
((lp8
S'Method.AGONIST'
p9
atp10
Rp11
sS'topics'
p12
g3
((lp13
S"(32, u'\\\\bnausea')"
p14
aS"(28, u'\\\\bemesis')"
p15
aS"(11, u'\\\\banxiolyt')"
p16
atp17
Rp18
sS'receptors'
p19
g3
((lp20
S'5ht1a'
p21
aS'5ht3a'
p22
aS'5ht1d'
p23
atp24
Rp25
sS'regions'
p26
g3
((lp27
tp28
Rp29
sS'year'
p30
V1997
p31
sS'agonists'
p32
g3
((lp33
S"(85, u'\\\\b8 ?oh ?dpat')"
p34
aS"(48, u'\\\\bly ?301317')"
p35
atp36
Rp37
sS'species'
p38
g3
((lp39
S"(5949, u'(?i)\\\\b(dogs|dog)\\\\b')"
p40
aS"(4979, u'(?i)\\\\b(cats|cat)\\\\b')"
p41
aS"(5958, u'(?i)\\\\b(rats|rat)\\\\b')"
p42
aS"(1312, u'(?i)\\\\b(pigeons|pigeon)\\\\b')"
p43
atp44
Rp45
sb.