(ifile_types
ParseObject
p0
(dp1
S'antagonists'
p2
c__builtin__
set
p3
((lp4
tp5
Rp6
sS'methods'
p7
g3
((lp8
S'Method.ANTAGONIST'
p9
aS'Method.AGONIST'
p10
atp11
Rp12
sS'topics'
p13
g3
((lp14
S"(8, u'\\\\blearning')"
p15
aS"(33, u'\\\\balzheimers')"
p16
aS"(6, u'\\\\bcognit')"
p17
aS"(7, u'\\\\bmemory')"
p18
atp19
Rp20
sS'receptors'
p21
g3
((lp22
S'5ht3'
p23
atp24
Rp25
sS'regions'
p26
g3
((lp27
tp28
Rp29
sS'year'
p30
V2011
p31
sS'agonists'
p32
g3
((lp33
S"(155, u'\\\\bmem')"
p34
atp35
Rp36
sS'species'
p37
g3
((lp38
S"(2323, u'(?i)(bees|bee)')"
p39
aS"(4624, u'(?i)(apes|ape)')"
p40
aS"(5799, u'(?i)(rodents|rodent)')"
p41
aS"(2568, u'(?i)(hens|hen)')"
p42
aS"(6753, u'(?i)(da|das)')"
p43
aS"(5743, u'(?i)(bots|bot)')"
p44
aS"(2389, u'(?i)(spats|spat)')"
p45
aS"(1725, u'(?i)(clams|clam)')"
p46
aS"(468, u'(?i)(oxen|ox)')"
p47
aS"(1055, u'(?i)(men|man)')"
p48
aS"(6249, u'(?i)(ants|ant)')"
p49
aS"(7488, u'(?i)(molas|mola)')"
p50
aS"(4979, u'(?i)(cats|cat)')"
p51
aS"(5958, u'(?i)(rats|rat)')"
p52
aS"(1057, u'(?i)(humans|human)')"
p53
aS"(5229, u'(?i)(moles|mole)')"
p54
aS"(6391, u'(?i)(asses|ass)')"
p55
aS"(3812, u'(?i)(studs|stud)')"
p56
aS"(3196, u'(?i)(human|humans)')"
p57
aS"(6356, u'(?i)(ais|ai)')"
p58
atp59
Rp60
sb.