(ifile_types
ParseObject
p0
(dp1
S'methods'
p2
c__builtin__
set
p3
((lp4
S'Method.ANTAGONIST'
p5
atp6
Rp7
sS'topics'
p8
g3
((lp9
S"(3, u'\\\\bclinical')"
p10
atp11
Rp12
sS'receptors'
p13
g3
((lp14
(S'5ht1b'
p15
I786
I792
tp16
a(S'5ht3'
p17
I267
I272
tp18
a(S'5ht1a'
p19
I778
I784
tp20
a(S'5ht3'
p21
I44
I49
tp22
a(S'5ht1c'
p23
I786
I793
tp24
a(S'5ht1'
p25
I796
I802
tp26
a(S'5ht3'
p27
I423
I428
tp28
a(S'5ht1c'
p29
I796
I802
tp30
a(S'5ht3'
p31
I687
I692
tp32
a(S'5ht1'
p33
I764
I769
tp34
a(S'5ht2'
p35
I771
I776
tp36
atp37
Rp38
sS'raw_text_methods'
p39
g3
((lp40
S"(36, u'\\\\bbenzodiazepine')"
p41
aS"(12, u'\\\\bantagonist')"
p42
atp43
Rp44
sS'regions'
p45
g3
((lp46
tp47
Rp48
sS'year'
p49
V1990
p50
sS'species'
p51
g3
((lp52
S"(4, u'(?i)\\\\b(rats|rat)\\\\b')"
p53
atp54
Rp55
sb.