(ifile_types
ParseObject
p0
(dp1
S'antagonists'
p2
c__builtin__
set
p3
((lp4
S"(23, u'\\\\brisperidone')"
p5
aS"(123, u'\\\\bclozapine')"
p6
aS"(56, u'\\\\bclozapine')"
p7
aS"(67, u'\\\\bhaloperidol')"
p8
aS"(120, u'\\\\bfluphenazine')"
p9
aS"(122, u'\\\\bthioridazine')"
p10
aS"(59, u'\\\\brisperidone')"
p11
aS"(68, u'\\\\bchlorpromazine')"
p12
aS"(27, u'\\\\bspiperone')"
p13
atp14
Rp15
sS'methods'
p16
g3
((lp17
S'Method.ANTAGONIST'
p18
atp19
Rp20
sS'topics'
p21
g3
((lp22
tp23
Rp24
sS'receptors'
p25
g3
((lp26
S'5ht5'
p27
aS'5ht2c'
p28
aS'5ht2a'
p29
atp30
Rp31
sS'regions'
p32
g3
((lp33
tp34
Rp35
sS'year'
p36
V1994
p37
sS'agonists'
p38
g3
((lp39
S"(48, u'\\\\bhaloperidol')"
p40
aS"(214, u'\\\\bsulpiride')"
p41
aS"(27, u'\\\\bclozapine')"
p42
atp43
Rp44
sS'species'
p45
g3
((lp46
S"(1070, u'(?i)(pets|pet)')"
p47
aS"(6753, u'(?i)(da|das)')"
p48
aS"(2568, u'(?i)(hens|hen)')"
p49
aS"(867, u'(?i)(tits|tit)')"
p50
aS"(5743, u'(?i)(bots|bot)')"
p51
aS"(6682, u'(?i)(tera|teras)')"
p52
aS"(468, u'(?i)(oxen|ox)')"
p53
aS"(3404, u'(?i)(titis|titi)')"
p54
aS"(6249, u'(?i)(ants|ant)')"
p55
aS"(4979, u'(?i)(cats|cat)')"
p56
aS"(7094, u'(?i)(curs|cur)')"
p57
aS"(5958, u'(?i)(rats|rat)')"
p58
aS"(3426, u'(?i)(hares|hare)')"
p59
aS"(3812, u'(?i)(studs|stud)')"
p60
atp61
Rp62
sb.