(ifile_types
ParseObject
p0
(dp1
S'antagonists'
p2
c__builtin__
set
p3
((lp4
tp5
Rp6
sS'methods'
p7
g3
((lp8
S'Method.STAINING'
p9
aS'Method.IMMUNOHISTOCHEMISTRY'
p10
atp11
Rp12
sS'topics'
p13
g3
((lp14
S"(5, u'\\\\bgastrointestin')"
p15
aS"(21, u'\\\\bpain')"
p16
aS"(9, u'\\\\bdepress')"
p17
aS"(10, u'\\\\banxiety')"
p18
atp19
Rp20
sS'receptors'
p21
g3
((lp22
S'5ht3a'
p23
aS'5ht5'
p24
aS'5ht4'
p25
aS'5ht3'
p26
atp27
Rp28
sS'regions'
p29
g3
((lp30
S"(292, u'(?i)(anteriors|anterior)(-|\\\\s+)?(cingulates|cingulate)')"
p31
aS"(254, u'(?i)(prefrontals|prefrontal)(-|\\\\s+)?(cortexes|cortex)')"
p32
aS"(255, u'(?i)(pres|pre)(-|\\\\s+)?(frontals|frontal)(-|\\\\s+)?(cortexes|cortex)')"
p33
aS"(290, u'(?i)(insulars|insular)(-|\\\\s+)?(cortexes|cortex)')"
p34
aS"(291, u'(?i)(cingulates|cingulate)(-|\\\\s+)?(cortexes|cortex)')"
p35
atp36
Rp37
sS'year'
p38
V2015
p39
sS'agonists'
p40
g3
((lp41
tp42
Rp43
sS'species'
p44
g3
((lp45
S"(5176, u'(?i)(tegs|teg)')"
p46
aS"(5958, u'(?i)(rats|rat)')"
p47
aS"(3601, u'(?i)(efts|eft)')"
p48
aS"(2431, u'(?i)(rheas|rhea)')"
p49
aS"(4979, u'(?i)(cats|cat)')"
p50
aS"(468, u'(?i)(oxen|ox)')"
p51
aS"(1055, u'(?i)(men|man)')"
p52
aS"(853, u'(?i)(minas|mina)')"
p53
aS"(6249, u'(?i)(ants|ant)')"
p54
aS"(6356, u'(?i)(ais|ai)')"
p55
aS"(2809, u'(?i)(toms|tom)')"
p56
aS"(5743, u'(?i)(bots|bot)')"
p57
atp58
Rp59
sb.