(ifile_types
ParseObject
p0
(dp1
S'methods'
p2
c__builtin__
set
p3
((lp4
S'Method.ANTAGONIST'
p5
atp6
Rp7
sS'topics'
p8
g3
((lp9
S"(22, u'\\\\bschizophreni')"
p10
aS"(14, u'\\\\bcogniti')"
p11
aS"(26, u'\\\\bbehav')"
p12
aS"(16, u'\\\\blearning')"
p13
aS"(15, u'\\\\bmemory')"
p14
aS"(4, u'\\\\btreatment')"
p15
atp16
Rp17
sS'receptors'
p18
g3
((lp19
(S'5ht5a'
p20
I1174
I1180
tp21
a(S'5ht5a'
p22
I986
I992
tp23
a(S'5ht5a'
p24
I1466
I1472
tp25
a(S'5ht5a'
p26
I1652
I1658
tp27
a(S'5ht5a'
p28
I247
I253
tp29
a(S'5ht5a'
p30
I790
I796
tp31
a(S'5ht5a'
p32
I440
I446
tp33
a(S'5ht5a'
p34
I36
I42
tp35
a(S'5ht5a'
p36
I1570
I1576
tp37
a(S'5ht5a'
p38
I1727
I1733
tp39
a(S'5ht5a'
p40
I601
I607
tp41
atp42
Rp43
sS'raw_text_methods'
p44
g3
((lp45
S"(27, u'\\\\blsd')"
p46
aS"(29, u'\\\\bdiethylamide')"
p47
aS"(12, u'\\\\bantagonist')"
p48
atp49
Rp50
sS'regions'
p51
g3
((lp52
S"(11, u'(?i)\\\\b(cerebrals|cerebral)\\\\b')"
p53
aS"(19, u'(?i)\\\\b(cortexes|cortex)\\\\b')"
p54
atp55
Rp56
sS'year'
p57
V2015
p58
sS'species'
p59
g3
((lp60
S"(1, u'(?i)\\\\b(mice|mouse)\\\\b')"
p61
aS"(6, u'(?i)\\\\b(rodents|rodent)\\\\b')"
p62
aS"(5, u'(?i)\\\\b(mices|mice)\\\\b')"
p63
aS"(4, u'(?i)\\\\b(rats|rat)\\\\b')"
p64
atp65
Rp66
sb.