(ifile_types
ParseObject
p0
(dp1
S'methods'
p2
c__builtin__
set
p3
((lp4
S'Method.ANTAGONIST'
p5
aS'Method.AGONIST'
p6
atp7
Rp8
sS'topics'
p9
g3
((lp10
S"(26, u'\\\\bbehav')"
p11
aS"(4, u'\\\\btreatment')"
p12
atp13
Rp14
sS'receptors'
p15
g3
((lp16
(S'5ht7'
p17
I491
I496
tp18
a(S'5ht1a'
p19
I705
I711
tp20
a(S'5ht1a'
p21
I327
I333
tp22
a(S'5ht1a'
p23
I464
I470
tp24
a(S'5ht7'
p25
I259
I264
tp26
a(S'5ht1a'
p27
I1076
I1082
tp28
a(S'5ht1a'
p29
I1392
I1398
tp30
a(S'5ht7'
p31
I1006
I1011
tp32
a(S'5ht7'
p33
I1272
I1277
tp34
atp35
Rp36
sS'raw_text_methods'
p37
g3
((lp38
S"(13, u'\\\\bagonist')"
p39
aS"(34, u'\\\\b5ct')"
p40
aS"(12, u'\\\\bantagonist')"
p41
atp42
Rp43
sS'regions'
p44
g3
((lp45
tp46
Rp47
sS'year'
p48
V2007
p49
sS'species'
p50
g3
((lp51
S"(2, u'(?i)\\\\b(females|female)\\\\b')"
p52
aS"(4, u'(?i)\\\\b(rats|rat)\\\\b')"
p53
atp54
Rp55
sb.