(ifile_types
ParseObject
p0
(dp1
S'methods'
p2
c__builtin__
set
p3
((lp4
S'Method.ANTAGONIST'
p5
atp6
Rp7
sS'topics'
p8
g3
((lp9
S"(5, u'\\\\btherap')"
p10
aS"(26, u'\\\\bbehav')"
p11
aS"(4, u'\\\\btreatment')"
p12
atp13
Rp14
sS'receptors'
p15
g3
((lp16
(S'5ht3'
p17
I650
I655
tp18
a(S'5ht3'
p19
I931
I936
tp20
a(S'5ht3'
p21
I2012
I2017
tp22
a(S'5ht3'
p23
I55
I60
tp24
atp25
Rp26
sS'raw_text_methods'
p27
g3
((lp28
S"(3, u'\\\\bimmunoreactiv')"
p29
aS"(20, u'\\\\bondansetron')"
p30
aS"(12, u'\\\\bantagonist')"
p31
atp32
Rp33
sS'regions'
p34
g3
((lp35
S"(19, u'(?i)\\\\b(cortexes|cortex)\\\\b')"
p36
aS"(11, u'(?i)\\\\b(cerebrals|cerebral)\\\\b')"
p37
aS"(9, u'(?i)\\\\b(cerebellums|cerebellum)\\\\b')"
p38
atp39
Rp40
sS'year'
p41
V2019
p42
sS'species'
p43
g3
((lp44
S"(4, u'(?i)\\\\b(rats|rat)\\\\b')"
p45
atp46
Rp47
sb.