(ifile_types
ParseObject
p0
(dp1
S'antagonists'
p2
c__builtin__
set
p3
((lp4
S"(26, u'\\\\bsdz ?216525')"
p5
aS"(21, u'\\\\bpindolol')"
p6
atp7
Rp8
sS'methods'
p9
g3
((lp10
S'Method.ANTAGONIST'
p11
aS'Method.AGONIST'
p12
atp13
Rp14
sS'topics'
p15
g3
((lp16
S"(16, u'\\\\bfeed')"
p17
atp18
Rp19
sS'receptors'
p20
g3
((lp21
S'5ht1a'
p22
atp23
Rp24
sS'regions'
p25
g3
((lp26
S"(34, u'(?i)(pon|pons)')"
p27
atp28
Rp29
sS'year'
p30
V1994
p31
sS'agonists'
p32
g3
((lp33
S"(92, u'\\\\b8 ?oh ?dpat')"
p34
atp35
Rp36
sS'species'
p37
g3
((lp38
S"(2323, u'(?i)(bees|bee)')"
p39
aS"(5537, u'(?i)(hippos|hippo)')"
p40
aS"(5958, u'(?i)(rats|rat)')"
p41
aS"(5743, u'(?i)(bots|bot)')"
p42
aS"(6249, u'(?i)(ants|ant)')"
p43
aS"(3812, u'(?i)(studs|stud)')"
p44
aS"(3550, u'(?i)(anis|ani)')"
p45
aS"(1414, u'(?i)(chars|char)')"
p46
aS"(6356, u'(?i)(ais|ai)')"
p47
atp48
Rp49
sb.