(ifile_types
ParseObject
p0
(dp1
S'antagonists'
p2
c__builtin__
set
p3
((lp4
tp5
Rp6
sS'methods'
p7
g3
((lp8
S'Method.ANTAGONIST'
p9
aS'Method.AGONIST'
p10
atp11
Rp12
sS'topics'
p13
g3
((lp14
S"(16, u'\\\\bfeed')"
p15
atp16
Rp17
sS'receptors'
p18
g3
((lp19
S'5ht2b'
p20
aS'5ht2c'
p21
aS'5ht2a'
p22
atp23
Rp24
sS'regions'
p25
g3
((lp26
tp27
Rp28
sS'year'
p29
V2017
p30
sS'agonists'
p31
g3
((lp32
tp33
Rp34
sS'species'
p35
g3
((lp36
S"(2323, u'(?i)(bees|bee)')"
p37
aS"(3550, u'(?i)(anis|ani)')"
p38
aS"(5958, u'(?i)(rats|rat)')"
p39
aS"(931, u'(?i)(divers|diver)')"
p40
aS"(7609, u'(?i)(erns|ern)')"
p41
aS"(6753, u'(?i)(da|das)')"
p42
aS"(4371, u'(?i)(lizas|liza)')"
p43
aS"(1055, u'(?i)(men|man)')"
p44
aS"(6249, u'(?i)(ants|ant)')"
p45
aS"(1249, u'(?i)(carp|carp)')"
p46
aS"(4979, u'(?i)(cats|cat)')"
p47
aS"(2395, u'(?i)(mutants|mutant)')"
p48
aS"(1961, u'(?i)(pens|pen)')"
p49
aS"(3812, u'(?i)(studs|stud)')"
p50
aS"(6391, u'(?i)(asses|ass)')"
p51
atp52
Rp53
sb.