(ifile_types
ParseObject
p0
(dp1
S'antagonists'
p2
c__builtin__
set
p3
((lp4
S"(67, u'\\\\bhaloperidol')"
p5
aS"(123, u'\\\\bclozapine')"
p6
aS"(56, u'\\\\bclozapine')"
p7
atp8
Rp9
sS'methods'
p10
g3
((lp11
S'Method.ANTAGONIST'
p12
aS'Method.AGONIST'
p13
atp14
Rp15
sS'topics'
p16
g3
((lp17
S"(15, u'\\\\bschizophreni')"
p18
aS"(6, u'\\\\bcognit')"
p19
atp20
Rp21
sS'receptors'
p22
g3
((lp23
S'5ht1a'
p24
aS'5ht2a'
p25
atp26
Rp27
sS'regions'
p28
g3
((lp29
tp30
Rp31
sS'year'
p32
V2003
p33
sS'agonists'
p34
g3
((lp35
S"(48, u'\\\\bhaloperidol')"
p36
aS"(27, u'\\\\bclozapine')"
p37
atp38
Rp39
sS'species'
p40
g3
((lp41
S"(2568, u'(?i)(hens|hen)')"
p42
aS"(5958, u'(?i)(rats|rat)')"
p43
aS"(6753, u'(?i)(da|das)')"
p44
aS"(1055, u'(?i)(men|man)')"
p45
aS"(6249, u'(?i)(ants|ant)')"
p46
aS"(4979, u'(?i)(cats|cat)')"
p47
aS"(3550, u'(?i)(anis|ani)')"
p48
aS"(3812, u'(?i)(studs|stud)')"
p49
aS"(6356, u'(?i)(ais|ai)')"
p50
atp51
Rp52
sb.