(ifile_types
ParseObject
p0
(dp1
S'methods'
p2
c__builtin__
set
p3
((lp4
S'Method.AGONIST'
p5
atp6
Rp7
sS'topics'
p8
g3
((lp9
tp10
Rp11
sS'receptors'
p12
g3
((lp13
(S'5ht2c'
p14
I473
I479
tp15
a(S'5ht2c'
p16
I873
I879
tp17
a(S'5ht2c'
p18
I1677
I1683
tp19
a(S'5ht2c'
p20
I692
I698
tp21
a(S'5ht2c'
p22
I416
I422
tp23
a(S'5ht2c'
p24
I56
I62
tp25
a(S'5ht2c'
p26
I1088
I1096
tp27
a(S'5ht2a'
p28
I1088
I1094
tp29
atp30
Rp31
sS'raw_text_methods'
p32
g3
((lp33
S"(13, u'\\\\bagonist')"
p34
aS"(49, u'\\\\bdoi')"
p35
atp36
Rp37
sS'regions'
p38
g3
((lp39
tp40
Rp41
sS'year'
p42
V2008
p43
sS'species'
p44
g3
((lp45
S"(4, u'(?i)\\\\b(rats|rat)\\\\b')"
p46
atp47
Rp48
sb.