(ifile_types
ParseObject
p0
(dp1
S'methods'
p2
c__builtin__
set
p3
((lp4
S'Method.AGONIST'
p5
atp6
Rp7
sS'topics'
p8
g3
((lp9
S"(6, u'\\\\baggressi')"
p10
aS"(26, u'\\\\bbehav')"
p11
atp12
Rp13
sS'receptors'
p14
g3
((lp15
(S'5ht1a'
p16
I1862
I1868
tp17
a(S'5ht1a'
p18
I2182
I2188
tp19
a(S'5ht1a'
p20
I62
I68
tp21
atp22
Rp23
sS'raw_text_methods'
p24
g3
((lp25
S"(13, u'\\\\bagonist')"
p26
atp27
Rp28
sS'regions'
p29
g3
((lp30
S"(4, u'(?i)\\\\b(presynaptics|presynaptic)\\\\b')"
p31
aS"(3, u'(?i)\\\\b(postsynaptics|postsynaptic)\\\\b')"
p32
atp33
Rp34
sS'year'
p35
V2005
p36
sS'species'
p37
g3
((lp38
S"(1, u'(?i)\\\\b(mice|mouse)\\\\b')"
p39
aS"(5, u'(?i)\\\\b(mices|mice)\\\\b')"
p40
aS"(3, u'(?i)\\\\b(males|male)\\\\b')"
p41
atp42
Rp43
sb.