(ifile_types
ParseObject
p0
(dp1
S'methods'
p2
c__builtin__
set
p3
((lp4
S'Method.ANTAGONIST'
p5
atp6
Rp7
sS'topics'
p8
g3
((lp9
tp10
Rp11
sS'receptors'
p12
g3
((lp13
(S'5ht3'
p14
I490
I495
tp15
a(S'5ht3'
p16
I1535
I1540
tp17
a(S'5ht3'
p18
I1773
I1778
tp19
a(S'5ht3'
p20
I1923
I1928
tp21
a(S'5ht3'
p22
I1487
I1492
tp23
a(S'5ht4'
p24
I1487
I1493
tp25
a(S'5ht3'
p26
I2712
I2717
tp27
atp28
Rp29
sS'raw_text_methods'
p30
g3
((lp31
S"(4, u'\\\\bpcpa')"
p32
aS"(12, u'\\\\bantagonist')"
p33
atp34
Rp35
sS'regions'
p36
g3
((lp37
tp38
Rp39
sS'year'
p40
V2001
p41
sS'species'
p42
g3
((lp43
S"(4, u'(?i)\\\\b(rats|rat)\\\\b')"
p44
atp45
Rp46
sb.