(ifile_types
ParseObject
p0
(dp1
S'methods'
p2
c__builtin__
set
p3
((lp4
S'Method.ANTAGONIST'
p5
aS'Method.AGONIST'
p6
atp7
Rp8
sS'topics'
p9
g3
((lp10
tp11
Rp12
sS'receptors'
p13
g3
((lp14
(S'5ht1b'
p15
I87
I98
tp16
atp17
Rp18
sS'raw_text_methods'
p19
g3
((lp20
S"(13, u'\\\\bagonist')"
p21
aS"(12, u'\\\\bantagonist')"
p22
atp23
Rp24
sS'regions'
p25
g3
((lp26
tp27
Rp28
sS'year'
p29
V2010
p30
sS'species'
p31
g3
((lp32
S"(4, u'(?i)\\\\b(rats|rat)\\\\b')"
p33
atp34
Rp35
sb.