(ifile_types
ParseObject
p0
(dp1
S'antagonists'
p2
c__builtin__
set
p3
((lp4
tp5
Rp6
sS'methods'
p7
g3
((lp8
S'Method.AGONIST'
p9
atp10
Rp11
sS'topics'
p12
g3
((lp13
tp14
Rp15
sS'receptors'
p16
g3
((lp17
S'5ht1b'
p18
aS'5ht1a'
p19
aS'5ht1'
p20
atp21
Rp22
sS'regions'
p23
g3
((lp24
S"(203, u'(?i)\\\\b(dentates|dentate)(-|\\\\s+)?(gyruses|gyrus)\\\\b')"
p25
atp26
Rp27
sS'year'
p28
V1990
p29
sS'agonists'
p30
g3
((lp31
S"(20, u'\\\\bbuspirone')"
p32
aS"(11, u'\\\\bamphetamine')"
p33
aS"(85, u'\\\\b8 ?oh ?dpat')"
p34
aS"(67, u'\\\\bru ?24969')"
p35
atp36
Rp37
sS'species'
p38
g3
((lp39
S"(5958, u'(?i)\\\\b(rats|rat)\\\\b')"
p40
atp41
Rp42
sb.