(ifile_types
ParseObject
p0
(dp1
S'antagonists'
p2
c__builtin__
set
p3
((lp4
S"(32, u'\\\\bway ?100635')"
p5
aS"(102, u'\\\\bfluoxetine')"
p6
atp7
Rp8
sS'methods'
p9
g3
((lp10
S'Method.ANTAGONIST'
p11
aS'Method.AGONIST'
p12
atp13
Rp14
sS'topics'
p15
g3
((lp16
S"(3, u'\\\\bsleep')"
p17
atp18
Rp19
sS'receptors'
p20
g3
((lp21
S'5ht1a'
p22
atp23
Rp24
sS'regions'
p25
g3
((lp26
tp27
Rp28
sS'year'
p29
V2003
p30
sS'agonists'
p31
g3
((lp32
S"(92, u'\\\\b8 ?oh ?dpat')"
p33
aS"(24, u'\\\\bbuspirone')"
p34
aS"(169, u'\\\\bfenfluramine')"
p35
atp36
Rp37
sS'species'
p38
g3
((lp39
S"(5958, u'(?i)(rats|rat)')"
p40
aS"(468, u'(?i)(oxen|ox)')"
p41
aS"(1055, u'(?i)(men|man)')"
p42
aS"(6249, u'(?i)(ants|ant)')"
p43
aS"(1349, u'(?i)(rams|ram)')"
p44
aS"(6753, u'(?i)(da|das)')"
p45
aS"(3550, u'(?i)(anis|ani)')"
p46
aS"(3522, u'(?i)(tetras|tetra)')"
p47
aS"(7127, u'(?i)(monitors|monitor)')"
p48
aS"(1961, u'(?i)(pens|pen)')"
p49
aS"(3812, u'(?i)(studs|stud)')"
p50
aS"(5949, u'(?i)(dogs|dog)')"
p51
atp52
Rp53
sb.