(ifile_types
ParseObject
p0
(dp1
S'antagonists'
p2
c__builtin__
set
p3
((lp4
tp5
Rp6
sS'methods'
p7
g3
((lp8
S'Method.PET'
p9
atp10
Rp11
sS'topics'
p12
g3
((lp13
tp14
Rp15
sS'receptors'
p16
g3
((lp17
S'5ht1b'
p18
atp19
Rp20
sS'regions'
p21
g3
((lp22
S"(71, u'(?i)\\\\b(cerebellums|cerebellum)\\\\b')"
p23
aS"(223, u'(?i)\\\\b(putamens|putamen)\\\\b')"
p24
aS"(209, u'(?i)\\\\b(amygdalas|amygdala)\\\\b')"
p25
aS"(292, u'(?i)\\\\b(anteriors|anterior)(-|\\\\s+)?(cingulates|cingulate)\\\\b')"
p26
atp27
Rp28
sS'year'
p29
V2015
p30
sS'agonists'
p31
g3
((lp32
tp33
Rp34
sS'species'
p35
g3
((lp36
S"(1070, u'(?i)\\\\b(pets|pet)\\\\b')"
p37
atp38
Rp39
sb.