(ifile_types
ParseObject
p0
(dp1
S'antagonists'
p2
c__builtin__
set
p3
((lp4
S"(175, u'\\\\bsb ?742457')"
p5
atp6
Rp7
sS'methods'
p8
g3
((lp9
S'Method.ANTAGONIST'
p10
atp11
Rp12
sS'topics'
p13
g3
((lp14
S"(6, u'\\\\bcognit')"
p15
aS"(9, u'\\\\bdepress')"
p16
aS"(7, u'\\\\bmemory')"
p17
aS"(20, u'\\\\baggressi')"
p18
aS"(34, u'\\\\bdementia')"
p19
aS"(14, u'\\\\bpsychosis')"
p20
aS"(8, u'\\\\blearning')"
p21
atp22
Rp23
sS'receptors'
p24
g3
((lp25
S'5ht6'
p26
atp27
Rp28
sS'regions'
p29
g3
((lp30
S"(220, u'(?i)(striatums|striatum)')"
p31
atp32
Rp33
sS'year'
p34
V2012
p35
sS'agonists'
p36
g3
((lp37
S"(155, u'\\\\bmem')"
p38
atp39
Rp40
sS'species'
p41
g3
((lp42
S"(2323, u'(?i)(bees|bee)')"
p43
aS"(5537, u'(?i)(hippos|hippo)')"
p44
aS"(6753, u'(?i)(da|das)')"
p45
aS"(5958, u'(?i)(rats|rat)')"
p46
aS"(5743, u'(?i)(bots|bot)')"
p47
aS"(4091, u'(?i)(adults|adult)')"
p48
aS"(6682, u'(?i)(tera|teras)')"
p49
aS"(1055, u'(?i)(men|man)')"
p50
aS"(6249, u'(?i)(ants|ant)')"
p51
aS"(4979, u'(?i)(cats|cat)')"
p52
aS"(3550, u'(?i)(anis|ani)')"
p53
aS"(3247, u'(?i)(youngs|young)')"
p54
atp55
Rp56
sb.