(ifile_types
ParseObject
p0
(dp1
S'methods'
p2
c__builtin__
set
p3
((lp4
S'Method.ANTAGONIST'
p5
atp6
Rp7
sS'topics'
p8
g3
((lp9
S"(4, u'\\\\btreatment')"
p10
atp11
Rp12
sS'receptors'
p13
g3
((lp14
(S'5ht1b'
p15
I1324
I1332
tp16
a(S'5ht2c'
p17
I1390
I1398
tp18
a(S'5ht1a'
p19
I1283
I1289
tp20
a(S'5ht1a'
p21
I1324
I1330
tp22
a(S'5ht1'
p23
I1324
I1332
tp24
a(S'5ht2a'
p25
I1390
I1396
tp26
a(S'5ht4'
p27
I1205
I1210
tp28
a(S'5ht4'
p29
I162
I167
tp30
a(S'5ht2'
p31
I1390
I1398
tp32
a(S'5ht4'
p33
I1884
I1889
tp34
atp35
Rp36
sS'raw_text_methods'
p37
g3
((lp38
S"(7, u'\\\\bpropranolol')"
p39
aS"(20, u'\\\\bondansetron')"
p40
aS"(9, u'\\\\britanserin')"
p41
aS"(12, u'\\\\bantagonist')"
p42
atp43
Rp44
sS'regions'
p45
g3
((lp46
S"(19, u'(?i)\\\\b(cortexes|cortex)\\\\b')"
p47
atp48
Rp49
sS'year'
p50
V1997
p51
sS'species'
p52
g3
((lp53
S"(4, u'(?i)\\\\b(rats|rat)\\\\b')"
p54
atp55
Rp56
sb.