(ifile_types
ParseObject
p0
(dp1
S'antagonists'
p2
c__builtin__
set
p3
((lp4
S"(58, u'\\\\bhaloperidol')"
p5
atp6
Rp7
sS'methods'
p8
g3
((lp9
tp10
Rp11
sS'topics'
p12
g3
((lp13
S"(4, u'\\\\blocomot')"
p14
atp15
Rp16
sS'receptors'
p17
g3
((lp18
S'5ht1a'
p19
atp20
Rp21
sS'regions'
p22
g3
((lp23
tp24
Rp25
sS'year'
p26
V2000
p27
sS'agonists'
p28
g3
((lp29
S"(85, u'\\\\b8 ?oh ?dpat')"
p30
aS"(43, u'\\\\bhaloperidol')"
p31
atp32
Rp33
sS'species'
p34
g3
((lp35
S"(5958, u'(?i)\\\\b(rats|rat)\\\\b')"
p36
atp37
Rp38
sb.