(ifile_types
ParseObject
p0
(dp1
S'antagonists'
p2
c__builtin__
set
p3
((lp4
S"(182, u'\\\\bsb ?258585')"
p5
atp6
Rp7
sS'methods'
p8
g3
((lp9
tp10
Rp11
sS'topics'
p12
g3
((lp13
S"(11, u'\\\\banxiolyt')"
p14
aS"(10, u'\\\\banxiety')"
p15
aS"(30, u'\\\\bparkinsons')"
p16
atp17
Rp18
sS'receptors'
p19
g3
((lp20
S'5ht6'
p21
atp22
Rp23
sS'regions'
p24
g3
((lp25
S"(215, u'(?i)(basolaterals|basolateral)(-|\\\\s+)?(amygdalas|amygdala)')"
p26
aS"(209, u'(?i)(amygdalas|amygdala)')"
p27
aS"(310, u'(?i)(medials|medial)(-|\\\\s+)?(forebrains|forebrain)(-|\\\\s+)?(bundles|bundle)')"
p28
aS"(254, u'(?i)(prefrontals|prefrontal)(-|\\\\s+)?(cortexes|cortex)')"
p29
aS"(255, u'(?i)(pres|pre)(-|\\\\s+)?(frontals|frontal)(-|\\\\s+)?(cortexes|cortex)')"
p30
aS"(214, u'(?i)(laterals|lateral)(-|\\\\s+)?(amygdalas|amygdala)')"
p31
atp32
Rp33
sS'year'
p34
V2018
p35
sS'agonists'
p36
g3
((lp37
S"(219, u'\\\\bway ?208466')"
p38
atp39
Rp40
sS'species'
p41
g3
((lp42
S"(5537, u'(?i)(hippos|hippo)')"
p43
aS"(5958, u'(?i)(rats|rat)')"
p44
aS"(6753, u'(?i)(da|das)')"
p45
aS"(6682, u'(?i)(tera|teras)')"
p46
aS"(468, u'(?i)(oxen|ox)')"
p47
aS"(1055, u'(?i)(men|man)')"
p48
aS"(3726, u'(?i)(mates|mate)')"
p49
aS"(6356, u'(?i)(ais|ai)')"
p50
aS"(3550, u'(?i)(anis|ani)')"
p51
aS"(3812, u'(?i)(studs|stud)')"
p52
atp53
Rp54
sb.