(ifile_types
ParseObject
p0
(dp1
S'methods'
p2
c__builtin__
set
p3
((lp4
S'Method.ANTAGONIST'
p5
aS'Method.AGONIST'
p6
atp7
Rp8
sS'topics'
p9
g3
((lp10
S"(5, u'\\\\btherap')"
p11
atp12
Rp13
sS'receptors'
p14
g3
((lp15
(S'5ht1a'
p16
I1201
I1207
tp17
a(S'5ht1a'
p18
I1795
I1801
tp19
a(S'5ht1'
p20
I56
I61
tp21
a(S'5ht1a'
p22
I117
I123
tp23
a(S'5ht1a'
p24
I260
I266
tp25
a(S'5ht1a'
p26
I1008
I1014
tp27
a(S'5ht1a'
p28
I363
I369
tp29
a(S'5ht1a'
p30
I2286
I2291
tp31
a(S'5ht1a'
p32
I852
I858
tp33
atp34
Rp35
sS'raw_text_methods'
p36
g3
((lp37
S"(13, u'\\\\bagonist')"
p38
aS"(15, u'\\\\b8ohdpat')"
p39
aS"(24, u'\\\\bgepirone')"
p40
aS"(12, u'\\\\bantagonist')"
p41
atp42
Rp43
sS'regions'
p44
g3
((lp45
tp46
Rp47
sS'year'
p48
V1994
p49
sS'species'
p50
g3
((lp51
S"(4, u'(?i)\\\\b(rats|rat)\\\\b')"
p52
atp53
Rp54
sb.