(ifile_types
ParseObject
p0
(dp1
S'methods'
p2
c__builtin__
set
p3
((lp4
S'Method.AGONIST'
p5
atp6
Rp7
sS'topics'
p8
g3
((lp9
S"(31, u'\\\\brespiratory')"
p10
aS"(7, u'\\\\bdepressi')"
p11
aS"(4, u'\\\\btreatment')"
p12
atp13
Rp14
sS'receptors'
p15
g3
((lp16
(S'5ht1a'
p17
I969
I975
tp18
a(S'5ht1a'
p19
I1319
I1325
tp20
a(S'5ht1a'
p21
I1086
I1092
tp22
atp23
Rp24
sS'raw_text_methods'
p25
g3
((lp26
S"(13, u'\\\\bagonist')"
p27
aS"(22, u'\\\\bbuspirone')"
p28
atp29
Rp30
sS'regions'
p31
g3
((lp32
S"(8, u'(?i)\\\\b(centrals|central)(-|\\\\s+)?(nervouses|nervous)(-|\\\\s+)?(systems|system)\\\\b')"
p33
atp34
Rp35
sS'year'
p36
V1997
p37
sS'species'
p38
g3
((lp39
S"(4, u'(?i)\\\\b(rats|rat)\\\\b')"
p40
atp41
Rp42
sb.