(ifile_types
ParseObject
p0
(dp1
S'antagonists'
p2
c__builtin__
set
p3
((lp4
tp5
Rp6
sS'methods'
p7
g3
((lp8
S'Method.OPTOGENETICS'
p9
atp10
Rp11
sS'topics'
p12
g3
((lp13
S"(6, u'\\\\bcognit')"
p14
atp15
Rp16
sS'receptors'
p17
g3
((lp18
S'5ht7'
p19
aS'5ht5'
p20
aS'5ht2c'
p21
aS'5ht2a'
p22
atp23
Rp24
sS'regions'
p25
g3
((lp26
S"(44, u'(?i)\\\\b(cochlears|cochlear)(-|\\\\s+)?(nuclei|nucleus)(-|\\\\s+)?(|)\\\\b')"
p27
atp28
Rp29
sS'year'
p30
V2015
p31
sS'agonists'
p32
g3
((lp33
tp34
Rp35
sS'species'
p36
g3
((lp37
S"(163, u'(?i)\\\\b(mice|mouse)\\\\b')"
p38
atp39
Rp40
sb.