(ifile_types
ParseObject
p0
(dp1
S'antagonists'
p2
c__builtin__
set
p3
((lp4
S"(111, u'\\\\bolanzapine')"
p5
aS"(110, u'\\\\bclozapine')"
p6
aS"(114, u'\\\\bziprasidone')"
p7
aS"(31, u'\\\\bway ?100635')"
p8
atp9
Rp10
sS'methods'
p11
g3
((lp12
S'Method.ANTAGONIST'
p13
aS'Method.AGONIST'
p14
atp15
Rp16
sS'topics'
p17
g3
((lp18
tp19
Rp20
sS'receptors'
p21
g3
((lp22
S'5ht1a'
p23
aS'5ht2a'
p24
aS'5ht2'
p25
aS'5ht1d'
p26
atp27
Rp28
sS'regions'
p29
g3
((lp30
S"(94, u'(?i)\\\\b(dorsals|dorsal)(-|\\\\s+)?(raphes|raphe)(-|\\\\s+)?(nuclei|nucleus)\\\\b')"
p31
aS"(318, u'(?i)\\\\b(raphes|raphe)(-|\\\\s+)?(nuclei|nucleus)\\\\b')"
p32
atp33
Rp34
sS'year'
p35
V1999
p36
sS'agonists'
p37
g3
((lp38
S"(57, u'\\\\bolanzapine')"
p39
aS"(23, u'\\\\bclozapine')"
p40
aS"(84, u'\\\\bziprasidone')"
p41
atp42
Rp43
sS'species'
p44
g3
((lp45
S"(5958, u'(?i)\\\\b(rats|rat)\\\\b')"
p46
atp47
Rp48
sb.