(ifile_types
ParseObject
p0
(dp1
S'antagonists'
p2
c__builtin__
set
p3
((lp4
S"(23, u'\\\\brisperidone')"
p5
aS"(123, u'\\\\bclozapine')"
p6
aS"(56, u'\\\\bclozapine')"
p7
aS"(67, u'\\\\bhaloperidol')"
p8
aS"(120, u'\\\\bfluphenazine')"
p9
aS"(59, u'\\\\brisperidone')"
p10
atp11
Rp12
sS'methods'
p13
g3
((lp14
S'Method.ANTAGONIST'
p15
atp16
Rp17
sS'topics'
p18
g3
((lp19
tp20
Rp21
sS'receptors'
p22
g3
((lp23
S'5ht5'
p24
aS'5ht3'
p25
aS'5ht2'
p26
aS'5ht1'
p27
atp28
Rp29
sS'regions'
p30
g3
((lp31
tp32
Rp33
sS'year'
p34
V2004
p35
sS'agonists'
p36
g3
((lp37
S"(48, u'\\\\bhaloperidol')"
p38
aS"(155, u'\\\\bmem')"
p39
aS"(27, u'\\\\bclozapine')"
p40
atp41
Rp42
sS'species'
p43
g3
((lp44
S"(1266, u'(?i)(embryos|embryo)')"
p45
aS"(937, u'(?i)(kids|kid)')"
p46
aS"(3404, u'(?i)(titis|titi)')"
p47
aS"(6356, u'(?i)(ais|ai)')"
p48
aS"(7094, u'(?i)(curs|cur)')"
p49
aS"(6249, u'(?i)(ants|ant)')"
p50
aS"(3812, u'(?i)(studs|stud)')"
p51
aS"(3196, u'(?i)(human|humans)')"
p52
aS"(7003, u'(?i)(murines|murine)')"
p53
aS"(1070, u'(?i)(pets|pet)')"
p54
aS"(1725, u'(?i)(clams|clam)')"
p55
aS"(1349, u'(?i)(rams|ram)')"
p56
aS"(3550, u'(?i)(anis|ani)')"
p57
aS"(2809, u'(?i)(toms|tom)')"
p58
aS"(5958, u'(?i)(rats|rat)')"
p59
aS"(867, u'(?i)(tits|tit)')"
p60
aS"(6682, u'(?i)(tera|teras)')"
p61
aS"(1055, u'(?i)(men|man)')"
p62
aS"(4979, u'(?i)(cats|cat)')"
p63
aS"(1057, u'(?i)(humans|human)')"
p64
aS"(1961, u'(?i)(pens|pen)')"
p65
aS"(5949, u'(?i)(dogs|dog)')"
p66
aS"(2323, u'(?i)(bees|bee)')"
p67
aS"(2568, u'(?i)(hens|hen)')"
p68
atp69
Rp70
sb.