(ifile_types
ParseObject
p0
(dp1
S'methods'
p2
c__builtin__
set
p3
((lp4
S'Method.ANTAGONIST'
p5
atp6
Rp7
sS'topics'
p8
g3
((lp9
S"(26, u'\\\\bbehav')"
p10
atp11
Rp12
sS'receptors'
p13
g3
((lp14
(S'5ht1a'
p15
I167
I173
tp16
a(S'5ht1d'
p17
I677
I683
tp18
a(S'5ht2'
p19
I841
I846
tp20
a(S'5ht1a'
p21
I901
I907
tp22
a(S'5ht1d'
p23
I62
I68
tp24
a(S'5ht1d'
p25
I471
I477
tp26
a(S'5ht1d'
p27
I1123
I1129
tp28
a(S'5ht1d'
p29
I248
I254
tp30
a(S'5ht1d'
p31
I454
I460
tp32
atp33
Rp34
sS'raw_text_methods'
p35
g3
((lp36
S"(6, u'\\\\bgr127935')"
p37
aS"(47, u'\\\\bsumatriptan')"
p38
aS"(12, u'\\\\bantagonist')"
p39
atp40
Rp41
sS'regions'
p42
g3
((lp43
tp44
Rp45
sS'year'
p46
V1996
p47
sS'species'
p48
g3
((lp49
S"(7, u'(?i)\\\\b(guineas|guinea)(-|\\\\s+)?(pigs|pig)\\\\b')"
p50
aS"(4, u'(?i)\\\\b(rats|rat)\\\\b')"
p51
atp52
Rp53
sb.