(ifile_types
ParseObject
p0
(dp1
S'antagonists'
p2
c__builtin__
set
p3
((lp4
S"(53, u'\\\\bketanserin')"
p5
aS"(34, u'\\\\byohimbine')"
p6
aS"(128, u'\\\\bketanserin')"
p7
aS"(199, u'\\\\bmaprotiline')"
p8
aS"(135, u'\\\\bondansetron')"
p9
aS"(115, u'\\\\bnortriptyline')"
p10
aS"(114, u'\\\\bimipramine')"
p11
atp12
Rp13
sS'methods'
p14
g3
((lp15
S'Method.ANTAGONIST'
p16
atp17
Rp18
sS'topics'
p19
g3
((lp20
tp21
Rp22
sS'receptors'
p23
g3
((lp24
S'5ht5'
p25
aS'5ht3'
p26
aS'5ht2'
p27
aS'5ht2a'
p28
aS'5ht4a'
p29
aS'5ht3a'
p30
atp31
Rp32
sS'regions'
p33
g3
((lp34
tp35
Rp36
sS'year'
p37
V2002
p38
sS'agonists'
p39
g3
((lp40
S"(89, u'\\\\byohimbine')"
p41
atp42
Rp43
sS'species'
p44
g3
((lp45
S"(4624, u'(?i)(apes|ape)')"
p46
aS"(6753, u'(?i)(da|das)')"
p47
aS"(5958, u'(?i)(rats|rat)')"
p48
aS"(4964, u'(?i)(serins|serin)')"
p49
aS"(468, u'(?i)(oxen|ox)')"
p50
aS"(4163, u'(?i)(ermines|ermine)')"
p51
aS"(1349, u'(?i)(rams|ram)')"
p52
aS"(6249, u'(?i)(ants|ant)')"
p53
aS"(6215, u'(?i)(racers|racer)')"
p54
aS"(853, u'(?i)(minas|mina)')"
p55
aS"(3550, u'(?i)(anis|ani)')"
p56
aS"(6682, u'(?i)(tera|teras)')"
p57
aS"(1961, u'(?i)(pens|pen)')"
p58
aS"(6356, u'(?i)(ais|ai)')"
p59
aS"(5743, u'(?i)(bots|bot)')"
p60
aS"(4979, u'(?i)(cats|cat)')"
p61
atp62
Rp63
sb.