(ifile_types
ParseObject
p0
(dp1
S'methods'
p2
c__builtin__
set
p3
((lp4
tp5
Rp6
sS'topics'
p7
g3
((lp8
S"(12, u'\\\\bsleep')"
p9
atp10
Rp11
sS'receptors'
p12
g3
((lp13
(S'5ht1a'
p14
I1296
I1302
tp15
atp16
Rp17
sS'raw_text_methods'
p18
g3
((lp19
S"(39, u'\\\\bselective serotonin reuptake inhibitor')"
p20
atp21
Rp22
sS'regions'
p23
g3
((lp24
tp25
Rp26
sS'year'
p27
V1997
p28
sS'species'
p29
g3
((lp30
S"(3, u'(?i)\\\\b(males|male)\\\\b')"
p31
atp32
Rp33
sb.