(ifile_types
ParseObject
p0
(dp1
S'methods'
p2
c__builtin__
set
p3
((lp4
S'Method.AGONIST'
p5
atp6
Rp7
sS'topics'
p8
g3
((lp9
S"(31, u'\\\\brespiratory')"
p10
aS"(12, u'\\\\bsleep')"
p11
aS"(4, u'\\\\btreatment')"
p12
atp13
Rp14
sS'receptors'
p15
g3
((lp16
(S'5ht2a'
p17
I1028
I1034
tp18
a(S'5ht2a'
p19
I1781
I1787
tp20
a(S'5ht2c'
p21
I1781
I1789
tp22
a(S'5ht2'
p23
I672
I677
tp24
a(S'5ht2c'
p25
I1028
I1036
tp26
a(S'5ht2'
p27
I371
I376
tp28
atp29
Rp30
sS'raw_text_methods'
p31
g3
((lp32
S"(13, u'\\\\bagonist')"
p33
aS"(49, u'\\\\bdoi')"
p34
atp35
Rp36
sS'regions'
p37
g3
((lp38
tp39
Rp40
sS'year'
p41
V2010
p42
sS'species'
p43
g3
((lp44
S"(4, u'(?i)\\\\b(rats|rat)\\\\b')"
p45
atp46
Rp47
sb.