(ifile_types
ParseObject
p0
(dp1
S'antagonists'
p2
c__builtin__
set
p3
((lp4
S"(32, u'\\\\bway ?100635')"
p5
atp6
Rp7
sS'methods'
p8
g3
((lp9
S'Method.ANTAGONIST'
p10
atp11
Rp12
sS'topics'
p13
g3
((lp14
tp15
Rp16
sS'receptors'
p17
g3
((lp18
S'5ht1a'
p19
aS'5ht4'
p20
aS'5ht3'
p21
aS'5ht1'
p22
atp23
Rp24
sS'regions'
p25
g3
((lp26
S"(34, u'(?i)(pon|pons)')"
p27
atp28
Rp29
sS'year'
p30
V1998
p31
sS'agonists'
p32
g3
((lp33
S"(105, u'\\\\b5 ?carboxamidotryptamine')"
p34
aS"(5, u'\\\\b5 ?ct')"
p35
aS"(155, u'\\\\bmem')"
p36
atp37
Rp38
sS'species'
p39
g3
((lp40
S"(1070, u'(?i)(pets|pet)')"
p41
aS"(5537, u'(?i)(hippos|hippo)')"
p42
aS"(6753, u'(?i)(da|das)')"
p43
aS"(2568, u'(?i)(hens|hen)')"
p44
aS"(867, u'(?i)(tits|tit)')"
p45
aS"(5743, u'(?i)(bots|bot)')"
p46
aS"(468, u'(?i)(oxen|ox)')"
p47
aS"(1349, u'(?i)(rams|ram)')"
p48
aS"(6249, u'(?i)(ants|ant)')"
p49
aS"(3404, u'(?i)(titis|titi)')"
p50
aS"(4979, u'(?i)(cats|cat)')"
p51
aS"(5969, u'(?i)(pugs|pug)')"
p52
aS"(5958, u'(?i)(rats|rat)')"
p53
aS"(7552, u'(?i)(bats|bat)')"
p54
aS"(821, u'(?i)(lice|louse)')"
p55
atp56
Rp57
sb.