(ifile_types
ParseObject
p0
(dp1
S'methods'
p2
c__builtin__
set
p3
((lp4
S'Method.STIMULATION'
p5
aS'Method.STAINING'
p6
aS'Method.IMMUNOHISTOCHEMISTRY'
p7
atp8
Rp9
sS'topics'
p10
g3
((lp11
S"(5, u'\\\\btherap')"
p12
aS"(12, u'\\\\bsleep')"
p13
atp14
Rp15
sS'receptors'
p16
g3
((lp17
(S'5ht2a'
p18
I1518
I1524
tp19
a(S'5ht2a'
p20
I1158
I1164
tp21
atp22
Rp23
sS'raw_text_methods'
p24
g3
((lp25
tp26
Rp27
sS'regions'
p28
g3
((lp29
S"(16, u'(?i)\\\\b(drns|drn)\\\\b')"
p30
atp31
Rp32
sS'year'
p33
V2017
p34
sS'species'
p35
g3
((lp36
S"(3, u'(?i)\\\\b(males|male)\\\\b')"
p37
aS"(4, u'(?i)\\\\b(rats|rat)\\\\b')"
p38
atp39
Rp40
sb.