(ifile_types
ParseObject
p0
(dp1
S'antagonists'
p2
c__builtin__
set
p3
((lp4
S"(99, u'\\\\bsb ?242084')"
p5
atp6
Rp7
sS'methods'
p8
g3
((lp9
S'Method.ANTAGONIST'
p10
aS'Method.AGONIST'
p11
atp12
Rp13
sS'topics'
p14
g3
((lp15
S"(15, u'\\\\bschizophreni')"
p16
aS"(8, u'\\\\blearning')"
p17
aS"(3, u'\\\\bsleep')"
p18
aS"(10, u'\\\\banxiety')"
p19
aS"(7, u'\\\\bmemory')"
p20
atp21
Rp22
sS'receptors'
p23
g3
((lp24
S'5ht2c'
p25
atp26
Rp27
sS'regions'
p28
g3
((lp29
S"(362, u'(?i)\\\\b(brains|brain)(-|\\\\s+)?(stems|stem)\\\\b')"
p30
atp31
Rp32
sS'year'
p33
V2011
p34
sS'agonists'
p35
g3
((lp36
S"(149, u'\\\\bmem')"
p37
aS"(155, u'\\\\bmcpp')"
p38
atp39
Rp40
sS'species'
p41
g3
((lp42
S"(5958, u'(?i)\\\\b(rats|rat)\\\\b')"
p43
atp44
Rp45
sb.