(ifile_types
ParseObject
p0
(dp1
S'antagonists'
p2
c__builtin__
set
p3
((lp4
S"(135, u'\\\\bondansetron')"
p5
atp6
Rp7
sS'methods'
p8
g3
((lp9
S'Method.ANTAGONIST'
p10
atp11
Rp12
sS'topics'
p13
g3
((lp14
S"(11, u'\\\\banxiolyt')"
p15
atp16
Rp17
sS'receptors'
p18
g3
((lp19
S'5ht3a'
p20
aS'5ht3'
p21
aS'5ht3b'
p22
atp23
Rp24
sS'regions'
p25
g3
((lp26
S"(34, u'(?i)(pon|pons)')"
p27
atp28
Rp29
sS'year'
p30
V1993
p31
sS'agonists'
p32
g3
((lp33
S"(155, u'\\\\bmem')"
p34
atp35
Rp36
sS'species'
p37
g3
((lp38
S"(2323, u'(?i)(bees|bee)')"
p39
aS"(4624, u'(?i)(apes|ape)')"
p40
aS"(6753, u'(?i)(da|das)')"
p41
aS"(473, u'(?i)(rabbits|rabbit)')"
p42
aS"(5958, u'(?i)(rats|rat)')"
p43
aS"(4979, u'(?i)(cats|cat)')"
p44
aS"(6682, u'(?i)(tera|teras)')"
p45
aS"(3051, u'(?i)(pigs|pig)')"
p46
aS"(468, u'(?i)(oxen|ox)')"
p47
aS"(523, u'(?i)(blackburns|blackburn)')"
p48
aS"(6249, u'(?i)(ants|ant)')"
p49
aS"(1349, u'(?i)(rams|ram)')"
p50
aS"(3062, u'(?i)(guineas|guinea)')"
p51
aS"(3550, u'(?i)(anis|ani)')"
p52
aS"(7094, u'(?i)(curs|cur)')"
p53
aS"(6356, u'(?i)(ais|ai)')"
p54
aS"(6391, u'(?i)(asses|ass)')"
p55
aS"(4480, u'(?i)(guineas|guinea)(-|\\\\s+)?(pigs|pig)')"
p56
aS"(5743, u'(?i)(bots|bot)')"
p57
atp58
Rp59
sb.