(ifile_types
ParseObject
p0
(dp1
S'antagonists'
p2
c__builtin__
set
p3
((lp4
S"(84, u'\\\\bsb ?206553')"
p5
aS"(91, u'\\\\bfluoxetine')"
p6
aS"(38, u'\\\\bsb ?224289')"
p7
aS"(31, u'\\\\bway ?100635')"
p8
atp9
Rp10
sS'methods'
p11
g3
((lp12
S'Method.ANTAGONIST'
p13
aS'Method.AGONIST'
p14
atp15
Rp16
sS'topics'
p17
g3
((lp18
S"(12, u'\\\\banxiogen')"
p19
atp20
Rp21
sS'receptors'
p22
g3
((lp23
S'5ht1b'
p24
aS'5ht1a'
p25
aS'5ht3a'
p26
aS'5ht2b'
p27
aS'5ht2c'
p28
atp29
Rp30
sS'regions'
p31
g3
((lp32
S"(49, u'(?i)\\\\b(loci|locus)(-|\\\\s+)?(coeruleuses|coeruleus)\\\\b')"
p33
atp34
Rp35
sS'year'
p36
V2006
p37
sS'agonists'
p38
g3
((lp39
S"(166, u'\\\\bmk ?212')"
p40
atp41
Rp42
sS'species'
p43
g3
((lp44
S"(5958, u'(?i)\\\\b(rats|rat)\\\\b')"
p45
atp46
Rp47
sb.