(ifile_types
ParseObject
p0
(dp1
S'antagonists'
p2
c__builtin__
set
p3
((lp4
tp5
Rp6
sS'methods'
p7
g3
((lp8
S'Method.STIMULATION'
p9
aS'Method.AGONIST'
p10
atp11
Rp12
sS'topics'
p13
g3
((lp14
S"(21, u'\\\\bpain')"
p15
atp16
Rp17
sS'receptors'
p18
g3
((lp19
S'5ht1b'
p20
aS'5ht5'
p21
aS'5ht1'
p22
aS'5ht1d'
p23
atp24
Rp25
sS'regions'
p26
g3
((lp27
S"(362, u'(?i)(brains|brain)(-|\\\\s+)?(stems|stem)')"
p28
aS"(374, u'(?i)(duras|dura)(-|\\\\s+)?(maters|mater)')"
p29
aS"(34, u'(?i)(pon|pons)')"
p30
atp31
Rp32
sS'year'
p33
V1997
p34
sS'agonists'
p35
g3
((lp36
S"(103, u'\\\\bsumatriptan')"
p37
aS"(104, u'\\\\bzolmitriptan')"
p38
atp39
Rp40
sS'species'
p41
g3
((lp42
S"(4624, u'(?i)(apes|ape)')"
p43
aS"(6548, u'(?i)(takins|takin)')"
p44
aS"(3592, u'(?i)(ravens|raven)')"
p45
aS"(3812, u'(?i)(studs|stud)')"
p46
aS"(6249, u'(?i)(ants|ant)')"
p47
aS"(3196, u'(?i)(human|humans)')"
p48
aS"(6356, u'(?i)(ais|ai)')"
p49
aS"(6391, u'(?i)(asses|ass)')"
p50
aS"(7082, u'(?i)(sagittas|sagitta)')"
p51
aS"(479, u'(?i)(lings|ling)')"
p52
aS"(1349, u'(?i)(rams|ram)')"
p53
aS"(5743, u'(?i)(bots|bot)')"
p54
aS"(3550, u'(?i)(anis|ani)')"
p55
aS"(7127, u'(?i)(monitors|monitor)')"
p56
aS"(2809, u'(?i)(toms|tom)')"
p57
aS"(853, u'(?i)(minas|mina)')"
p58
aS"(5958, u'(?i)(rats|rat)')"
p59
aS"(3767, u'(?i)(olms|olm)')"
p60
aS"(1055, u'(?i)(men|man)')"
p61
aS"(4979, u'(?i)(cats|cat)')"
p62
aS"(1057, u'(?i)(humans|human)')"
p63
aS"(1961, u'(?i)(pens|pen)')"
p64
aS"(6753, u'(?i)(da|das)')"
p65
aS"(3726, u'(?i)(mates|mate)')"
p66
atp67
Rp68
sb.