(ifile_types
ParseObject
p0
(dp1
S'antagonists'
p2
c__builtin__
set
p3
((lp4
tp5
Rp6
sS'methods'
p7
g3
((lp8
tp9
Rp10
sS'topics'
p11
g3
((lp12
S"(14, u'\\\\bpsychosis')"
p13
aS"(10, u'\\\\banxiety')"
p14
aS"(1, u'\\\\bmood')"
p15
atp16
Rp17
sS'receptors'
p18
g3
((lp19
S'5ht5'
p20
aS'5ht1a'
p21
aS'5ht2a'
p22
atp23
Rp24
sS'regions'
p25
g3
((lp26
S"(227, u'(?i)(olfactories|olfactory)(-|\\\\s+)?(tubercles|tubercle)')"
p27
aS"(226, u'(?i)(nuclei|nucleus)(-|\\\\s+)?(accumben|accumbens)')"
p28
aS"(126, u'(?i)(thalamuses|thalamus)')"
p29
aS"(209, u'(?i)(amygdalas|amygdala)')"
p30
atp31
Rp32
sS'year'
p33
V2013
p34
sS'agonists'
p35
g3
((lp36
tp37
Rp38
sS'species'
p39
g3
((lp40
S"(2323, u'(?i)(bees|bee)')"
p41
aS"(5537, u'(?i)(hippos|hippo)')"
p42
aS"(6753, u'(?i)(da|das)')"
p43
aS"(5958, u'(?i)(rats|rat)')"
p44
aS"(5176, u'(?i)(tegs|teg)')"
p45
aS"(4163, u'(?i)(ermines|ermine)')"
p46
aS"(4091, u'(?i)(adults|adult)')"
p47
aS"(468, u'(?i)(oxen|ox)')"
p48
aS"(1055, u'(?i)(men|man)')"
p49
aS"(3812, u'(?i)(studs|stud)')"
p50
aS"(6249, u'(?i)(ants|ant)')"
p51
aS"(1414, u'(?i)(chars|char)')"
p52
aS"(2809, u'(?i)(toms|tom)')"
p53
aS"(6356, u'(?i)(ais|ai)')"
p54
atp55
Rp56
sb.