(ifile_types
ParseObject
p0
(dp1
S'methods'
p2
c__builtin__
set
p3
((lp4
S'Method.KNOCKDOWN'
p5
atp6
Rp7
sS'topics'
p8
g3
((lp9
S"(14, u'\\\\bcogniti')"
p10
aS"(26, u'\\\\bbehav')"
p11
aS"(33, u'\\\\blocomot')"
p12
aS"(4, u'\\\\btreatment')"
p13
aS"(15, u'\\\\bmemory')"
p14
atp15
Rp16
sS'receptors'
p17
g3
((lp18
(S'5ht7'
p19
I63
I68
tp20
a(S'5ht7'
p21
I1123
I1128
tp22
a(S'5ht7'
p23
I1455
I1460
tp24
a(S'5ht7'
p25
I1586
I1591
tp26
a(S'5ht7'
p27
I1280
I1285
tp28
a(S'5ht7'
p29
I323
I328
tp30
a(S'5ht7'
p31
I300
I310
tp32
a(S'5ht7'
p33
I1703
I1708
tp34
a(S'5ht7'
p35
I443
I448
tp36
a(S'5ht7'
p37
I1918
I1923
tp38
a(S'5ht7'
p39
I600
I605
tp40
atp41
Rp42
sS'raw_text_methods'
p43
g3
((lp44
S"(14, u'\\\\bknockdown')"
p45
atp46
Rp47
sS'regions'
p48
g3
((lp49
S"(20, u'(?i)\\\\b(prefrontals|prefrontal)\\\\b')"
p50
aS"(21, u'(?i)\\\\b(mpfcs|mpfc)\\\\b')"
p51
aS"(19, u'(?i)\\\\b(cortexes|cortex)\\\\b')"
p52
atp53
Rp54
sS'year'
p55
V2018
p56
sS'species'
p57
g3
((lp58
S"(1, u'(?i)\\\\b(mice|mouse)\\\\b')"
p59
aS"(5, u'(?i)\\\\b(mices|mice)\\\\b')"
p60
atp61
Rp62
sb.