(ifile_types
ParseObject
p0
(dp1
S'antagonists'
p2
c__builtin__
set
p3
((lp4
tp5
Rp6
sS'methods'
p7
g3
((lp8
S'Method.AGONIST'
p9
atp10
Rp11
sS'topics'
p12
g3
((lp13
tp14
Rp15
sS'receptors'
p16
g3
((lp17
S'5ht1a'
p18
aS'5ht5'
p19
aS'5ht1'
p20
atp21
Rp22
sS'regions'
p23
g3
((lp24
tp25
Rp26
sS'year'
p27
V1992
p28
sS'agonists'
p29
g3
((lp30
S"(92, u'\\\\b8 ?oh ?dpat')"
p31
atp32
Rp33
sS'species'
p34
g3
((lp35
S"(6249, u'(?i)(ants|ant)')"
p36
aS"(6682, u'(?i)(tera|teras)')"
p37
aS"(5743, u'(?i)(bots|bot)')"
p38
aS"(479, u'(?i)(lings|ling)')"
p39
aS"(468, u'(?i)(oxen|ox)')"
p40
aS"(1349, u'(?i)(rams|ram)')"
p41
aS"(853, u'(?i)(minas|mina)')"
p42
aS"(3550, u'(?i)(anis|ani)')"
p43
aS"(3522, u'(?i)(tetras|tetra)')"
p44
aS"(1961, u'(?i)(pens|pen)')"
p45
aS"(3812, u'(?i)(studs|stud)')"
p46
aS"(6878, u'(?i)(guans|guan)')"
p47
aS"(7604, u'(?i)(cyclop|cyclops)')"
p48
aS"(6356, u'(?i)(ais|ai)')"
p49
aS"(5949, u'(?i)(dogs|dog)')"
p50
atp51
Rp52
sb.