(ifile_types
ParseObject
p0
(dp1
S'antagonists'
p2
c__builtin__
set
p3
((lp4
S"(27, u'\\\\bspiperone')"
p5
atp6
Rp7
sS'methods'
p8
g3
((lp9
S'Method.ANTAGONIST'
p10
aS'Method.AGONIST'
p11
atp12
Rp13
sS'topics'
p14
g3
((lp15
tp16
Rp17
sS'receptors'
p18
g3
((lp19
S'5ht1c'
p20
aS'5ht1b'
p21
aS'5ht1a'
p22
aS'5ht2b'
p23
aS'5ht2'
p24
aS'5ht1d'
p25
aS'5ht5'
p26
atp27
Rp28
sS'regions'
p29
g3
((lp30
tp31
Rp32
sS'year'
p33
V1988
p34
sS'agonists'
p35
g3
((lp36
S"(181, u'\\\\bdom')"
p37
aS"(155, u'\\\\bmem')"
p38
atp39
Rp40
sS'species'
p41
g3
((lp42
S"(6753, u'(?i)(da|das)')"
p43
aS"(2568, u'(?i)(hens|hen)')"
p44
aS"(867, u'(?i)(tits|tit)')"
p45
aS"(4979, u'(?i)(cats|cat)')"
p46
aS"(2327, u'(?i)(bovines|bovine)')"
p47
aS"(5967, u'(?i)(males|male)')"
p48
aS"(468, u'(?i)(oxen|ox)')"
p49
aS"(1055, u'(?i)(men|man)')"
p50
aS"(6249, u'(?i)(ants|ant)')"
p51
aS"(4964, u'(?i)(serins|serin)')"
p52
aS"(7094, u'(?i)(curs|cur)')"
p53
aS"(3550, u'(?i)(anis|ani)')"
p54
aS"(5958, u'(?i)(rats|rat)')"
p55
aS"(1961, u'(?i)(pens|pen)')"
p56
aS"(3812, u'(?i)(studs|stud)')"
p57
aS"(6391, u'(?i)(asses|ass)')"
p58
aS"(6878, u'(?i)(guans|guan)')"
p59
aS"(5743, u'(?i)(bots|bot)')"
p60
aS"(6356, u'(?i)(ais|ai)')"
p61
atp62
Rp63
sb.