(ifile_types
ParseObject
p0
(dp1
S'methods'
p2
c__builtin__
set
p3
((lp4
S'Method.ANTAGONIST'
p5
aS'Method.IMMUNOHISTOCHEMISTRY'
p6
atp7
Rp8
sS'topics'
p9
g3
((lp10
S"(22, u'\\\\bschizophreni')"
p11
aS"(14, u'\\\\bcogniti')"
p12
aS"(26, u'\\\\bbehav')"
p13
aS"(4, u'\\\\btreatment')"
p14
atp15
Rp16
sS'receptors'
p17
g3
((lp18
(S'5ht5a'
p19
I698
I704
tp20
a(S'5ht5a'
p21
I85
I91
tp22
a(S'5ht5a'
p23
I435
I441
tp24
a(S'5ht5a'
p25
I994
I1000
tp26
a(S'5ht5a'
p27
I253
I259
tp28
a(S'5ht5a'
p29
I1767
I1773
tp30
atp31
Rp32
sS'raw_text_methods'
p33
g3
((lp34
S"(12, u'\\\\bantagonist')"
p35
atp36
Rp37
sS'regions'
p38
g3
((lp39
S"(20, u'(?i)\\\\b(prefrontals|prefrontal)\\\\b')"
p40
aS"(21, u'(?i)\\\\b(mpfcs|mpfc)\\\\b')"
p41
aS"(19, u'(?i)\\\\b(cortexes|cortex)\\\\b')"
p42
atp43
Rp44
sS'year'
p45
V2018
p46
sS'species'
p47
g3
((lp48
S"(6, u'(?i)\\\\b(rodents|rodent)\\\\b')"
p49
aS"(4, u'(?i)\\\\b(rats|rat)\\\\b')"
p50
atp51
Rp52
sb.