(ifile_types
ParseObject
p0
(dp1
S'antagonists'
p2
c__builtin__
set
p3
((lp4
S"(13, u'\\\\bmefway')"
p5
atp6
Rp7
sS'methods'
p8
g3
((lp9
S'Method.PET'
p10
aS'Method.ANTAGONIST'
p11
atp12
Rp13
sS'topics'
p14
g3
((lp15
S"(29, u'\\\\bsex')"
p16
aS"(9, u'\\\\bdepress')"
p17
atp18
Rp19
sS'receptors'
p20
g3
((lp21
S'5ht1a'
p22
aS'5ht5'
p23
atp24
Rp25
sS'regions'
p26
g3
((lp27
S"(292, u'(?i)(anteriors|anterior)(-|\\\\s+)?(cingulates|cingulate)')"
p28
aS"(318, u'(?i)(raphes|raphe)(-|\\\\s+)?(nuclei|nucleus)')"
p29
aS"(209, u'(?i)(amygdalas|amygdala)')"
p30
aS"(71, u'(?i)(cerebellums|cerebellum)')"
p31
aS"(291, u'(?i)(cingulates|cingulate)(-|\\\\s+)?(cortexes|cortex)')"
p32
atp33
Rp34
sS'year'
p35
V2013
p36
sS'agonists'
p37
g3
((lp38
tp39
Rp40
sS'species'
p41
g3
((lp42
S"(1070, u'(?i)(pets|pet)')"
p43
aS"(2323, u'(?i)(bees|bee)')"
p44
aS"(6753, u'(?i)(da|das)')"
p45
aS"(5958, u'(?i)(rats|rat)')"
p46
aS"(5537, u'(?i)(hippos|hippo)')"
p47
aS"(2401, u'(?i)(primates|primate)')"
p48
aS"(6391, u'(?i)(asses|ass)')"
p49
aS"(479, u'(?i)(lings|ling)')"
p50
aS"(5967, u'(?i)(males|male)')"
p51
aS"(1055, u'(?i)(men|man)')"
p52
aS"(3726, u'(?i)(mates|mate)')"
p53
aS"(4597, u'(?i)(rhesuses|rhesus)(-|\\\\s+)?(monkeys|monkey)')"
p54
aS"(6215, u'(?i)(racers|racer)')"
p55
aS"(4979, u'(?i)(cats|cat)')"
p56
aS"(6249, u'(?i)(ants|ant)')"
p57
aS"(1057, u'(?i)(humans|human)')"
p58
aS"(6125, u'(?i)(females|female)')"
p59
aS"(3812, u'(?i)(studs|stud)')"
p60
aS"(3196, u'(?i)(human|humans)')"
p61
aS"(2341, u'(?i)(monkeys|monkey)')"
p62
aS"(4596, u'(?i)(rhesuses|rhesus)')"
p63
atp64
Rp65
sb.