(ifile_types
ParseObject
p0
(dp1
S'methods'
p2
c__builtin__
set
p3
((lp4
S'Method.ANTAGONIST'
p5
aS'Method.AGONIST'
p6
atp7
Rp8
sS'topics'
p9
g3
((lp10
tp11
Rp12
sS'receptors'
p13
g3
((lp14
(S'5ht4'
p15
I225
I230
tp16
a(S'5ht1e'
p17
I1558
I1564
tp18
a(S'5ht2c'
p19
I1574
I1580
tp20
a(S'5ht4'
p21
I87
I92
tp22
a(S'5ht3'
p23
I1582
I1587
tp24
a(S'5ht2a'
p25
I1566
I1572
tp26
a(S'5ht1d'
p27
I1550
I1556
tp28
a(S'5ht1a'
p29
I1542
I1548
tp30
a(S'5ht4'
p31
I787
I792
tp32
a(S'5ht4'
p33
I1882
I1887
tp34
a(S'5ht4'
p35
I1522
I1527
tp36
a(S'5ht4'
p37
I1778
I1783
tp38
atp39
Rp40
sS'raw_text_methods'
p41
g3
((lp42
S"(13, u'\\\\bagonist')"
p43
aS"(35, u'\\\\badenosine')"
p44
aS"(12, u'\\\\bantagonist')"
p45
atp46
Rp47
sS'regions'
p48
g3
((lp49
tp50
Rp51
sS'year'
p52
V1994
p53
sS'species'
p54
g3
((lp55
S"(7, u'(?i)\\\\b(guineas|guinea)(-|\\\\s+)?(pigs|pig)\\\\b')"
p56
atp57
Rp58
sb.