(ifile_types
ParseObject
p0
(dp1
S'methods'
p2
c__builtin__
set
p3
((lp4
S'Method.PET'
p5
aS'Method.ANTAGONIST'
p6
atp7
Rp8
sS'topics'
p9
g3
((lp10
S"(7, u'\\\\bdepressi')"
p11
atp12
Rp13
sS'receptors'
p14
g3
((lp15
(S'5ht1a'
p16
I1240
I1246
tp17
a(S'5ht1a'
p18
I592
I598
tp19
a(S'5ht1a'
p20
I2014
I2020
tp21
a(S'5ht1a'
p22
I31
I37
tp23
a(S'5ht1a'
p24
I376
I382
tp25
atp26
Rp27
sS'raw_text_methods'
p28
g3
((lp29
S"(1, u'\\\\bneuroimag')"
p30
aS"(17, u'\\\\bpet')"
p31
aS"(12, u'\\\\bantagonist')"
p32
atp33
Rp34
sS'regions'
p35
g3
((lp36
S"(19, u'(?i)\\\\b(cortexes|cortex)\\\\b')"
p37
aS"(22, u'(?i)\\\\b(anteriors|anterior)(-|\\\\s+)?(cingulates|cingulate)\\\\b')"
p38
aS"(9, u'(?i)\\\\b(cerebellums|cerebellum)\\\\b')"
p39
aS"(12, u'(?i)\\\\b(amygdalas|amygdala)\\\\b')"
p40
atp41
Rp42
sS'year'
p43
V2013
p44
sS'species'
p45
g3
((lp46
S"(2, u'(?i)\\\\b(females|female)\\\\b')"
p47
aS"(8, u'(?i)\\\\b(primates|primate)\\\\b')"
p48
aS"(3, u'(?i)\\\\b(males|male)\\\\b')"
p49
atp50
Rp51
sb.