(ifile_types
ParseObject
p0
(dp1
S'antagonists'
p2
c__builtin__
set
p3
((lp4
S"(32, u'\\\\bway ?100635')"
p5
aS"(114, u'\\\\bimipramine')"
p6
atp7
Rp8
sS'methods'
p9
g3
((lp10
S'Method.ANTAGONIST'
p11
atp12
Rp13
sS'topics'
p14
g3
((lp15
tp16
Rp17
sS'receptors'
p18
g3
((lp19
S'5ht1a'
p20
aS'5ht5'
p21
atp22
Rp23
sS'regions'
p24
g3
((lp25
S"(254, u'(?i)(prefrontals|prefrontal)(-|\\\\s+)?(cortexes|cortex)')"
p26
aS"(255, u'(?i)(pres|pre)(-|\\\\s+)?(frontals|frontal)(-|\\\\s+)?(cortexes|cortex)')"
p27
atp28
Rp29
sS'year'
p30
V2005
p31
sS'agonists'
p32
g3
((lp33
tp34
Rp35
sS'species'
p36
g3
((lp37
S"(6753, u'(?i)(da|das)')"
p38
aS"(2568, u'(?i)(hens|hen)')"
p39
aS"(4979, u'(?i)(cats|cat)')"
p40
aS"(6682, u'(?i)(tera|teras)')"
p41
aS"(1291, u'(?i)(ratels|ratel)')"
p42
aS"(468, u'(?i)(oxen|ox)')"
p43
aS"(1349, u'(?i)(rams|ram)')"
p44
aS"(6249, u'(?i)(ants|ant)')"
p45
aS"(853, u'(?i)(minas|mina)')"
p46
aS"(5958, u'(?i)(rats|rat)')"
p47
aS"(1961, u'(?i)(pens|pen)')"
p48
aS"(3812, u'(?i)(studs|stud)')"
p49
aS"(5743, u'(?i)(bots|bot)')"
p50
aS"(6356, u'(?i)(ais|ai)')"
p51
aS"(5949, u'(?i)(dogs|dog)')"
p52
atp53
Rp54
sb.