(ifile_types
ParseObject
p0
(dp1
S'methods'
p2
c__builtin__
set
p3
((lp4
S'Method.STIMULATION'
p5
aS'Method.ANTAGONIST'
p6
aS'Method.AGONIST'
p7
atp8
Rp9
sS'topics'
p10
g3
((lp11
tp12
Rp13
sS'receptors'
p14
g3
((lp15
(S'5ht1a'
p16
I57
I63
tp17
a(S'5ht1d'
p18
I1433
I1439
tp19
a(S'5ht1d'
p20
I781
I787
tp21
a(S'5ht1d'
p22
I39
I45
tp23
a(S'5ht1a'
p24
I735
I741
tp25
a(S'5ht1a'
p26
I388
I394
tp27
a(S'5ht1d'
p28
I978
I984
tp29
a(S'5ht1a'
p30
I1451
I1457
tp31
atp32
Rp33
sS'raw_text_methods'
p34
g3
((lp35
S"(13, u'\\\\bagonist')"
p36
aS"(30, u'\\\\b2methyl')"
p37
aS"(6, u'\\\\bgr127935')"
p38
aS"(47, u'\\\\bsumatriptan')"
p39
aS"(12, u'\\\\bantagonist')"
p40
atp41
Rp42
sS'regions'
p43
g3
((lp44
tp45
Rp46
sS'year'
p47
V1994
p48
sS'species'
p49
g3
((lp50
S"(7, u'(?i)\\\\b(guineas|guinea)(-|\\\\s+)?(pigs|pig)\\\\b')"
p51
atp52
Rp53
sb.