(ifile_types
ParseObject
p0
(dp1
S'methods'
p2
c__builtin__
set
p3
((lp4
tp5
Rp6
sS'topics'
p7
g3
((lp8
S"(23, u'\\\\bantipsychotic')"
p9
atp10
Rp11
sS'receptors'
p12
g3
((lp13
(S'5ht2a'
p14
I1288
I1294
tp15
a(S'5ht2a'
p16
I447
I453
tp17
a(S'5ht2a'
p18
I143
I154
tp19
atp20
Rp21
sS'raw_text_methods'
p22
g3
((lp23
S"(41, u'\\\\bhaloperidol')"
p24
aS"(40, u'\\\\bclozapine')"
p25
aS"(23, u'\\\\bmdl')"
p26
atp27
Rp28
sS'regions'
p29
g3
((lp30
tp31
Rp32
sS'year'
p33
V2005
p34
sS'species'
p35
g3
((lp36
S"(4, u'(?i)\\\\b(rats|rat)\\\\b')"
p37
atp38
Rp39
sb.