(ifile_types
ParseObject
p0
(dp1
S'methods'
p2
c__builtin__
set
p3
((lp4
S'Method.KNOCKOUT'
p5
aS'Method.ANTAGONIST'
p6
aS'Method.AGONIST'
p7
atp8
Rp9
sS'topics'
p10
g3
((lp11
S"(24, u'\\\\banxiolytic')"
p12
aS"(8, u'\\\\banxi')"
p13
aS"(26, u'\\\\bbehav')"
p14
aS"(2, u'\\\\bdisorder')"
p15
atp16
Rp17
sS'receptors'
p18
g3
((lp19
(S'5ht1'
p20
I330
I335
tp21
a(S'5ht1'
p22
I577
I582
tp23
a(S'5ht1a'
p24
I218
I224
tp25
a(S'5ht1'
p26
I394
I399
tp27
a(S'5ht1a'
p28
I94
I100
tp29
a(S'5ht1'
p30
I2099
I2104
tp31
a(S'5ht1'
p32
I237
I242
tp33
atp34
Rp35
sS'raw_text_methods'
p36
g3
((lp37
S"(15, u'\\\\b8ohdpat')"
p38
aS"(13, u'\\\\bagonist')"
p39
aS"(11, u'\\\\bfluoxetine')"
p40
aS"(38, u'\\\\bssri')"
p41
aS"(39, u'\\\\bselective serotonin reuptake inhibitor')"
p42
aS"(12, u'\\\\bantagonist')"
p43
atp44
Rp45
sS'regions'
p46
g3
((lp47
tp48
Rp49
sS'year'
p50
V2010
p51
sS'species'
p52
g3
((lp53
S"(1, u'(?i)\\\\b(mice|mouse)\\\\b')"
p54
aS"(5, u'(?i)\\\\b(mices|mice)\\\\b')"
p55
atp56
Rp57
sb.