(ifile_types
ParseObject
p0
(dp1
S'antagonists'
p2
c__builtin__
set
p3
((lp4
tp5
Rp6
sS'methods'
p7
g3
((lp8
S'Method.PET'
p9
atp10
Rp11
sS'topics'
p12
g3
((lp13
S"(29, u'\\\\bsex')"
p14
aS"(21, u'\\\\bpain')"
p15
aS"(16, u'\\\\bfeed')"
p16
atp17
Rp18
sS'receptors'
p19
g3
((lp20
S'5ht5'
p21
atp22
Rp23
sS'regions'
p24
g3
((lp25
S"(34, u'(?i)(pon|pons)')"
p26
atp27
Rp28
sS'year'
p29
V2008
p30
sS'agonists'
p31
g3
((lp32
S"(103, u'\\\\bsumatriptan')"
p33
atp34
Rp35
sS'species'
p36
g3
((lp37
S"(1070, u'(?i)(pets|pet)')"
p38
aS"(2054, u'(?i)(heads|head)')"
p39
aS"(2568, u'(?i)(hens|hen)')"
p40
aS"(6753, u'(?i)(da|das)')"
p41
aS"(6249, u'(?i)(ants|ant)')"
p42
aS"(4979, u'(?i)(cats|cat)')"
p43
aS"(5958, u'(?i)(rats|rat)')"
p44
aS"(7094, u'(?i)(curs|cur)')"
p45
aS"(6356, u'(?i)(ais|ai)')"
p46
aS"(2323, u'(?i)(bees|bee)')"
p47
atp48
Rp49
sb.