(ifile_types
ParseObject
p0
(dp1
S'methods'
p2
c__builtin__
set
p3
((lp4
S'Method.ANTAGONIST'
p5
atp6
Rp7
sS'topics'
p8
g3
((lp9
S"(14, u'\\\\bcogniti')"
p10
aS"(13, u'\\\\bantidepress')"
p11
aS"(16, u'\\\\blearning')"
p12
aS"(4, u'\\\\btreatment')"
p13
aS"(15, u'\\\\bmemory')"
p14
atp15
Rp16
sS'receptors'
p17
g3
((lp18
(S'5ht1a'
p19
I129
I135
tp20
a(S'5ht1a'
p21
I416
I422
tp22
a(S'5ht1a'
p23
I522
I528
tp24
a(S'5ht1a'
p25
I236
I242
tp26
atp27
Rp28
sS'raw_text_methods'
p29
g3
((lp30
S"(37, u'\\\\bpiperazine')"
p31
aS"(11, u'\\\\bfluoxetine')"
p32
aS"(38, u'\\\\bssri')"
p33
aS"(12, u'\\\\bantagonist')"
p34
atp35
Rp36
sS'regions'
p37
g3
((lp38
tp39
Rp40
sS'year'
p41
V2010
p42
sS'species'
p43
g3
((lp44
tp45
Rp46
sb.