(ifile_types
ParseObject
p0
(dp1
S'antagonists'
p2
c__builtin__
set
p3
((lp4
S"(67, u'\\\\bhaloperidol')"
p5
atp6
Rp7
sS'methods'
p8
g3
((lp9
S'Method.ANTAGONIST'
p10
atp11
Rp12
sS'topics'
p13
g3
((lp14
tp15
Rp16
sS'receptors'
p17
g3
((lp18
S'5ht4'
p19
atp20
Rp21
sS'regions'
p22
g3
((lp23
S"(363, u'(?i)(cranials|cranial)(-|\\\\s+)?(nerve|nerves)')"
p24
atp25
Rp26
sS'year'
p27
V1994
p28
sS'agonists'
p29
g3
((lp30
S"(224, u'\\\\b5 ?methoxytryptamine')"
p31
aS"(48, u'\\\\bhaloperidol')"
p32
aS"(201, u'\\\\bbimu ?8')"
p33
atp34
Rp35
sS'species'
p36
g3
((lp37
S"(4624, u'(?i)(apes|ape)')"
p38
aS"(2568, u'(?i)(hens|hen)')"
p39
aS"(6753, u'(?i)(da|das)')"
p40
aS"(3051, u'(?i)(pigs|pig)')"
p41
aS"(468, u'(?i)(oxen|ox)')"
p42
aS"(3062, u'(?i)(guineas|guinea)')"
p43
aS"(6249, u'(?i)(ants|ant)')"
p44
aS"(1055, u'(?i)(men|man)')"
p45
aS"(5176, u'(?i)(tegs|teg)')"
p46
aS"(3550, u'(?i)(anis|ani)')"
p47
aS"(1961, u'(?i)(pens|pen)')"
p48
aS"(3812, u'(?i)(studs|stud)')"
p49
aS"(4480, u'(?i)(guineas|guinea)(-|\\\\s+)?(pigs|pig)')"
p50
aS"(6878, u'(?i)(guans|guan)')"
p51
aS"(6356, u'(?i)(ais|ai)')"
p52
atp53
Rp54
sb.