(ifile_types
ParseObject
p0
(dp1
S'methods'
p2
c__builtin__
set
p3
((lp4
tp5
Rp6
sS'topics'
p7
g3
((lp8
S"(8, u'\\\\banxi')"
p9
aS"(26, u'\\\\bbehav')"
p10
aS"(7, u'\\\\bdepressi')"
p11
aS"(9, u'\\\\bstress')"
p12
aS"(3, u'\\\\bclinical')"
p13
atp14
Rp15
sS'receptors'
p16
g3
((lp17
(S'5ht1b'
p18
I1383
I1389
tp19
a(S'5ht1b'
p20
I1200
I1206
tp21
a(S'5ht1a'
p22
I1050
I1056
tp23
atp24
Rp25
sS'raw_text_methods'
p26
g3
((lp27
tp28
Rp29
sS'regions'
p30
g3
((lp31
tp32
Rp33
sS'year'
p34
V2002
p35
sS'species'
p36
g3
((lp37
S"(4, u'(?i)\\\\b(rats|rat)\\\\b')"
p38
atp39
Rp40
sb.