(ifile_types
ParseObject
p0
(dp1
S'antagonists'
p2
c__builtin__
set
p3
((lp4
tp5
Rp6
sS'methods'
p7
g3
((lp8
S'Method.ANTAGONIST'
p9
aS'Method.AGONIST'
p10
atp11
Rp12
sS'topics'
p13
g3
((lp14
S"(6, u'\\\\bcognit')"
p15
aS"(7, u'\\\\bmemory')"
p16
atp17
Rp18
sS'receptors'
p19
g3
((lp20
S'5ht1a'
p21
aS'5ht2'
p22
aS'5ht2a'
p23
atp24
Rp25
sS'regions'
p26
g3
((lp27
S"(292, u'(?i)(anteriors|anterior)(-|\\\\s+)?(cingulates|cingulate)')"
p28
aS"(291, u'(?i)(cingulates|cingulate)(-|\\\\s+)?(cortexes|cortex)')"
p29
aS"(248, u'(?i)(cerebrals|cerebral)(-|\\\\s+)?(cortexes|cortex)')"
p30
aS"(34, u'(?i)(pon|pons)')"
p31
atp32
Rp33
sS'year'
p34
V2002
p35
sS'agonists'
p36
g3
((lp37
S"(92, u'\\\\b8 ?oh ?dpat')"
p38
aS"(155, u'\\\\bmem')"
p39
aS"(33, u'\\\\bdoi')"
p40
atp41
Rp42
sS'species'
p43
g3
((lp44
S"(6753, u'(?i)(da|das)')"
p45
aS"(5958, u'(?i)(rats|rat)')"
p46
aS"(867, u'(?i)(tits|tit)')"
p47
aS"(4979, u'(?i)(cats|cat)')"
p48
aS"(6682, u'(?i)(tera|teras)')"
p49
aS"(1055, u'(?i)(men|man)')"
p50
aS"(4964, u'(?i)(serins|serin)')"
p51
aS"(6249, u'(?i)(ants|ant)')"
p52
aS"(3812, u'(?i)(studs|stud)')"
p53
aS"(6356, u'(?i)(ais|ai)')"
p54
atp55
Rp56
sb.