(ifile_types
ParseObject
p0
(dp1
S'antagonists'
p2
c__builtin__
set
p3
((lp4
S"(23, u'\\\\brisperidone')"
p5
aS"(123, u'\\\\bclozapine')"
p6
aS"(56, u'\\\\bclozapine')"
p7
aS"(57, u'\\\\bolanzapine')"
p8
aS"(124, u'\\\\bolanzapine')"
p9
aS"(59, u'\\\\brisperidone')"
p10
aS"(67, u'\\\\bhaloperidol')"
p11
atp12
Rp13
sS'methods'
p14
g3
((lp15
tp16
Rp17
sS'topics'
p18
g3
((lp19
S"(15, u'\\\\bschizophreni')"
p20
atp21
Rp22
sS'receptors'
p23
g3
((lp24
S'5ht6'
p25
aS'5ht5'
p26
aS'5ht1a'
p27
aS'5ht6d'
p28
aS'5ht2a'
p29
atp30
Rp31
sS'regions'
p32
g3
((lp33
S"(220, u'(?i)(striatums|striatum)')"
p34
aS"(254, u'(?i)(prefrontals|prefrontal)(-|\\\\s+)?(cortexes|cortex)')"
p35
aS"(226, u'(?i)(nuclei|nucleus)(-|\\\\s+)?(accumben|accumbens)')"
p36
aS"(255, u'(?i)(pres|pre)(-|\\\\s+)?(frontals|frontal)(-|\\\\s+)?(cortexes|cortex)')"
p37
atp38
Rp39
sS'year'
p40
V1997
p41
sS'agonists'
p42
g3
((lp43
S"(64, u'\\\\bolanzapine')"
p44
aS"(48, u'\\\\bhaloperidol')"
p45
aS"(27, u'\\\\bclozapine')"
p46
atp47
Rp48
sS'species'
p49
g3
((lp50
S"(2568, u'(?i)(hens|hen)')"
p51
aS"(6753, u'(?i)(da|das)')"
p52
aS"(1349, u'(?i)(rams|ram)')"
p53
aS"(6249, u'(?i)(ants|ant)')"
p54
aS"(2334, u'(?i)(eels|eel)')"
p55
aS"(5743, u'(?i)(bots|bot)')"
p56
aS"(5958, u'(?i)(rats|rat)')"
p57
aS"(3812, u'(?i)(studs|stud)')"
p58
aS"(2809, u'(?i)(toms|tom)')"
p59
aS"(6356, u'(?i)(ais|ai)')"
p60
atp61
Rp62
sb.