(ifile_types
ParseObject
p0
(dp1
S'methods'
p2
c__builtin__
set
p3
((lp4
S'Method.ANTAGONIST'
p5
atp6
Rp7
sS'topics'
p8
g3
((lp9
S"(32, u'\\\\bvomit')"
p10
atp11
Rp12
sS'receptors'
p13
g3
((lp14
(S'5ht3'
p15
I202
I207
tp16
a(S'5ht3'
p17
I543
I548
tp18
a(S'5ht3'
p19
I478
I483
tp20
a(S'5ht3'
p21
I765
I770
tp22
a(S'5ht3'
p23
I631
I636
tp24
a(S'5ht3'
p25
I1517
I1522
tp26
a(S'5ht3'
p27
I64
I69
tp28
a(S'5ht1'
p29
I1436
I1441
tp30
a(S'5ht2'
p31
I1443
I1448
tp32
atp33
Rp34
sS'raw_text_methods'
p35
g3
((lp36
S"(28, u'\\\\bzacopride')"
p37
aS"(12, u'\\\\bantagonist')"
p38
atp39
Rp40
sS'regions'
p41
g3
((lp42
S"(19, u'(?i)\\\\b(cortexes|cortex)\\\\b')"
p43
atp44
Rp45
sS'year'
p46
V1992
p47
sS'species'
p48
g3
((lp49
S"(7, u'(?i)\\\\b(guineas|guinea)(-|\\\\s+)?(pigs|pig)\\\\b')"
p50
aS"(4, u'(?i)\\\\b(rats|rat)\\\\b')"
p51
atp52
Rp53
sb.