(ifile_types
ParseObject
p0
(dp1
S'antagonists'
p2
c__builtin__
set
p3
((lp4
tp5
Rp6
sS'methods'
p7
g3
((lp8
S'Method.PET'
p9
atp10
Rp11
sS'topics'
p12
g3
((lp13
S"(29, u'\\\\bsex')"
p14
aS"(19, u'\\\\bimpulsiv')"
p15
aS"(20, u'\\\\baggressi')"
p16
atp17
Rp18
sS'receptors'
p19
g3
((lp20
S'5ht1a'
p21
atp22
Rp23
sS'regions'
p24
g3
((lp25
S"(292, u'(?i)\\\\b(anteriors|anterior)(-|\\\\s+)?(cingulates|cingulate)\\\\b')"
p26
aS"(254, u'(?i)\\\\b(prefrontals|prefrontal)(-|\\\\s+)?(cortexes|cortex)\\\\b')"
p27
aS"(209, u'(?i)\\\\b(amygdalas|amygdala)\\\\b')"
p28
aS"(255, u'(?i)\\\\b(pres|pre)(-|\\\\s+)?(frontals|frontal)(-|\\\\s+)?(cortexes|cortex)\\\\b')"
p29
atp30
Rp31
sS'year'
p32
V2009
p33
sS'agonists'
p34
g3
((lp35
tp36
Rp37
sS'species'
p38
g3
((lp39
S"(1057, u'(?i)\\\\b(humans|human)\\\\b')"
p40
aS"(1070, u'(?i)\\\\b(pets|pet)\\\\b')"
p41
aS"(3196, u'(?i)\\\\b(human|humans)\\\\b')"
p42
atp43
Rp44
sb.