(ifile_types
ParseObject
p0
(dp1
S'methods'
p2
c__builtin__
set
p3
((lp4
S'Method.ANTAGONIST'
p5
aS'Method.IMMUNOHISTOCHEMISTRY'
p6
atp7
Rp8
sS'topics'
p9
g3
((lp10
S"(6, u'\\\\baggressi')"
p11
aS"(26, u'\\\\bbehav')"
p12
aS"(4, u'\\\\btreatment')"
p13
atp14
Rp15
sS'receptors'
p16
g3
((lp17
(S'5ht2a'
p18
I1556
I1562
tp19
a(S'5ht2a'
p20
I602
I608
tp21
a(S'5ht2a'
p22
I910
I916
tp23
a(S'5ht2'
p24
I1291
I1296
tp25
a(S'5ht2a'
p26
I120
I131
tp27
a(S'5ht2'
p28
I1159
I1164
tp29
a(S'5ht2'
p30
I1134
I1139
tp31
a(S'5ht2'
p32
I1483
I1488
tp33
atp34
Rp35
sS'raw_text_methods'
p36
g3
((lp37
S"(12, u'\\\\bantagonist')"
p38
atp39
Rp40
sS'regions'
p41
g3
((lp42
tp43
Rp44
sS'year'
p45
V2009
p46
sS'species'
p47
g3
((lp48
S"(3, u'(?i)\\\\b(males|male)\\\\b')"
p49
atp50
Rp51
sb.