(ifile_types
ParseObject
p0
(dp1
S'methods'
p2
c__builtin__
set
p3
((lp4
tp5
Rp6
sS'topics'
p7
g3
((lp8
S"(9, u'\\\\bstress')"
p9
aS"(4, u'\\\\btreatment')"
p10
atp11
Rp12
sS'receptors'
p13
g3
((lp14
(S'5ht1'
p15
I1354
I1359
tp16
a(S'5ht1'
p17
I1693
I1698
tp18
a(S'5ht1'
p19
I1659
I1664
tp20
a(S'5ht1'
p21
I696
I701
tp22
atp23
Rp24
sS'raw_text_methods'
p25
g3
((lp26
tp27
Rp28
sS'regions'
p29
g3
((lp30
tp31
Rp32
sS'year'
p33
V2004
p34
sS'species'
p35
g3
((lp36
S"(4, u'(?i)\\\\b(rats|rat)\\\\b')"
p37
atp38
Rp39
sb.