(ifile_types
ParseObject
p0
(dp1
S'antagonists'
p2
c__builtin__
set
p3
((lp4
tp5
Rp6
sS'methods'
p7
g3
((lp8
S'Method.ANTAGONIST'
p9
aS'Method.AGONIST'
p10
atp11
Rp12
sS'topics'
p13
g3
((lp14
tp15
Rp16
sS'receptors'
p17
g3
((lp18
S'5ht1b'
p19
atp20
Rp21
sS'regions'
p22
g3
((lp23
S"(158, u'(?i)\\\\b(suprachiasmatics|suprachiasmatic)(-|\\\\s+)?(nuclei|nucleus)\\\\b')"
p24
atp25
Rp26
sS'year'
p27
V2005
p28
sS'agonists'
p29
g3
((lp30
S"(100, u'\\\\bcp ?93129')"
p31
atp32
Rp33
sS'species'
p34
g3
((lp35
S"(163, u'(?i)\\\\b(mice|mouse)\\\\b')"
p36
aS"(5958, u'(?i)\\\\b(rats|rat)\\\\b')"
p37
atp38
Rp39
sb.