(ifile_types
ParseObject
p0
(dp1
S'antagonists'
p2
c__builtin__
set
p3
((lp4
tp5
Rp6
sS'methods'
p7
g3
((lp8
S'Method.PET'
p9
atp10
Rp11
sS'topics'
p12
g3
((lp13
tp14
Rp15
sS'receptors'
p16
g3
((lp17
S'5ht4'
p18
atp19
Rp20
sS'regions'
p21
g3
((lp22
tp23
Rp24
sS'year'
p25
V2014
p26
sS'agonists'
p27
g3
((lp28
tp29
Rp30
sS'species'
p31
g3
((lp32
S"(4624, u'(?i)(apes|ape)')"
p33
aS"(2401, u'(?i)(primates|primate)')"
p34
aS"(3592, u'(?i)(ravens|raven)')"
p35
aS"(6391, u'(?i)(asses|ass)')"
p36
aS"(6356, u'(?i)(ais|ai)')"
p37
aS"(3196, u'(?i)(human|humans)')"
p38
aS"(1070, u'(?i)(pets|pet)')"
p39
aS"(479, u'(?i)(lings|ling)')"
p40
aS"(4091, u'(?i)(adults|adult)')"
p41
aS"(2809, u'(?i)(toms|tom)')"
p42
aS"(2341, u'(?i)(monkeys|monkey)')"
p43
aS"(6753, u'(?i)(da|das)')"
p44
aS"(6249, u'(?i)(ants|ant)')"
p45
aS"(7609, u'(?i)(erns|ern)')"
p46
aS"(1055, u'(?i)(men|man)')"
p47
aS"(4597, u'(?i)(rhesuses|rhesus)(-|\\\\s+)?(monkeys|monkey)')"
p48
aS"(6215, u'(?i)(racers|racer)')"
p49
aS"(4979, u'(?i)(cats|cat)')"
p50
aS"(1057, u'(?i)(humans|human)')"
p51
aS"(4371, u'(?i)(lizas|liza)')"
p52
aS"(4596, u'(?i)(rhesuses|rhesus)')"
p53
aS"(2568, u'(?i)(hens|hen)')"
p54
aS"(853, u'(?i)(minas|mina)')"
p55
aS"(3726, u'(?i)(mates|mate)')"
p56
aS"(2292, u'(?i)(adders|adder)')"
p57
atp58
Rp59
sb.