(ifile_types
ParseObject
p0
(dp1
S'antagonists'
p2
c__builtin__
set
p3
((lp4
S"(203, u'\\\\btfmpp')"
p5
aS"(11, u'\\\\bisamoltane')"
p6
atp7
Rp8
sS'methods'
p9
g3
((lp10
tp11
Rp12
sS'topics'
p13
g3
((lp14
tp15
Rp16
sS'receptors'
p17
g3
((lp18
S'5ht1c'
p19
aS'5ht1b'
p20
aS'5ht1a'
p21
aS'5ht1'
p22
aS'5ht1d'
p23
aS'5ht5'
p24
atp25
Rp26
sS'regions'
p27
g3
((lp28
S"(103, u'(?i)\\\\b(substantias|substantia)(-|\\\\s+)?(nigras|nigra)\\\\b')"
p29
atp30
Rp31
sS'year'
p32
V1989
p33
sS'agonists'
p34
g3
((lp35
S"(178, u'\\\\btfmpp')"
p36
aS"(192, u'\\\\bquipazine')"
p37
aS"(155, u'\\\\bmcpp')"
p38
atp39
Rp40
sS'species'
p41
g3
((lp42
S"(3051, u'(?i)\\\\b(pigs|pig)\\\\b')"
p43
aS"(1883, u'(?i)\\\\b(calves|calf)\\\\b')"
p44
aS"(5958, u'(?i)\\\\b(rats|rat)\\\\b')"
p45
atp46
Rp47
sb.