(ifile_types
ParseObject
p0
(dp1
S'antagonists'
p2
c__builtin__
set
p3
((lp4
S"(11, u'\\\\bisamoltane')"
p5
atp6
Rp7
sS'methods'
p8
g3
((lp9
S'Method.AGONIST'
p10
atp11
Rp12
sS'topics'
p13
g3
((lp14
S"(31, u'\\\\bobesity')"
p15
aS"(16, u'\\\\bfeed')"
p16
atp17
Rp18
sS'receptors'
p19
g3
((lp20
S'5ht1b'
p21
aS'5ht1'
p22
aS'5ht6'
p23
atp24
Rp25
sS'regions'
p26
g3
((lp27
S"(159, u'(?i)\\\\b(paraventriculars|paraventricular)(-|\\\\s+)?(nuclei|nucleus)\\\\b')"
p28
atp29
Rp30
sS'year'
p31
V2012
p32
sS'agonists'
p33
g3
((lp34
S"(100, u'\\\\bcp ?93129')"
p35
atp36
Rp37
sS'species'
p38
g3
((lp39
S"(4091, u'(?i)\\\\b(adults|adult)\\\\b')"
p40
aS"(163, u'(?i)\\\\b(mice|mouse)\\\\b')"
p41
atp42
Rp43
sb.