(ifile_types
ParseObject
p0
(dp1
S'methods'
p2
c__builtin__
set
p3
((lp4
S'Method.ANTAGONIST'
p5
atp6
Rp7
sS'topics'
p8
g3
((lp9
S"(24, u'\\\\banxiolytic')"
p10
aS"(8, u'\\\\banxi')"
p11
atp12
Rp13
sS'receptors'
p14
g3
((lp15
(S'5ht1a'
p16
I81
I87
tp17
a(S'5ht1b'
p18
I822
I828
tp19
a(S'5ht1a'
p20
I311
I317
tp21
a(S'5ht1a'
p22
I1511
I1517
tp23
a(S'5ht1a'
p24
I632
I638
tp25
a(S'5ht1a'
p26
I811
I817
tp27
a(S'5ht1c'
p28
I954
I960
tp29
a(S'5ht2'
p30
I948
I953
tp31
atp32
Rp33
sS'raw_text_methods'
p34
g3
((lp35
S"(32, u'\\\\blesions')"
p36
aS"(45, u'\\\\bmetergoline')"
p37
aS"(9, u'\\\\britanserin')"
p38
aS"(21, u'\\\\bipsapirone')"
p39
aS"(12, u'\\\\bantagonist')"
p40
atp41
Rp42
sS'regions'
p43
g3
((lp44
tp45
Rp46
sS'year'
p47
V1991
p48
sS'species'
p49
g3
((lp50
S"(4, u'(?i)\\\\b(rats|rat)\\\\b')"
p51
atp52
Rp53
sb.