(ifile_types
ParseObject
p0
(dp1
S'methods'
p2
c__builtin__
set
p3
((lp4
tp5
Rp6
sS'topics'
p7
g3
((lp8
S"(4, u'\\\\btreatment')"
p9
atp10
Rp11
sS'receptors'
p12
g3
((lp13
(S'5ht2a'
p14
I677
I683
tp15
a(S'5ht1a'
p16
I547
I553
tp17
a(S'5ht2a'
p18
I797
I803
tp19
a(S'5ht2a'
p20
I90
I96
tp21
a(S'5ht1a'
p22
I366
I372
tp23
a(S'5ht2a'
p24
I953
I959
tp25
a(S'5ht1a'
p26
I79
I85
tp27
a(S'5ht1a'
p28
I942
I948
tp29
atp30
Rp31
sS'raw_text_methods'
p32
g3
((lp33
S"(22, u'\\\\bbuspirone')"
p34
atp35
Rp36
sS'regions'
p37
g3
((lp38
tp39
Rp40
sS'year'
p41
V1995
p42
sS'species'
p43
g3
((lp44
S"(4, u'(?i)\\\\b(rats|rat)\\\\b')"
p45
atp46
Rp47
sb.