(ifile_types
ParseObject
p0
(dp1
S'methods'
p2
c__builtin__
set
p3
((lp4
S'Method.PET'
p5
atp6
Rp7
sS'topics'
p8
g3
((lp9
S"(26, u'\\\\bbehav')"
p10
aS"(15, u'\\\\bmemory')"
p11
atp12
Rp13
sS'receptors'
p14
g3
((lp15
(S'5ht4'
p16
I929
I934
tp17
a(S'5ht4'
p18
I1375
I1380
tp19
a(S'5ht4'
p20
I1473
I1478
tp21
a(S'5ht4'
p22
I1164
I1169
tp23
a(S'5ht4'
p24
I473
I478
tp25
a(S'5ht4'
p26
I250
I255
tp27
a(S'5ht4'
p28
I228
I238
tp29
a(S'5ht4'
p30
I734
I739
tp31
a(S'5ht4'
p32
I39
I49
tp33
a(S'5ht4'
p34
I584
I589
tp35
atp36
Rp37
sS'raw_text_methods'
p38
g3
((lp39
S"(19, u'\\\\bpositron emission tomography')"
p40
atp41
Rp42
sS'regions'
p43
g3
((lp44
S"(11, u'(?i)\\\\b(cerebrals|cerebral)\\\\b')"
p45
atp46
Rp47
sS'year'
p48
V2017
p49
sS'species'
p50
g3
((lp51
tp52
Rp53
sb.