(ifile_types
ParseObject
p0
(dp1
S'antagonists'
p2
c__builtin__
set
p3
((lp4
S"(32, u'\\\\bway ?100635')"
p5
atp6
Rp7
sS'methods'
p8
g3
((lp9
S'Method.ANTAGONIST'
p10
atp11
Rp12
sS'topics'
p13
g3
((lp14
S"(8, u'\\\\blearning')"
p15
aS"(7, u'\\\\bmemory')"
p16
atp17
Rp18
sS'receptors'
p19
g3
((lp20
S'5ht1a'
p21
atp22
Rp23
sS'regions'
p24
g3
((lp25
tp26
Rp27
sS'year'
p28
V1997
p29
sS'agonists'
p30
g3
((lp31
S"(155, u'\\\\bmem')"
p32
atp33
Rp34
sS'species'
p35
g3
((lp36
S"(5537, u'(?i)(hippos|hippo)')"
p37
aS"(5958, u'(?i)(rats|rat)')"
p38
aS"(6753, u'(?i)(da|das)')"
p39
aS"(2389, u'(?i)(spats|spat)')"
p40
aS"(6682, u'(?i)(tera|teras)')"
p41
aS"(1055, u'(?i)(men|man)')"
p42
aS"(6249, u'(?i)(ants|ant)')"
p43
aS"(1349, u'(?i)(rams|ram)')"
p44
aS"(853, u'(?i)(minas|mina)')"
p45
aS"(3550, u'(?i)(anis|ani)')"
p46
aS"(7094, u'(?i)(curs|cur)')"
p47
aS"(1961, u'(?i)(pens|pen)')"
p48
aS"(3812, u'(?i)(studs|stud)')"
p49
aS"(6391, u'(?i)(asses|ass)')"
p50
aS"(2809, u'(?i)(toms|tom)')"
p51
aS"(6356, u'(?i)(ais|ai)')"
p52
atp53
Rp54
sb.