(ifile_types
ParseObject
p0
(dp1
S'methods'
p2
c__builtin__
set
p3
((lp4
tp5
Rp6
sS'topics'
p7
g3
((lp8
S"(12, u'\\\\bsleep')"
p9
aS"(7, u'\\\\bdepressi')"
p10
atp11
Rp12
sS'receptors'
p13
g3
((lp14
(S'5ht3'
p15
I1507
I1512
tp16
atp17
Rp18
sS'raw_text_methods'
p19
g3
((lp20
S"(36, u'\\\\bbenzodiazepine')"
p21
aS"(31, u'\\\\bbenzodiazepines')"
p22
atp23
Rp24
sS'regions'
p25
g3
((lp26
S"(8, u'(?i)\\\\b(centrals|central)(-|\\\\s+)?(nervouses|nervous)(-|\\\\s+)?(systems|system)\\\\b')"
p27
atp28
Rp29
sS'year'
p30
V1998
p31
sS'species'
p32
g3
((lp33
S"(4, u'(?i)\\\\b(rats|rat)\\\\b')"
p34
atp35
Rp36
sb.