(ifile_types
ParseObject
p0
(dp1
S'methods'
p2
c__builtin__
set
p3
((lp4
S'Method.KNOCKOUT'
p5
aS'Method.ANTAGONIST'
p6
atp7
Rp8
sS'topics'
p9
g3
((lp10
S"(33, u'\\\\blocomot')"
p11
atp12
Rp13
sS'receptors'
p14
g3
((lp15
(S'5ht1a'
p16
I465
I471
tp17
a(S'5ht1a'
p18
I663
I669
tp19
a(S'5ht1a'
p20
I44
I50
tp21
a(S'5ht1a'
p22
I885
I891
tp23
a(S'5ht1a'
p24
I1534
I1540
tp25
a(S'5ht1a'
p26
I1858
I1864
tp27
atp28
Rp29
sS'raw_text_methods'
p30
g3
((lp31
S"(5, u'\\\\bmk801')"
p32
aS"(12, u'\\\\bantagonist')"
p33
atp34
Rp35
sS'regions'
p36
g3
((lp37
S"(20, u'(?i)\\\\b(prefrontals|prefrontal)\\\\b')"
p38
aS"(21, u'(?i)\\\\b(mpfcs|mpfc)\\\\b')"
p39
aS"(19, u'(?i)\\\\b(cortexes|cortex)\\\\b')"
p40
atp41
Rp42
sS'year'
p43
V2008
p44
sS'species'
p45
g3
((lp46
S"(1, u'(?i)\\\\b(mice|mouse)\\\\b')"
p47
aS"(5, u'(?i)\\\\b(mices|mice)\\\\b')"
p48
atp49
Rp50
sb.