(ifile_types
ParseObject
p0
(dp1
S'methods'
p2
c__builtin__
set
p3
((lp4
tp5
Rp6
sS'topics'
p7
g3
((lp8
tp9
Rp10
sS'receptors'
p11
g3
((lp12
(S'5ht1a'
p13
I239
I245
tp14
a(S'5ht1a'
p15
I1558
I1564
tp16
a(S'5ht1a'
p17
I1899
I1905
tp18
a(S'5ht1a'
p19
I1186
I1192
tp20
a(S'5ht1a'
p21
I541
I547
tp22
a(S'5ht1a'
p23
I75
I81
tp24
atp25
Rp26
sS'raw_text_methods'
p27
g3
((lp28
S"(46, u'\\\\bspiperone')"
p29
aS"(15, u'\\\\b8ohdpat')"
p30
aS"(21, u'\\\\bipsapirone')"
p31
aS"(22, u'\\\\bbuspirone')"
p32
atp33
Rp34
sS'regions'
p35
g3
((lp36
S"(11, u'(?i)\\\\b(cerebrals|cerebral)\\\\b')"
p37
aS"(19, u'(?i)\\\\b(cortexes|cortex)\\\\b')"
p38
atp39
Rp40
sS'year'
p41
V1991
p42
sS'species'
p43
g3
((lp44
S"(7, u'(?i)\\\\b(guineas|guinea)(-|\\\\s+)?(pigs|pig)\\\\b')"
p45
aS"(4, u'(?i)\\\\b(rats|rat)\\\\b')"
p46
atp47
Rp48
sb.