(ifile_types
ParseObject
p0
(dp1
S'antagonists'
p2
c__builtin__
set
p3
((lp4
tp5
Rp6
sS'methods'
p7
g3
((lp8
S'Method.IMMUNOHISTOCHEMISTRY'
p9
atp10
Rp11
sS'topics'
p12
g3
((lp13
S"(29, u'\\\\bsex')"
p14
aS"(10, u'\\\\banxiety')"
p15
aS"(20, u'\\\\baggressi')"
p16
atp17
Rp18
sS'receptors'
p19
g3
((lp20
S'5ht3a'
p21
atp22
Rp23
sS'regions'
p24
g3
((lp25
S"(248, u'(?i)\\\\b(cerebrals|cerebral)(-|\\\\s+)?(cortexes|cortex)\\\\b')"
p26
aS"(209, u'(?i)\\\\b(amygdalas|amygdala)\\\\b')"
p27
aS"(226, u'(?i)\\\\b(nuclei|nucleus)(-|\\\\s+)?(accumben|accumbens)\\\\b')"
p28
atp29
Rp30
sS'year'
p31
V2010
p32
sS'agonists'
p33
g3
((lp34
tp35
Rp36
sS'species'
p37
g3
((lp38
S"(5218, u'(?i)\\\\b(mesocricetuses|mesocricetus)(-|\\\\s+)?(auratuses|auratus)\\\\b')"
p39
aS"(4099, u'(?i)\\\\b(hamsters|hamster)\\\\b')"
p40
aS"(5217, u'(?i)\\\\b(syrians|syrian)(-|\\\\s+)?(hamsters|hamster)\\\\b')"
p41
atp42
Rp43
sb.