(ifile_types
ParseObject
p0
(dp1
S'antagonists'
p2
c__builtin__
set
p3
((lp4
S"(104, u'\\\\bimipramine')"
p5
aS"(203, u'\\\\btfmpp')"
p6
aS"(119, u'\\\\britanserin')"
p7
aS"(22, u'\\\\bpropranolol')"
p8
atp9
Rp10
sS'methods'
p11
g3
((lp12
S'Method.ANTAGONIST'
p13
aS'Method.AGONIST'
p14
atp15
Rp16
sS'topics'
p17
g3
((lp18
tp19
Rp20
sS'receptors'
p21
g3
((lp22
S'5ht1b'
p23
aS'5ht1a'
p24
aS'5ht2b'
p25
aS'5ht2'
p26
aS'5ht1'
p27
atp28
Rp29
sS'regions'
p30
g3
((lp31
tp32
Rp33
sS'year'
p34
V1990
p35
sS'agonists'
p36
g3
((lp37
S"(178, u'\\\\btfmpp')"
p38
aS"(85, u'\\\\b8 ?oh ?dpat')"
p39
atp40
Rp41
sS'species'
p42
g3
((lp43
S"(2054, u'(?i)\\\\b(heads|head)\\\\b')"
p44
aS"(163, u'(?i)\\\\b(mice|mouse)\\\\b')"
p45
aS"(5958, u'(?i)\\\\b(rats|rat)\\\\b')"
p46
atp47
Rp48
sb.