(ifile_types
ParseObject
p0
(dp1
S'antagonists'
p2
c__builtin__
set
p3
((lp4
S"(14, u'\\\\bmethiothepin')"
p5
aS"(45, u'\\\\bgr ?127935')"
p6
atp7
Rp8
sS'methods'
p9
g3
((lp10
S'Method.STIMULATION'
p11
aS'Method.ANTAGONIST'
p12
aS'Method.AGONIST'
p13
atp14
Rp15
sS'topics'
p16
g3
((lp17
tp18
Rp19
sS'receptors'
p20
g3
((lp21
S'5ht5c'
p22
aS'5ht1d'
p23
atp24
Rp25
sS'regions'
p26
g3
((lp27
S"(248, u'(?i)(cerebrals|cerebral)(-|\\\\s+)?(cortexes|cortex)')"
p28
aS"(34, u'(?i)(pon|pons)')"
p29
atp30
Rp31
sS'year'
p32
V1996
p33
sS'agonists'
p34
g3
((lp35
S"(103, u'\\\\bsumatriptan')"
p36
aS"(105, u'\\\\b5 ?carboxamidotryptamine')"
p37
atp38
Rp39
sS'species'
p40
g3
((lp41
S"(6753, u'(?i)(da|das)')"
p42
aS"(2568, u'(?i)(hens|hen)')"
p43
aS"(6356, u'(?i)(ais|ai)')"
p44
aS"(5743, u'(?i)(bots|bot)')"
p45
aS"(3051, u'(?i)(pigs|pig)')"
p46
aS"(468, u'(?i)(oxen|ox)')"
p47
aS"(3062, u'(?i)(guineas|guinea)')"
p48
aS"(7094, u'(?i)(curs|cur)')"
p49
aS"(853, u'(?i)(minas|mina)')"
p50
aS"(6249, u'(?i)(ants|ant)')"
p51
aS"(1414, u'(?i)(chars|char)')"
p52
aS"(4480, u'(?i)(guineas|guinea)(-|\\\\s+)?(pigs|pig)')"
p53
aS"(821, u'(?i)(lice|louse)')"
p54
atp55
Rp56
sb.