(ifile_types
ParseObject
p0
(dp1
S'antagonists'
p2
c__builtin__
set
p3
((lp4
S"(12, u'\\\\blecozotan')"
p5
aS"(32, u'\\\\bway ?100635')"
p6
atp7
Rp8
sS'methods'
p9
g3
((lp10
S'Method.PET'
p11
aS'Method.ANTAGONIST'
p12
atp13
Rp14
sS'topics'
p15
g3
((lp16
S"(33, u'\\\\balzheimers')"
p17
atp18
Rp19
sS'receptors'
p20
g3
((lp21
S'5ht1a'
p22
atp23
Rp24
sS'regions'
p25
g3
((lp26
tp27
Rp28
sS'year'
p29
V2008
p30
sS'agonists'
p31
g3
((lp32
tp33
Rp34
sS'species'
p35
g3
((lp36
S"(1070, u'(?i)(pets|pet)')"
p37
aS"(4624, u'(?i)(apes|ape)')"
p38
aS"(6753, u'(?i)(da|das)')"
p39
aS"(1628, u'(?i)(cod|cod)')"
p40
aS"(4201, u'(?i)(kines|kine)')"
p41
aS"(6249, u'(?i)(ants|ant)')"
p42
aS"(468, u'(?i)(oxen|ox)')"
p43
aS"(1055, u'(?i)(men|man)')"
p44
aS"(3726, u'(?i)(mates|mate)')"
p45
aS"(3812, u'(?i)(studs|stud)')"
p46
aS"(5958, u'(?i)(rats|rat)')"
p47
aS"(1057, u'(?i)(humans|human)')"
p48
aS"(6391, u'(?i)(asses|ass)')"
p49
aS"(3247, u'(?i)(youngs|young)')"
p50
aS"(3196, u'(?i)(human|humans)')"
p51
aS"(2809, u'(?i)(toms|tom)')"
p52
aS"(6356, u'(?i)(ais|ai)')"
p53
atp54
Rp55
sb.