(ifile_types
ParseObject
p0
(dp1
S'antagonists'
p2
c__builtin__
set
p3
((lp4
S"(53, u'\\\\bketanserin')"
p5
aS"(130, u'\\\\britanserin')"
p6
aS"(105, u'\\\\bmethysergide')"
p7
aS"(128, u'\\\\bketanserin')"
p8
aS"(54, u'\\\\britanserin')"
p9
aS"(117, u'\\\\bmianserin')"
p10
aS"(22, u'\\\\bpropranolol')"
p11
atp12
Rp13
sS'methods'
p14
g3
((lp15
S'Method.ANTAGONIST'
p16
aS'Method.AGONIST'
p17
atp18
Rp19
sS'topics'
p20
g3
((lp21
tp22
Rp23
sS'receptors'
p24
g3
((lp25
S'5ht1c'
p26
aS'5ht1b'
p27
aS'5ht1a'
p28
aS'5ht3a'
p29
aS'5ht2'
p30
aS'5ht1'
p31
aS'5ht2a'
p32
atp33
Rp34
sS'regions'
p35
g3
((lp36
tp37
Rp38
sS'year'
p39
V1991
p40
sS'agonists'
p41
g3
((lp42
S"(74, u'\\\\bru ?24969')"
p43
aS"(105, u'\\\\b5 ?carboxamidotryptamine')"
p44
aS"(5, u'\\\\b5 ?ct')"
p45
aS"(92, u'\\\\b8 ?oh ?dpat')"
p46
aS"(60, u'\\\\bmethysergide')"
p47
atp48
Rp49
sS'species'
p50
g3
((lp51
S"(2568, u'(?i)(hens|hen)')"
p52
aS"(5743, u'(?i)(bots|bot)')"
p53
aS"(468, u'(?i)(oxen|ox)')"
p54
aS"(1055, u'(?i)(men|man)')"
p55
aS"(6249, u'(?i)(ants|ant)')"
p56
aS"(7488, u'(?i)(molas|mola)')"
p57
aS"(4964, u'(?i)(serins|serin)')"
p58
aS"(5958, u'(?i)(rats|rat)')"
p59
aS"(3522, u'(?i)(tetras|tetra)')"
p60
aS"(7094, u'(?i)(curs|cur)')"
p61
aS"(1961, u'(?i)(pens|pen)')"
p62
aS"(6356, u'(?i)(ais|ai)')"
p63
atp64
Rp65
sb.