(ifile_types
ParseObject
p0
(dp1
S'antagonists'
p2
c__builtin__
set
p3
((lp4
S"(32, u'\\\\bway ?100635')"
p5
atp6
Rp7
sS'methods'
p8
g3
((lp9
S'Method.ANTAGONIST'
p10
atp11
Rp12
sS'topics'
p13
g3
((lp14
S"(8, u'\\\\blearning')"
p15
aS"(6, u'\\\\bcognit')"
p16
aS"(21, u'\\\\bpain')"
p17
aS"(7, u'\\\\bmemory')"
p18
atp19
Rp20
sS'receptors'
p21
g3
((lp22
S'5ht1a'
p23
atp24
Rp25
sS'regions'
p26
g3
((lp27
tp28
Rp29
sS'year'
p30
V2014
p31
sS'agonists'
p32
g3
((lp33
S"(25, u'\\\\bcannabidiol')"
p34
aS"(155, u'\\\\bmem')"
p35
atp36
Rp37
sS'species'
p38
g3
((lp39
S"(6753, u'(?i)(da|das)')"
p40
aS"(2568, u'(?i)(hens|hen)')"
p41
aS"(6125, u'(?i)(females|female)')"
p42
aS"(7609, u'(?i)(erns|ern)')"
p43
aS"(5958, u'(?i)(rats|rat)')"
p44
aS"(163, u'(?i)(mice|mouse)')"
p45
aS"(4163, u'(?i)(ermines|ermine)')"
p46
aS"(5967, u'(?i)(males|male)')"
p47
aS"(468, u'(?i)(oxen|ox)')"
p48
aS"(1055, u'(?i)(men|man)')"
p49
aS"(6249, u'(?i)(ants|ant)')"
p50
aS"(4979, u'(?i)(cats|cat)')"
p51
aS"(3550, u'(?i)(anis|ani)')"
p52
aS"(6682, u'(?i)(tera|teras)')"
p53
aS"(6981, u'(?i)(moths|moth)')"
p54
aS"(5917, u'(?i)(roaches|roach)')"
p55
aS"(6356, u'(?i)(ais|ai)')"
p56
aS"(6391, u'(?i)(asses|ass)')"
p57
aS"(1683, u'(?i)(terns|tern)')"
p58
atp59
Rp60
sb.