(ifile_types
ParseObject
p0
(dp1
S'methods'
p2
c__builtin__
set
p3
((lp4
tp5
Rp6
sS'topics'
p7
g3
((lp8
S"(26, u'\\\\bbehav')"
p9
aS"(16, u'\\\\blearning')"
p10
aS"(33, u'\\\\blocomot')"
p11
aS"(6, u'\\\\baggressi')"
p12
aS"(18, u'\\\\bavoidan')"
p13
aS"(8, u'\\\\banxi')"
p14
atp15
Rp16
sS'receptors'
p17
g3
((lp18
(S'5ht1a'
p19
I1442
I1448
tp20
atp21
Rp22
sS'raw_text_methods'
p23
g3
((lp24
tp25
Rp26
sS'regions'
p27
g3
((lp28
S"(12, u'(?i)\\\\b(amygdalas|amygdala)\\\\b')"
p29
aS"(23, u'(?i)\\\\b(forebrains|forebrain)\\\\b')"
p30
atp31
Rp32
sS'year'
p33
V2014
p34
sS'species'
p35
g3
((lp36
S"(1, u'(?i)\\\\b(mice|mouse)\\\\b')"
p37
aS"(5, u'(?i)\\\\b(mices|mice)\\\\b')"
p38
atp39
Rp40
sb.