(ifile_types
ParseObject
p0
(dp1
S'methods'
p2
c__builtin__
set
p3
((lp4
S'Method.PET'
p5
atp6
Rp7
sS'topics'
p8
g3
((lp9
S"(14, u'\\\\bcogniti')"
p10
aS"(9, u'\\\\bstress')"
p11
aS"(4, u'\\\\btreatment')"
p12
atp13
Rp14
sS'receptors'
p15
g3
((lp16
(S'5ht1a'
p17
I551
I557
tp18
atp19
Rp20
sS'raw_text_methods'
p21
g3
((lp22
S"(17, u'\\\\bpet')"
p23
atp24
Rp25
sS'regions'
p26
g3
((lp27
S"(22, u'(?i)\\\\b(anteriors|anterior)(-|\\\\s+)?(cingulates|cingulate)\\\\b')"
p28
aS"(20, u'(?i)\\\\b(prefrontals|prefrontal)\\\\b')"
p29
aS"(19, u'(?i)\\\\b(cortexes|cortex)\\\\b')"
p30
aS"(17, u'(?i)\\\\b(caudates|caudate)\\\\b')"
p31
aS"(18, u'(?i)\\\\b(putamens|putamen)\\\\b')"
p32
atp33
Rp34
sS'year'
p35
V2013
p36
sS'species'
p37
g3
((lp38
tp39
Rp40
sb.