(ifile_types
ParseObject
p0
(dp1
S'antagonists'
p2
c__builtin__
set
p3
((lp4
tp5
Rp6
sS'methods'
p7
g3
((lp8
S'Method.AGONIST'
p9
atp10
Rp11
sS'topics'
p12
g3
((lp13
S"(9, u'\\\\bdepress')"
p14
atp15
Rp16
sS'receptors'
p17
g3
((lp18
S'5ht1b'
p19
aS'5ht1d'
p20
atp21
Rp22
sS'regions'
p23
g3
((lp24
tp25
Rp26
sS'year'
p27
V2000
p28
sS'agonists'
p29
g3
((lp30
S"(103, u'\\\\bsumatriptan')"
p31
aS"(56, u'\\\\blsd')"
p32
atp33
Rp34
sS'species'
p35
g3
((lp36
S"(2054, u'(?i)(heads|head)')"
p37
aS"(6753, u'(?i)(da|das)')"
p38
aS"(5958, u'(?i)(rats|rat)')"
p39
aS"(5743, u'(?i)(bots|bot)')"
p40
aS"(468, u'(?i)(oxen|ox)')"
p41
aS"(1055, u'(?i)(men|man)')"
p42
aS"(6249, u'(?i)(ants|ant)')"
p43
aS"(4979, u'(?i)(cats|cat)')"
p44
aS"(3550, u'(?i)(anis|ani)')"
p45
aS"(7094, u'(?i)(curs|cur)')"
p46
aS"(3812, u'(?i)(studs|stud)')"
p47
aS"(6391, u'(?i)(asses|ass)')"
p48
aS"(6356, u'(?i)(ais|ai)')"
p49
atp50
Rp51
sb.