(ifile_types
ParseObject
p0
(dp1
S'methods'
p2
c__builtin__
set
p3
((lp4
S'Method.STAINING'
p5
atp6
Rp7
sS'topics'
p8
g3
((lp9
tp10
Rp11
sS'receptors'
p12
g3
((lp13
(S'5ht1b'
p14
I441
I447
tp15
a(S'5ht1b'
p16
I1559
I1565
tp17
a(S'5ht1b'
p18
I300
I306
tp19
a(S'5ht1b'
p20
I1660
I1666
tp21
a(S'5ht1b'
p22
I1332
I1338
tp23
a(S'5ht1b'
p24
I1256
I1262
tp25
a(S'5ht1b'
p26
I1043
I1049
tp27
a(S'5ht1b'
p28
I733
I739
tp29
a(S'5ht1b'
p30
I100
I106
tp31
atp32
Rp33
sS'raw_text_methods'
p34
g3
((lp35
tp36
Rp37
sS'regions'
p38
g3
((lp39
S"(11, u'(?i)\\\\b(cerebrals|cerebral)\\\\b')"
p40
atp41
Rp42
sS'year'
p43
V2013
p44
sS'species'
p45
g3
((lp46
S"(4, u'(?i)\\\\b(rats|rat)\\\\b')"
p47
atp48
Rp49
sb.