(ifile_types
ParseObject
p0
(dp1
S'methods'
p2
c__builtin__
set
p3
((lp4
S'Method.AGONIST'
p5
aS'Method.IMMUNOHISTOCHEMISTRY'
p6
aS'Method.ANTAGONIST'
p7
atp8
Rp9
sS'topics'
p10
g3
((lp11
S"(4, u'\\\\btreatment')"
p12
atp13
Rp14
sS'receptors'
p15
g3
((lp16
(S'5ht3'
p17
I233
I238
tp18
a(S'5ht3'
p19
I471
I476
tp20
a(S'5ht3'
p21
I24
I29
tp22
a(S'5ht3'
p23
I2902
I2907
tp24
a(S'5ht3'
p25
I2166
I2171
tp26
atp27
Rp28
sS'raw_text_methods'
p29
g3
((lp30
S"(13, u'\\\\bagonist')"
p31
aS"(12, u'\\\\bantagonist')"
p32
atp33
Rp34
sS'regions'
p35
g3
((lp36
S"(19, u'(?i)\\\\b(cortexes|cortex)\\\\b')"
p37
aS"(12, u'(?i)\\\\b(amygdalas|amygdala)\\\\b')"
p38
atp39
Rp40
sS'year'
p41
V2007
p42
sS'species'
p43
g3
((lp44
S"(4, u'(?i)\\\\b(rats|rat)\\\\b')"
p45
atp46
Rp47
sb.