(ifile_types
ParseObject
p0
(dp1
S'antagonists'
p2
c__builtin__
set
p3
((lp4
S"(52, u'\\\\bmdl ?100907')"
p5
atp6
Rp7
sS'methods'
p8
g3
((lp9
S'Method.PET'
p10
atp11
Rp12
sS'topics'
p13
g3
((lp14
tp15
Rp16
sS'receptors'
p17
g3
((lp18
S'5ht2'
p19
aS'5ht2a'
p20
atp21
Rp22
sS'regions'
p23
g3
((lp24
tp25
Rp26
sS'year'
p27
V2014
p28
sS'agonists'
p29
g3
((lp30
tp31
Rp32
sS'species'
p33
g3
((lp34
S"(2401, u'(?i)\\\\b(primates|primate)\\\\b')"
p35
aS"(1070, u'(?i)\\\\b(pets|pet)\\\\b')"
p36
atp37
Rp38
sb.