(ifile_types
ParseObject
p0
(dp1
S'methods'
p2
c__builtin__
set
p3
((lp4
tp5
Rp6
sS'topics'
p7
g3
((lp8
tp9
Rp10
sS'receptors'
p11
g3
((lp12
(S'5ht1'
p13
I1042
I1047
tp14
a(S'5ht1'
p15
I1570
I1575
tp16
a(S'5ht1a'
p17
I795
I801
tp18
a(S'5ht1'
p19
I812
I817
tp20
atp21
Rp22
sS'raw_text_methods'
p23
g3
((lp24
tp25
Rp26
sS'regions'
p27
g3
((lp28
tp29
Rp30
sS'year'
p31
V2004
p32
sS'species'
p33
g3
((lp34
tp35
Rp36
sb.