(ifile_types
ParseObject
p0
(dp1
S'antagonists'
p2
c__builtin__
set
p3
((lp4
S"(117, u'\\\\bketanserin')"
p5
aS"(20, u'\\\\bpindobind')"
p6
atp7
Rp8
sS'methods'
p9
g3
((lp10
S'Method.ANTAGONIST'
p11
aS'Method.AGONIST'
p12
atp13
Rp14
sS'topics'
p15
g3
((lp16
tp17
Rp18
sS'receptors'
p19
g3
((lp20
S'5ht3a'
p21
aS'5ht1a'
p22
aS'5ht3'
p23
aS'5ht2'
p24
aS'5ht1'
p25
atp26
Rp27
sS'regions'
p28
g3
((lp29
tp30
Rp31
sS'year'
p32
V1994
p33
sS'agonists'
p34
g3
((lp35
S"(188, u'\\\\bchlorophenylbiguanide')"
p36
aS"(85, u'\\\\b8 ?oh ?dpat')"
p37
atp38
Rp39
sS'species'
p40
g3
((lp41
S"(7540, u'(?i)\\\\b(mammalians|mammalian)\\\\b')"
p42
aS"(1449, u'(?i)\\\\b(giants|giant)\\\\b')"
p43
aS"(7539, u'(?i)\\\\b(mammals|mammal)\\\\b')"
p44
aS"(4808, u'(?i)\\\\b(puffers|puffer)\\\\b')"
p45
atp46
Rp47
sb.