(ifile_types
ParseObject
p0
(dp1
S'antagonists'
p2
c__builtin__
set
p3
((lp4
S"(155, u'\\\\bgr ?125487')"
p5
aS"(158, u'\\\\bsb ?203186')"
p6
aS"(136, u'\\\\btropisetron')"
p7
aS"(153, u'\\\\bgr ?113808')"
p8
atp9
Rp10
sS'methods'
p11
g3
((lp12
S'Method.ANTAGONIST'
p13
aS'Method.AGONIST'
p14
atp15
Rp16
sS'topics'
p17
g3
((lp18
S"(26, u'\\\\bcardiovascular')"
p19
atp20
Rp21
sS'receptors'
p22
g3
((lp23
S'5ht4a'
p24
aS'5ht4b'
p25
aS'5ht4'
p26
aS'5ht5'
p27
aS'5ht4c'
p28
atp29
Rp30
sS'regions'
p31
g3
((lp32
tp33
Rp34
sS'year'
p35
V2004
p36
sS'agonists'
p37
g3
((lp38
S"(225, u'\\\\b5 ?meot')"
p39
aS"(202, u'\\\\bcisapride')"
p40
aS"(155, u'\\\\bmem')"
p41
atp42
Rp43
sS'species'
p44
g3
((lp45
S"(7058, u'(?i)(does|doe)')"
p46
aS"(5958, u'(?i)(rats|rat)')"
p47
aS"(6356, u'(?i)(ais|ai)')"
p48
aS"(7609, u'(?i)(erns|ern)')"
p49
aS"(867, u'(?i)(tits|tit)')"
p50
aS"(4979, u'(?i)(cats|cat)')"
p51
aS"(5743, u'(?i)(bots|bot)')"
p52
aS"(479, u'(?i)(lings|ling)')"
p53
aS"(1055, u'(?i)(men|man)')"
p54
aS"(853, u'(?i)(minas|mina)')"
p55
aS"(6249, u'(?i)(ants|ant)')"
p56
aS"(1057, u'(?i)(humans|human)')"
p57
aS"(1961, u'(?i)(pens|pen)')"
p58
aS"(1414, u'(?i)(chars|char)')"
p59
aS"(3196, u'(?i)(human|humans)')"
p60
aS"(1628, u'(?i)(cod|cod)')"
p61
aS"(1683, u'(?i)(terns|tern)')"
p62
aS"(821, u'(?i)(lice|louse)')"
p63
atp64
Rp65
sb.