(ifile_types
ParseObject
p0
(dp1
S'methods'
p2
c__builtin__
set
p3
((lp4
S'Method.IMMUNOHISTOCHEMISTRY'
p5
atp6
Rp7
sS'topics'
p8
g3
((lp9
tp10
Rp11
sS'receptors'
p12
g3
((lp13
(S'5ht1'
p14
I858
I863
tp15
a(S'5ht1'
p16
I1272
I1277
tp17
a(S'5ht5'
p18
I243
I253
tp19
a(S'5ht1'
p20
I756
I761
tp21
a(S'5ht1a'
p22
I320
I326
tp23
a(S'5ht1'
p24
I770
I775
tp25
a(S'5ht1'
p26
I1021
I1026
tp27
a(S'5ht1'
p28
I1261
I1266
tp29
a(S'5ht1b'
p30
I1868
I1874
tp31
a(S'5ht1'
p32
I1545
I1549
tp33
a(S'5ht1'
p34
I332
I337
tp35
atp36
Rp37
sS'raw_text_methods'
p38
g3
((lp39
tp40
Rp41
sS'regions'
p42
g3
((lp43
S"(19, u'(?i)\\\\b(cortexes|cortex)\\\\b')"
p44
atp45
Rp46
sS'year'
p47
V2010
p48
sS'species'
p49
g3
((lp50
tp51
Rp52
sb.