(ifile_types
ParseObject
p0
(dp1
S'antagonists'
p2
c__builtin__
set
p3
((lp4
S"(131, u'\\\\bm1')"
p5
aS"(31, u'\\\\bway ?100635')"
p6
aS"(58, u'\\\\bhaloperidol')"
p7
atp8
Rp9
sS'methods'
p10
g3
((lp11
S'Method.ANTAGONIST'
p12
aS'Method.AGONIST'
p13
atp14
Rp15
sS'topics'
p16
g3
((lp17
S"(15, u'\\\\bschizophreni')"
p18
aS"(6, u'\\\\bcognit')"
p19
atp20
Rp21
sS'receptors'
p22
g3
((lp23
S'5ht1a'
p24
aS'5ht2c'
p25
aS'5ht2a'
p26
atp27
Rp28
sS'regions'
p29
g3
((lp30
S"(254, u'(?i)\\\\b(prefrontals|prefrontal)(-|\\\\s+)?(cortexes|cortex)\\\\b')"
p31
aS"(255, u'(?i)\\\\b(pres|pre)(-|\\\\s+)?(frontals|frontal)(-|\\\\s+)?(cortexes|cortex)\\\\b')"
p32
aS"(226, u'(?i)\\\\b(nuclei|nucleus)(-|\\\\s+)?(accumben|accumbens)\\\\b')"
p33
atp34
Rp35
sS'year'
p36
V2002
p37
sS'agonists'
p38
g3
((lp39
S"(43, u'\\\\bhaloperidol')"
p40
atp41
Rp42
sS'species'
p43
g3
((lp44
S"(6753, u'(?i)\\\\b(da|das)\\\\b')"
p45
aS"(5958, u'(?i)\\\\b(rats|rat)\\\\b')"
p46
atp47
Rp48
sb.