(ifile_types
ParseObject
p0
(dp1
S'methods'
p2
c__builtin__
set
p3
((lp4
S'Method.STAINING'
p5
atp6
Rp7
sS'topics'
p8
g3
((lp9
S"(26, u'\\\\bbehav')"
p10
aS"(7, u'\\\\bdepressi')"
p11
aS"(9, u'\\\\bstress')"
p12
aS"(4, u'\\\\btreatment')"
p13
atp14
Rp15
sS'receptors'
p16
g3
((lp17
(S'5ht1'
p18
I1198
I1203
tp19
a(S'5ht1'
p20
I2110
I2115
tp21
a(S'5ht1'
p22
I1815
I1820
tp23
a(S'5ht1'
p24
I1506
I1511
tp25
a(S'5ht1'
p26
I1300
I1305
tp27
a(S'5ht1a'
p28
I1155
I1166
tp29
a(S'5ht1'
p30
I1186
I1191
tp31
a(S'5ht1'
p32
I740
I745
tp33
atp34
Rp35
sS'raw_text_methods'
p36
g3
((lp37
tp38
Rp39
sS'regions'
p40
g3
((lp41
tp42
Rp43
sS'year'
p44
V2017
p45
sS'species'
p46
g3
((lp47
S"(1, u'(?i)\\\\b(mice|mouse)\\\\b')"
p48
aS"(5, u'(?i)\\\\b(mices|mice)\\\\b')"
p49
atp50
Rp51
sb.