(ifile_types
ParseObject
p0
(dp1
S'methods'
p2
c__builtin__
set
p3
((lp4
S'Method.ANTAGONIST'
p5
atp6
Rp7
sS'topics'
p8
g3
((lp9
S"(5, u'\\\\btherap')"
p10
aS"(13, u'\\\\bantidepress')"
p11
atp12
Rp13
sS'receptors'
p14
g3
((lp15
(S'5ht1a'
p16
I1528
I1534
tp17
a(S'5ht1a'
p18
I49
I55
tp19
a(S'5ht1a'
p20
I464
I470
tp21
a(S'5ht1a'
p22
I1333
I1339
tp23
a(S'5ht1a'
p24
I216
I222
tp25
atp26
Rp27
sS'raw_text_methods'
p28
g3
((lp29
S"(38, u'\\\\bssri')"
p30
aS"(39, u'\\\\bselective serotonin reuptake inhibitor')"
p31
aS"(12, u'\\\\bantagonist')"
p32
atp33
Rp34
sS'regions'
p35
g3
((lp36
S"(17, u'(?i)\\\\b(caudates|caudate)\\\\b')"
p37
aS"(4, u'(?i)\\\\b(presynaptics|presynaptic)\\\\b')"
p38
aS"(3, u'(?i)\\\\b(postsynaptics|postsynaptic)\\\\b')"
p39
aS"(18, u'(?i)\\\\b(putamens|putamen)\\\\b')"
p40
atp41
Rp42
sS'year'
p43
V2003
p44
sS'species'
p45
g3
((lp46
S"(4, u'(?i)\\\\b(rats|rat)\\\\b')"
p47
atp48
Rp49
sb.