(ifile_types
ParseObject
p0
(dp1
S'methods'
p2
c__builtin__
set
p3
((lp4
S'Method.KNOCKOUT'
p5
aS'Method.AGONIST'
p6
atp7
Rp8
sS'topics'
p9
g3
((lp10
S"(33, u'\\\\blocomot')"
p11
aS"(5, u'\\\\btherap')"
p12
aS"(9, u'\\\\bstress')"
p13
aS"(4, u'\\\\btreatment')"
p14
aS"(3, u'\\\\bclinical')"
p15
atp16
Rp17
sS'receptors'
p18
g3
((lp19
(S'5ht1f'
p20
I1491
I1497
tp21
a(S'5ht1f'
p22
I1960
I1966
tp23
a(S'5ht1f'
p24
I594
I600
tp25
atp26
Rp27
sS'raw_text_methods'
p28
g3
((lp29
S"(13, u'\\\\bagonist')"
p30
atp31
Rp32
sS'regions'
p33
g3
((lp34
tp35
Rp36
sS'year'
p37
V2020
p38
sS'species'
p39
g3
((lp40
S"(1, u'(?i)\\\\b(mice|mouse)\\\\b')"
p41
aS"(2, u'(?i)\\\\b(females|female)\\\\b')"
p42
aS"(5, u'(?i)\\\\b(mices|mice)\\\\b')"
p43
atp44
Rp45
sb.