(ifile_types
ParseObject
p0
(dp1
S'methods'
p2
c__builtin__
set
p3
((lp4
S'Method.ANTAGONIST'
p5
atp6
Rp7
sS'topics'
p8
g3
((lp9
S"(14, u'\\\\bcogniti')"
p10
aS"(16, u'\\\\blearning')"
p11
aS"(19, u'\\\\bpsychosis')"
p12
aS"(2, u'\\\\bdisorder')"
p13
aS"(7, u'\\\\bdepressi')"
p14
aS"(15, u'\\\\bmemory')"
p15
aS"(6, u'\\\\baggressi')"
p16
aS"(4, u'\\\\btreatment')"
p17
atp18
Rp19
sS'receptors'
p20
g3
((lp21
(S'5ht6'
p22
I930
I934
tp23
a(S'5ht6'
p24
I131
I135
tp25
a(S'5ht6'
p26
I738
I742
tp27
atp28
Rp29
sS'raw_text_methods'
p30
g3
((lp31
S"(12, u'\\\\bantagonist')"
p32
atp33
Rp34
sS'regions'
p35
g3
((lp36
S"(8, u'(?i)\\\\b(centrals|central)(-|\\\\s+)?(nervouses|nervous)(-|\\\\s+)?(systems|system)\\\\b')"
p37
aS"(19, u'(?i)\\\\b(cortexes|cortex)\\\\b')"
p38
atp39
Rp40
sS'year'
p41
V2012
p42
sS'species'
p43
g3
((lp44
S"(4, u'(?i)\\\\b(rats|rat)\\\\b')"
p45
atp46
Rp47
sb.