(ifile_types
ParseObject
p0
(dp1
S'antagonists'
p2
c__builtin__
set
p3
((lp4
S"(53, u'\\\\bketanserin')"
p5
aS"(128, u'\\\\bketanserin')"
p6
aS"(17, u'\\\\bnan ?190')"
p7
atp8
Rp9
sS'methods'
p10
g3
((lp11
S'Method.STIMULATION'
p12
aS'Method.ANTAGONIST'
p13
aS'Method.AGONIST'
p14
atp15
Rp16
sS'topics'
p17
g3
((lp18
tp19
Rp20
sS'receptors'
p21
g3
((lp22
S'5ht1b'
p23
aS'5ht1a'
p24
aS'5ht3'
p25
aS'5ht2a'
p26
aS'5ht5'
p27
aS'5ht4a'
p28
atp29
Rp30
sS'regions'
p31
g3
((lp32
S"(34, u'(?i)(pon|pons)')"
p33
atp34
Rp35
sS'year'
p36
V1993
p37
sS'agonists'
p38
g3
((lp39
S"(107, u'\\\\bcp ?93129')"
p40
atp41
Rp42
sS'species'
p43
g3
((lp44
S"(5537, u'(?i)(hippos|hippo)')"
p45
aS"(6753, u'(?i)(da|das)')"
p46
aS"(5958, u'(?i)(rats|rat)')"
p47
aS"(4979, u'(?i)(cats|cat)')"
p48
aS"(468, u'(?i)(oxen|ox)')"
p49
aS"(1055, u'(?i)(men|man)')"
p50
aS"(3726, u'(?i)(mates|mate)')"
p51
aS"(4964, u'(?i)(serins|serin)')"
p52
aS"(6249, u'(?i)(ants|ant)')"
p53
aS"(1961, u'(?i)(pens|pen)')"
p54
aS"(3812, u'(?i)(studs|stud)')"
p55
aS"(821, u'(?i)(lice|louse)')"
p56
atp57
Rp58
sb.