(ifile_types
ParseObject
p0
(dp1
S'methods'
p2
c__builtin__
set
p3
((lp4
S'Method.PET'
p5
aS'Method.AGONIST'
p6
atp7
Rp8
sS'topics'
p9
g3
((lp10
S"(14, u'\\\\bcogniti')"
p11
aS"(15, u'\\\\bmemory')"
p12
atp13
Rp14
sS'receptors'
p15
g3
((lp16
(S'5ht1a'
p17
I561
I567
tp18
a(S'5ht1a'
p19
I471
I477
tp20
a(S'5ht1a'
p21
I732
I738
tp22
a(S'5ht1a'
p23
I272
I278
tp24
a(S'5ht1a'
p25
I33
I44
tp26
a(S'5ht1a'
p27
I818
I824
tp28
a(S'5ht1a'
p29
I1063
I1069
tp30
atp31
Rp32
sS'raw_text_methods'
p33
g3
((lp34
S"(13, u'\\\\bagonist')"
p35
aS"(17, u'\\\\bpet')"
p36
aS"(19, u'\\\\bpositron emission tomography')"
p37
atp38
Rp39
sS'regions'
p40
g3
((lp41
S"(3, u'(?i)\\\\b(postsynaptics|postsynaptic)\\\\b')"
p42
atp43
Rp44
sS'year'
p45
V2004
p46
sS'species'
p47
g3
((lp48
tp49
Rp50
sb.