(ifile_types
ParseObject
p0
(dp1
S'methods'
p2
c__builtin__
set
p3
((lp4
S'Method.ANTAGONIST'
p5
aS'Method.AGONIST'
p6
atp7
Rp8
sS'topics'
p9
g3
((lp10
S"(14, u'\\\\bcogniti')"
p11
aS"(26, u'\\\\bbehav')"
p12
aS"(25, u'\\\\bsocial')"
p13
aS"(33, u'\\\\blocomot')"
p14
aS"(16, u'\\\\blearning')"
p15
aS"(9, u'\\\\bstress')"
p16
aS"(15, u'\\\\bmemory')"
p17
aS"(5, u'\\\\btherap')"
p18
aS"(18, u'\\\\bavoidan')"
p19
aS"(4, u'\\\\btreatment')"
p20
atp21
Rp22
sS'receptors'
p23
g3
((lp24
(S'5ht6'
p25
I1228
I1233
tp26
a(S'5ht6'
p27
I1393
I1398
tp28
a(S'5ht6'
p29
I1770
I1775
tp30
a(S'5ht6'
p31
I372
I377
tp32
a(S'5ht6'
p33
I312
I317
tp34
a(S'5ht6'
p35
I164
I169
tp36
a(S'5ht6'
p37
I31
I36
tp38
atp39
Rp40
sS'raw_text_methods'
p41
g3
((lp42
S"(13, u'\\\\bagonist')"
p43
aS"(12, u'\\\\bantagonist')"
p44
atp45
Rp46
sS'regions'
p47
g3
((lp48
S"(11, u'(?i)\\\\b(cerebrals|cerebral)\\\\b')"
p49
atp50
Rp51
sS'year'
p52
V2018
p53
sS'species'
p54
g3
((lp55
S"(4, u'(?i)\\\\b(rats|rat)\\\\b')"
p56
atp57
Rp58
sb.