(ifile_types
ParseObject
p0
(dp1
S'methods'
p2
c__builtin__
set
p3
((lp4
tp5
Rp6
sS'topics'
p7
g3
((lp8
S"(9, u'\\\\bstress')"
p9
atp10
Rp11
sS'receptors'
p12
g3
((lp13
(S'5ht2c'
p14
I347
I353
tp15
a(S'5ht2c'
p16
I1451
I1457
tp17
atp18
Rp19
sS'raw_text_methods'
p20
g3
((lp21
tp22
Rp23
sS'regions'
p24
g3
((lp25
tp26
Rp27
sS'year'
p28
V2006
p29
sS'species'
p30
g3
((lp31
S"(4, u'(?i)\\\\b(rats|rat)\\\\b')"
p32
atp33
Rp34
sb.