(ifile_types
ParseObject
p0
(dp1
S'antagonists'
p2
c__builtin__
set
p3
((lp4
S"(102, u'\\\\bfluoxetine')"
p5
aS"(44, u'\\\\bvortioxetine')"
p6
atp7
Rp8
sS'methods'
p9
g3
((lp10
S'Method.ANTAGONIST'
p11
aS'Method.AGONIST'
p12
atp13
Rp14
sS'topics'
p15
g3
((lp16
tp17
Rp18
sS'receptors'
p19
g3
((lp20
S'5ht7'
p21
aS'5ht3a'
p22
aS'5ht1a'
p23
aS'5ht3'
p24
aS'5ht1b'
p25
atp26
Rp27
sS'regions'
p28
g3
((lp29
S"(318, u'(?i)(raphes|raphe)(-|\\\\s+)?(nuclei|nucleus)')"
p30
aS"(94, u'(?i)(dorsals|dorsal)(-|\\\\s+)?(raphes|raphe)(-|\\\\s+)?(nuclei|nucleus)')"
p31
aS"(34, u'(?i)(pon|pons)')"
p32
atp33
Rp34
sS'year'
p35
V2013
p36
sS'agonists'
p37
g3
((lp38
S"(198, u'\\\\bsr ?57227')"
p39
aS"(44, u'\\\\bflesinoxan')"
p40
aS"(101, u'\\\\bvortioxetine')"
p41
atp42
Rp43
sS'species'
p44
g3
((lp45
S"(4624, u'(?i)(apes|ape)')"
p46
aS"(5958, u'(?i)(rats|rat)')"
p47
aS"(468, u'(?i)(oxen|ox)')"
p48
aS"(1055, u'(?i)(men|man)')"
p49
aS"(7094, u'(?i)(curs|cur)')"
p50
aS"(6753, u'(?i)(da|das)')"
p51
aS"(6249, u'(?i)(ants|ant)')"
p52
aS"(6356, u'(?i)(ais|ai)')"
p53
aS"(6391, u'(?i)(asses|ass)')"
p54
atp55
Rp56
sb.