(ifile_types
ParseObject
p0
(dp1
S'methods'
p2
c__builtin__
set
p3
((lp4
S'Method.ANTAGONIST'
p5
atp6
Rp7
sS'topics'
p8
g3
((lp9
tp10
Rp11
sS'receptors'
p12
g3
((lp13
(S'5ht3'
p14
I377
I382
tp15
a(S'5ht3'
p16
I513
I518
tp17
a(S'5ht3'
p18
I331
I336
tp19
a(S'5ht3'
p20
I1294
I1299
tp21
a(S'5ht3'
p22
I548
I553
tp23
a(S'5ht3'
p24
I1478
I1483
tp25
a(S'5ht3'
p26
I698
I703
tp27
a(S'5ht3'
p28
I1584
I1589
tp29
atp30
Rp31
sS'raw_text_methods'
p32
g3
((lp33
S"(30, u'\\\\b2methyl')"
p34
aS"(23, u'\\\\bmdl')"
p35
aS"(12, u'\\\\bantagonist')"
p36
atp37
Rp38
sS'regions'
p39
g3
((lp40
S"(11, u'(?i)\\\\b(cerebrals|cerebral)\\\\b')"
p41
aS"(19, u'(?i)\\\\b(cortexes|cortex)\\\\b')"
p42
atp43
Rp44
sS'year'
p45
V1993
p46
sS'species'
p47
g3
((lp48
S"(1, u'(?i)\\\\b(mice|mouse)\\\\b')"
p49
aS"(5, u'(?i)\\\\b(mices|mice)\\\\b')"
p50
aS"(4, u'(?i)\\\\b(rats|rat)\\\\b')"
p51
atp52
Rp53
sb.