(ifile_types
ParseObject
p0
(dp1
S'antagonists'
p2
c__builtin__
set
p3
((lp4
tp5
Rp6
sS'methods'
p7
g3
((lp8
tp9
Rp10
sS'topics'
p11
g3
((lp12
tp13
Rp14
sS'receptors'
p15
g3
((lp16
S'5ht4'
p17
atp18
Rp19
sS'regions'
p20
g3
((lp21
S"(103, u'(?i)(substantias|substantia)(-|\\\\s+)?(nigras|nigra)')"
p22
aS"(227, u'(?i)(olfactories|olfactory)(-|\\\\s+)?(tubercles|tubercle)')"
p23
aS"(219, u'(?i)(basals|basal)(-|\\\\s+)?(ganglias|ganglia)')"
p24
aS"(225, u'(?i)(ventrals|ventral)(-|\\\\s+)?(striatums|striatum)')"
p25
aS"(34, u'(?i)(pon|pons)')"
p26
aS"(220, u'(?i)(striatums|striatum)')"
p27
aS"(223, u'(?i)(putamens|putamen)')"
p28
atp29
Rp30
sS'year'
p31
V1996
p32
sS'agonists'
p33
g3
((lp34
tp35
Rp36
sS'species'
p37
g3
((lp38
S"(5537, u'(?i)(hippos|hippo)')"
p39
aS"(6753, u'(?i)(da|das)')"
p40
aS"(5958, u'(?i)(rats|rat)')"
p41
aS"(6356, u'(?i)(ais|ai)')"
p42
aS"(4979, u'(?i)(cats|cat)')"
p43
aS"(1055, u'(?i)(men|man)')"
p44
aS"(1349, u'(?i)(rams|ram)')"
p45
aS"(853, u'(?i)(minas|mina)')"
p46
aS"(6249, u'(?i)(ants|ant)')"
p47
aS"(1683, u'(?i)(terns|tern)')"
p48
aS"(4371, u'(?i)(lizas|liza)')"
p49
aS"(3812, u'(?i)(studs|stud)')"
p50
aS"(7609, u'(?i)(erns|ern)')"
p51
aS"(391, u'(?i)(alli|allis)')"
p52
aS"(1628, u'(?i)(cod|cod)')"
p53
aS"(6325, u'(?i)(caudates|caudate)')"
p54
aS"(5743, u'(?i)(bots|bot)')"
p55
aS"(821, u'(?i)(lice|louse)')"
p56
atp57
Rp58
sb.