(ifile_types
ParseObject
p0
(dp1
S'methods'
p2
c__builtin__
set
p3
((lp4
S'Method.ANTAGONIST'
p5
atp6
Rp7
sS'topics'
p8
g3
((lp9
S"(4, u'\\\\btreatment')"
p10
atp11
Rp12
sS'receptors'
p13
g3
((lp14
(S'5ht2a'
p15
I1325
I1331
tp16
a(S'5ht1'
p17
I235
I240
tp18
a(S'5ht1b'
p19
I1841
I1847
tp20
a(S'5ht1'
p21
I536
I541
tp22
a(S'5ht2a'
p23
I1149
I1155
tp24
a(S'5ht1a'
p25
I1317
I1323
tp26
a(S'5ht1b'
p27
I1109
I1115
tp28
a(S'5ht5'
p29
I1306
I1315
tp30
a(S'5ht1b'
p31
I1452
I1458
tp32
a(S'5ht1b'
p33
I1306
I1312
tp34
a(S'5ht1a'
p35
I1074
I1080
tp36
a(S'5ht1d'
p37
I1109
I1117
tp38
a(S'5ht1d'
p39
I1306
I1314
tp40
atp41
Rp42
sS'raw_text_methods'
p43
g3
((lp44
S"(12, u'\\\\bantagonist')"
p45
atp46
Rp47
sS'regions'
p48
g3
((lp49
tp50
Rp51
sS'year'
p52
V2004
p53
sS'species'
p54
g3
((lp55
S"(7, u'(?i)\\\\b(guineas|guinea)(-|\\\\s+)?(pigs|pig)\\\\b')"
p56
atp57
Rp58
sb.