(ifile_types
ParseObject
p0
(dp1
S'methods'
p2
c__builtin__
set
p3
((lp4
S'Method.KNOCKOUT'
p5
aS'Method.AGONIST'
p6
atp7
Rp8
sS'topics'
p9
g3
((lp10
S"(13, u'\\\\bantidepress')"
p11
aS"(7, u'\\\\bdepressi')"
p12
aS"(5, u'\\\\btherap')"
p13
aS"(26, u'\\\\bbehav')"
p14
aS"(1, u'\\\\bpatient')"
p15
aS"(4, u'\\\\btreatment')"
p16
atp17
Rp18
sS'receptors'
p19
g3
((lp20
(S'5ht1b'
p21
I395
I401
tp22
a(S'5ht1b'
p23
I327
I333
tp24
a(S'5ht1b'
p25
I844
I850
tp26
a(S'5ht1b'
p27
I640
I646
tp28
a(S'5ht1b'
p29
I49
I55
tp30
a(S'5ht1'
p31
I282
I292
tp32
atp33
Rp34
sS'raw_text_methods'
p35
g3
((lp36
S"(13, u'\\\\bagonist')"
p37
atp38
Rp39
sS'regions'
p40
g3
((lp41
tp42
Rp43
sS'year'
p44
V2006
p45
sS'species'
p46
g3
((lp47
S"(1, u'(?i)\\\\b(mice|mouse)\\\\b')"
p48
aS"(6, u'(?i)\\\\b(rodents|rodent)\\\\b')"
p49
aS"(5, u'(?i)\\\\b(mices|mice)\\\\b')"
p50
atp51
Rp52
sb.