(ifile_types
ParseObject
p0
(dp1
S'antagonists'
p2
c__builtin__
set
p3
((lp4
S"(126, u'\\\\bcinanserin')"
p5
aS"(135, u'\\\\bondansetron')"
p6
aS"(14, u'\\\\bmethiothepin')"
p7
atp8
Rp9
sS'methods'
p10
g3
((lp11
S'Method.ANTAGONIST'
p12
aS'Method.AGONIST'
p13
atp14
Rp15
sS'topics'
p16
g3
((lp17
tp18
Rp19
sS'receptors'
p20
g3
((lp21
S'5ht7'
p22
aS'5ht5'
p23
aS'5ht4'
p24
aS'5ht3'
p25
aS'5ht2c'
p26
aS'5ht1'
p27
aS'5ht2'
p28
atp29
Rp30
sS'regions'
p31
g3
((lp32
S"(203, u'(?i)(dentates|dentate)(-|\\\\s+)?(gyruses|gyrus)')"
p33
aS"(214, u'(?i)(laterals|lateral)(-|\\\\s+)?(amygdalas|amygdala)')"
p34
aS"(209, u'(?i)(amygdalas|amygdala)')"
p35
aS"(215, u'(?i)(basolaterals|basolateral)(-|\\\\s+)?(amygdalas|amygdala)')"
p36
atp37
Rp38
sS'year'
p39
V2009
p40
sS'agonists'
p41
g3
((lp42
S"(172, u'\\\\bmk ?212')"
p43
atp44
Rp45
sS'species'
p46
g3
((lp47
S"(5537, u'(?i)(hippos|hippo)')"
p48
aS"(5958, u'(?i)(rats|rat)')"
p49
aS"(6753, u'(?i)(da|das)')"
p50
aS"(6682, u'(?i)(tera|teras)')"
p51
aS"(1055, u'(?i)(men|man)')"
p52
aS"(4964, u'(?i)(serins|serin)')"
p53
aS"(6249, u'(?i)(ants|ant)')"
p54
aS"(3812, u'(?i)(studs|stud)')"
p55
atp56
Rp57
sb.