(ifile_types
ParseObject
p0
(dp1
S'antagonists'
p2
c__builtin__
set
p3
((lp4
tp5
Rp6
sS'methods'
p7
g3
((lp8
S'Method.ANTAGONIST'
p9
atp10
Rp11
sS'topics'
p12
g3
((lp13
S"(37, u'\\\\baddict')"
p14
aS"(8, u'\\\\blearning')"
p15
aS"(7, u'\\\\bmemory')"
p16
atp17
Rp18
sS'receptors'
p19
g3
((lp20
S'5ht2a'
p21
atp22
Rp23
sS'regions'
p24
g3
((lp25
tp26
Rp27
sS'year'
p28
V2013
p29
sS'agonists'
p30
g3
((lp31
S"(147, u'\\\\bmdma')"
p32
aS"(11, u'\\\\bamphetamine')"
p33
aS"(149, u'\\\\bmem')"
p34
aS"(175, u'\\\\bdoi')"
p35
atp36
Rp37
sS'species'
p38
g3
((lp39
S"(1266, u'(?i)\\\\b(embryos|embryo)\\\\b')"
p40
aS"(5958, u'(?i)\\\\b(rats|rat)\\\\b')"
p41
atp42
Rp43
sb.