(ifile_types
ParseObject
p0
(dp1
S'methods'
p2
c__builtin__
set
p3
((lp4
S'Method.STIMULATION'
p5
atp6
Rp7
sS'topics'
p8
g3
((lp9
S"(14, u'\\\\bcogniti')"
p10
aS"(20, u'\\\\bmood')"
p11
atp12
Rp13
sS'receptors'
p14
g3
((lp15
(S'5ht2a'
p16
I510
I516
tp17
a(S'5ht2a'
p18
I922
I928
tp19
a(S'5ht2a'
p20
I382
I388
tp21
a(S'5ht2a'
p22
I569
I575
tp23
a(S'5ht2a'
p24
I1334
I1340
tp25
atp26
Rp27
sS'raw_text_methods'
p28
g3
((lp29
tp30
Rp31
sS'regions'
p32
g3
((lp33
S"(22, u'(?i)\\\\b(anteriors|anterior)(-|\\\\s+)?(cingulates|cingulate)\\\\b')"
p34
aS"(11, u'(?i)\\\\b(cerebrals|cerebral)\\\\b')"
p35
aS"(19, u'(?i)\\\\b(cortexes|cortex)\\\\b')"
p36
aS"(23, u'(?i)\\\\b(forebrains|forebrain)\\\\b')"
p37
atp38
Rp39
sS'year'
p40
V1995
p41
sS'species'
p42
g3
((lp43
S"(2, u'(?i)\\\\b(females|female)\\\\b')"
p44
aS"(4, u'(?i)\\\\b(rats|rat)\\\\b')"
p45
atp46
Rp47
sb.