(ifile_types
ParseObject
p0
(dp1
S'methods'
p2
c__builtin__
set
p3
((lp4
tp5
Rp6
sS'topics'
p7
g3
((lp8
S"(22, u'\\\\bschizophreni')"
p9
aS"(26, u'\\\\bbehav')"
p10
atp11
Rp12
sS'receptors'
p13
g3
((lp14
(S'5ht2a'
p15
I678
I684
tp16
atp17
Rp18
sS'raw_text_methods'
p19
g3
((lp20
S"(3, u'\\\\bimmunoreactiv')"
p21
aS"(32, u'\\\\blesions')"
p22
atp23
Rp24
sS'regions'
p25
g3
((lp26
S"(20, u'(?i)\\\\b(prefrontals|prefrontal)\\\\b')"
p27
aS"(19, u'(?i)\\\\b(cortexes|cortex)\\\\b')"
p28
atp29
Rp30
sS'year'
p31
V2013
p32
sS'species'
p33
g3
((lp34
S"(4, u'(?i)\\\\b(rats|rat)\\\\b')"
p35
atp36
Rp37
sb.