(ifile_types
ParseObject
p0
(dp1
S'methods'
p2
c__builtin__
set
p3
((lp4
tp5
Rp6
sS'topics'
p7
g3
((lp8
S"(5, u'\\\\btherap')"
p9
aS"(7, u'\\\\bdepressi')"
p10
aS"(13, u'\\\\bantidepress')"
p11
atp12
Rp13
sS'receptors'
p14
g3
((lp15
(S'5ht1'
p16
I763
I768
tp17
a(S'5ht1'
p18
I83
I88
tp19
a(S'5ht1a'
p20
I655
I661
tp21
a(S'5ht1'
p22
I532
I537
tp23
atp24
Rp25
sS'raw_text_methods'
p26
g3
((lp27
tp28
Rp29
sS'regions'
p30
g3
((lp31
S"(23, u'(?i)\\\\b(forebrains|forebrain)\\\\b')"
p32
atp33
Rp34
sS'year'
p35
V2000
p36
sS'species'
p37
g3
((lp38
tp39
Rp40
sb.