(ifile_types
ParseObject
p0
(dp1
S'antagonists'
p2
c__builtin__
set
p3
((lp4
S"(111, u'\\\\btramadol')"
p5
aS"(32, u'\\\\bway ?100635')"
p6
aS"(21, u'\\\\bpindolol')"
p7
aS"(38, u'\\\\bsb ?216641')"
p8
atp9
Rp10
sS'methods'
p11
g3
((lp12
S'Method.ANTAGONIST'
p13
aS'Method.AGONIST'
p14
atp15
Rp16
sS'topics'
p17
g3
((lp18
S"(21, u'\\\\bpain')"
p19
aS"(16, u'\\\\bfeed')"
p20
aS"(24, u'\\\\banalgesi')"
p21
atp22
Rp23
sS'receptors'
p24
g3
((lp25
S'5ht1b'
p26
aS'5ht1a'
p27
aS'5ht5'
p28
atp29
Rp30
sS'regions'
p31
g3
((lp32
S"(318, u'(?i)(raphes|raphe)(-|\\\\s+)?(nuclei|nucleus)')"
p33
atp34
Rp35
sS'year'
p36
V2005
p37
sS'agonists'
p38
g3
((lp39
S"(92, u'\\\\b8 ?oh ?dpat')"
p40
aS"(107, u'\\\\bcp ?93129')"
p41
atp42
Rp43
sS'species'
p44
g3
((lp45
S"(2568, u'(?i)(hens|hen)')"
p46
aS"(163, u'(?i)(mice|mouse)')"
p47
aS"(6682, u'(?i)(tera|teras)')"
p48
aS"(81, u'(?i)(asps|asp)')"
p49
aS"(468, u'(?i)(oxen|ox)')"
p50
aS"(1349, u'(?i)(rams|ram)')"
p51
aS"(6249, u'(?i)(ants|ant)')"
p52
aS"(1055, u'(?i)(men|man)')"
p53
aS"(853, u'(?i)(minas|mina)')"
p54
aS"(5958, u'(?i)(rats|rat)')"
p55
aS"(3522, u'(?i)(tetras|tetra)')"
p56
aS"(7094, u'(?i)(curs|cur)')"
p57
aS"(3812, u'(?i)(studs|stud)')"
p58
aS"(6356, u'(?i)(ais|ai)')"
p59
atp60
Rp61
sb.