(ifile_types
ParseObject
p0
(dp1
S'antagonists'
p2
c__builtin__
set
p3
((lp4
tp5
Rp6
sS'methods'
p7
g3
((lp8
S'Method.PET'
p9
aS'Method.AGONIST'
p10
atp11
Rp12
sS'topics'
p13
g3
((lp14
S"(6, u'\\\\bcognit')"
p15
aS"(7, u'\\\\bmemory')"
p16
atp17
Rp18
sS'receptors'
p19
g3
((lp20
S'5ht1a'
p21
atp22
Rp23
sS'regions'
p24
g3
((lp25
S"(34, u'(?i)(pon|pons)')"
p26
atp27
Rp28
sS'year'
p29
V2004
p30
sS'agonists'
p31
g3
((lp32
S"(80, u'\\\\btandospirone')"
p33
aS"(155, u'\\\\bmem')"
p34
atp35
Rp36
sS'species'
p37
g3
((lp38
S"(1070, u'(?i)(pets|pet)')"
p39
aS"(5537, u'(?i)(hippos|hippo)')"
p40
aS"(5958, u'(?i)(rats|rat)')"
p41
aS"(6682, u'(?i)(tera|teras)')"
p42
aS"(4979, u'(?i)(cats|cat)')"
p43
aS"(6249, u'(?i)(ants|ant)')"
p44
aS"(1961, u'(?i)(pens|pen)')"
p45
aS"(3812, u'(?i)(studs|stud)')"
p46
aS"(6391, u'(?i)(asses|ass)')"
p47
aS"(2809, u'(?i)(toms|tom)')"
p48
aS"(6356, u'(?i)(ais|ai)')"
p49
atp50
Rp51
sb.