(ifile_types
ParseObject
p0
(dp1
S'antagonists'
p2
c__builtin__
set
p3
((lp4
S"(110, u'\\\\bsb ?242084')"
p5
atp6
Rp7
sS'methods'
p8
g3
((lp9
S'Method.ANTAGONIST'
p10
aS'Method.AGONIST'
p11
atp12
Rp13
sS'topics'
p14
g3
((lp15
S"(16, u'\\\\bfeed')"
p16
aS"(4, u'\\\\blocomot')"
p17
atp18
Rp19
sS'receptors'
p20
g3
((lp21
S'5ht1b'
p22
aS'5ht2c'
p23
atp24
Rp25
sS'regions'
p26
g3
((lp27
S"(34, u'(?i)(pon|pons)')"
p28
atp29
Rp30
sS'year'
p31
V2005
p32
sS'agonists'
p33
g3
((lp34
S"(161, u'\\\\bmcpp')"
p35
aS"(148, u'\\\\bver ?3323')"
p36
aS"(169, u'\\\\bfenfluramine')"
p37
atp38
Rp39
sS'species'
p40
g3
((lp41
S"(6753, u'(?i)(da|das)')"
p42
aS"(5958, u'(?i)(rats|rat)')"
p43
aS"(5743, u'(?i)(bots|bot)')"
p44
aS"(1055, u'(?i)(men|man)')"
p45
aS"(6249, u'(?i)(ants|ant)')"
p46
aS"(1349, u'(?i)(rams|ram)')"
p47
aS"(4979, u'(?i)(cats|cat)')"
p48
aS"(4099, u'(?i)(hamsters|hamster)')"
p49
aS"(3550, u'(?i)(anis|ani)')"
p50
aS"(1961, u'(?i)(pens|pen)')"
p51
aS"(3812, u'(?i)(studs|stud)')"
p52
aS"(6391, u'(?i)(asses|ass)')"
p53
atp54
Rp55
sb.