(ifile_types
ParseObject
p0
(dp1
S'antagonists'
p2
c__builtin__
set
p3
((lp4
S"(130, u'\\\\bzacopride')"
p5
aS"(110, u'\\\\bclozapine')"
p6
aS"(58, u'\\\\bhaloperidol')"
p7
atp8
Rp9
sS'methods'
p10
g3
((lp11
S'Method.AGONIST'
p12
atp13
Rp14
sS'topics'
p15
g3
((lp16
tp17
Rp18
sS'receptors'
p19
g3
((lp20
S'5ht4a'
p21
aS'5ht1a'
p22
aS'5ht4'
p23
aS'5ht2'
p24
aS'5ht2a'
p25
atp26
Rp27
sS'regions'
p28
g3
((lp29
tp30
Rp31
sS'year'
p32
V2004
p33
sS'agonists'
p34
g3
((lp35
S"(208, u'\\\\bzacopride')"
p36
aS"(175, u'\\\\bdoi')"
p37
aS"(23, u'\\\\bclozapine')"
p38
aS"(85, u'\\\\b8 ?oh ?dpat')"
p39
aS"(43, u'\\\\bhaloperidol')"
p40
atp41
Rp42
sS'species'
p43
g3
((lp44
S"(5958, u'(?i)\\\\b(rats|rat)\\\\b')"
p45
atp46
Rp47
sb.