(ifile_types
ParseObject
p0
(dp1
S'antagonists'
p2
c__builtin__
set
p3
((lp4
tp5
Rp6
sS'methods'
p7
g3
((lp8
S'Method.ANTAGONIST'
p9
aS'Method.AGONIST'
p10
atp11
Rp12
sS'topics'
p13
g3
((lp14
tp15
Rp16
sS'receptors'
p17
g3
((lp18
S'5ht1a'
p19
atp20
Rp21
sS'regions'
p22
g3
((lp23
tp24
Rp25
sS'year'
p26
V2010
p27
sS'agonists'
p28
g3
((lp29
S"(25, u'\\\\bcannabidiol')"
p30
aS"(155, u'\\\\bmem')"
p31
atp32
Rp33
sS'species'
p34
g3
((lp35
S"(1070, u'(?i)(pets|pet)')"
p36
aS"(2323, u'(?i)(bees|bee)')"
p37
aS"(5958, u'(?i)(rats|rat)')"
p38
aS"(867, u'(?i)(tits|tit)')"
p39
aS"(163, u'(?i)(mice|mouse)')"
p40
aS"(6391, u'(?i)(asses|ass)')"
p41
aS"(468, u'(?i)(oxen|ox)')"
p42
aS"(1055, u'(?i)(men|man)')"
p43
aS"(3404, u'(?i)(titis|titi)')"
p44
aS"(4979, u'(?i)(cats|cat)')"
p45
aS"(6249, u'(?i)(ants|ant)')"
p46
aS"(3522, u'(?i)(tetras|tetra)')"
p47
aS"(1057, u'(?i)(humans|human)')"
p48
aS"(5917, u'(?i)(roaches|roach)')"
p49
aS"(1291, u'(?i)(ratels|ratel)')"
p50
aS"(3812, u'(?i)(studs|stud)')"
p51
aS"(3196, u'(?i)(human|humans)')"
p52
aS"(6356, u'(?i)(ais|ai)')"
p53
atp54
Rp55
sb.