(ifile_types
ParseObject
p0
(dp1
S'methods'
p2
c__builtin__
set
p3
((lp4
S'Method.ANTAGONIST'
p5
aS'Method.AGONIST'
p6
atp7
Rp8
sS'topics'
p9
g3
((lp10
tp11
Rp12
sS'receptors'
p13
g3
((lp14
(S'5ht1a'
p15
I1086
I1092
tp16
a(S'5ht1b'
p17
I1520
I1526
tp18
a(S'5ht1'
p19
I677
I682
tp20
a(S'5ht1a'
p21
I294
I300
tp22
atp23
Rp24
sS'raw_text_methods'
p25
g3
((lp26
S"(13, u'\\\\bagonist')"
p27
aS"(15, u'\\\\b8ohdpat')"
p28
aS"(12, u'\\\\bantagonist')"
p29
atp30
Rp31
sS'regions'
p32
g3
((lp33
tp34
Rp35
sS'year'
p36
V1992
p37
sS'species'
p38
g3
((lp39
S"(1, u'(?i)\\\\b(mice|mouse)\\\\b')"
p40
aS"(6, u'(?i)\\\\b(rodents|rodent)\\\\b')"
p41
aS"(5, u'(?i)\\\\b(mices|mice)\\\\b')"
p42
aS"(4, u'(?i)\\\\b(rats|rat)\\\\b')"
p43
atp44
Rp45
sb.