(ifile_types
ParseObject
p0
(dp1
S'methods'
p2
c__builtin__
set
p3
((lp4
S'Method.ANTAGONIST'
p5
aS'Method.AGONIST'
p6
atp7
Rp8
sS'topics'
p9
g3
((lp10
S"(26, u'\\\\bbehav')"
p11
aS"(4, u'\\\\btreatment')"
p12
atp13
Rp14
sS'receptors'
p15
g3
((lp16
(S'5ht6'
p17
I1715
I1720
tp18
a(S'5ht6'
p19
I601
I606
tp20
a(S'5ht6'
p21
I1064
I1069
tp22
a(S'5ht6'
p23
I280
I285
tp24
a(S'5ht6'
p25
I1159
I1164
tp26
a(S'5ht6'
p27
I340
I345
tp28
a(S'5ht6'
p29
I691
I696
tp30
a(S'5ht6'
p31
I1531
I1536
tp32
a(S'5ht6'
p33
I818
I823
tp34
a(S'5ht6'
p35
I129
I134
tp36
atp37
Rp38
sS'raw_text_methods'
p39
g3
((lp40
S"(13, u'\\\\bagonist')"
p41
aS"(12, u'\\\\bantagonist')"
p42
atp43
Rp44
sS'regions'
p45
g3
((lp46
tp47
Rp48
sS'year'
p49
V1998
p50
sS'species'
p51
g3
((lp52
S"(4, u'(?i)\\\\b(rats|rat)\\\\b')"
p53
atp54
Rp55
sb.