(ifile_types
ParseObject
p0
(dp1
S'methods'
p2
c__builtin__
set
p3
((lp4
tp5
Rp6
sS'topics'
p7
g3
((lp8
S"(1, u'\\\\bpatient')"
p9
aS"(25, u'\\\\bsocial')"
p10
aS"(17, u'\\\\balzheimer')"
p11
aS"(15, u'\\\\bmemory')"
p12
atp13
Rp14
sS'receptors'
p15
g3
((lp16
(S'5ht2a'
p17
I457
I463
tp18
a(S'5ht2a'
p19
I1249
I1255
tp20
a(S'5ht2a'
p21
I1530
I1536
tp22
a(S'5ht2a'
p23
I1187
I1193
tp24
a(S'5ht2a'
p25
I147
I153
tp26
a(S'5ht2a'
p27
I1472
I1478
tp28
a(S'5ht2a'
p29
I735
I741
tp30
atp31
Rp32
sS'raw_text_methods'
p33
g3
((lp34
tp35
Rp36
sS'regions'
p37
g3
((lp38
S"(19, u'(?i)\\\\b(cortexes|cortex)\\\\b')"
p39
atp40
Rp41
sS'year'
p42
V2008
p43
sS'species'
p44
g3
((lp45
S"(4, u'(?i)\\\\b(rats|rat)\\\\b')"
p46
atp47
Rp48
sb.