(ifile_types
ParseObject
p0
(dp1
S'antagonists'
p2
c__builtin__
set
p3
((lp4
S"(31, u'\\\\bway ?100135')"
p5
atp6
Rp7
sS'methods'
p8
g3
((lp9
S'Method.ANTAGONIST'
p10
aS'Method.AGONIST'
p11
atp12
Rp13
sS'topics'
p14
g3
((lp15
S"(25, u'\\\\bvasoconstrict')"
p16
atp17
Rp18
sS'receptors'
p19
g3
((lp20
S'5ht5'
p21
aS'5ht1a'
p22
atp23
Rp24
sS'regions'
p25
g3
((lp26
S"(220, u'(?i)(striatums|striatum)')"
p27
aS"(34, u'(?i)(pon|pons)')"
p28
atp29
Rp30
sS'year'
p31
V1997
p32
sS'agonists'
p33
g3
((lp34
S"(92, u'\\\\b8 ?oh ?dpat')"
p35
atp36
Rp37
sS'species'
p38
g3
((lp39
S"(4624, u'(?i)(apes|ape)')"
p40
aS"(5958, u'(?i)(rats|rat)')"
p41
aS"(867, u'(?i)(tits|tit)')"
p42
aS"(4163, u'(?i)(ermines|ermine)')"
p43
aS"(1055, u'(?i)(men|man)')"
p44
aS"(6249, u'(?i)(ants|ant)')"
p45
aS"(6215, u'(?i)(racers|racer)')"
p46
aS"(5176, u'(?i)(tegs|teg)')"
p47
aS"(3550, u'(?i)(anis|ani)')"
p48
aS"(3812, u'(?i)(studs|stud)')"
p49
aS"(3569, u'(?i)(constrictors|constrictor)')"
p50
aS"(6356, u'(?i)(ais|ai)')"
p51
atp52
Rp53
sb.