(ifile_types
ParseObject
p0
(dp1
S'antagonists'
p2
c__builtin__
set
p3
((lp4
tp5
Rp6
sS'methods'
p7
g3
((lp8
S'Method.AGONIST'
p9
atp10
Rp11
sS'topics'
p12
g3
((lp13
S"(3, u'\\\\bsleep')"
p14
atp15
Rp16
sS'receptors'
p17
g3
((lp18
S'5ht1a'
p19
atp20
Rp21
sS'regions'
p22
g3
((lp23
S"(224, u'(?i)\\\\b(caudates|caudate)(-|\\\\s+)?(nuclei|nucleus)\\\\b')"
p24
aS"(165, u'(?i)\\\\b(preoptics|preoptic)(-|\\\\s+)?(areas|area)\\\\b')"
p25
atp26
Rp27
sS'year'
p28
V1991
p29
sS'agonists'
p30
g3
((lp31
S"(85, u'\\\\b8 ?oh ?dpat')"
p32
atp33
Rp34
sS'species'
p35
g3
((lp36
S"(6325, u'(?i)\\\\b(caudates|caudate)\\\\b')"
p37
aS"(4979, u'(?i)\\\\b(cats|cat)\\\\b')"
p38
atp39
Rp40
sb.