(ifile_types
ParseObject
p0
(dp1
S'methods'
p2
c__builtin__
set
p3
((lp4
S'Method.ANTAGONIST'
p5
aS'Method.AGONIST'
p6
atp7
Rp8
sS'topics'
p9
g3
((lp10
S"(13, u'\\\\bantidepress')"
p11
atp12
Rp13
sS'receptors'
p14
g3
((lp15
(S'5ht2c'
p16
I1633
I1639
tp17
a(S'5ht2b'
p18
I428
I439
tp19
a(S'5ht2b'
p20
I1708
I1714
tp21
a(S'5ht2c'
p22
I470
I476
tp23
a(S'5ht2b'
p24
I442
I448
tp25
a(S'5ht2'
p26
I46
I57
tp27
a(S'5ht2b'
p28
I46
I57
tp29
a(S'5ht2c'
p30
I64
I75
tp31
a(S'5ht2b'
p32
I704
I710
tp33
a(S'5ht2c'
p34
I634
I640
tp35
a(S'5ht2c'
p36
I456
I467
tp37
atp38
Rp39
sS'raw_text_methods'
p40
g3
((lp41
S"(13, u'\\\\bagonist')"
p42
aS"(43, u'\\\\bagomelatine')"
p43
aS"(12, u'\\\\bantagonist')"
p44
atp45
Rp46
sS'regions'
p47
g3
((lp48
S"(16, u'(?i)\\\\b(drns|drn)\\\\b')"
p49
atp50
Rp51
sS'year'
p52
V2014
p53
sS'species'
p54
g3
((lp55
S"(4, u'(?i)\\\\b(rats|rat)\\\\b')"
p56
atp57
Rp58
sb.