(ifile_types
ParseObject
p0
(dp1
S'antagonists'
p2
c__builtin__
set
p3
((lp4
S"(32, u'\\\\bway ?100635')"
p5
atp6
Rp7
sS'methods'
p8
g3
((lp9
S'Method.ANTAGONIST'
p10
aS'Method.IMMUNOHISTOCHEMISTRY'
p11
atp12
Rp13
sS'topics'
p14
g3
((lp15
S"(35, u'\\\\bstress')"
p16
atp17
Rp18
sS'receptors'
p19
g3
((lp20
S'5ht1a'
p21
atp22
Rp23
sS'regions'
p24
g3
((lp25
S"(126, u'(?i)(thalamuses|thalamus)')"
p26
atp27
Rp28
sS'year'
p29
V2009
p30
sS'agonists'
p31
g3
((lp32
tp33
Rp34
sS'species'
p35
g3
((lp36
S"(2323, u'(?i)(bees|bee)')"
p37
aS"(5537, u'(?i)(hippos|hippo)')"
p38
aS"(5958, u'(?i)(rats|rat)')"
p39
aS"(7609, u'(?i)(erns|ern)')"
p40
aS"(6682, u'(?i)(tera|teras)')"
p41
aS"(1055, u'(?i)(men|man)')"
p42
aS"(6249, u'(?i)(ants|ant)')"
p43
aS"(6753, u'(?i)(da|das)')"
p44
aS"(3550, u'(?i)(anis|ani)')"
p45
aS"(5229, u'(?i)(moles|mole)')"
p46
aS"(3812, u'(?i)(studs|stud)')"
p47
aS"(1683, u'(?i)(terns|tern)')"
p48
atp49
Rp50
sb.