(ifile_types
ParseObject
p0
(dp1
S'antagonists'
p2
c__builtin__
set
p3
((lp4
tp5
Rp6
sS'methods'
p7
g3
((lp8
S'Method.AGONIST'
p9
atp10
Rp11
sS'topics'
p12
g3
((lp13
tp14
Rp15
sS'receptors'
p16
g3
((lp17
S'5ht3a'
p18
aS'5ht3'
p19
atp20
Rp21
sS'regions'
p22
g3
((lp23
S"(220, u'(?i)\\\\b(striatums|striatum)\\\\b')"
p24
atp25
Rp26
sS'year'
p27
V1995
p28
sS'agonists'
p29
g3
((lp30
S"(191, u'\\\\bphenylbiguanide')"
p31
aS"(190, u'\\\\bibogaine')"
p32
atp33
Rp34
sS'species'
p35
g3
((lp36
S"(163, u'(?i)\\\\b(mice|mouse)\\\\b')"
p37
aS"(4074, u'(?i)\\\\b(bulls|bull)\\\\b')"
p38
atp39
Rp40
sb.