(ifile_types
ParseObject
p0
(dp1
S'antagonists'
p2
c__builtin__
set
p3
((lp4
tp5
Rp6
sS'methods'
p7
g3
((lp8
S'Method.ANTAGONIST'
p9
aS'Method.AGONIST'
p10
atp11
Rp12
sS'topics'
p13
g3
((lp14
tp15
Rp16
sS'receptors'
p17
g3
((lp18
S'5ht1b'
p19
aS'5ht1a'
p20
aS'5ht5'
p21
atp22
Rp23
sS'regions'
p24
g3
((lp25
S"(34, u'(?i)(pon|pons)')"
p26
atp27
Rp28
sS'year'
p29
V2010
p30
sS'agonists'
p31
g3
((lp32
S"(181, u'\\\\bdom')"
p33
atp34
Rp35
sS'species'
p36
g3
((lp37
S"(4624, u'(?i)(apes|ape)')"
p38
aS"(5958, u'(?i)(rats|rat)')"
p39
aS"(931, u'(?i)(divers|diver)')"
p40
aS"(7609, u'(?i)(erns|ern)')"
p41
aS"(163, u'(?i)(mice|mouse)')"
p42
aS"(6682, u'(?i)(tera|teras)')"
p43
aS"(468, u'(?i)(oxen|ox)')"
p44
aS"(1349, u'(?i)(rams|ram)')"
p45
aS"(1055, u'(?i)(men|man)')"
p46
aS"(853, u'(?i)(minas|mina)')"
p47
aS"(2665, u'(?i)(rays|ray)')"
p48
aS"(6249, u'(?i)(ants|ant)')"
p49
aS"(4979, u'(?i)(cats|cat)')"
p50
aS"(5949, u'(?i)(dogs|dog)')"
p51
aS"(1961, u'(?i)(pens|pen)')"
p52
aS"(6356, u'(?i)(ais|ai)')"
p53
aS"(6391, u'(?i)(asses|ass)')"
p54
aS"(1628, u'(?i)(cod|cod)')"
p55
aS"(5743, u'(?i)(bots|bot)')"
p56
aS"(1683, u'(?i)(terns|tern)')"
p57
aS"(4133, u'(?i)(pikes|pike)')"
p58
atp59
Rp60
sb.