(ifile_types
ParseObject
p0
(dp1
S'antagonists'
p2
c__builtin__
set
p3
((lp4
S"(104, u'\\\\bimipramine')"
p5
atp6
Rp7
sS'methods'
p8
g3
((lp9
S'Method.AGONIST'
p10
atp11
Rp12
sS'topics'
p13
g3
((lp14
S"(9, u'\\\\bdepress')"
p15
atp16
Rp17
sS'receptors'
p18
g3
((lp19
S'5ht1a'
p20
atp21
Rp22
sS'regions'
p23
g3
((lp24
tp25
Rp26
sS'year'
p27
V2012
p28
sS'agonists'
p29
g3
((lp30
S"(85, u'\\\\b8 ?oh ?dpat')"
p31
atp32
Rp33
sS'species'
p34
g3
((lp35
S"(163, u'(?i)\\\\b(mice|mouse)\\\\b')"
p36
atp37
Rp38
sb.