(ifile_types
ParseObject
p0
(dp1
S'antagonists'
p2
c__builtin__
set
p3
((lp4
tp5
Rp6
sS'methods'
p7
g3
((lp8
S'Method.ANTAGONIST'
p9
atp10
Rp11
sS'topics'
p12
g3
((lp13
tp14
Rp15
sS'receptors'
p16
g3
((lp17
S'5ht3a'
p18
aS'5ht3'
p19
atp20
Rp21
sS'regions'
p22
g3
((lp23
S"(220, u'(?i)(striatums|striatum)')"
p24
aS"(226, u'(?i)(nuclei|nucleus)(-|\\\\s+)?(accumben|accumbens)')"
p25
atp26
Rp27
sS'year'
p28
V1990
p29
sS'agonists'
p30
g3
((lp31
S"(193, u'\\\\bethanol')"
p32
atp33
Rp34
sS'species'
p35
g3
((lp36
S"(5743, u'(?i)(bots|bot)')"
p37
aS"(5958, u'(?i)(rats|rat)')"
p38
aS"(1055, u'(?i)(men|man)')"
p39
aS"(6249, u'(?i)(ants|ant)')"
p40
atp41
Rp42
sb.