(ifile_types
ParseObject
p0
(dp1
S'antagonists'
p2
c__builtin__
set
p3
((lp4
tp5
Rp6
sS'methods'
p7
g3
((lp8
S'Method.ANTAGONIST'
p9
aS'Method.AGONIST'
p10
atp11
Rp12
sS'topics'
p13
g3
((lp14
S"(15, u'\\\\bschizophreni')"
p15
aS"(6, u'\\\\bcognit')"
p16
aS"(14, u'\\\\bpsychosis')"
p17
aS"(7, u'\\\\bmemory')"
p18
aS"(1, u'\\\\bmood')"
p19
atp20
Rp21
sS'receptors'
p22
g3
((lp23
S'5ht1a'
p24
aS'5ht2c'
p25
aS'5ht5'
p26
aS'5ht2a'
p27
atp28
Rp29
sS'regions'
p30
g3
((lp31
S"(254, u'(?i)(prefrontals|prefrontal)(-|\\\\s+)?(cortexes|cortex)')"
p32
aS"(255, u'(?i)(pres|pre)(-|\\\\s+)?(frontals|frontal)(-|\\\\s+)?(cortexes|cortex)')"
p33
aS"(287, u'(?i)(parahippocampals|parahippocampal)(-|\\\\s+)?(gyruses|gyrus)')"
p34
aS"(34, u'(?i)(pon|pons)')"
p35
atp36
Rp37
sS'year'
p38
V2008
p39
sS'agonists'
p40
g3
((lp41
S"(155, u'\\\\bmem')"
p42
atp43
Rp44
sS'species'
p45
g3
((lp46
S"(4624, u'(?i)(apes|ape)')"
p47
aS"(4163, u'(?i)(ermines|ermine)')"
p48
aS"(3812, u'(?i)(studs|stud)')"
p49
aS"(5958, u'(?i)(rats|rat)')"
p50
aS"(6356, u'(?i)(ais|ai)')"
p51
aS"(6391, u'(?i)(asses|ass)')"
p52
aS"(702, u'(?i)(genets|genet)')"
p53
aS"(3550, u'(?i)(anis|ani)')"
p54
aS"(2809, u'(?i)(toms|tom)')"
p55
aS"(5537, u'(?i)(hippos|hippo)')"
p56
aS"(6249, u'(?i)(ants|ant)')"
p57
aS"(7609, u'(?i)(erns|ern)')"
p58
aS"(163, u'(?i)(mice|mouse)')"
p59
aS"(6682, u'(?i)(tera|teras)')"
p60
aS"(1055, u'(?i)(men|man)')"
p61
aS"(5176, u'(?i)(tegs|teg)')"
p62
aS"(4979, u'(?i)(cats|cat)')"
p63
aS"(2323, u'(?i)(bees|bee)')"
p64
aS"(2568, u'(?i)(hens|hen)')"
p65
aS"(6753, u'(?i)(da|das)')"
p66
aS"(3726, u'(?i)(mates|mate)')"
p67
aS"(5674, u'(?i)(ewes|ewe)')"
p68
atp69
Rp70
sb.