(ifile_types
ParseObject
p0
(dp1
S'antagonists'
p2
c__builtin__
set
p3
((lp4
tp5
Rp6
sS'methods'
p7
g3
((lp8
S'Method.AGONIST'
p9
atp10
Rp11
sS'topics'
p12
g3
((lp13
tp14
Rp15
sS'receptors'
p16
g3
((lp17
S'5ht1a'
p18
aS'5ht1d'
p19
atp20
Rp21
sS'regions'
p22
g3
((lp23
S"(34, u'(?i)(pon|pons)')"
p24
atp25
Rp26
sS'year'
p27
V2001
p28
sS'agonists'
p29
g3
((lp30
S"(92, u'\\\\b8 ?oh ?dpat')"
p31
aS"(155, u'\\\\bmem')"
p32
atp33
Rp34
sS'species'
p35
g3
((lp36
S"(4624, u'(?i)(apes|ape)')"
p37
aS"(2568, u'(?i)(hens|hen)')"
p38
aS"(7609, u'(?i)(erns|ern)')"
p39
aS"(468, u'(?i)(oxen|ox)')"
p40
aS"(1349, u'(?i)(rams|ram)')"
p41
aS"(1055, u'(?i)(men|man)')"
p42
aS"(6753, u'(?i)(da|das)')"
p43
aS"(5958, u'(?i)(rats|rat)')"
p44
aS"(3522, u'(?i)(tetras|tetra)')"
p45
aS"(1057, u'(?i)(humans|human)')"
p46
aS"(6391, u'(?i)(asses|ass)')"
p47
aS"(6356, u'(?i)(ais|ai)')"
p48
aS"(3196, u'(?i)(human|humans)')"
p49
aS"(2809, u'(?i)(toms|tom)')"
p50
atp51
Rp52
sb.