(ifile_types
ParseObject
p0
(dp1
S'methods'
p2
c__builtin__
set
p3
((lp4
S'Method.ANTAGONIST'
p5
aS'Method.AGONIST'
p6
atp7
Rp8
sS'topics'
p9
g3
((lp10
S"(14, u'\\\\bcogniti')"
p11
aS"(26, u'\\\\bbehav')"
p12
aS"(9, u'\\\\bstress')"
p13
aS"(3, u'\\\\bclinical')"
p14
atp15
Rp16
sS'receptors'
p17
g3
((lp18
(S'5ht3'
p19
I1970
I1975
tp20
a(S'5ht3'
p21
I1777
I1782
tp22
a(S'5ht3'
p23
I603
I608
tp24
a(S'5ht3'
p25
I414
I419
tp26
a(S'5ht3'
p27
I53
I58
tp28
a(S'5ht3'
p29
I896
I901
tp30
atp31
Rp32
sS'raw_text_methods'
p33
g3
((lp34
S"(13, u'\\\\bagonist')"
p35
aS"(3, u'\\\\bimmunoreactiv')"
p36
aS"(20, u'\\\\bondansetron')"
p37
aS"(12, u'\\\\bantagonist')"
p38
atp39
Rp40
sS'regions'
p41
g3
((lp42
S"(13, u'(?i)\\\\b(septums|septum)\\\\b')"
p43
aS"(12, u'(?i)\\\\b(amygdalas|amygdala)\\\\b')"
p44
aS"(14, u'(?i)\\\\b(caudals|caudal)\\\\b')"
p45
atp46
Rp47
sS'year'
p48
V2014
p49
sS'species'
p50
g3
((lp51
S"(4, u'(?i)\\\\b(rats|rat)\\\\b')"
p52
atp53
Rp54
sb.