(ifile_types
ParseObject
p0
(dp1
S'antagonists'
p2
c__builtin__
set
p3
((lp4
S"(53, u'\\\\bketanserin')"
p5
aS"(128, u'\\\\bketanserin')"
p6
atp7
Rp8
sS'methods'
p9
g3
((lp10
S'Method.AGONIST'
p11
atp12
Rp13
sS'topics'
p14
g3
((lp15
S"(26, u'\\\\bcardiovascular')"
p16
atp17
Rp18
sS'receptors'
p19
g3
((lp20
S'5ht1a'
p21
atp22
Rp23
sS'regions'
p24
g3
((lp25
S"(34, u'(?i)(pon|pons)')"
p26
atp27
Rp28
sS'year'
p29
V1994
p30
sS'agonists'
p31
g3
((lp32
S"(152, u'\\\\bguanfacine')"
p33
aS"(86, u'\\\\burapidil')"
p34
atp35
Rp36
sS'species'
p37
g3
((lp38
S"(2323, u'(?i)(bees|bee)')"
p39
aS"(6753, u'(?i)(da|das)')"
p40
aS"(6249, u'(?i)(ants|ant)')"
p41
aS"(4979, u'(?i)(cats|cat)')"
p42
aS"(468, u'(?i)(oxen|ox)')"
p43
aS"(1055, u'(?i)(men|man)')"
p44
aS"(1349, u'(?i)(rams|ram)')"
p45
aS"(4964, u'(?i)(serins|serin)')"
p46
aS"(3550, u'(?i)(anis|ani)')"
p47
aS"(6356, u'(?i)(ais|ai)')"
p48
aS"(6391, u'(?i)(asses|ass)')"
p49
aS"(6878, u'(?i)(guans|guan)')"
p50
aS"(5743, u'(?i)(bots|bot)')"
p51
aS"(5674, u'(?i)(ewes|ewe)')"
p52
atp53
Rp54
sb.