(ifile_types
ParseObject
p0
(dp1
S'antagonists'
p2
c__builtin__
set
p3
((lp4
S"(32, u'\\\\bway ?100635')"
p5
aS"(105, u'\\\\bmethysergide')"
p6
aS"(202, u'\\\\bsb ?258719')"
p7
atp8
Rp9
sS'methods'
p10
g3
((lp11
S'Method.ANTAGONIST'
p12
atp13
Rp14
sS'topics'
p15
g3
((lp16
S"(21, u'\\\\bpain')"
p17
aS"(9, u'\\\\bdepress')"
p18
atp19
Rp20
sS'receptors'
p21
g3
((lp22
S'5ht7'
p23
aS'5ht7a'
p24
aS'5ht5'
p25
aS'5ht1a'
p26
atp27
Rp28
sS'regions'
p29
g3
((lp30
S"(34, u'(?i)(pon|pons)')"
p31
atp32
Rp33
sS'year'
p34
V2014
p35
sS'agonists'
p36
g3
((lp37
S"(60, u'\\\\bmethysergide')"
p38
atp39
Rp40
sS'species'
p41
g3
((lp42
S"(4624, u'(?i)(apes|ape)')"
p43
aS"(2568, u'(?i)(hens|hen)')"
p44
aS"(5958, u'(?i)(rats|rat)')"
p45
aS"(163, u'(?i)(mice|mouse)')"
p46
aS"(81, u'(?i)(asps|asp)')"
p47
aS"(6682, u'(?i)(tera|teras)')"
p48
aS"(1055, u'(?i)(men|man)')"
p49
aS"(6249, u'(?i)(ants|ant)')"
p50
aS"(6215, u'(?i)(racers|racer)')"
p51
aS"(6753, u'(?i)(da|das)')"
p52
aS"(3550, u'(?i)(anis|ani)')"
p53
aS"(7094, u'(?i)(curs|cur)')"
p54
aS"(1291, u'(?i)(ratels|ratel)')"
p55
aS"(6356, u'(?i)(ais|ai)')"
p56
atp57
Rp58
sb.