(ifile_types
ParseObject
p0
(dp1
S'methods'
p2
c__builtin__
set
p3
((lp4
S'Method.PET'
p5
atp6
Rp7
sS'topics'
p8
g3
((lp9
tp10
Rp11
sS'receptors'
p12
g3
((lp13
(S'5ht1a'
p14
I65
I71
tp15
a(S'5ht1a'
p16
I244
I255
tp17
a(S'5ht1a'
p18
I1729
I1735
tp19
atp20
Rp21
sS'raw_text_methods'
p22
g3
((lp23
S"(51, u'\\\\bway100635')"
p24
aS"(17, u'\\\\bpet')"
p25
aS"(18, u'\\\\bimaging')"
p26
atp27
Rp28
sS'regions'
p29
g3
((lp30
S"(19, u'(?i)\\\\b(cortexes|cortex)\\\\b')"
p31
atp32
Rp33
sS'year'
p34
V2012
p35
sS'species'
p36
g3
((lp37
S"(4, u'(?i)\\\\b(rats|rat)\\\\b')"
p38
atp39
Rp40
sb.