(ifile_types
ParseObject
p0
(dp1
S'antagonists'
p2
c__builtin__
set
p3
((lp4
tp5
Rp6
sS'methods'
p7
g3
((lp8
S'Method.ANTAGONIST'
p9
atp10
Rp11
sS'topics'
p12
g3
((lp13
tp14
Rp15
sS'receptors'
p16
g3
((lp17
S'5ht4a'
p18
aS'5ht4b'
p19
aS'5ht4'
p20
atp21
Rp22
sS'regions'
p23
g3
((lp24
S"(106, u'(?i)\\\\b(interpedunculars|interpeduncular)(-|\\\\s+)?(nuclei|nucleus)\\\\b')"
p25
aS"(227, u'(?i)\\\\b(olfactories|olfactory)(-|\\\\s+)?(tubercles|tubercle)\\\\b')"
p26
aS"(157, u'(?i)\\\\b(limbics|limbic)(-|\\\\s+)?(systems|system)\\\\b')"
p27
aS"(209, u'(?i)\\\\b(amygdalas|amygdala)\\\\b')"
p28
aS"(103, u'(?i)\\\\b(substantias|substantia)(-|\\\\s+)?(nigras|nigra)\\\\b')"
p29
aS"(230, u'(?i)\\\\b(ventrals|ventral)(-|\\\\s+)?(pallidums|pallidum)\\\\b')"
p30
aS"(34, u'(?i)\\\\b(pon|pons)\\\\b')"
p31
atp32
Rp33
sS'year'
p34
V1994
p35
sS'agonists'
p36
g3
((lp37
tp38
Rp39
sS'species'
p40
g3
((lp41
S"(5799, u'(?i)\\\\b(rodents|rodent)\\\\b')"
p42
aS"(163, u'(?i)\\\\b(mice|mouse)\\\\b')"
p43
aS"(3062, u'(?i)\\\\b(guineas|guinea)\\\\b')"
p44
aS"(4091, u'(?i)\\\\b(adults|adult)\\\\b')"
p45
aS"(3051, u'(?i)\\\\b(pigs|pig)\\\\b')"
p46
aS"(4480, u'(?i)\\\\b(guineas|guinea)(-|\\\\s+)?(pigs|pig)\\\\b')"
p47
aS"(5958, u'(?i)\\\\b(rats|rat)\\\\b')"
p48
atp49
Rp50
sb.