(ifile_types
ParseObject
p0
(dp1
S'antagonists'
p2
c__builtin__
set
p3
((lp4
S"(43, u'\\\\bgr ?127935')"
p5
aS"(91, u'\\\\bfluoxetine')"
p6
aS"(31, u'\\\\bway ?100635')"
p7
atp8
Rp9
sS'methods'
p10
g3
((lp11
S'Method.KNOCKOUT'
p12
aS'Method.ANTAGONIST'
p13
aS'Method.AGONIST'
p14
atp15
Rp16
sS'topics'
p17
g3
((lp18
S"(4, u'\\\\blocomot')"
p19
atp20
Rp21
sS'receptors'
p22
g3
((lp23
S'5ht1b'
p24
aS'5ht1a'
p25
aS'5ht1d'
p26
atp27
Rp28
sS'regions'
p29
g3
((lp30
S"(103, u'(?i)\\\\b(substantias|substantia)(-|\\\\s+)?(nigras|nigra)\\\\b')"
p31
atp32
Rp33
sS'year'
p34
V2009
p35
sS'agonists'
p36
g3
((lp37
S"(85, u'\\\\b8 ?oh ?dpat')"
p38
aS"(67, u'\\\\bru ?24969')"
p39
atp40
Rp41
sS'species'
p42
g3
((lp43
S"(163, u'(?i)\\\\b(mice|mouse)\\\\b')"
p44
atp45
Rp46
sb.