(ifile_types
ParseObject
p0
(dp1
S'antagonists'
p2
c__builtin__
set
p3
((lp4
S"(204, u'\\\\bsb ?269970')"
p5
aS"(67, u'\\\\bhaloperidol')"
p6
aS"(153, u'\\\\bgr ?113808')"
p7
aS"(39, u'\\\\bsb ?224289')"
p8
atp9
Rp10
sS'methods'
p11
g3
((lp12
S'Method.ANTAGONIST'
p13
atp14
Rp15
sS'topics'
p16
g3
((lp17
tp18
Rp19
sS'receptors'
p20
g3
((lp21
S'5ht7'
p22
aS'5ht1b'
p23
aS'5ht4'
p24
aS'5ht1'
p25
atp26
Rp27
sS'regions'
p28
g3
((lp29
tp30
Rp31
sS'year'
p32
V2009
p33
sS'agonists'
p34
g3
((lp35
S"(48, u'\\\\bhaloperidol')"
p36
atp37
Rp38
sS'species'
p39
g3
((lp40
S"(2568, u'(?i)(hens|hen)')"
p41
aS"(1049, u'(?i)(elands|eland)')"
p42
aS"(6753, u'(?i)(da|das)')"
p43
aS"(6682, u'(?i)(tera|teras)')"
p44
aS"(6249, u'(?i)(ants|ant)')"
p45
aS"(4979, u'(?i)(cats|cat)')"
p46
aS"(3550, u'(?i)(anis|ani)')"
p47
aS"(5958, u'(?i)(rats|rat)')"
p48
aS"(3812, u'(?i)(studs|stud)')"
p49
aS"(391, u'(?i)(alli|allis)')"
p50
atp51
Rp52
sb.