(ifile_types
ParseObject
p0
(dp1
S'antagonists'
p2
c__builtin__
set
p3
((lp4
S"(32, u'\\\\bway ?100635')"
p5
atp6
Rp7
sS'methods'
p8
g3
((lp9
S'Method.ANTAGONIST'
p10
aS'Method.AGONIST'
p11
atp12
Rp13
sS'topics'
p14
g3
((lp15
S"(30, u'\\\\bparkinsons')"
p16
atp17
Rp18
sS'receptors'
p19
g3
((lp20
S'5ht1a'
p21
atp22
Rp23
sS'regions'
p24
g3
((lp25
S"(219, u'(?i)(basals|basal)(-|\\\\s+)?(ganglias|ganglia)')"
p26
aS"(34, u'(?i)(pon|pons)')"
p27
atp28
Rp29
sS'year'
p30
V2018
p31
sS'agonists'
p32
g3
((lp33
S"(92, u'\\\\b8 ?oh ?dpat')"
p34
aS"(42, u'\\\\bf ?13714')"
p35
aS"(95, u'\\\\bf ?15599')"
p36
atp37
Rp38
sS'species'
p39
g3
((lp40
S"(2323, u'(?i)(bees|bee)')"
p41
aS"(5799, u'(?i)(rodents|rodent)')"
p42
aS"(5958, u'(?i)(rats|rat)')"
p43
aS"(2401, u'(?i)(primates|primate)')"
p44
aS"(479, u'(?i)(lings|ling)')"
p45
aS"(4201, u'(?i)(kines|kine)')"
p46
aS"(1055, u'(?i)(men|man)')"
p47
aS"(3726, u'(?i)(mates|mate)')"
p48
aS"(3381, u'(?i)(flies|fly)')"
p49
aS"(6249, u'(?i)(ants|ant)')"
p50
aS"(1414, u'(?i)(chars|char)')"
p51
aS"(6391, u'(?i)(asses|ass)')"
p52
aS"(2809, u'(?i)(toms|tom)')"
p53
aS"(6356, u'(?i)(ais|ai)')"
p54
atp55
Rp56
sb.