(ifile_types
ParseObject
p0
(dp1
S'methods'
p2
c__builtin__
set
p3
((lp4
S'Method.PET'
p5
aS'Method.ANTAGONIST'
p6
atp7
Rp8
sS'topics'
p9
g3
((lp10
tp11
Rp12
sS'receptors'
p13
g3
((lp14
(S'5ht3'
p15
I245
I250
tp16
a(S'5ht3'
p17
I116
I121
tp18
atp19
Rp20
sS'raw_text_methods'
p21
g3
((lp22
S"(19, u'\\\\bpositron emission tomography')"
p23
aS"(12, u'\\\\bantagonist')"
p24
atp25
Rp26
sS'regions'
p27
g3
((lp28
tp29
Rp30
sS'year'
p31
V1998
p32
sS'species'
p33
g3
((lp34
tp35
Rp36
sb.