(ifile_types
ParseObject
p0
(dp1
S'methods'
p2
c__builtin__
set
p3
((lp4
tp5
Rp6
sS'topics'
p7
g3
((lp8
S"(1, u'\\\\bpatient')"
p9
aS"(10, u'\\\\bocd')"
p10
aS"(2, u'\\\\bdisorder')"
p11
atp12
Rp13
sS'receptors'
p14
g3
((lp15
(S'5ht1'
p16
I286
I291
tp17
a(S'5ht1d'
p18
I70
I76
tp19
a(S'5ht1'
p20
I971
I976
tp21
a(S'5ht1'
p22
I424
I429
tp23
atp24
Rp25
sS'raw_text_methods'
p26
g3
((lp27
S"(47, u'\\\\bsumatriptan')"
p28
atp29
Rp30
sS'regions'
p31
g3
((lp32
tp33
Rp34
sS'year'
p35
V2004
p36
sS'species'
p37
g3
((lp38
tp39
Rp40
sb.