(ifile_types
ParseObject
p0
(dp1
S'antagonists'
p2
c__builtin__
set
p3
((lp4
S"(31, u'\\\\bway ?100635')"
p5
atp6
Rp7
sS'methods'
p8
g3
((lp9
S'Method.PET'
p10
aS'Method.ANTAGONIST'
p11
aS'Method.AGONIST'
p12
atp13
Rp14
sS'topics'
p15
g3
((lp16
tp17
Rp18
sS'receptors'
p19
g3
((lp20
S'5ht1a'
p21
atp22
Rp23
sS'regions'
p24
g3
((lp25
tp26
Rp27
sS'year'
p28
V2018
p29
sS'agonists'
p30
g3
((lp31
S"(16, u'\\\\bbefiradol')"
p32
aS"(85, u'\\\\b8 ?oh ?dpat')"
p33
atp34
Rp35
sS'species'
p36
g3
((lp37
S"(5799, u'(?i)\\\\b(rodents|rodent)\\\\b')"
p38
aS"(1070, u'(?i)\\\\b(pets|pet)\\\\b')"
p39
aS"(2401, u'(?i)\\\\b(primates|primate)\\\\b')"
p40
aS"(4979, u'(?i)\\\\b(cats|cat)\\\\b')"
p41
aS"(1055, u'(?i)\\\\b(men|man)\\\\b')"
p42
aS"(1057, u'(?i)\\\\b(humans|human)\\\\b')"
p43
aS"(5958, u'(?i)\\\\b(rats|rat)\\\\b')"
p44
aS"(3196, u'(?i)\\\\b(human|humans)\\\\b')"
p45
atp46
Rp47
sb.