(ifile_types
ParseObject
p0
(dp1
S'antagonists'
p2
c__builtin__
set
p3
((lp4
S"(53, u'\\\\bketanserin')"
p5
aS"(128, u'\\\\bketanserin')"
p6
atp7
Rp8
sS'methods'
p9
g3
((lp10
tp11
Rp12
sS'topics'
p13
g3
((lp14
tp15
Rp16
sS'receptors'
p17
g3
((lp18
S'5ht2a'
p19
atp20
Rp21
sS'regions'
p22
g3
((lp23
S"(34, u'(?i)(pon|pons)')"
p24
atp25
Rp26
sS'year'
p27
V2003
p28
sS'agonists'
p29
g3
((lp30
tp31
Rp32
sS'species'
p33
g3
((lp34
S"(6249, u'(?i)(ants|ant)')"
p35
aS"(2568, u'(?i)(hens|hen)')"
p36
aS"(4964, u'(?i)(serins|serin)')"
p37
aS"(4163, u'(?i)(ermines|ermine)')"
p38
aS"(81, u'(?i)(asps|asp)')"
p39
aS"(468, u'(?i)(oxen|ox)')"
p40
aS"(1055, u'(?i)(men|man)')"
p41
aS"(3726, u'(?i)(mates|mate)')"
p42
aS"(853, u'(?i)(minas|mina)')"
p43
aS"(5958, u'(?i)(rats|rat)')"
p44
aS"(1057, u'(?i)(humans|human)')"
p45
aS"(6356, u'(?i)(ais|ai)')"
p46
aS"(3196, u'(?i)(human|humans)')"
p47
aS"(4979, u'(?i)(cats|cat)')"
p48
atp49
Rp50
sb.