(ifile_types
ParseObject
p0
(dp1
S'antagonists'
p2
c__builtin__
set
p3
((lp4
S"(140, u'\\\\brenzapride')"
p5
aS"(153, u'\\\\bgr ?113808')"
p6
atp7
Rp8
sS'methods'
p9
g3
((lp10
S'Method.ANTAGONIST'
p11
aS'Method.AGONIST'
p12
atp13
Rp14
sS'topics'
p15
g3
((lp16
tp17
Rp18
sS'receptors'
p19
g3
((lp20
S'5ht5'
p21
aS'5ht4'
p22
aS'5ht3'
p23
aS'5ht1'
p24
atp25
Rp26
sS'regions'
p27
g3
((lp28
S"(220, u'(?i)(striatums|striatum)')"
p29
aS"(34, u'(?i)(pon|pons)')"
p30
atp31
Rp32
sS'year'
p33
V1996
p34
sS'agonists'
p35
g3
((lp36
S"(207, u'\\\\brenzapride')"
p37
aS"(224, u'\\\\b5 ?methoxytryptamine')"
p38
aS"(225, u'\\\\b5 ?meot')"
p39
atp40
Rp41
sS'species'
p42
g3
((lp43
S"(2568, u'(?i)(hens|hen)')"
p44
aS"(6356, u'(?i)(ais|ai)')"
p45
aS"(5743, u'(?i)(bots|bot)')"
p46
aS"(468, u'(?i)(oxen|ox)')"
p47
aS"(6249, u'(?i)(ants|ant)')"
p48
aS"(2334, u'(?i)(eels|eel)')"
p49
aS"(4979, u'(?i)(cats|cat)')"
p50
aS"(5958, u'(?i)(rats|rat)')"
p51
aS"(3812, u'(?i)(studs|stud)')"
p52
aS"(6391, u'(?i)(asses|ass)')"
p53
aS"(821, u'(?i)(lice|louse)')"
p54
atp55
Rp56
sb.