(ifile_types
ParseObject
p0
(dp1
S'antagonists'
p2
c__builtin__
set
p3
((lp4
tp5
Rp6
sS'methods'
p7
g3
((lp8
S'Method.AGONIST'
p9
atp10
Rp11
sS'topics'
p12
g3
((lp13
S"(35, u'\\\\bstress')"
p14
atp15
Rp16
sS'receptors'
p17
g3
((lp18
S'5ht1a'
p19
aS'5ht5'
p20
atp21
Rp22
sS'regions'
p23
g3
((lp24
S"(318, u'(?i)(raphes|raphe)(-|\\\\s+)?(nuclei|nucleus)')"
p25
aS"(126, u'(?i)(thalamuses|thalamus)')"
p26
aS"(94, u'(?i)(dorsals|dorsal)(-|\\\\s+)?(raphes|raphe)(-|\\\\s+)?(nuclei|nucleus)')"
p27
atp28
Rp29
sS'year'
p30
V2000
p31
sS'agonists'
p32
g3
((lp33
S"(92, u'\\\\b8 ?oh ?dpat')"
p34
atp35
Rp36
sS'species'
p37
g3
((lp38
S"(5958, u'(?i)(rats|rat)')"
p39
aS"(6682, u'(?i)(tera|teras)')"
p40
aS"(468, u'(?i)(oxen|ox)')"
p41
aS"(6356, u'(?i)(ais|ai)')"
p42
aS"(6249, u'(?i)(ants|ant)')"
p43
aS"(3522, u'(?i)(tetras|tetra)')"
p44
aS"(4371, u'(?i)(lizas|liza)')"
p45
aS"(3812, u'(?i)(studs|stud)')"
p46
atp47
Rp48
sb.