(ifile_types
ParseObject
p0
(dp1
S'methods'
p2
c__builtin__
set
p3
((lp4
S'Method.AGONIST'
p5
atp6
Rp7
sS'topics'
p8
g3
((lp9
S"(7, u'\\\\bdepressi')"
p10
aS"(3, u'\\\\bclinical')"
p11
aS"(4, u'\\\\btreatment')"
p12
aS"(2, u'\\\\bdisorder')"
p13
atp14
Rp15
sS'receptors'
p16
g3
((lp17
(S'5ht1'
p18
I1434
I1439
tp19
a(S'5ht1'
p20
I992
I997
tp21
a(S'5ht1'
p22
I1753
I1758
tp23
a(S'5ht1a'
p24
I106
I112
tp25
a(S'5ht1'
p26
I1650
I1655
tp27
a(S'5ht1a'
p28
I973
I979
tp29
atp30
Rp31
sS'raw_text_methods'
p32
g3
((lp33
S"(13, u'\\\\bagonist')"
p34
aS"(38, u'\\\\bssri')"
p35
aS"(39, u'\\\\bselective serotonin reuptake inhibitor')"
p36
atp37
Rp38
sS'regions'
p39
g3
((lp40
tp41
Rp42
sS'year'
p43
V2017
p44
sS'species'
p45
g3
((lp46
tp47
Rp48
sb.