(ifile_types
ParseObject
p0
(dp1
S'antagonists'
p2
c__builtin__
set
p3
((lp4
S"(141, u'\\\\bzacopride')"
p5
atp6
Rp7
sS'methods'
p8
g3
((lp9
S'Method.ANTAGONIST'
p10
aS'Method.AGONIST'
p11
atp12
Rp13
sS'topics'
p14
g3
((lp15
tp16
Rp17
sS'receptors'
p18
g3
((lp19
S'5ht3'
p20
atp21
Rp22
sS'regions'
p23
g3
((lp24
tp25
Rp26
sS'year'
p27
V2000
p28
sS'agonists'
p29
g3
((lp30
S"(193, u'\\\\bethanol')"
p31
aS"(190, u'\\\\b2 ?methyl ?5 ?ht')"
p32
aS"(212, u'\\\\bzacopride')"
p33
atp34
Rp35
sS'species'
p36
g3
((lp37
S"(949, u'(?i)(cohoes|coho)')"
p38
aS"(163, u'(?i)(mice|mouse)')"
p39
aS"(1725, u'(?i)(clams|clam)')"
p40
aS"(468, u'(?i)(oxen|ox)')"
p41
aS"(6249, u'(?i)(ants|ant)')"
p42
aS"(2568, u'(?i)(hens|hen)')"
p43
aS"(7094, u'(?i)(curs|cur)')"
p44
atp45
Rp46
sb.