(ifile_types
ParseObject
p0
(dp1
S'methods'
p2
c__builtin__
set
p3
((lp4
S'Method.ANTAGONIST'
p5
aS'Method.AGONIST'
p6
atp7
Rp8
sS'topics'
p9
g3
((lp10
tp11
Rp12
sS'receptors'
p13
g3
((lp14
(S'5ht1a'
p15
I1847
I1853
tp16
a(S'5ht2'
p17
I1392
I1397
tp18
a(S'5ht1'
p19
I1074
I1079
tp20
a(S'5ht2'
p21
I475
I480
tp22
a(S'5ht1'
p23
I375
I380
tp24
a(S'5ht1a'
p25
I1284
I1290
tp26
a(S'5ht2'
p27
I365
I370
tp28
a(S'5ht2'
p29
I1694
I1699
tp30
atp31
Rp32
sS'raw_text_methods'
p33
g3
((lp34
S"(13, u'\\\\bagonist')"
p35
aS"(12, u'\\\\bantagonist')"
p36
atp37
Rp38
sS'regions'
p39
g3
((lp40
S"(8, u'(?i)\\\\b(centrals|central)(-|\\\\s+)?(nervouses|nervous)(-|\\\\s+)?(systems|system)\\\\b')"
p41
atp42
Rp43
sS'year'
p44
V1988
p45
sS'species'
p46
g3
((lp47
tp48
Rp49
sb.