(ifile_types
ParseObject
p0
(dp1
S'methods'
p2
c__builtin__
set
p3
((lp4
tp5
Rp6
sS'topics'
p7
g3
((lp8
tp9
Rp10
sS'receptors'
p11
g3
((lp12
(S'5ht1a'
p13
I1867
I1873
tp14
atp15
Rp16
sS'raw_text_methods'
p17
g3
((lp18
S"(15, u'\\\\b8ohdpat')"
p19
atp20
Rp21
sS'regions'
p22
g3
((lp23
S"(4, u'(?i)\\\\b(presynaptics|presynaptic)\\\\b')"
p24
aS"(3, u'(?i)\\\\b(postsynaptics|postsynaptic)\\\\b')"
p25
atp26
Rp27
sS'year'
p28
V2004
p29
sS'species'
p30
g3
((lp31
S"(4, u'(?i)\\\\b(rats|rat)\\\\b')"
p32
atp33
Rp34
sb.