(ifile_types
ParseObject
p0
(dp1
S'methods'
p2
c__builtin__
set
p3
((lp4
S'Method.ANTAGONIST'
p5
aS'Method.AGONIST'
p6
atp7
Rp8
sS'topics'
p9
g3
((lp10
S"(14, u'\\\\bcogniti')"
p11
aS"(16, u'\\\\blearning')"
p12
aS"(26, u'\\\\bbehav')"
p13
aS"(15, u'\\\\bmemory')"
p14
atp15
Rp16
sS'receptors'
p17
g3
((lp18
(S'5ht2a'
p19
I820
I826
tp20
a(S'5ht4'
p21
I833
I838
tp22
a(S'5ht2c'
p23
I1038
I1046
tp24
a(S'5ht1a'
p25
I1075
I1081
tp26
a(S'5ht1a'
p27
I860
I866
tp28
a(S'5ht3'
p29
I1085
I1090
tp30
a(S'5ht1b'
p31
I1095
I1101
tp32
a(S'5ht2a'
p33
I1038
I1044
tp34
a(S'5ht1b'
p35
I1340
I1346
tp36
a(S'5ht2a'
p37
I1348
I1354
tp38
a(S'5ht2c'
p39
I820
I828
tp40
a(S'5ht1b'
p41
I880
I886
tp42
a(S'5ht1a'
p43
I1332
I1338
tp44
a(S'5ht3'
p45
I870
I875
tp46
a(S'5ht4'
p47
I1052
I1057
tp48
atp49
Rp50
sS'raw_text_methods'
p51
g3
((lp52
S"(13, u'\\\\bagonist')"
p53
aS"(12, u'\\\\bantagonist')"
p54
atp55
Rp56
sS'regions'
p57
g3
((lp58
S"(8, u'(?i)\\\\b(centrals|central)(-|\\\\s+)?(nervouses|nervous)(-|\\\\s+)?(systems|system)\\\\b')"
p59
aS"(19, u'(?i)\\\\b(cortexes|cortex)\\\\b')"
p60
atp61
Rp62
sS'year'
p63
V2000
p64
sS'species'
p65
g3
((lp66
S"(1, u'(?i)\\\\b(mice|mouse)\\\\b')"
p67
aS"(5, u'(?i)\\\\b(mices|mice)\\\\b')"
p68
atp69
Rp70
sb.