(ifile_types
ParseObject
p0
(dp1
S'methods'
p2
c__builtin__
set
p3
((lp4
S'Method.AGONIST'
p5
atp6
Rp7
sS'topics'
p8
g3
((lp9
S"(26, u'\\\\bbehav')"
p10
aS"(4, u'\\\\btreatment')"
p11
atp12
Rp13
sS'receptors'
p14
g3
((lp15
(S'5ht1a'
p16
I791
I797
tp17
a(S'5ht1a'
p18
I853
I859
tp19
a(S'5ht2a'
p20
I926
I932
tp21
a(S'5ht1a'
p22
I336
I342
tp23
a(S'5ht1a'
p24
I973
I979
tp25
a(S'5ht2a'
p26
I662
I668
tp27
a(S'5ht2a'
p28
I347
I353
tp29
atp30
Rp31
sS'raw_text_methods'
p32
g3
((lp33
S"(13, u'\\\\bagonist')"
p34
aS"(15, u'\\\\b8ohdpat')"
p35
atp36
Rp37
sS'regions'
p38
g3
((lp39
S"(19, u'(?i)\\\\b(cortexes|cortex)\\\\b')"
p40
atp41
Rp42
sS'year'
p43
V2008
p44
sS'species'
p45
g3
((lp46
S"(1, u'(?i)\\\\b(mice|mouse)\\\\b')"
p47
aS"(5, u'(?i)\\\\b(mices|mice)\\\\b')"
p48
aS"(3, u'(?i)\\\\b(males|male)\\\\b')"
p49
atp50
Rp51
sb.