(ifile_types
ParseObject
p0
(dp1
S'methods'
p2
c__builtin__
set
p3
((lp4
S'Method.KNOCKOUT'
p5
aS'Method.ANTAGONIST'
p6
atp7
Rp8
sS'topics'
p9
g3
((lp10
S"(5, u'\\\\btherap')"
p11
atp12
Rp13
sS'receptors'
p14
g3
((lp15
(S'5ht7'
p16
I408
I413
tp17
a(S'5ht1a'
p18
I593
I599
tp19
a(S'5ht1b'
p20
I593
I601
tp21
a(S'5ht7'
p22
I703
I708
tp23
a(S'5ht7'
p24
I73
I78
tp25
a(S'5ht1a'
p26
I1868
I1874
tp27
a(S'5ht1a'
p28
I1857
I1863
tp29
a(S'5ht7'
p30
I1225
I1230
tp31
a(S'5ht7'
p32
I2291
I2296
tp33
a(S'5ht1b'
p34
I934
I942
tp35
a(S'5ht7'
p36
I2374
I2379
tp37
a(S'5ht7'
p38
I2532
I2537
tp39
a(S'5ht1b'
p40
I1439
I1447
tp41
a(S'5ht1a'
p42
I208
I214
tp43
a(S'5ht1b'
p44
I228
I236
tp45
a(S'5ht1b'
p46
I1868
I1876
tp47
a(S'5ht1a'
p48
I1439
I1445
tp49
a(S'5ht1a'
p50
I228
I234
tp51
a(S'5ht1d'
p52
I1656
I1662
tp53
a(S'5ht1a'
p54
I573
I579
tp55
a(S'5ht1a'
p56
I934
I940
tp57
atp58
Rp59
sS'raw_text_methods'
p60
g3
((lp61
S"(15, u'\\\\b8ohdpat')"
p62
aS"(34, u'\\\\b5ct')"
p63
aS"(12, u'\\\\bantagonist')"
p64
atp65
Rp66
sS'regions'
p67
g3
((lp68
S"(15, u'(?i)\\\\b(substantias|substantia)(-|\\\\s+)?(nigras|nigra)\\\\b')"
p69
aS"(19, u'(?i)\\\\b(cortexes|cortex)\\\\b')"
p70
aS"(13, u'(?i)\\\\b(septums|septum)\\\\b')"
p71
aS"(12, u'(?i)\\\\b(amygdalas|amygdala)\\\\b')"
p72
atp73
Rp74
sS'year'
p75
V2002
p76
sS'species'
p77
g3
((lp78
S"(1, u'(?i)\\\\b(mice|mouse)\\\\b')"
p79
aS"(5, u'(?i)\\\\b(mices|mice)\\\\b')"
p80
atp81
Rp82
sb.