(ifile_types
ParseObject
p0
(dp1
S'antagonists'
p2
c__builtin__
set
p3
((lp4
S"(58, u'\\\\bhaloperidol')"
p5
atp6
Rp7
sS'methods'
p8
g3
((lp9
S'Method.ANTAGONIST'
p10
atp11
Rp12
sS'topics'
p13
g3
((lp14
tp15
Rp16
sS'receptors'
p17
g3
((lp18
S'5ht4'
p19
atp20
Rp21
sS'regions'
p22
g3
((lp23
S"(363, u'(?i)\\\\b(cranials|cranial)(-|\\\\s+)?(nerve|nerves)\\\\b')"
p24
atp25
Rp26
sS'year'
p27
V1994
p28
sS'agonists'
p29
g3
((lp30
S"(220, u'\\\\b5 ?methoxytryptamine')"
p31
aS"(197, u'\\\\bbimu ?8')"
p32
aS"(43, u'\\\\bhaloperidol')"
p33
atp34
Rp35
sS'species'
p36
g3
((lp37
S"(3051, u'(?i)\\\\b(pigs|pig)\\\\b')"
p38
aS"(4480, u'(?i)\\\\b(guineas|guinea)(-|\\\\s+)?(pigs|pig)\\\\b')"
p39
aS"(3062, u'(?i)\\\\b(guineas|guinea)\\\\b')"
p40
atp41
Rp42
sb.