(ifile_types
ParseObject
p0
(dp1
S'methods'
p2
c__builtin__
set
p3
((lp4
S'Method.ANTAGONIST'
p5
atp6
Rp7
sS'topics'
p8
g3
((lp9
S"(23, u'\\\\bantipsychotic')"
p10
atp11
Rp12
sS'receptors'
p13
g3
((lp14
(S'5ht2a'
p15
I384
I390
tp16
atp17
Rp18
sS'raw_text_methods'
p19
g3
((lp20
S"(12, u'\\\\bantagonist')"
p21
atp22
Rp23
sS'regions'
p24
g3
((lp25
tp26
Rp27
sS'year'
p28
V2012
p29
sS'species'
p30
g3
((lp31
tp32
Rp33
sb.