(ifile_types
ParseObject
p0
(dp1
S'methods'
p2
c__builtin__
set
p3
((lp4
S'Method.AGONIST'
p5
atp6
Rp7
sS'topics'
p8
g3
((lp9
tp10
Rp11
sS'receptors'
p12
g3
((lp13
(S'5ht1a'
p14
I553
I559
tp15
a(S'5ht2'
p16
I771
I776
tp17
a(S'5ht1c'
p18
I653
I659
tp19
a(S'5ht2'
p20
I35
I40
tp21
atp22
Rp23
sS'raw_text_methods'
p24
g3
((lp25
S"(13, u'\\\\bagonist')"
p26
aS"(15, u'\\\\b8ohdpat')"
p27
aS"(33, u'\\\\bmcpp')"
p28
aS"(49, u'\\\\bdoi')"
p29
atp30
Rp31
sS'regions'
p32
g3
((lp33
tp34
Rp35
sS'year'
p36
V1992
p37
sS'species'
p38
g3
((lp39
S"(4, u'(?i)\\\\b(rats|rat)\\\\b')"
p40
atp41
Rp42
sb.