(ifile_types
ParseObject
p0
(dp1
S'methods'
p2
c__builtin__
set
p3
((lp4
S'Method.ANTAGONIST'
p5
aS'Method.AGONIST'
p6
atp7
Rp8
sS'topics'
p9
g3
((lp10
S"(30, u'\\\\bpain')"
p11
aS"(26, u'\\\\bbehav')"
p12
aS"(4, u'\\\\btreatment')"
p13
aS"(35, u'\\\\bnocicept')"
p14
atp15
Rp16
sS'receptors'
p17
g3
((lp18
(S'5ht2a'
p19
I1016
I1022
tp20
a(S'5ht2c'
p21
I30
I38
tp22
a(S'5ht2a'
p23
I30
I36
tp24
a(S'5ht2a'
p25
I343
I349
tp26
a(S'5ht2a'
p27
I920
I926
tp28
a(S'5ht2c'
p29
I560
I568
tp30
a(S'5ht2c'
p31
I1016
I1024
tp32
a(S'5ht2a'
p33
I560
I566
tp34
a(S'5ht2c'
p35
I920
I928
tp36
atp37
Rp38
sS'raw_text_methods'
p39
g3
((lp40
S"(13, u'\\\\bagonist')"
p41
aS"(53, u'\\\\bketanserin')"
p42
aS"(3, u'\\\\bimmunoreactiv')"
p43
aS"(49, u'\\\\bdoi')"
p44
aS"(12, u'\\\\bantagonist')"
p45
atp46
Rp47
sS'regions'
p48
g3
((lp49
tp50
Rp51
sS'year'
p52
V2012
p53
sS'species'
p54
g3
((lp55
S"(3, u'(?i)\\\\b(males|male)\\\\b')"
p56
aS"(4, u'(?i)\\\\b(rats|rat)\\\\b')"
p57
atp58
Rp59
sb.