(ifile_types
ParseObject
p0
(dp1
S'antagonists'
p2
c__builtin__
set
p3
((lp4
S"(6, u'\\\\bcyproheptadine')"
p5
aS"(21, u'\\\\bpindolol')"
p6
aS"(194, u'\\\\bmethysergide')"
p7
aS"(31, u'\\\\bway ?100635')"
p8
aS"(53, u'\\\\bcyproheptadine')"
p9
aS"(117, u'\\\\bketanserin')"
p10
aS"(22, u'\\\\bpropranolol')"
p11
aS"(119, u'\\\\britanserin')"
p12
aS"(17, u'\\\\bnan ?190')"
p13
aS"(91, u'\\\\bfluoxetine')"
p14
aS"(11, u'\\\\bisamoltane')"
p15
atp16
Rp17
sS'methods'
p18
g3
((lp19
S'Method.ANTAGONIST'
p20
aS'Method.AGONIST'
p21
atp22
Rp23
sS'topics'
p24
g3
((lp25
tp26
Rp27
sS'receptors'
p28
g3
((lp29
S'5ht1b'
p30
aS'5ht1a'
p31
aS'5ht2c'
p32
aS'5ht2'
p33
aS'5ht2a'
p34
atp35
Rp36
sS'regions'
p37
g3
((lp38
tp39
Rp40
sS'year'
p41
V2004
p42
sS'agonists'
p43
g3
((lp44
S"(121, u'\\\\bagmatine')"
p45
aS"(53, u'\\\\bmethysergide')"
p46
aS"(85, u'\\\\b8 ?oh ?dpat')"
p47
aS"(175, u'\\\\bdoi')"
p48
atp49
Rp50
sS'species'
p51
g3
((lp52
S"(163, u'(?i)\\\\b(mice|mouse)\\\\b')"
p53
atp54
Rp55
sb.