(ifile_types
ParseObject
p0
(dp1
S'antagonists'
p2
c__builtin__
set
p3
((lp4
tp5
Rp6
sS'methods'
p7
g3
((lp8
S'Method.ANTAGONIST'
p9
atp10
Rp11
sS'topics'
p12
g3
((lp13
tp14
Rp15
sS'receptors'
p16
g3
((lp17
S'5ht1b'
p18
aS'5ht1a'
p19
aS'5ht6'
p20
aS'5ht1d'
p21
atp22
Rp23
sS'regions'
p24
g3
((lp25
S"(34, u'(?i)(pon|pons)')"
p26
atp27
Rp28
sS'year'
p29
V1998
p30
sS'agonists'
p31
g3
((lp32
S"(6, u'\\\\b5 ?mt')"
p33
atp34
Rp35
sS'species'
p36
g3
((lp37
S"(1070, u'(?i)(pets|pet)')"
p38
aS"(2323, u'(?i)(bees|bee)')"
p39
aS"(5958, u'(?i)(rats|rat)')"
p40
aS"(867, u'(?i)(tits|tit)')"
p41
aS"(4979, u'(?i)(cats|cat)')"
p42
aS"(479, u'(?i)(lings|ling)')"
p43
aS"(6682, u'(?i)(tera|teras)')"
p44
aS"(1055, u'(?i)(men|man)')"
p45
aS"(1349, u'(?i)(rams|ram)')"
p46
aS"(853, u'(?i)(minas|mina)')"
p47
aS"(6249, u'(?i)(ants|ant)')"
p48
aS"(3404, u'(?i)(titis|titi)')"
p49
aS"(1057, u'(?i)(humans|human)')"
p50
aS"(6391, u'(?i)(asses|ass)')"
p51
aS"(1414, u'(?i)(chars|char)')"
p52
aS"(3196, u'(?i)(human|humans)')"
p53
aS"(5743, u'(?i)(bots|bot)')"
p54
aS"(3812, u'(?i)(studs|stud)')"
p55
aS"(5949, u'(?i)(dogs|dog)')"
p56
atp57
Rp58
sb.