(ifile_types
ParseObject
p0
(dp1
S'methods'
p2
c__builtin__
set
p3
((lp4
S'Method.ANTAGONIST'
p5
atp6
Rp7
sS'topics'
p8
g3
((lp9
S"(26, u'\\\\bbehav')"
p10
aS"(4, u'\\\\btreatment')"
p11
atp12
Rp13
sS'receptors'
p14
g3
((lp15
(S'5ht2a'
p16
I132
I138
tp17
a(S'5ht2a'
p18
I1316
I1322
tp19
a(S'5ht2a'
p20
I1948
I1954
tp21
a(S'5ht2c'
p22
I1745
I1751
tp23
a(S'5ht2'
p24
I132
I138
tp25
a(S'5ht2c'
p26
I1327
I1333
tp27
a(S'5ht2a'
p28
I1720
I1726
tp29
a(S'5ht2c'
p30
I148
I154
tp31
a(S'5ht2'
p32
I148
I154
tp33
atp34
Rp35
sS'raw_text_methods'
p36
g3
((lp37
S"(49, u'\\\\bdoi')"
p38
aS"(54, u'\\\\bautoradiography')"
p39
aS"(12, u'\\\\bantagonist')"
p40
atp41
Rp42
sS'regions'
p43
g3
((lp44
tp45
Rp46
sS'year'
p47
V1999
p48
sS'species'
p49
g3
((lp50
S"(4, u'(?i)\\\\b(rats|rat)\\\\b')"
p51
atp52
Rp53
sb.