(ifile_types
ParseObject
p0
(dp1
S'antagonists'
p2
c__builtin__
set
p3
((lp4
tp5
Rp6
sS'methods'
p7
g3
((lp8
tp9
Rp10
sS'topics'
p11
g3
((lp12
tp13
Rp14
sS'receptors'
p15
g3
((lp16
S'5ht1a'
p17
atp18
Rp19
sS'regions'
p20
g3
((lp21
S"(362, u'(?i)\\\\b(brains|brain)(-|\\\\s+)?(stems|stem)\\\\b')"
p22
aS"(6, u'(?i)\\\\b(rostrals|rostral)(-|\\\\s+)?(ventrolaterals|ventrolateral)(-|\\\\s+)?(medullas|medulla)\\\\b')"
p23
atp24
Rp25
sS'year'
p26
V1996
p27
sS'agonists'
p28
g3
((lp29
S"(79, u'\\\\burapidil')"
p30
aS"(146, u'\\\\bguanfacine')"
p31
atp32
Rp33
sS'species'
p34
g3
((lp35
tp36
Rp37
sb.