(ifile_types
ParseObject
p0
(dp1
S'methods'
p2
c__builtin__
set
p3
((lp4
S'Method.ANTAGONIST'
p5
aS'Method.AGONIST'
p6
atp7
Rp8
sS'topics'
p9
g3
((lp10
S"(13, u'\\\\bantidepress')"
p11
aS"(26, u'\\\\bbehav')"
p12
atp13
Rp14
sS'receptors'
p15
g3
((lp16
(S'5ht2a'
p17
I1336
I1342
tp18
a(S'5ht1a'
p19
I851
I857
tp20
a(S'5ht1a'
p21
I1301
I1307
tp22
a(S'5ht1a'
p23
I422
I428
tp24
a(S'5ht2a'
p25
I448
I454
tp26
a(S'5ht1a'
p27
I1003
I1009
tp28
a(S'5ht2c'
p29
I558
I564
tp30
a(S'5ht2a'
p31
I40
I46
tp32
a(S'5ht1a'
p33
I71
I77
tp34
atp35
Rp36
sS'raw_text_methods'
p37
g3
((lp38
S"(13, u'\\\\bagonist')"
p39
aS"(15, u'\\\\b8ohdpat')"
p40
aS"(22, u'\\\\bbuspirone')"
p41
aS"(12, u'\\\\bantagonist')"
p42
atp43
Rp44
sS'regions'
p45
g3
((lp46
S"(11, u'(?i)\\\\b(cerebrals|cerebral)\\\\b')"
p47
aS"(19, u'(?i)\\\\b(cortexes|cortex)\\\\b')"
p48
atp49
Rp50
sS'year'
p51
V1995
p52
sS'species'
p53
g3
((lp54
S"(4, u'(?i)\\\\b(rats|rat)\\\\b')"
p55
atp56
Rp57
sb.