(ifile_types
ParseObject
p0
(dp1
S'methods'
p2
c__builtin__
set
p3
((lp4
S'Method.ANTAGONIST'
p5
aS'Method.AGONIST'
p6
atp7
Rp8
sS'topics'
p9
g3
((lp10
S"(24, u'\\\\banxiolytic')"
p11
aS"(8, u'\\\\banxi')"
p12
aS"(26, u'\\\\bbehav')"
p13
aS"(33, u'\\\\blocomot')"
p14
atp15
Rp16
sS'receptors'
p17
g3
((lp18
(S'5ht1b'
p19
I1099
I1104
tp20
a(S'5ht1a'
p21
I346
I351
tp22
a(S'5ht1b'
p23
I1300
I1305
tp24
a(S'5ht1b'
p25
I40
I45
tp26
a(S'5ht1a'
p27
I1451
I1456
tp28
a(S'5ht1a'
p29
I28
I33
tp30
a(S'5ht1b'
p31
I358
I363
tp32
a(S'5ht1a'
p33
I606
I611
tp34
a(S'5ht1b'
p35
I1463
I1468
tp36
a(S'5ht1a'
p37
I807
I812
tp38
atp39
Rp40
sS'raw_text_methods'
p41
g3
((lp42
S"(13, u'\\\\bagonist')"
p43
aS"(15, u'\\\\b8ohdpat')"
p44
aS"(12, u'\\\\bantagonist')"
p45
atp46
Rp47
sS'regions'
p48
g3
((lp49
S"(20, u'(?i)\\\\b(prefrontals|prefrontal)\\\\b')"
p50
aS"(21, u'(?i)\\\\b(mpfcs|mpfc)\\\\b')"
p51
aS"(19, u'(?i)\\\\b(cortexes|cortex)\\\\b')"
p52
atp53
Rp54
sS'year'
p55
V2011
p56
sS'species'
p57
g3
((lp58
S"(6, u'(?i)\\\\b(rodents|rodent)\\\\b')"
p59
aS"(4, u'(?i)\\\\b(rats|rat)\\\\b')"
p60
atp61
Rp62
sb.