(ifile_types
ParseObject
p0
(dp1
S'methods'
p2
c__builtin__
set
p3
((lp4
S'Method.ANTAGONIST'
p5
atp6
Rp7
sS'topics'
p8
g3
((lp9
S"(22, u'\\\\bschizophreni')"
p10
aS"(23, u'\\\\bantipsychotic')"
p11
atp12
Rp13
sS'receptors'
p14
g3
((lp15
(S'5ht1a'
p16
I2104
I2110
tp17
a(S'5ht1a'
p18
I1490
I1496
tp19
atp20
Rp21
sS'raw_text_methods'
p22
g3
((lp23
S"(41, u'\\\\bhaloperidol')"
p24
aS"(51, u'\\\\bway100635')"
p25
aS"(12, u'\\\\bantagonist')"
p26
atp27
Rp28
sS'regions'
p29
g3
((lp30
S"(20, u'(?i)\\\\b(prefrontals|prefrontal)\\\\b')"
p31
aS"(19, u'(?i)\\\\b(cortexes|cortex)\\\\b')"
p32
aS"(4, u'(?i)\\\\b(presynaptics|presynaptic)\\\\b')"
p33
atp34
Rp35
sS'year'
p36
V2008
p37
sS'species'
p38
g3
((lp39
S"(4, u'(?i)\\\\b(rats|rat)\\\\b')"
p40
atp41
Rp42
sb.