(ifile_types
ParseObject
p0
(dp1
S'antagonists'
p2
c__builtin__
set
p3
((lp4
S"(114, u'\\\\bimipramine')"
p5
aS"(185, u'\\\\bsb ?399885')"
p6
atp7
Rp8
sS'methods'
p9
g3
((lp10
S'Method.ANTAGONIST'
p11
atp12
Rp13
sS'topics'
p14
g3
((lp15
S"(9, u'\\\\bdepress')"
p16
aS"(11, u'\\\\banxiolyt')"
p17
aS"(10, u'\\\\banxiety')"
p18
aS"(4, u'\\\\blocomot')"
p19
atp20
Rp21
sS'receptors'
p22
g3
((lp23
S'5ht6'
p24
aS'5ht6a'
p25
atp26
Rp27
sS'regions'
p28
g3
((lp29
tp30
Rp31
sS'year'
p32
V2007
p33
sS'agonists'
p34
g3
((lp35
tp36
Rp37
sS'species'
p38
g3
((lp39
S"(2670, u'(?i)(arabs|arab)')"
p40
aS"(6753, u'(?i)(da|das)')"
p41
aS"(2568, u'(?i)(hens|hen)')"
p42
aS"(5958, u'(?i)(rats|rat)')"
p43
aS"(163, u'(?i)(mice|mouse)')"
p44
aS"(468, u'(?i)(oxen|ox)')"
p45
aS"(1349, u'(?i)(rams|ram)')"
p46
aS"(6249, u'(?i)(ants|ant)')"
p47
aS"(4979, u'(?i)(cats|cat)')"
p48
aS"(3550, u'(?i)(anis|ani)')"
p49
aS"(1961, u'(?i)(pens|pen)')"
p50
aS"(6356, u'(?i)(ais|ai)')"
p51
atp52
Rp53
sb.