(ifile_types
ParseObject
p0
(dp1
S'antagonists'
p2
c__builtin__
set
p3
((lp4
S"(131, u'\\\\bm1')"
p5
aS"(124, u'\\\\bondansetron')"
p6
aS"(123, u'\\\\bgranisetron')"
p7
aS"(125, u'\\\\btropisetron')"
p8
atp9
Rp10
sS'methods'
p11
g3
((lp12
S'Method.ANTAGONIST'
p13
atp14
Rp15
sS'topics'
p16
g3
((lp17
tp18
Rp19
sS'receptors'
p20
g3
((lp21
S'5ht5'
p22
aS'5ht4'
p23
aS'5ht3'
p24
aS'5ht2c'
p25
atp26
Rp27
sS'regions'
p28
g3
((lp29
S"(71, u'(?i)\\\\b(cerebellums|cerebellum)\\\\b')"
p30
aS"(27, u'(?i)\\\\b(areas|area)(-|\\\\s+)?(postremas|postrema)\\\\b')"
p31
aS"(209, u'(?i)\\\\b(amygdalas|amygdala)\\\\b')"
p32
aS"(203, u'(?i)\\\\b(dentates|dentate)(-|\\\\s+)?(gyruses|gyrus)\\\\b')"
p33
aS"(248, u'(?i)\\\\b(cerebrals|cerebral)(-|\\\\s+)?(cortexes|cortex)\\\\b')"
p34
atp35
Rp36
sS'year'
p37
V1995
p38
sS'agonists'
p39
g3
((lp40
S"(149, u'\\\\bmem')"
p41
atp42
Rp43
sS'species'
p44
g3
((lp45
S"(3062, u'(?i)\\\\b(guineas|guinea)\\\\b')"
p46
aS"(3196, u'(?i)\\\\b(human|humans)\\\\b')"
p47
aS"(1057, u'(?i)\\\\b(humans|human)\\\\b')"
p48
aS"(3051, u'(?i)\\\\b(pigs|pig)\\\\b')"
p49
aS"(473, u'(?i)\\\\b(rabbits|rabbit)\\\\b')"
p50
aS"(4480, u'(?i)\\\\b(guineas|guinea)(-|\\\\s+)?(pigs|pig)\\\\b')"
p51
aS"(5958, u'(?i)\\\\b(rats|rat)\\\\b')"
p52
atp53
Rp54
sb.