(ifile_types
ParseObject
p0
(dp1
S'methods'
p2
c__builtin__
set
p3
((lp4
S'Method.ANTAGONIST'
p5
aS'Method.AGONIST'
p6
atp7
Rp8
sS'topics'
p9
g3
((lp10
S"(26, u'\\\\bbehav')"
p11
aS"(35, u'\\\\bnocicept')"
p12
atp13
Rp14
sS'receptors'
p15
g3
((lp16
(S'5ht2'
p17
I881
I887
tp18
a(S'5ht1'
p19
I746
I751
tp20
a(S'5ht1'
p21
I40
I45
tp22
a(S'5ht1'
p23
I881
I886
tp24
a(S'5ht1a'
p25
I1116
I1122
tp26
a(S'5ht1b'
p27
I1146
I1152
tp28
a(S'5ht1b'
p29
I698
I704
tp30
a(S'5ht1a'
p31
I543
I549
tp32
a(S'5ht1a'
p33
I1325
I1331
tp34
atp35
Rp36
sS'raw_text_methods'
p37
g3
((lp38
S"(13, u'\\\\bagonist')"
p39
aS"(34, u'\\\\b5ct')"
p40
aS"(12, u'\\\\bantagonist')"
p41
atp42
Rp43
sS'regions'
p44
g3
((lp45
tp46
Rp47
sS'year'
p48
V1994
p49
sS'species'
p50
g3
((lp51
S"(4, u'(?i)\\\\b(rats|rat)\\\\b')"
p52
atp53
Rp54
sb.