(ifile_types
ParseObject
p0
(dp1
S'methods'
p2
c__builtin__
set
p3
((lp4
S'Method.ANTAGONIST'
p5
atp6
Rp7
sS'topics'
p8
g3
((lp9
S"(26, u'\\\\bbehav')"
p10
atp11
Rp12
sS'receptors'
p13
g3
((lp14
(S'5ht2'
p15
I824
I828
tp16
a(S'5ht1a'
p17
I648
I653
tp18
a(S'5ht1'
p19
I641
I645
tp20
a(S'5ht2'
p21
I659
I663
tp22
atp23
Rp24
sS'raw_text_methods'
p25
g3
((lp26
S"(9, u'\\\\britanserin')"
p27
aS"(45, u'\\\\bmetergoline')"
p28
aS"(12, u'\\\\bantagonist')"
p29
aS"(11, u'\\\\bfluoxetine')"
p30
atp31
Rp32
sS'regions'
p33
g3
((lp34
tp35
Rp36
sS'year'
p37
V1988
p38
sS'species'
p39
g3
((lp40
S"(4, u'(?i)\\\\b(rats|rat)\\\\b')"
p41
atp42
Rp43
sb.