(ifile_types
ParseObject
p0
(dp1
S'methods'
p2
c__builtin__
set
p3
((lp4
S'Method.PET'
p5
aS'Method.ANTAGONIST'
p6
atp7
Rp8
sS'topics'
p9
g3
((lp10
tp11
Rp12
sS'receptors'
p13
g3
((lp14
(S'5ht1a'
p15
I1193
I1199
tp16
a(S'5ht1a'
p17
I218
I224
tp18
a(S'5ht1a'
p19
I643
I649
tp20
a(S'5ht1a'
p21
I72
I78
tp22
atp23
Rp24
sS'raw_text_methods'
p25
g3
((lp26
S"(53, u'\\\\bketanserin')"
p27
aS"(19, u'\\\\bpositron emission tomography')"
p28
aS"(18, u'\\\\bimaging')"
p29
aS"(12, u'\\\\bantagonist')"
p30
atp31
Rp32
sS'regions'
p33
g3
((lp34
S"(9, u'(?i)\\\\b(cerebellums|cerebellum)\\\\b')"
p35
atp36
Rp37
sS'year'
p38
V1996
p39
sS'species'
p40
g3
((lp41
S"(4, u'(?i)\\\\b(rats|rat)\\\\b')"
p42
atp43
Rp44
sb.