(ifile_types
ParseObject
p0
(dp1
S'methods'
p2
c__builtin__
set
p3
((lp4
S'Method.ANTAGONIST'
p5
aS'Method.AGONIST'
p6
atp7
Rp8
sS'topics'
p9
g3
((lp10
tp11
Rp12
sS'receptors'
p13
g3
((lp14
(S'5ht1d'
p15
I1369
I1375
tp16
a(S'5ht1c'
p17
I273
I279
tp18
a(S'5ht1b'
p19
I1429
I1435
tp20
a(S'5ht1d'
p21
I1623
I1629
tp22
a(S'5ht1a'
p23
I262
I268
tp24
a(S'5ht1d'
p25
I28
I34
tp26
a(S'5ht5'
p27
I220
I225
tp28
atp29
Rp30
sS'raw_text_methods'
p31
g3
((lp32
S"(13, u'\\\\bagonist')"
p33
aS"(7, u'\\\\bpropranolol')"
p34
aS"(34, u'\\\\b5ct')"
p35
aS"(15, u'\\\\b8ohdpat')"
p36
aS"(12, u'\\\\bantagonist')"
p37
atp38
Rp39
sS'regions'
p40
g3
((lp41
S"(15, u'(?i)\\\\b(substantias|substantia)(-|\\\\s+)?(nigras|nigra)\\\\b')"
p42
aS"(19, u'(?i)\\\\b(cortexes|cortex)\\\\b')"
p43
aS"(17, u'(?i)\\\\b(caudates|caudate)\\\\b')"
p44
atp45
Rp46
sS'year'
p47
V1989
p48
sS'species'
p49
g3
((lp50
S"(7, u'(?i)\\\\b(guineas|guinea)(-|\\\\s+)?(pigs|pig)\\\\b')"
p51
aS"(4, u'(?i)\\\\b(rats|rat)\\\\b')"
p52
atp53
Rp54
sb.