(ifile_types
ParseObject
p0
(dp1
S'methods'
p2
c__builtin__
set
p3
((lp4
S'Method.ANTAGONIST'
p5
atp6
Rp7
sS'topics'
p8
g3
((lp9
S"(1, u'\\\\bpatient')"
p10
aS"(29, u'\\\\bhyperactiv')"
p11
aS"(4, u'\\\\btreatment')"
p12
aS"(3, u'\\\\bclinical')"
p13
atp14
Rp15
sS'receptors'
p16
g3
((lp17
(S'5ht3'
p18
I458
I463
tp19
a(S'5ht5'
p20
I259
I269
tp21
a(S'5ht3'
p22
I590
I595
tp23
a(S'5ht3'
p24
I60
I65
tp25
atp26
Rp27
sS'raw_text_methods'
p28
g3
((lp29
S"(20, u'\\\\bondansetron')"
p30
aS"(12, u'\\\\bantagonist')"
p31
atp32
Rp33
sS'regions'
p34
g3
((lp35
tp36
Rp37
sS'year'
p38
V2010
p39
sS'species'
p40
g3
((lp41
tp42
Rp43
sb.