(ifile_types
ParseObject
p0
(dp1
S'antagonists'
p2
c__builtin__
set
p3
((lp4
tp5
Rp6
sS'methods'
p7
g3
((lp8
S'Method.ANTAGONIST'
p9
aS'Method.AGONIST'
p10
atp11
Rp12
sS'topics'
p13
g3
((lp14
tp15
Rp16
sS'receptors'
p17
g3
((lp18
S'5ht5'
p19
aS'5ht2c'
p20
aS'5ht2a'
p21
atp22
Rp23
sS'regions'
p24
g3
((lp25
tp26
Rp27
sS'year'
p28
V2004
p29
sS'agonists'
p30
g3
((lp31
S"(181, u'\\\\bdom')"
p32
atp33
Rp34
sS'species'
p35
g3
((lp36
S"(6249, u'(?i)(ants|ant)')"
p37
aS"(5958, u'(?i)(rats|rat)')"
p38
aS"(6356, u'(?i)(ais|ai)')"
p39
aS"(6753, u'(?i)(da|das)')"
p40
aS"(81, u'(?i)(asps|asp)')"
p41
aS"(468, u'(?i)(oxen|ox)')"
p42
aS"(3726, u'(?i)(mates|mate)')"
p43
aS"(4979, u'(?i)(cats|cat)')"
p44
aS"(3550, u'(?i)(anis|ani)')"
p45
aS"(7094, u'(?i)(curs|cur)')"
p46
aS"(1961, u'(?i)(pens|pen)')"
p47
aS"(3812, u'(?i)(studs|stud)')"
p48
aS"(6878, u'(?i)(guans|guan)')"
p49
aS"(821, u'(?i)(lice|louse)')"
p50
atp51
Rp52
sb.