(ifile_types
ParseObject
p0
(dp1
S'antagonists'
p2
c__builtin__
set
p3
((lp4
tp5
Rp6
sS'methods'
p7
g3
((lp8
tp9
Rp10
sS'topics'
p11
g3
((lp12
S"(6, u'\\\\bcognit')"
p13
atp14
Rp15
sS'receptors'
p16
g3
((lp17
S'5ht5'
p18
aS'5ht5b'
p19
atp20
Rp21
sS'regions'
p22
g3
((lp23
S"(362, u'(?i)(brains|brain)(-|\\\\s+)?(stems|stem)')"
p24
atp25
Rp26
sS'year'
p27
V2017
p28
sS'agonists'
p29
g3
((lp30
tp31
Rp32
sS'species'
p33
g3
((lp34
S"(2323, u'(?i)(bees|bee)')"
p35
aS"(5537, u'(?i)(hippos|hippo)')"
p36
aS"(6753, u'(?i)(da|das)')"
p37
aS"(5958, u'(?i)(rats|rat)')"
p38
aS"(867, u'(?i)(tits|tit)')"
p39
aS"(163, u'(?i)(mice|mouse)')"
p40
aS"(6682, u'(?i)(tera|teras)')"
p41
aS"(6517, u'(?i)(birds|bird)')"
p42
aS"(5967, u'(?i)(males|male)')"
p43
aS"(468, u'(?i)(oxen|ox)')"
p44
aS"(1055, u'(?i)(men|man)')"
p45
aS"(6249, u'(?i)(ants|ant)')"
p46
aS"(5743, u'(?i)(bots|bot)')"
p47
aS"(3550, u'(?i)(anis|ani)')"
p48
aS"(1057, u'(?i)(humans|human)')"
p49
aS"(5229, u'(?i)(moles|mole)')"
p50
aS"(1414, u'(?i)(chars|char)')"
p51
aS"(3196, u'(?i)(human|humans)')"
p52
aS"(2809, u'(?i)(toms|tom)')"
p53
aS"(6356, u'(?i)(ais|ai)')"
p54
atp55
Rp56
sb.