(ifile_types
ParseObject
p0
(dp1
S'antagonists'
p2
c__builtin__
set
p3
((lp4
S"(110, u'\\\\bclozapine')"
p5
aS"(31, u'\\\\bway ?100635')"
p6
aS"(114, u'\\\\bziprasidone')"
p7
aS"(52, u'\\\\bmdl ?100907')"
p8
aS"(111, u'\\\\bolanzapine')"
p9
aS"(58, u'\\\\bhaloperidol')"
p10
atp11
Rp12
sS'methods'
p13
g3
((lp14
S'Method.ANTAGONIST'
p15
aS'Method.AGONIST'
p16
atp17
Rp18
sS'topics'
p19
g3
((lp20
tp21
Rp22
sS'receptors'
p23
g3
((lp24
S'5ht1a'
p25
aS'5ht2a'
p26
atp27
Rp28
sS'regions'
p29
g3
((lp30
S"(220, u'(?i)\\\\b(striatums|striatum)\\\\b')"
p31
aS"(254, u'(?i)\\\\b(prefrontals|prefrontal)(-|\\\\s+)?(cortexes|cortex)\\\\b')"
p32
aS"(255, u'(?i)\\\\b(pres|pre)(-|\\\\s+)?(frontals|frontal)(-|\\\\s+)?(cortexes|cortex)\\\\b')"
p33
atp34
Rp35
sS'year'
p36
V2000
p37
sS'agonists'
p38
g3
((lp39
S"(57, u'\\\\bolanzapine')"
p40
aS"(23, u'\\\\bclozapine')"
p41
aS"(85, u'\\\\b8 ?oh ?dpat')"
p42
aS"(84, u'\\\\bziprasidone')"
p43
aS"(43, u'\\\\bhaloperidol')"
p44
atp45
Rp46
sS'species'
p47
g3
((lp48
S"(6753, u'(?i)\\\\b(da|das)\\\\b')"
p49
aS"(5958, u'(?i)\\\\b(rats|rat)\\\\b')"
p50
atp51
Rp52
sb.