(ifile_types
ParseObject
p0
(dp1
S'methods'
p2
c__builtin__
set
p3
((lp4
tp5
Rp6
sS'topics'
p7
g3
((lp8
S"(22, u'\\\\bschizophreni')"
p9
aS"(14, u'\\\\bcogniti')"
p10
aS"(2, u'\\\\bdisorder')"
p11
aS"(7, u'\\\\bdepressi')"
p12
aS"(8, u'\\\\banxi')"
p13
aS"(4, u'\\\\btreatment')"
p14
atp15
Rp16
sS'receptors'
p17
g3
((lp18
(S'5ht2a'
p19
I705
I711
tp20
a(S'5ht2a'
p21
I57
I63
tp22
a(S'5ht2a'
p23
I367
I373
tp24
a(S'5ht2a'
p25
I510
I516
tp26
a(S'5ht2a'
p27
I635
I641
tp28
a(S'5ht2a'
p29
I1488
I1494
tp30
a(S'5ht2a'
p31
I879
I885
tp32
atp33
Rp34
sS'raw_text_methods'
p35
g3
((lp36
tp37
Rp38
sS'regions'
p39
g3
((lp40
S"(19, u'(?i)\\\\b(cortexes|cortex)\\\\b')"
p41
atp42
Rp43
sS'year'
p44
V2009
p45
sS'species'
p46
g3
((lp47
tp48
Rp49
sb.