(ifile_types
ParseObject
p0
(dp1
S'methods'
p2
c__builtin__
set
p3
((lp4
S'Method.ANTAGONIST'
p5
atp6
Rp7
sS'topics'
p8
g3
((lp9
S"(7, u'\\\\bdepressi')"
p10
aS"(35, u'\\\\bnocicept')"
p11
atp12
Rp13
sS'receptors'
p14
g3
((lp15
(S'5ht2a'
p16
I2009
I2015
tp17
a(S'5ht2a'
p18
I1578
I1584
tp19
a(S'5ht2a'
p20
I711
I717
tp21
a(S'5ht2a'
p22
I216
I222
tp23
a(S'5ht2a'
p24
I67
I73
tp25
a(S'5ht2a'
p26
I403
I409
tp27
a(S'5ht2'
p28
I855
I860
tp29
a(S'5ht2a'
p30
I208
I214
tp31
atp32
Rp33
sS'raw_text_methods'
p34
g3
((lp35
S"(53, u'\\\\bketanserin')"
p36
aS"(12, u'\\\\bantagonist')"
p37
atp38
Rp39
sS'regions'
p40
g3
((lp41
S"(11, u'(?i)\\\\b(cerebrals|cerebral)\\\\b')"
p42
aS"(19, u'(?i)\\\\b(cortexes|cortex)\\\\b')"
p43
atp44
Rp45
sS'year'
p46
V2010
p47
sS'species'
p48
g3
((lp49
S"(4, u'(?i)\\\\b(rats|rat)\\\\b')"
p50
atp51
Rp52
sb.