(ifile_types
ParseObject
p0
(dp1
S'methods'
p2
c__builtin__
set
p3
((lp4
S'Method.AGONIST'
p5
atp6
Rp7
sS'topics'
p8
g3
((lp9
S"(22, u'\\\\bschizophreni')"
p10
aS"(1, u'\\\\bpatient')"
p11
aS"(26, u'\\\\bbehav')"
p12
aS"(4, u'\\\\btreatment')"
p13
atp14
Rp15
sS'receptors'
p16
g3
((lp17
(S'5ht2a'
p18
I1144
I1150
tp19
a(S'5ht7'
p20
I1196
I1203
tp21
a(S'5ht2c'
p22
I1144
I1152
tp23
a(S'5ht1a'
p24
I1196
I1202
tp25
atp26
Rp27
sS'raw_text_methods'
p28
g3
((lp29
S"(13, u'\\\\bagonist')"
p30
aS"(15, u'\\\\b8ohdpat')"
p31
aS"(49, u'\\\\bdoi')"
p32
aS"(48, u'\\\\bmdma')"
p33
atp34
Rp35
sS'regions'
p36
g3
((lp37
tp38
Rp39
sS'year'
p40
V2013
p41
sS'species'
p42
g3
((lp43
S"(3, u'(?i)\\\\b(males|male)\\\\b')"
p44
aS"(4, u'(?i)\\\\b(rats|rat)\\\\b')"
p45
atp46
Rp47
sb.