(ifile_types
ParseObject
p0
(dp1
S'antagonists'
p2
c__builtin__
set
p3
((lp4
S"(113, u'\\\\bclomipramine')"
p5
atp6
Rp7
sS'methods'
p8
g3
((lp9
S'Method.ANTAGONIST'
p10
aS'Method.AGONIST'
p11
atp12
Rp13
sS'topics'
p14
g3
((lp15
S"(9, u'\\\\bdepress')"
p16
atp17
Rp18
sS'receptors'
p19
g3
((lp20
S'5ht1b'
p21
atp22
Rp23
sS'regions'
p24
g3
((lp25
S"(256, u'(?i)(orbitofrontals|orbitofrontal)(-|\\\\s+)?(cortexes|cortex)')"
p26
aS"(226, u'(?i)(nuclei|nucleus)(-|\\\\s+)?(accumben|accumbens)')"
p27
aS"(223, u'(?i)(putamens|putamen)')"
p28
aS"(34, u'(?i)(pon|pons)')"
p29
atp30
Rp31
sS'year'
p32
V2011
p33
sS'agonists'
p34
g3
((lp35
tp36
Rp37
sS'species'
p38
g3
((lp39
S"(4624, u'(?i)(apes|ape)')"
p40
aS"(6753, u'(?i)(da|das)')"
p41
aS"(5958, u'(?i)(rats|rat)')"
p42
aS"(163, u'(?i)(mice|mouse)')"
p43
aS"(479, u'(?i)(lings|ling)')"
p44
aS"(1349, u'(?i)(rams|ram)')"
p45
aS"(1055, u'(?i)(men|man)')"
p46
aS"(4979, u'(?i)(cats|cat)')"
p47
aS"(6249, u'(?i)(ants|ant)')"
p48
aS"(7552, u'(?i)(bats|bat)')"
p49
aS"(6391, u'(?i)(asses|ass)')"
p50
aS"(2809, u'(?i)(toms|tom)')"
p51
aS"(6325, u'(?i)(caudates|caudate)')"
p52
atp53
Rp54
sb.