(ifile_types
ParseObject
p0
(dp1
S'methods'
p2
c__builtin__
set
p3
((lp4
S'Method.ANTAGONIST'
p5
aS'Method.AGONIST'
p6
atp7
Rp8
sS'topics'
p9
g3
((lp10
S"(22, u'\\\\bschizophreni')"
p11
aS"(14, u'\\\\bcogniti')"
p12
aS"(7, u'\\\\bdepressi')"
p13
atp14
Rp15
sS'receptors'
p16
g3
((lp17
(S'5ht6'
p18
I236
I241
tp19
a(S'5ht6'
p20
I2051
I2056
tp21
a(S'5ht6'
p22
I1607
I1612
tp23
a(S'5ht6'
p24
I683
I688
tp25
a(S'5ht6'
p26
I440
I445
tp27
a(S'5ht6'
p28
I561
I566
tp29
a(S'5ht6'
p30
I60
I70
tp31
a(S'5ht6'
p32
I1452
I1457
tp33
a(S'5ht6'
p34
I223
I233
tp35
a(S'5ht6'
p36
I1952
I1957
tp37
atp38
Rp39
sS'raw_text_methods'
p40
g3
((lp41
S"(13, u'\\\\bagonist')"
p42
aS"(12, u'\\\\bantagonist')"
p43
atp44
Rp45
sS'regions'
p46
g3
((lp47
S"(15, u'(?i)\\\\b(substantias|substantia)(-|\\\\s+)?(nigras|nigra)\\\\b')"
p48
atp49
Rp50
sS'year'
p51
V2015
p52
sS'species'
p53
g3
((lp54
S"(4, u'(?i)\\\\b(rats|rat)\\\\b')"
p55
atp56
Rp57
sb.