(ifile_types
ParseObject
p0
(dp1
S'antagonists'
p2
c__builtin__
set
p3
((lp4
tp5
Rp6
sS'methods'
p7
g3
((lp8
S'Method.ANTAGONIST'
p9
aS'Method.AGONIST'
p10
atp11
Rp12
sS'topics'
p13
g3
((lp14
S"(21, u'\\\\bpain')"
p15
aS"(6, u'\\\\bcognit')"
p16
aS"(16, u'\\\\bfeed')"
p17
aS"(34, u'\\\\bdementia')"
p18
aS"(7, u'\\\\bmemory')"
p19
atp20
Rp21
sS'receptors'
p22
g3
((lp23
S'5ht4'
p24
atp25
Rp26
sS'regions'
p27
g3
((lp28
tp29
Rp30
sS'year'
p31
V2004
p32
sS'agonists'
p33
g3
((lp34
S"(210, u'\\\\bsl650155')"
p35
aS"(155, u'\\\\bmem')"
p36
atp37
Rp38
sS'species'
p39
g3
((lp40
S"(2323, u'(?i)(bees|bee)')"
p41
aS"(5958, u'(?i)(rats|rat)')"
p42
aS"(6356, u'(?i)(ais|ai)')"
p43
aS"(468, u'(?i)(oxen|ox)')"
p44
aS"(1055, u'(?i)(men|man)')"
p45
aS"(7094, u'(?i)(curs|cur)')"
p46
aS"(853, u'(?i)(minas|mina)')"
p47
aS"(6249, u'(?i)(ants|ant)')"
p48
aS"(1414, u'(?i)(chars|char)')"
p49
aS"(1628, u'(?i)(cod|cod)')"
p50
aS"(3812, u'(?i)(studs|stud)')"
p51
atp52
Rp53
sb.