(ifile_types
ParseObject
p0
(dp1
S'methods'
p2
c__builtin__
set
p3
((lp4
S'Method.ANTAGONIST'
p5
aS'Method.AGONIST'
p6
atp7
Rp8
sS'topics'
p9
g3
((lp10
tp11
Rp12
sS'receptors'
p13
g3
((lp14
(S'5ht1a'
p15
I914
I920
tp16
a(S'5ht1a'
p17
I484
I490
tp18
a(S'5ht1a'
p19
I183
I189
tp20
a(S'5ht1a'
p21
I76
I82
tp22
atp23
Rp24
sS'raw_text_methods'
p25
g3
((lp26
S"(13, u'\\\\bagonist')"
p27
aS"(24, u'\\\\bgepirone')"
p28
aS"(22, u'\\\\bbuspirone')"
p29
aS"(12, u'\\\\bantagonist')"
p30
atp31
Rp32
sS'regions'
p33
g3
((lp34
S"(3, u'(?i)\\\\b(postsynaptics|postsynaptic)\\\\b')"
p35
atp36
Rp37
sS'year'
p38
V2002
p39
sS'species'
p40
g3
((lp41
tp42
Rp43
sb.