(ifile_types
ParseObject
p0
(dp1
S'antagonists'
p2
c__builtin__
set
p3
((lp4
S"(134, u'\\\\bgranisetron')"
p5
aS"(139, u'\\\\bmetoclopramide')"
p6
atp7
Rp8
sS'methods'
p9
g3
((lp10
S'Method.ANTAGONIST'
p11
atp12
Rp13
sS'topics'
p14
g3
((lp15
S"(28, u'\\\\bemesis')"
p16
atp17
Rp18
sS'receptors'
p19
g3
((lp20
S'5ht1c'
p21
aS'5ht1b'
p22
aS'5ht5'
p23
aS'5ht3a'
p24
aS'5ht2'
p25
aS'5ht1'
p26
aS'5ht1a'
p27
aS'5ht3'
p28
atp29
Rp30
sS'regions'
p31
g3
((lp32
S"(34, u'(?i)(pon|pons)')"
p33
atp34
Rp35
sS'year'
p36
V1990
p37
sS'agonists'
p38
g3
((lp39
S"(213, u'\\\\bmetoclopramide')"
p40
atp41
Rp42
sS'species'
p43
g3
((lp44
S"(2323, u'(?i)(bees|bee)')"
p45
aS"(3015, u'(?i)(ferrets|ferret)')"
p46
aS"(5958, u'(?i)(rats|rat)')"
p47
aS"(7604, u'(?i)(cyclop|cyclops)')"
p48
aS"(3236, u'(?i)(blowers|blower)')"
p49
aS"(5551, u'(?i)(owls|owl)')"
p50
aS"(468, u'(?i)(oxen|ox)')"
p51
aS"(1349, u'(?i)(rams|ram)')"
p52
aS"(6249, u'(?i)(ants|ant)')"
p53
aS"(6356, u'(?i)(ais|ai)')"
p54
aS"(3550, u'(?i)(anis|ani)')"
p55
aS"(1961, u'(?i)(pens|pen)')"
p56
aS"(3812, u'(?i)(studs|stud)')"
p57
atp58
Rp59
sb.