(ifile_types
ParseObject
p0
(dp1
S'methods'
p2
c__builtin__
set
p3
((lp4
S'Method.ANTAGONIST'
p5
atp6
Rp7
sS'topics'
p8
g3
((lp9
S"(26, u'\\\\bbehav')"
p10
aS"(7, u'\\\\bdepressi')"
p11
aS"(13, u'\\\\bantidepress')"
p12
aS"(20, u'\\\\bmood')"
p13
aS"(2, u'\\\\bdisorder')"
p14
atp15
Rp16
sS'receptors'
p17
g3
((lp18
(S'5ht1a'
p19
I145
I151
tp20
a(S'5ht1a'
p21
I1513
I1519
tp22
a(S'5ht1a'
p23
I1856
I1862
tp24
a(S'5ht1a'
p25
I1475
I1486
tp26
a(S'5ht2c'
p27
I1656
I1662
tp28
a(S'5ht1a'
p29
I1339
I1345
tp30
a(S'5ht1a'
p31
I1906
I1912
tp32
a(S'5ht2a'
p33
I1644
I1650
tp34
atp35
Rp36
sS'raw_text_methods'
p37
g3
((lp38
S"(11, u'\\\\bfluoxetine')"
p39
aS"(38, u'\\\\bssri')"
p40
aS"(39, u'\\\\bselective serotonin reuptake inhibitor')"
p41
aS"(12, u'\\\\bantagonist')"
p42
atp43
Rp44
sS'regions'
p45
g3
((lp46
tp47
Rp48
sS'year'
p49
V2009
p50
sS'species'
p51
g3
((lp52
S"(2, u'(?i)\\\\b(females|female)\\\\b')"
p53
aS"(4, u'(?i)\\\\b(rats|rat)\\\\b')"
p54
atp55
Rp56
sb.