(ifile_types
ParseObject
p0
(dp1
S'antagonists'
p2
c__builtin__
set
p3
((lp4
S"(43, u'\\\\bgr ?127935')"
p5
atp6
Rp7
sS'methods'
p8
g3
((lp9
S'Method.ANTAGONIST'
p10
aS'Method.AGONIST'
p11
atp12
Rp13
sS'topics'
p14
g3
((lp15
S"(25, u'\\\\bvasoconstrict')"
p16
aS"(26, u'\\\\bcardiovascular')"
p17
atp18
Rp19
sS'receptors'
p20
g3
((lp21
S'5ht1b'
p22
aS'5ht1f'
p23
aS'5ht1'
p24
aS'5ht1d'
p25
atp26
Rp27
sS'regions'
p28
g3
((lp29
tp30
Rp31
sS'year'
p32
V2000
p33
sS'agonists'
p34
g3
((lp35
S"(120, u'\\\\bly344864')"
p36
aS"(108, u'\\\\bpnu ?109291')"
p37
aS"(96, u'\\\\bsumatriptan')"
p38
atp39
Rp40
sS'species'
p41
g3
((lp42
S"(2327, u'(?i)\\\\b(bovines|bovine)\\\\b')"
p43
aS"(1057, u'(?i)\\\\b(humans|human)\\\\b')"
p44
aS"(3196, u'(?i)\\\\b(human|humans)\\\\b')"
p45
atp46
Rp47
sb.