(ifile_types
ParseObject
p0
(dp1
S'antagonists'
p2
c__builtin__
set
p3
((lp4
S"(32, u'\\\\bway ?100635')"
p5
atp6
Rp7
sS'methods'
p8
g3
((lp9
S'Method.STIMULATION'
p10
aS'Method.AGONIST'
p11
atp12
Rp13
sS'topics'
p14
g3
((lp15
S"(24, u'\\\\banalgesi')"
p16
atp17
Rp18
sS'receptors'
p19
g3
((lp20
S'5ht1a'
p21
atp22
Rp23
sS'regions'
p24
g3
((lp25
S"(91, u'(?i)(periaqueductals|periaqueductal)(-|\\\\s+)?(grays|gray)')"
p26
atp27
Rp28
sS'year'
p29
V2017
p30
sS'agonists'
p31
g3
((lp32
S"(92, u'\\\\b8 ?oh ?dpat')"
p33
atp34
Rp35
sS'species'
p36
g3
((lp37
S"(4624, u'(?i)(apes|ape)')"
p38
aS"(5967, u'(?i)(males|male)')"
p39
aS"(5958, u'(?i)(rats|rat)')"
p40
aS"(6753, u'(?i)(da|das)')"
p41
aS"(1169, u'(?i)(grades|grade)')"
p42
aS"(6682, u'(?i)(tera|teras)')"
p43
aS"(1055, u'(?i)(men|man)')"
p44
aS"(6249, u'(?i)(ants|ant)')"
p45
aS"(2665, u'(?i)(rays|ray)')"
p46
aS"(4979, u'(?i)(cats|cat)')"
p47
aS"(3550, u'(?i)(anis|ani)')"
p48
aS"(1961, u'(?i)(pens|pen)')"
p49
aS"(3812, u'(?i)(studs|stud)')"
p50
aS"(6391, u'(?i)(asses|ass)')"
p51
aS"(4177, u'(?i)(grays|gray)')"
p52
aS"(6356, u'(?i)(ais|ai)')"
p53
aS"(5949, u'(?i)(dogs|dog)')"
p54
atp55
Rp56
sb.