(ifile_types
ParseObject
p0
(dp1
S'antagonists'
p2
c__builtin__
set
p3
((lp4
tp5
Rp6
sS'methods'
p7
g3
((lp8
S'Method.PET'
p9
atp10
Rp11
sS'topics'
p12
g3
((lp13
tp14
Rp15
sS'receptors'
p16
g3
((lp17
S'5ht5'
p18
aS'5ht1a'
p19
atp20
Rp21
sS'regions'
p22
g3
((lp23
tp24
Rp25
sS'year'
p26
V2016
p27
sS'agonists'
p28
g3
((lp29
tp30
Rp31
sS'species'
p32
g3
((lp33
S"(1070, u'(?i)(pets|pet)')"
p34
aS"(702, u'(?i)(genets|genet)')"
p35
aS"(6753, u'(?i)(da|das)')"
p36
aS"(4091, u'(?i)(adults|adult)')"
p37
aS"(5967, u'(?i)(males|male)')"
p38
aS"(5551, u'(?i)(owls|owl)')"
p39
aS"(1055, u'(?i)(men|man)')"
p40
aS"(3726, u'(?i)(mates|mate)')"
p41
aS"(6580, u'(?i)(dams|dam)')"
p42
aS"(4979, u'(?i)(cats|cat)')"
p43
aS"(7094, u'(?i)(curs|cur)')"
p44
aS"(1057, u'(?i)(humans|human)')"
p45
aS"(3812, u'(?i)(studs|stud)')"
p46
aS"(3196, u'(?i)(human|humans)')"
p47
aS"(2809, u'(?i)(toms|tom)')"
p48
aS"(6356, u'(?i)(ais|ai)')"
p49
aS"(3426, u'(?i)(hares|hare)')"
p50
atp51
Rp52
sb.