(ifile_types
ParseObject
p0
(dp1
S'antagonists'
p2
c__builtin__
set
p3
((lp4
tp5
Rp6
sS'methods'
p7
g3
((lp8
tp9
Rp10
sS'topics'
p11
g3
((lp12
S"(3, u'\\\\bsleep')"
p13
atp14
Rp15
sS'receptors'
p16
g3
((lp17
S'5ht1a'
p18
aS'5ht2'
p19
aS'5ht2a'
p20
atp21
Rp22
sS'regions'
p23
g3
((lp24
S"(362, u'(?i)(brains|brain)(-|\\\\s+)?(stems|stem)')"
p25
aS"(313, u'(?i)(solitaries|solitary)(-|\\\\s+)?(tracts|tract)')"
p26
aS"(5, u'(?i)(inferiors|inferior)(-|\\\\s+)?(olivaries|olivary)(-|\\\\s+)?(nuclei|nucleus)')"
p27
aS"(32, u'(?i)(hypoglossals|hypoglossal)(-|\\\\s+)?(nuclei|nucleus)')"
p28
atp29
Rp30
sS'year'
p31
V2007
p32
sS'agonists'
p33
g3
((lp34
tp35
Rp36
sS'species'
p37
g3
((lp38
S"(5967, u'(?i)(males|male)')"
p39
aS"(2568, u'(?i)(hens|hen)')"
p40
aS"(6125, u'(?i)(females|female)')"
p41
aS"(3072, u'(?i)(piglets|piglet)')"
p42
aS"(6753, u'(?i)(da|das)')"
p43
aS"(468, u'(?i)(oxen|ox)')"
p44
aS"(2725, u'(?i)(mokes|moke)')"
p45
aS"(3051, u'(?i)(pigs|pig)')"
p46
aS"(2183, u'(?i)(gars|gar)')"
p47
aS"(6356, u'(?i)(ais|ai)')"
p48
aS"(6249, u'(?i)(ants|ant)')"
p49
aS"(3812, u'(?i)(studs|stud)')"
p50
atp51
Rp52
sb.