(ifile_types
ParseObject
p0
(dp1
S'antagonists'
p2
c__builtin__
set
p3
((lp4
S"(129, u'\\\\brenzapride')"
p5
aS"(150, u'\\\\bsb ?204070')"
p6
aS"(144, u'\\\\bgr ?113808')"
p7
atp8
Rp9
sS'methods'
p10
g3
((lp11
S'Method.ANTAGONIST'
p12
aS'Method.AGONIST'
p13
atp14
Rp15
sS'topics'
p16
g3
((lp17
tp18
Rp19
sS'receptors'
p20
g3
((lp21
S'5ht4'
p22
atp23
Rp24
sS'regions'
p25
g3
((lp26
tp27
Rp28
sS'year'
p29
V1997
p30
sS'agonists'
p31
g3
((lp32
S"(198, u'\\\\bcisapride')"
p33
aS"(203, u'\\\\brenzapride')"
p34
aS"(149, u'\\\\bmem')"
p35
aS"(219, u'\\\\b5 ?ct')"
p36
atp37
Rp38
sS'species'
p39
g3
((lp40
S"(5958, u'(?i)\\\\b(rats|rat)\\\\b')"
p41
aS"(3051, u'(?i)\\\\b(pigs|pig)\\\\b')"
p42
aS"(4480, u'(?i)\\\\b(guineas|guinea)(-|\\\\s+)?(pigs|pig)\\\\b')"
p43
aS"(3062, u'(?i)\\\\b(guineas|guinea)\\\\b')"
p44
atp45
Rp46
sb.