(ifile_types
ParseObject
p0
(dp1
S'methods'
p2
c__builtin__
set
p3
((lp4
S'Method.ANTAGONIST'
p5
aS'Method.AGONIST'
p6
atp7
Rp8
sS'topics'
p9
g3
((lp10
tp11
Rp12
sS'receptors'
p13
g3
((lp14
(S'5ht1b'
p15
I1064
I1072
tp16
a(S'5ht3'
p17
I1153
I1158
tp18
a(S'5ht7'
p19
I983
I990
tp20
a(S'5ht1a'
p21
I983
I989
tp22
a(S'5ht3'
p23
I1665
I1670
tp24
a(S'5ht2'
p25
I122
I127
tp26
a(S'5ht1a'
p27
I1528
I1535
tp28
a(S'5ht1'
p29
I1064
I1072
tp30
a(S'5ht2'
p31
I1528
I1533
tp32
a(S'5ht1a'
p33
I1064
I1070
tp34
a(S'5ht2'
p35
I1854
I1859
tp36
a(S'5ht2'
p37
I1173
I1178
tp38
a(S'5ht2'
p39
I628
I633
tp40
atp41
Rp42
sS'raw_text_methods'
p43
g3
((lp44
S"(53, u'\\\\bketanserin')"
p45
aS"(20, u'\\\\bondansetron')"
p46
aS"(13, u'\\\\bagonist')"
p47
aS"(30, u'\\\\b2methyl')"
p48
aS"(46, u'\\\\bspiperone')"
p49
aS"(12, u'\\\\bantagonist')"
p50
atp51
Rp52
sS'regions'
p53
g3
((lp54
tp55
Rp56
sS'year'
p57
V1995
p58
sS'species'
p59
g3
((lp60
S"(4, u'(?i)\\\\b(rats|rat)\\\\b')"
p61
atp62
Rp63
sb.