(ifile_types
ParseObject
p0
(dp1
S'methods'
p2
c__builtin__
set
p3
((lp4
tp5
Rp6
sS'topics'
p7
g3
((lp8
S"(22, u'\\\\bschizophreni')"
p9
aS"(14, u'\\\\bcogniti')"
p10
aS"(1, u'\\\\bpatient')"
p11
aS"(15, u'\\\\bmemory')"
p12
aS"(3, u'\\\\bclinical')"
p13
atp14
Rp15
sS'receptors'
p16
g3
((lp17
(S'5ht1'
p18
I969
I974
tp19
a(S'5ht1a'
p20
I590
I601
tp21
a(S'5ht1'
p22
I613
I618
tp23
a(S'5ht1'
p24
I908
I913
tp25
a(S'5ht1'
p26
I37
I42
tp27
a(S'5ht1'
p28
I1100
I1105
tp29
atp30
Rp31
sS'raw_text_methods'
p32
g3
((lp33
S"(18, u'\\\\bimaging')"
p34
atp35
Rp36
sS'regions'
p37
g3
((lp38
S"(20, u'(?i)\\\\b(prefrontals|prefrontal)\\\\b')"
p39
aS"(19, u'(?i)\\\\b(cortexes|cortex)\\\\b')"
p40
atp41
Rp42
sS'year'
p43
V2011
p44
sS'species'
p45
g3
((lp46
tp47
Rp48
sb.