(ifile_types
ParseObject
p0
(dp1
S'methods'
p2
c__builtin__
set
p3
((lp4
tp5
Rp6
sS'topics'
p7
g3
((lp8
S"(6, u'\\\\baggressi')"
p9
aS"(26, u'\\\\bbehav')"
p10
atp11
Rp12
sS'receptors'
p13
g3
((lp14
(S'5ht3'
p15
I1161
I1166
tp16
a(S'5ht1a'
p17
I337
I343
tp18
a(S'5ht3'
p19
I63
I68
tp20
a(S'5ht1a'
p21
I897
I903
tp22
a(S'5ht1a'
p23
I1106
I1112
tp24
a(S'5ht1a'
p25
I1448
I1454
tp26
a(S'5ht1a'
p27
I323
I334
tp28
a(S'5ht3'
p29
I1459
I1464
tp30
a(S'5ht1a'
p31
I52
I58
tp32
a(S'5ht3'
p33
I408
I413
tp34
atp35
Rp36
sS'raw_text_methods'
p37
g3
((lp38
S"(3, u'\\\\bimmunoreactiv')"
p39
aS"(11, u'\\\\bfluoxetine')"
p40
atp41
Rp42
sS'regions'
p43
g3
((lp44
tp45
Rp46
sS'year'
p47
V2009
p48
sS'species'
p49
g3
((lp50
S"(3, u'(?i)\\\\b(males|male)\\\\b')"
p51
atp52
Rp53
sb.