(ifile_types
ParseObject
p0
(dp1
S'methods'
p2
c__builtin__
set
p3
((lp4
tp5
Rp6
sS'topics'
p7
g3
((lp8
S"(6, u'\\\\baggressi')"
p9
aS"(25, u'\\\\bsocial')"
p10
aS"(2, u'\\\\bdisorder')"
p11
atp12
Rp13
sS'receptors'
p14
g3
((lp15
(S'5ht1'
p16
I834
I839
tp17
a(S'5ht1'
p18
I1650
I1655
tp19
a(S'5ht1a'
p20
I816
I822
tp21
atp22
Rp23
sS'raw_text_methods'
p24
g3
((lp25
tp26
Rp27
sS'regions'
p28
g3
((lp29
tp30
Rp31
sS'year'
p32
V2017
p33
sS'species'
p34
g3
((lp35
S"(2, u'(?i)\\\\b(females|female)\\\\b')"
p36
aS"(3, u'(?i)\\\\b(males|male)\\\\b')"
p37
atp38
Rp39
sb.