(ifile_types
ParseObject
p0
(dp1
S'antagonists'
p2
c__builtin__
set
p3
((lp4
S"(32, u'\\\\bway ?100635')"
p5
aS"(54, u'\\\\britanserin')"
p6
aS"(130, u'\\\\britanserin')"
p7
atp8
Rp9
sS'methods'
p10
g3
((lp11
S'Method.ANTAGONIST'
p12
aS'Method.AGONIST'
p13
atp14
Rp15
sS'topics'
p16
g3
((lp17
S"(35, u'\\\\bstress')"
p18
aS"(11, u'\\\\banxiolyt')"
p19
aS"(4, u'\\\\blocomot')"
p20
atp21
Rp22
sS'receptors'
p23
g3
((lp24
S'5ht1a'
p25
aS'5ht2c'
p26
aS'5ht2a'
p27
atp28
Rp29
sS'regions'
p30
g3
((lp31
S"(34, u'(?i)(pon|pons)')"
p32
atp33
Rp34
sS'year'
p35
V2013
p36
sS'agonists'
p37
g3
((lp38
tp39
Rp40
sS'species'
p41
g3
((lp42
S"(5799, u'(?i)(rodents|rodent)')"
p43
aS"(2568, u'(?i)(hens|hen)')"
p44
aS"(867, u'(?i)(tits|tit)')"
p45
aS"(163, u'(?i)(mice|mouse)')"
p46
aS"(6249, u'(?i)(ants|ant)')"
p47
aS"(3726, u'(?i)(mates|mate)')"
p48
aS"(4964, u'(?i)(serins|serin)')"
p49
aS"(3550, u'(?i)(anis|ani)')"
p50
aS"(5958, u'(?i)(rats|rat)')"
p51
aS"(1961, u'(?i)(pens|pen)')"
p52
aS"(3812, u'(?i)(studs|stud)')"
p53
aS"(5743, u'(?i)(bots|bot)')"
p54
aS"(6356, u'(?i)(ais|ai)')"
p55
atp56
Rp57
sb.