(ifile_types
ParseObject
p0
(dp1
S'methods'
p2
c__builtin__
set
p3
((lp4
S'Method.ANTAGONIST'
p5
atp6
Rp7
sS'topics'
p8
g3
((lp9
S"(7, u'\\\\bdepressi')"
p10
atp11
Rp12
sS'receptors'
p13
g3
((lp14
(S'5ht1b'
p15
I1085
I1091
tp16
a(S'5ht1b'
p17
I707
I713
tp18
a(S'5ht5'
p19
I182
I192
tp20
a(S'5ht1b'
p21
I31
I37
tp22
a(S'5ht1'
p23
I1496
I1501
tp24
atp25
Rp26
sS'raw_text_methods'
p27
g3
((lp28
S"(12, u'\\\\bantagonist')"
p29
atp30
Rp31
sS'regions'
p32
g3
((lp33
S"(15, u'(?i)\\\\b(substantias|substantia)(-|\\\\s+)?(nigras|nigra)\\\\b')"
p34
aS"(4, u'(?i)\\\\b(presynaptics|presynaptic)\\\\b')"
p35
atp36
Rp37
sS'year'
p38
V2010
p39
sS'species'
p40
g3
((lp41
S"(4, u'(?i)\\\\b(rats|rat)\\\\b')"
p42
atp43
Rp44
sb.