(ifile_types
ParseObject
p0
(dp1
S'methods'
p2
c__builtin__
set
p3
((lp4
S'Method.AGONIST'
p5
atp6
Rp7
sS'topics'
p8
g3
((lp9
S"(33, u'\\\\blocomot')"
p10
aS"(13, u'\\\\bantidepress')"
p11
aS"(26, u'\\\\bbehav')"
p12
atp13
Rp14
sS'receptors'
p15
g3
((lp16
(S'5ht2a'
p17
I980
I986
tp18
a(S'5ht2c'
p19
I980
I988
tp20
atp21
Rp22
sS'raw_text_methods'
p23
g3
((lp24
S"(13, u'\\\\bagonist')"
p25
aS"(49, u'\\\\bdoi')"
p26
atp27
Rp28
sS'regions'
p29
g3
((lp30
tp31
Rp32
sS'year'
p33
V2006
p34
sS'species'
p35
g3
((lp36
S"(1, u'(?i)\\\\b(mice|mouse)\\\\b')"
p37
aS"(5, u'(?i)\\\\b(mices|mice)\\\\b')"
p38
atp39
Rp40
sb.