(ifile_types
ParseObject
p0
(dp1
S'antagonists'
p2
c__builtin__
set
p3
((lp4
S"(104, u'\\\\bimipramine')"
p5
aS"(124, u'\\\\bondansetron')"
p6
aS"(117, u'\\\\bketanserin')"
p7
aS"(31, u'\\\\bway ?100635')"
p8
atp9
Rp10
sS'methods'
p11
g3
((lp12
S'Method.ANTAGONIST'
p13
aS'Method.AGONIST'
p14
atp15
Rp16
sS'topics'
p17
g3
((lp18
S"(9, u'\\\\bdepress')"
p19
aS"(4, u'\\\\blocomot')"
p20
atp21
Rp22
sS'receptors'
p23
g3
((lp24
S'5ht1a'
p25
aS'5ht3'
p26
aS'5ht1'
p27
aS'5ht2a'
p28
atp29
Rp30
sS'regions'
p31
g3
((lp32
tp33
Rp34
sS'year'
p35
V2013
p36
sS'agonists'
p37
g3
((lp38
tp39
Rp40
sS'species'
p41
g3
((lp42
S"(5799, u'(?i)\\\\b(rodents|rodent)\\\\b')"
p43
aS"(163, u'(?i)\\\\b(mice|mouse)\\\\b')"
p44
atp45
Rp46
sb.