(ifile_types
ParseObject
p0
(dp1
S'antagonists'
p2
c__builtin__
set
p3
((lp4
S"(21, u'\\\\bpindolol')"
p5
atp6
Rp7
sS'methods'
p8
g3
((lp9
S'Method.AGONIST'
p10
atp11
Rp12
sS'topics'
p13
g3
((lp14
S"(3, u'\\\\bsleep')"
p15
atp16
Rp17
sS'receptors'
p18
g3
((lp19
S'5ht1a'
p20
atp21
Rp22
sS'regions'
p23
g3
((lp24
tp25
Rp26
sS'year'
p27
V1994
p28
sS'agonists'
p29
g3
((lp30
S"(92, u'\\\\b8 ?oh ?dpat')"
p31
aS"(8, u'\\\\b5 ?meo ?dmt')"
p32
atp33
Rp34
sS'species'
p35
g3
((lp36
S"(5958, u'(?i)(rats|rat)')"
p37
aS"(468, u'(?i)(oxen|ox)')"
p38
aS"(1055, u'(?i)(men|man)')"
p39
aS"(6249, u'(?i)(ants|ant)')"
p40
aS"(5743, u'(?i)(bots|bot)')"
p41
aS"(3550, u'(?i)(anis|ani)')"
p42
aS"(3522, u'(?i)(tetras|tetra)')"
p43
atp44
Rp45
sb.