(ifile_types
ParseObject
p0
(dp1
S'antagonists'
p2
c__builtin__
set
p3
((lp4
S"(114, u'\\\\bimipramine')"
p5
atp6
Rp7
sS'methods'
p8
g3
((lp9
S'Method.AGONIST'
p10
atp11
Rp12
sS'topics'
p13
g3
((lp14
S"(9, u'\\\\bdepress')"
p15
atp16
Rp17
sS'receptors'
p18
g3
((lp19
S'5ht1a'
p20
aS'5ht2a'
p21
atp22
Rp23
sS'regions'
p24
g3
((lp25
S"(248, u'(?i)(cerebrals|cerebral)(-|\\\\s+)?(cortexes|cortex)')"
p26
atp27
Rp28
sS'year'
p29
V2007
p30
sS'agonists'
p31
g3
((lp32
S"(92, u'\\\\b8 ?oh ?dpat')"
p33
aS"(33, u'\\\\bdoi')"
p34
atp35
Rp36
sS'species'
p37
g3
((lp38
S"(4624, u'(?i)(apes|ape)')"
p39
aS"(5537, u'(?i)(hippos|hippo)')"
p40
aS"(6753, u'(?i)(da|das)')"
p41
aS"(5958, u'(?i)(rats|rat)')"
p42
aS"(6356, u'(?i)(ais|ai)')"
p43
aS"(7609, u'(?i)(erns|ern)')"
p44
aS"(2666, u'(?i)(mantas|manta)')"
p45
aS"(4979, u'(?i)(cats|cat)')"
p46
aS"(5967, u'(?i)(males|male)')"
p47
aS"(1349, u'(?i)(rams|ram)')"
p48
aS"(6249, u'(?i)(ants|ant)')"
p49
aS"(1055, u'(?i)(men|man)')"
p50
aS"(853, u'(?i)(minas|mina)')"
p51
aS"(3550, u'(?i)(anis|ani)')"
p52
aS"(1291, u'(?i)(ratels|ratel)')"
p53
aS"(3812, u'(?i)(studs|stud)')"
p54
aS"(6391, u'(?i)(asses|ass)')"
p55
aS"(1683, u'(?i)(terns|tern)')"
p56
atp57
Rp58
sb.