(ifile_types
ParseObject
p0
(dp1
S'methods'
p2
c__builtin__
set
p3
((lp4
S'Method.ANTAGONIST'
p5
atp6
Rp7
sS'topics'
p8
g3
((lp9
S"(26, u'\\\\bbehav')"
p10
aS"(33, u'\\\\blocomot')"
p11
aS"(23, u'\\\\bantipsychotic')"
p12
atp13
Rp14
sS'receptors'
p15
g3
((lp16
(S'5ht2a'
p17
I92
I98
tp18
a(S'5ht2a'
p19
I2248
I2254
tp20
a(S'5ht2'
p21
I92
I98
tp22
a(S'5ht2a'
p23
I662
I668
tp24
atp25
Rp26
sS'raw_text_methods'
p27
g3
((lp28
S"(41, u'\\\\bhaloperidol')"
p29
aS"(40, u'\\\\bclozapine')"
p30
aS"(12, u'\\\\bantagonist')"
p31
atp32
Rp33
sS'regions'
p34
g3
((lp35
S"(20, u'(?i)\\\\b(prefrontals|prefrontal)\\\\b')"
p36
aS"(19, u'(?i)\\\\b(cortexes|cortex)\\\\b')"
p37
atp38
Rp39
sS'year'
p40
V2003
p41
sS'species'
p42
g3
((lp43
S"(4, u'(?i)\\\\b(rats|rat)\\\\b')"
p44
atp45
Rp46
sb.