(ifile_types
ParseObject
p0
(dp1
S'methods'
p2
c__builtin__
set
p3
((lp4
S'Method.AGONIST'
p5
atp6
Rp7
sS'topics'
p8
g3
((lp9
S"(26, u'\\\\bbehav')"
p10
atp11
Rp12
sS'receptors'
p13
g3
((lp14
(S'5ht1a'
p15
I340
I346
tp16
a(S'5ht1a'
p17
I1646
I1652
tp18
a(S'5ht1a'
p19
I206
I212
tp20
atp21
Rp22
sS'raw_text_methods'
p23
g3
((lp24
S"(13, u'\\\\bagonist')"
p25
aS"(15, u'\\\\b8ohdpat')"
p26
aS"(32, u'\\\\blesions')"
p27
atp28
Rp29
sS'regions'
p30
g3
((lp31
S"(23, u'(?i)\\\\b(forebrains|forebrain)\\\\b')"
p32
aS"(3, u'(?i)\\\\b(postsynaptics|postsynaptic)\\\\b')"
p33
atp34
Rp35
sS'year'
p36
V2002
p37
sS'species'
p38
g3
((lp39
S"(4, u'(?i)\\\\b(rats|rat)\\\\b')"
p40
atp41
Rp42
sb.