(ifile_types
ParseObject
p0
(dp1
S'antagonists'
p2
c__builtin__
set
p3
((lp4
S"(54, u'\\\\britanserin')"
p5
aS"(130, u'\\\\britanserin')"
p6
aS"(141, u'\\\\bzacopride')"
p7
atp8
Rp9
sS'methods'
p10
g3
((lp11
S'Method.ANTAGONIST'
p12
aS'Method.AGONIST'
p13
atp14
Rp15
sS'topics'
p16
g3
((lp17
tp18
Rp19
sS'receptors'
p20
g3
((lp21
S'5ht1c'
p22
aS'5ht5'
p23
aS'5ht3a'
p24
aS'5ht2'
p25
aS'5ht1'
p26
aS'5ht2a'
p27
aS'5ht3'
p28
atp29
Rp30
sS'regions'
p31
g3
((lp32
S"(126, u'(?i)(thalamuses|thalamus)')"
p33
aS"(34, u'(?i)(pon|pons)')"
p34
atp35
Rp36
sS'year'
p37
V1991
p38
sS'agonists'
p39
g3
((lp40
S"(212, u'\\\\bzacopride')"
p41
atp42
Rp43
sS'species'
p44
g3
((lp45
S"(5958, u'(?i)(rats|rat)')"
p46
aS"(6356, u'(?i)(ais|ai)')"
p47
aS"(5743, u'(?i)(bots|bot)')"
p48
aS"(6682, u'(?i)(tera|teras)')"
p49
aS"(468, u'(?i)(oxen|ox)')"
p50
aS"(4964, u'(?i)(serins|serin)')"
p51
aS"(6249, u'(?i)(ants|ant)')"
p52
aS"(1961, u'(?i)(pens|pen)')"
p53
aS"(1414, u'(?i)(chars|char)')"
p54
aS"(821, u'(?i)(lice|louse)')"
p55
aS"(5949, u'(?i)(dogs|dog)')"
p56
atp57
Rp58
sb.