(ifile_types
ParseObject
p0
(dp1
S'antagonists'
p2
c__builtin__
set
p3
((lp4
S"(43, u'\\\\bgr ?127935')"
p5
aS"(110, u'\\\\bclozapine')"
p6
aS"(26, u'\\\\bspiperone')"
p7
aS"(14, u'\\\\bmethiothepin')"
p8
atp9
Rp10
sS'methods'
p11
g3
((lp12
S'Method.ANTAGONIST'
p13
aS'Method.AGONIST'
p14
atp15
Rp16
sS'topics'
p17
g3
((lp18
tp19
Rp20
sS'receptors'
p21
g3
((lp22
S'5ht7'
p23
aS'5ht1b'
p24
aS'5ht1a'
p25
aS'5ht1'
p26
aS'5ht1d'
p27
aS'5ht5'
p28
atp29
Rp30
sS'regions'
p31
g3
((lp32
S"(223, u'(?i)\\\\b(putamens|putamen)\\\\b')"
p33
aS"(103, u'(?i)\\\\b(substantias|substantia)(-|\\\\s+)?(nigras|nigra)\\\\b')"
p34
atp35
Rp36
sS'year'
p37
V1995
p38
sS'agonists'
p39
g3
((lp40
S"(25, u'\\\\bdihydroergotamine')"
p41
aS"(23, u'\\\\bclozapine')"
p42
aS"(96, u'\\\\bsumatriptan')"
p43
aS"(85, u'\\\\b8 ?oh ?dpat')"
p44
aS"(102, u'\\\\bcp ?122288')"
p45
atp46
Rp47
sS'species'
p48
g3
((lp49
S"(5799, u'(?i)\\\\b(rodents|rodent)\\\\b')"
p50
aS"(3152, u'(?i)\\\\b(layers|layer)\\\\b')"
p51
aS"(3062, u'(?i)\\\\b(guineas|guinea)\\\\b')"
p52
aS"(6325, u'(?i)\\\\b(caudates|caudate)\\\\b')"
p53
aS"(5958, u'(?i)\\\\b(rats|rat)\\\\b')"
p54
aS"(4480, u'(?i)\\\\b(guineas|guinea)(-|\\\\s+)?(pigs|pig)\\\\b')"
p55
aS"(3051, u'(?i)\\\\b(pigs|pig)\\\\b')"
p56
atp57
Rp58
sb.