(ifile_types
ParseObject
p0
(dp1
S'antagonists'
p2
c__builtin__
set
p3
((lp4
tp5
Rp6
sS'methods'
p7
g3
((lp8
S'Method.AGONIST'
p9
atp10
Rp11
sS'topics'
p12
g3
((lp13
S"(35, u'\\\\bstress')"
p14
atp15
Rp16
sS'receptors'
p17
g3
((lp18
S'5ht1a'
p19
aS'5ht1f'
p20
aS'5ht1d'
p21
atp22
Rp23
sS'regions'
p24
g3
((lp25
S"(374, u'(?i)(duras|dura)(-|\\\\s+)?(maters|mater)')"
p26
aS"(34, u'(?i)(pon|pons)')"
p27
atp28
Rp29
sS'year'
p30
V1996
p31
sS'agonists'
p32
g3
((lp33
S"(103, u'\\\\bsumatriptan')"
p34
aS"(181, u'\\\\bdom')"
p35
atp36
Rp37
sS'species'
p38
g3
((lp39
S"(2323, u'(?i)(bees|bee)')"
p40
aS"(6753, u'(?i)(da|das)')"
p41
aS"(5958, u'(?i)(rats|rat)')"
p42
aS"(7609, u'(?i)(erns|ern)')"
p43
aS"(4979, u'(?i)(cats|cat)')"
p44
aS"(2183, u'(?i)(gars|gar)')"
p45
aS"(468, u'(?i)(oxen|ox)')"
p46
aS"(1055, u'(?i)(men|man)')"
p47
aS"(3726, u'(?i)(mates|mate)')"
p48
aS"(853, u'(?i)(minas|mina)')"
p49
aS"(6249, u'(?i)(ants|ant)')"
p50
aS"(6682, u'(?i)(tera|teras)')"
p51
aS"(1057, u'(?i)(humans|human)')"
p52
aS"(3812, u'(?i)(studs|stud)')"
p53
aS"(3196, u'(?i)(human|humans)')"
p54
aS"(5743, u'(?i)(bots|bot)')"
p55
aS"(6356, u'(?i)(ais|ai)')"
p56
atp57
Rp58
sb.