(ifile_types
ParseObject
p0
(dp1
S'antagonists'
p2
c__builtin__
set
p3
((lp4
S"(139, u'\\\\bmetoclopramide')"
p5
atp6
Rp7
sS'methods'
p8
g3
((lp9
S'Method.ANTAGONIST'
p10
atp11
Rp12
sS'topics'
p13
g3
((lp14
S"(32, u'\\\\bnausea')"
p15
atp16
Rp17
sS'receptors'
p18
g3
((lp19
S'5ht3'
p20
atp21
Rp22
sS'regions'
p23
g3
((lp24
S"(34, u'(?i)(pon|pons)')"
p25
atp26
Rp27
sS'year'
p28
V1998
p29
sS'agonists'
p30
g3
((lp31
S"(193, u'\\\\bethanol')"
p32
aS"(155, u'\\\\bmem')"
p33
aS"(213, u'\\\\bmetoclopramide')"
p34
atp35
Rp36
sS'species'
p37
g3
((lp38
S"(1070, u'(?i)(pets|pet)')"
p39
aS"(3404, u'(?i)(titis|titi)')"
p40
aS"(949, u'(?i)(cohoes|coho)')"
p41
aS"(7609, u'(?i)(erns|ern)')"
p42
aS"(867, u'(?i)(tits|tit)')"
p43
aS"(4201, u'(?i)(kines|kine)')"
p44
aS"(6682, u'(?i)(tera|teras)')"
p45
aS"(7309, u'(?i)(gnats|gnat)')"
p46
aS"(1725, u'(?i)(clams|clam)')"
p47
aS"(468, u'(?i)(oxen|ox)')"
p48
aS"(1055, u'(?i)(men|man)')"
p49
aS"(6249, u'(?i)(ants|ant)')"
p50
aS"(1349, u'(?i)(rams|ram)')"
p51
aS"(6753, u'(?i)(da|das)')"
p52
aS"(2568, u'(?i)(hens|hen)')"
p53
aS"(5229, u'(?i)(moles|mole)')"
p54
aS"(1961, u'(?i)(pens|pen)')"
p55
aS"(3812, u'(?i)(studs|stud)')"
p56
aS"(1683, u'(?i)(terns|tern)')"
p57
atp58
Rp59
sb.