(ifile_types
ParseObject
p0
(dp1
S'methods'
p2
c__builtin__
set
p3
((lp4
S'Method.ANTAGONIST'
p5
aS'Method.AGONIST'
p6
atp7
Rp8
sS'topics'
p9
g3
((lp10
S"(22, u'\\\\bschizophreni')"
p11
aS"(14, u'\\\\bcogniti')"
p12
atp13
Rp14
sS'receptors'
p15
g3
((lp16
(S'5ht1b'
p17
I1990
I1996
tp18
a(S'5ht1b'
p19
I2507
I2513
tp20
a(S'5ht1b'
p21
I295
I301
tp22
a(S'5ht1'
p23
I1983
I1988
tp24
a(S'5ht1b'
p25
I138
I144
tp26
a(S'5ht1b'
p27
I2552
I2558
tp28
a(S'5ht1b'
p29
I1385
I1391
tp30
atp31
Rp32
sS'raw_text_methods'
p33
g3
((lp34
S"(13, u'\\\\bagonist')"
p35
aS"(12, u'\\\\bantagonist')"
p36
atp37
Rp38
sS'regions'
p39
g3
((lp40
tp41
Rp42
sS'year'
p43
V1998
p44
sS'species'
p45
g3
((lp46
S"(4, u'(?i)\\\\b(rats|rat)\\\\b')"
p47
atp48
Rp49
sb.