(ifile_types
ParseObject
p0
(dp1
S'antagonists'
p2
c__builtin__
set
p3
((lp4
S"(54, u'\\\\britanserin')"
p5
aS"(17, u'\\\\bnan ?190')"
p6
aS"(130, u'\\\\britanserin')"
p7
atp8
Rp9
sS'methods'
p10
g3
((lp11
S'Method.ANTAGONIST'
p12
aS'Method.AGONIST'
p13
atp14
Rp15
sS'topics'
p16
g3
((lp17
tp18
Rp19
sS'receptors'
p20
g3
((lp21
S'5ht1b'
p22
aS'5ht1a'
p23
aS'5ht2'
p24
aS'5ht1'
p25
aS'5ht2a'
p26
aS'5ht7a'
p27
aS'5ht5'
p28
atp29
Rp30
sS'regions'
p31
g3
((lp32
S"(34, u'(?i)(pon|pons)')"
p33
atp34
Rp35
sS'year'
p36
V2004
p37
sS'agonists'
p38
g3
((lp39
S"(92, u'\\\\b8 ?oh ?dpat')"
p40
aS"(107, u'\\\\bcp ?93129')"
p41
atp42
Rp43
sS'species'
p44
g3
((lp45
S"(2568, u'(?i)(hens|hen)')"
p46
aS"(4964, u'(?i)(serins|serin)')"
p47
aS"(6682, u'(?i)(tera|teras)')"
p48
aS"(6249, u'(?i)(ants|ant)')"
p49
aS"(468, u'(?i)(oxen|ox)')"
p50
aS"(1055, u'(?i)(men|man)')"
p51
aS"(3726, u'(?i)(mates|mate)')"
p52
aS"(3152, u'(?i)(layers|layer)')"
p53
aS"(853, u'(?i)(minas|mina)')"
p54
aS"(5958, u'(?i)(rats|rat)')"
p55
aS"(7058, u'(?i)(does|doe)')"
p56
aS"(1961, u'(?i)(pens|pen)')"
p57
aS"(6356, u'(?i)(ais|ai)')"
p58
aS"(5743, u'(?i)(bots|bot)')"
p59
aS"(4979, u'(?i)(cats|cat)')"
p60
atp61
Rp62
sb.