(ifile_types
ParseObject
p0
(dp1
S'methods'
p2
c__builtin__
set
p3
((lp4
S'Method.ANTAGONIST'
p5
atp6
Rp7
sS'topics'
p8
g3
((lp9
tp10
Rp11
sS'receptors'
p12
g3
((lp13
(S'5ht1d'
p14
I1519
I1525
tp15
a(S'5ht1d'
p16
I90
I96
tp17
a(S'5ht1b'
p18
I1508
I1514
tp19
a(S'5ht1d'
p20
I1445
I1451
tp21
atp22
Rp23
sS'raw_text_methods'
p24
g3
((lp25
S"(47, u'\\\\bsumatriptan')"
p26
aS"(12, u'\\\\bantagonist')"
p27
atp28
Rp29
sS'regions'
p30
g3
((lp31
S"(19, u'(?i)\\\\b(cortexes|cortex)\\\\b')"
p32
atp33
Rp34
sS'year'
p35
V1993
p36
sS'species'
p37
g3
((lp38
S"(7, u'(?i)\\\\b(guineas|guinea)(-|\\\\s+)?(pigs|pig)\\\\b')"
p39
atp40
Rp41
sb.