(ifile_types
ParseObject
p0
(dp1
S'antagonists'
p2
c__builtin__
set
p3
((lp4
S"(198, u'\\\\bsb ?269970')"
p5
aS"(31, u'\\\\bway ?100635')"
p6
aS"(196, u'\\\\bsb ?258719')"
p7
atp8
Rp9
sS'methods'
p10
g3
((lp11
S'Method.ANTAGONIST'
p12
aS'Method.AGONIST'
p13
atp14
Rp15
sS'topics'
p16
g3
((lp17
S"(21, u'\\\\bpain')"
p18
aS"(24, u'\\\\banalgesi')"
p19
atp20
Rp21
sS'receptors'
p22
g3
((lp23
S'5ht7'
p24
aS'5ht1a'
p25
atp26
Rp27
sS'regions'
p28
g3
((lp29
tp30
Rp31
sS'year'
p32
V2009
p33
sS'agonists'
p34
g3
((lp35
S"(224, u'\\\\bas ?19')"
p36
aS"(225, u'\\\\be ?55888')"
p37
aS"(232, u'\\\\bmsd ?5a')"
p38
atp39
Rp40
sS'species'
p41
g3
((lp42
S"(1057, u'(?i)\\\\b(humans|human)\\\\b')"
p43
aS"(163, u'(?i)\\\\b(mice|mouse)\\\\b')"
p44
aS"(3196, u'(?i)\\\\b(human|humans)\\\\b')"
p45
atp46
Rp47
sb.