(ifile_types
ParseObject
p0
(dp1
S'methods'
p2
c__builtin__
set
p3
((lp4
S'Method.KNOCKOUT'
p5
atp6
Rp7
sS'topics'
p8
g3
((lp9
S"(4, u'\\\\btreatment')"
p10
atp11
Rp12
sS'receptors'
p13
g3
((lp14
(S'5ht1b'
p15
I38
I44
tp16
a(S'5ht5'
p17
I296
I306
tp18
a(S'5ht1b'
p19
I2422
I2428
tp20
a(S'5ht1b'
p21
I949
I955
tp22
a(S'5ht1b'
p23
I807
I813
tp24
a(S'5ht1b'
p25
I710
I716
tp26
a(S'5ht1b'
p27
I2156
I2162
tp28
a(S'5ht1b'
p29
I1486
I1492
tp30
a(S'5ht1b'
p31
I894
I900
tp32
a(S'5ht1b'
p33
I2882
I2888
tp34
a(S'5ht1b'
p35
I1364
I1370
tp36
atp37
Rp38
sS'raw_text_methods'
p39
g3
((lp40
tp41
Rp42
sS'regions'
p43
g3
((lp44
S"(4, u'(?i)\\\\b(presynaptics|presynaptic)\\\\b')"
p45
aS"(14, u'(?i)\\\\b(caudals|caudal)\\\\b')"
p46
atp47
Rp48
sS'year'
p49
V2002
p50
sS'species'
p51
g3
((lp52
S"(1, u'(?i)\\\\b(mice|mouse)\\\\b')"
p53
aS"(5, u'(?i)\\\\b(mices|mice)\\\\b')"
p54
atp55
Rp56
sb.