(ifile_types
ParseObject
p0
(dp1
S'antagonists'
p2
c__builtin__
set
p3
((lp4
S"(31, u'\\\\bway ?100635')"
p5
atp6
Rp7
sS'methods'
p8
g3
((lp9
S'Method.PET'
p10
atp11
Rp12
sS'topics'
p13
g3
((lp14
S"(6, u'\\\\bcognit')"
p15
aS"(7, u'\\\\bmemory')"
p16
atp17
Rp18
sS'receptors'
p19
g3
((lp20
S'5ht1a'
p21
atp22
Rp23
sS'regions'
p24
g3
((lp25
S"(318, u'(?i)\\\\b(raphes|raphe)(-|\\\\s+)?(nuclei|nucleus)\\\\b')"
p26
atp27
Rp28
sS'year'
p29
V2016
p30
sS'agonists'
p31
g3
((lp32
S"(149, u'\\\\bmem')"
p33
atp34
Rp35
sS'species'
p36
g3
((lp37
S"(1070, u'(?i)\\\\b(pets|pet)\\\\b')"
p38
aS"(6125, u'(?i)\\\\b(females|female)\\\\b')"
p39
aS"(3196, u'(?i)\\\\b(human|humans)\\\\b')"
p40
aS"(1055, u'(?i)\\\\b(men|man)\\\\b')"
p41
aS"(1057, u'(?i)\\\\b(humans|human)\\\\b')"
p42
aS"(4091, u'(?i)\\\\b(adults|adult)\\\\b')"
p43
aS"(5967, u'(?i)\\\\b(males|male)\\\\b')"
p44
atp45
Rp46
sb.