(ifile_types
ParseObject
p0
(dp1
S'antagonists'
p2
c__builtin__
set
p3
((lp4
tp5
Rp6
sS'methods'
p7
g3
((lp8
tp9
Rp10
sS'topics'
p11
g3
((lp12
S"(29, u'\\\\bsex')"
p13
aS"(20, u'\\\\baggressi')"
p14
atp15
Rp16
sS'receptors'
p17
g3
((lp18
S'5ht1a'
p19
atp20
Rp21
sS'regions'
p22
g3
((lp23
S"(157, u'(?i)\\\\b(limbics|limbic)(-|\\\\s+)?(systems|system)\\\\b')"
p24
atp25
Rp26
sS'year'
p27
V2017
p28
sS'agonists'
p29
g3
((lp30
S"(176, u'\\\\bdom')"
p31
atp32
Rp33
sS'species'
p34
g3
((lp35
S"(5967, u'(?i)\\\\b(males|male)\\\\b')"
p36
aS"(7539, u'(?i)\\\\b(mammals|mammal)\\\\b')"
p37
aS"(4099, u'(?i)\\\\b(hamsters|hamster)\\\\b')"
p38
aS"(6125, u'(?i)\\\\b(females|female)\\\\b')"
p39
atp40
Rp41
sb.