(ifile_types
ParseObject
p0
(dp1
S'antagonists'
p2
c__builtin__
set
p3
((lp4
tp5
Rp6
sS'methods'
p7
g3
((lp8
S'Method.AGONIST'
p9
atp10
Rp11
sS'topics'
p12
g3
((lp13
S"(9, u'\\\\bdepress')"
p14
atp15
Rp16
sS'receptors'
p17
g3
((lp18
S'5ht1a'
p19
atp20
Rp21
sS'regions'
p22
g3
((lp23
S"(34, u'(?i)(pon|pons)')"
p24
atp25
Rp26
sS'year'
p27
V1990
p28
sS'agonists'
p29
g3
((lp30
S"(47, u'\\\\bgepirone')"
p31
atp32
Rp33
sS'species'
p34
g3
((lp35
S"(5958, u'(?i)(rats|rat)')"
p36
aS"(1055, u'(?i)(men|man)')"
p37
aS"(7094, u'(?i)(curs|cur)')"
p38
aS"(853, u'(?i)(minas|mina)')"
p39
aS"(6249, u'(?i)(ants|ant)')"
p40
aS"(1057, u'(?i)(humans|human)')"
p41
aS"(3196, u'(?i)(human|humans)')"
p42
atp43
Rp44
sb.