(ifile_types
ParseObject
p0
(dp1
S'methods'
p2
c__builtin__
set
p3
((lp4
S'Method.ANTAGONIST'
p5
aS'Method.AGONIST'
p6
atp7
Rp8
sS'topics'
p9
g3
((lp10
S"(22, u'\\\\bschizophreni')"
p11
aS"(14, u'\\\\bcogniti')"
p12
aS"(23, u'\\\\bantipsychotic')"
p13
atp14
Rp15
sS'receptors'
p16
g3
((lp17
(S'5ht2c'
p18
I1075
I1081
tp19
a(S'5ht6'
p20
I1102
I1107
tp21
a(S'5ht2a'
p22
I1047
I1053
tp23
a(S'5ht1a'
p24
I1240
I1246
tp25
atp26
Rp27
sS'raw_text_methods'
p28
g3
((lp29
S"(41, u'\\\\bhaloperidol')"
p30
aS"(23, u'\\\\bmdl')"
p31
aS"(40, u'\\\\bclozapine')"
p32
aS"(13, u'\\\\bagonist')"
p33
aS"(12, u'\\\\bantagonist')"
p34
aS"(42, u'\\\\bneuroleptics')"
p35
atp36
Rp37
sS'regions'
p38
g3
((lp39
tp40
Rp41
sS'year'
p42
V2002
p43
sS'species'
p44
g3
((lp45
S"(4, u'(?i)\\\\b(rats|rat)\\\\b')"
p46
atp47
Rp48
sb.