(ifile_types
ParseObject
p0
(dp1
S'antagonists'
p2
c__builtin__
set
p3
((lp4
S"(34, u'\\\\byohimbine')"
p5
atp6
Rp7
sS'methods'
p8
g3
((lp9
S'Method.ANTAGONIST'
p10
aS'Method.AGONIST'
p11
atp12
Rp13
sS'topics'
p14
g3
((lp15
S"(12, u'\\\\banxiogen')"
p16
aS"(11, u'\\\\banxiolyt')"
p17
aS"(10, u'\\\\banxiety')"
p18
aS"(16, u'\\\\bfeed')"
p19
atp20
Rp21
sS'receptors'
p22
g3
((lp23
S'5ht1a'
p24
atp25
Rp26
sS'regions'
p27
g3
((lp28
S"(34, u'(?i)(pon|pons)')"
p29
atp30
Rp31
sS'year'
p32
V1998
p33
sS'agonists'
p34
g3
((lp35
S"(89, u'\\\\byohimbine')"
p36
aS"(153, u'\\\\bmdma')"
p37
aS"(24, u'\\\\bbuspirone')"
p38
atp39
Rp40
sS'species'
p41
g3
((lp42
S"(2323, u'(?i)(bees|bee)')"
p43
aS"(5799, u'(?i)(rodents|rodent)')"
p44
aS"(5958, u'(?i)(rats|rat)')"
p45
aS"(7609, u'(?i)(erns|ern)')"
p46
aS"(4979, u'(?i)(cats|cat)')"
p47
aS"(6753, u'(?i)(da|das)')"
p48
aS"(6682, u'(?i)(tera|teras)')"
p49
aS"(468, u'(?i)(oxen|ox)')"
p50
aS"(1055, u'(?i)(men|man)')"
p51
aS"(6249, u'(?i)(ants|ant)')"
p52
aS"(1349, u'(?i)(rams|ram)')"
p53
aS"(3812, u'(?i)(studs|stud)')"
p54
aS"(3550, u'(?i)(anis|ani)')"
p55
aS"(7058, u'(?i)(does|doe)')"
p56
aS"(1961, u'(?i)(pens|pen)')"
p57
aS"(1414, u'(?i)(chars|char)')"
p58
aS"(6391, u'(?i)(asses|ass)')"
p59
aS"(2809, u'(?i)(toms|tom)')"
p60
aS"(5743, u'(?i)(bots|bot)')"
p61
aS"(6356, u'(?i)(ais|ai)')"
p62
aS"(5949, u'(?i)(dogs|dog)')"
p63
atp64
Rp65
sb.