(ifile_types
ParseObject
p0
(dp1
S'antagonists'
p2
c__builtin__
set
p3
((lp4
S"(53, u'\\\\bketanserin')"
p5
aS"(32, u'\\\\bway ?100635')"
p6
aS"(135, u'\\\\bondansetron')"
p7
aS"(128, u'\\\\bketanserin')"
p8
atp9
Rp10
sS'methods'
p11
g3
((lp12
S'Method.ANTAGONIST'
p13
atp14
Rp15
sS'topics'
p16
g3
((lp17
S"(21, u'\\\\bpain')"
p18
atp19
Rp20
sS'receptors'
p21
g3
((lp22
S'5ht5'
p23
aS'5ht3'
p24
aS'5ht1a'
p25
aS'5ht2a'
p26
atp27
Rp28
sS'regions'
p29
g3
((lp30
tp31
Rp32
sS'year'
p33
V2014
p34
sS'agonists'
p35
g3
((lp36
tp37
Rp38
sS'species'
p39
g3
((lp40
S"(6249, u'(?i)(ants|ant)')"
p41
aS"(6753, u'(?i)(da|das)')"
p42
aS"(2568, u'(?i)(hens|hen)')"
p43
aS"(6356, u'(?i)(ais|ai)')"
p44
aS"(5958, u'(?i)(rats|rat)')"
p45
aS"(163, u'(?i)(mice|mouse)')"
p46
aS"(4163, u'(?i)(ermines|ermine)')"
p47
aS"(4201, u'(?i)(kines|kine)')"
p48
aS"(468, u'(?i)(oxen|ox)')"
p49
aS"(1055, u'(?i)(men|man)')"
p50
aS"(937, u'(?i)(kids|kid)')"
p51
aS"(4964, u'(?i)(serins|serin)')"
p52
aS"(3550, u'(?i)(anis|ani)')"
p53
aS"(6682, u'(?i)(tera|teras)')"
p54
aS"(3726, u'(?i)(mates|mate)')"
p55
aS"(3812, u'(?i)(studs|stud)')"
p56
aS"(1795, u'(?i)(mounts|mount)')"
p57
aS"(5743, u'(?i)(bots|bot)')"
p58
aS"(4979, u'(?i)(cats|cat)')"
p59
aS"(5949, u'(?i)(dogs|dog)')"
p60
atp61
Rp62
sb.