(ifile_types
ParseObject
p0
(dp1
S'methods'
p2
c__builtin__
set
p3
((lp4
S'Method.AGONIST'
p5
atp6
Rp7
sS'topics'
p8
g3
((lp9
S"(5, u'\\\\btherap')"
p10
aS"(26, u'\\\\bbehav')"
p11
aS"(4, u'\\\\btreatment')"
p12
atp13
Rp14
sS'receptors'
p15
g3
((lp16
(S'5ht2'
p17
I642
I647
tp18
a(S'5ht2c'
p19
I38
I49
tp20
a(S'5ht2'
p21
I904
I909
tp22
a(S'5ht2'
p23
I877
I882
tp24
a(S'5ht2'
p25
I1008
I1013
tp26
a(S'5ht2c'
p27
I451
I457
tp28
a(S'5ht2'
p29
I1131
I1136
tp30
a(S'5ht2'
p31
I470
I475
tp32
atp33
Rp34
sS'raw_text_methods'
p35
g3
((lp36
S"(13, u'\\\\bagonist')"
p37
aS"(11, u'\\\\bfluoxetine')"
p38
atp39
Rp40
sS'regions'
p41
g3
((lp42
tp43
Rp44
sS'year'
p45
V2017
p46
sS'species'
p47
g3
((lp48
S"(1, u'(?i)\\\\b(mice|mouse)\\\\b')"
p49
aS"(5, u'(?i)\\\\b(mices|mice)\\\\b')"
p50
atp51
Rp52
sb.