(ifile_types
ParseObject
p0
(dp1
S'antagonists'
p2
c__builtin__
set
p3
((lp4
S"(17, u'\\\\bnan ?190')"
p5
atp6
Rp7
sS'methods'
p8
g3
((lp9
S'Method.ANTAGONIST'
p10
atp11
Rp12
sS'topics'
p13
g3
((lp14
S"(21, u'\\\\bpain')"
p15
atp16
Rp17
sS'receptors'
p18
g3
((lp19
S'5ht5'
p20
aS'5ht1a'
p21
atp22
Rp23
sS'regions'
p24
g3
((lp25
S"(292, u'(?i)(anteriors|anterior)(-|\\\\s+)?(cingulates|cingulate)')"
p26
aS"(318, u'(?i)(raphes|raphe)(-|\\\\s+)?(nuclei|nucleus)')"
p27
aS"(291, u'(?i)(cingulates|cingulate)(-|\\\\s+)?(cortexes|cortex)')"
p28
aS"(34, u'(?i)(pon|pons)')"
p29
atp30
Rp31
sS'year'
p32
V2017
p33
sS'agonists'
p34
g3
((lp35
tp36
Rp37
sS'species'
p38
g3
((lp39
S"(2323, u'(?i)(bees|bee)')"
p40
aS"(3812, u'(?i)(studs|stud)')"
p41
aS"(6356, u'(?i)(ais|ai)')"
p42
aS"(163, u'(?i)(mice|mouse)')"
p43
aS"(4091, u'(?i)(adults|adult)')"
p44
aS"(6249, u'(?i)(ants|ant)')"
p45
aS"(3726, u'(?i)(mates|mate)')"
p46
aS"(853, u'(?i)(minas|mina)')"
p47
aS"(7094, u'(?i)(curs|cur)')"
p48
aS"(5958, u'(?i)(rats|rat)')"
p49
aS"(4979, u'(?i)(cats|cat)')"
p50
aS"(1961, u'(?i)(pens|pen)')"
p51
aS"(1414, u'(?i)(chars|char)')"
p52
aS"(821, u'(?i)(lice|louse)')"
p53
aS"(7552, u'(?i)(bats|bat)')"
p54
atp55
Rp56
sb.