(ifile_types
ParseObject
p0
(dp1
S'antagonists'
p2
c__builtin__
set
p3
((lp4
S"(53, u'\\\\bketanserin')"
p5
aS"(128, u'\\\\bketanserin')"
p6
aS"(63, u'\\\\bpizotifen')"
p7
aS"(61, u'\\\\bmdl ?100907')"
p8
aS"(117, u'\\\\bmianserin')"
p9
atp10
Rp11
sS'methods'
p12
g3
((lp13
S'Method.ANTAGONIST'
p14
aS'Method.AGONIST'
p15
atp16
Rp17
sS'topics'
p18
g3
((lp19
tp20
Rp21
sS'receptors'
p22
g3
((lp23
S'5ht5'
p24
aS'5ht2c'
p25
aS'5ht2'
p26
aS'5ht2a'
p27
atp28
Rp29
sS'regions'
p30
g3
((lp31
S"(34, u'(?i)(pon|pons)')"
p32
atp33
Rp34
sS'year'
p35
V1995
p36
sS'agonists'
p37
g3
((lp38
S"(196, u'\\\\bquipazine')"
p39
aS"(172, u'\\\\bmk ?212')"
p40
atp41
Rp42
sS'species'
p43
g3
((lp44
S"(6753, u'(?i)(da|das)')"
p45
aS"(5958, u'(?i)(rats|rat)')"
p46
aS"(867, u'(?i)(tits|tit)')"
p47
aS"(4964, u'(?i)(serins|serin)')"
p48
aS"(4163, u'(?i)(ermines|ermine)')"
p49
aS"(6249, u'(?i)(ants|ant)')"
p50
aS"(468, u'(?i)(oxen|ox)')"
p51
aS"(1055, u'(?i)(men|man)')"
p52
aS"(3726, u'(?i)(mates|mate)')"
p53
aS"(853, u'(?i)(minas|mina)')"
p54
aS"(3550, u'(?i)(anis|ani)')"
p55
aS"(7094, u'(?i)(curs|cur)')"
p56
aS"(4371, u'(?i)(lizas|liza)')"
p57
aS"(3812, u'(?i)(studs|stud)')"
p58
aS"(6356, u'(?i)(ais|ai)')"
p59
atp60
Rp61
sb.