(ifile_types
ParseObject
p0
(dp1
S'antagonists'
p2
c__builtin__
set
p3
((lp4
S"(14, u'\\\\bmethiothepin')"
p5
aS"(133, u'\\\\bmianserin')"
p6
aS"(193, u'\\\\bmesulergine')"
p7
aS"(97, u'\\\\bsb ?200646')"
p8
aS"(58, u'\\\\bhaloperidol')"
p9
aS"(119, u'\\\\britanserin')"
p10
atp11
Rp12
sS'methods'
p13
g3
((lp14
S'Method.ANTAGONIST'
p15
atp16
Rp17
sS'topics'
p18
g3
((lp19
tp20
Rp21
sS'receptors'
p22
g3
((lp23
S'5ht7'
p24
aS'5ht1b'
p25
aS'5ht1a'
p26
aS'5ht3'
p27
aS'5ht2c'
p28
aS'5ht6'
p29
aS'5ht2a'
p30
aS'5ht1d'
p31
aS'5ht5'
p32
aS'5ht2b'
p33
atp34
Rp35
sS'regions'
p36
g3
((lp37
tp38
Rp39
sS'year'
p40
V1996
p41
sS'agonists'
p42
g3
((lp43
S"(165, u'\\\\bmesulergine')"
p44
aS"(163, u'\\\\bfenfluramine')"
p45
aS"(11, u'\\\\bamphetamine')"
p46
aS"(155, u'\\\\bmcpp')"
p47
aS"(43, u'\\\\bhaloperidol')"
p48
atp49
Rp50
sS'species'
p51
g3
((lp52
S"(7058, u'(?i)\\\\b(does|doe)\\\\b')"
p53
aS"(5958, u'(?i)\\\\b(rats|rat)\\\\b')"
p54
atp55
Rp56
sb.