(ifile_types
ParseObject
p0
(dp1
S'antagonists'
p2
c__builtin__
set
p3
((lp4
S"(31, u'\\\\bway ?100635')"
p5
atp6
Rp7
sS'methods'
p8
g3
((lp9
S'Method.ANTAGONIST'
p10
aS'Method.AGONIST'
p11
atp12
Rp13
sS'topics'
p14
g3
((lp15
S"(16, u'\\\\bfeed')"
p16
atp17
Rp18
sS'receptors'
p19
g3
((lp20
S'5ht1a'
p21
atp22
Rp23
sS'regions'
p24
g3
((lp25
tp26
Rp27
sS'year'
p28
V2014
p29
sS'agonists'
p30
g3
((lp31
S"(98, u'\\\\b5 ?carboxamidotryptamine')"
p32
aS"(149, u'\\\\bmem')"
p33
aS"(85, u'\\\\b8 ?oh ?dpat')"
p34
atp35
Rp36
sS'species'
p37
g3
((lp38
S"(7058, u'(?i)\\\\b(does|doe)\\\\b')"
p39
aS"(1266, u'(?i)\\\\b(embryos|embryo)\\\\b')"
p40
aS"(5958, u'(?i)\\\\b(rats|rat)\\\\b')"
p41
atp42
Rp43
sb.