(ifile_types
ParseObject
p0
(dp1
S'antagonists'
p2
c__builtin__
set
p3
((lp4
S"(102, u'\\\\bamitriptyline')"
p5
aS"(91, u'\\\\bfluoxetine')"
p6
aS"(140, u'\\\\bmemantine')"
p7
atp8
Rp9
sS'methods'
p10
g3
((lp11
tp12
Rp13
sS'topics'
p14
g3
((lp15
tp16
Rp17
sS'receptors'
p18
g3
((lp19
S'5ht1b'
p20
aS'5ht1d'
p21
atp22
Rp23
sS'regions'
p24
g3
((lp25
tp26
Rp27
sS'year'
p28
V2007
p29
sS'agonists'
p30
g3
((lp31
S"(104, u'\\\\bdextromethorphan')"
p32
aS"(149, u'\\\\bmem')"
p33
atp34
Rp35
sS'species'
p36
g3
((lp37
S"(5958, u'(?i)\\\\b(rats|rat)\\\\b')"
p38
atp39
Rp40
sb.