(ifile_types
ParseObject
p0
(dp1
S'antagonists'
p2
c__builtin__
set
p3
((lp4
tp5
Rp6
sS'methods'
p7
g3
((lp8
S'Method.ANTAGONIST'
p9
atp10
Rp11
sS'topics'
p12
g3
((lp13
S"(6, u'\\\\bcognit')"
p14
aS"(4, u'\\\\blocomot')"
p15
aS"(9, u'\\\\bdepress')"
p16
aS"(7, u'\\\\bmemory')"
p17
aS"(11, u'\\\\banxiolyt')"
p18
aS"(8, u'\\\\blearning')"
p19
atp20
Rp21
sS'receptors'
p22
g3
((lp23
S'5ht7'
p24
aS'5ht7a'
p25
aS'5ht1a'
p26
atp27
Rp28
sS'regions'
p29
g3
((lp30
tp31
Rp32
sS'year'
p33
V2017
p34
sS'agonists'
p35
g3
((lp36
S"(155, u'\\\\bmem')"
p37
atp38
Rp39
sS'species'
p40
g3
((lp41
S"(5537, u'(?i)(hippos|hippo)')"
p42
aS"(5799, u'(?i)(rodents|rodent)')"
p43
aS"(2568, u'(?i)(hens|hen)')"
p44
aS"(163, u'(?i)(mice|mouse)')"
p45
aS"(6753, u'(?i)(da|das)')"
p46
aS"(468, u'(?i)(oxen|ox)')"
p47
aS"(1055, u'(?i)(men|man)')"
p48
aS"(6249, u'(?i)(ants|ant)')"
p49
aS"(4979, u'(?i)(cats|cat)')"
p50
aS"(5958, u'(?i)(rats|rat)')"
p51
aS"(7003, u'(?i)(murines|murine)')"
p52
aS"(3812, u'(?i)(studs|stud)')"
p53
aS"(6391, u'(?i)(asses|ass)')"
p54
aS"(5743, u'(?i)(bots|bot)')"
p55
aS"(6356, u'(?i)(ais|ai)')"
p56
atp57
Rp58
sb.