(ifile_types
ParseObject
p0
(dp1
S'antagonists'
p2
c__builtin__
set
p3
((lp4
S"(76, u'\\\\blisuride')"
p5
aS"(206, u'\\\\bbromocriptine')"
p6
atp7
Rp8
sS'methods'
p9
g3
((lp10
S'Method.AGONIST'
p11
atp12
Rp13
sS'topics'
p14
g3
((lp15
S"(12, u'\\\\banxiogen')"
p16
aS"(11, u'\\\\banxiolyt')"
p17
aS"(4, u'\\\\blocomot')"
p18
atp19
Rp20
sS'receptors'
p21
g3
((lp22
S'5ht1a'
p23
atp24
Rp25
sS'regions'
p26
g3
((lp27
S"(209, u'(?i)\\\\b(amygdalas|amygdala)\\\\b')"
p28
aS"(318, u'(?i)\\\\b(raphes|raphe)(-|\\\\s+)?(nuclei|nucleus)\\\\b')"
p29
atp30
Rp31
sS'year'
p32
V1991
p33
sS'agonists'
p34
g3
((lp35
S"(179, u'\\\\b5 ?meo ?dmt')"
p36
aS"(137, u'\\\\blisuride')"
p37
aS"(85, u'\\\\b8 ?oh ?dpat')"
p38
aS"(150, u'\\\\bpergolide')"
p39
atp40
Rp41
sS'species'
p42
g3
((lp43
S"(473, u'(?i)\\\\b(rabbits|rabbit)\\\\b')"
p44
aS"(5958, u'(?i)\\\\b(rats|rat)\\\\b')"
p45
atp46
Rp47
sb.