(ifile_types
ParseObject
p0
(dp1
S'methods'
p2
c__builtin__
set
p3
((lp4
S'Method.AGONIST'
p5
atp6
Rp7
sS'topics'
p8
g3
((lp9
S"(3, u'\\\\bclinical')"
p10
aS"(26, u'\\\\bbehav')"
p11
aS"(2, u'\\\\bdisorder')"
p12
atp13
Rp14
sS'receptors'
p15
g3
((lp16
(S'5ht2a'
p17
I484
I490
tp18
a(S'5ht2c'
p19
I484
I491
tp20
atp21
Rp22
sS'raw_text_methods'
p23
g3
((lp24
S"(13, u'\\\\bagonist')"
p25
aS"(41, u'\\\\bhaloperidol')"
p26
aS"(49, u'\\\\bdoi')"
p27
atp28
Rp29
sS'regions'
p30
g3
((lp31
S"(20, u'(?i)\\\\b(prefrontals|prefrontal)\\\\b')"
p32
aS"(19, u'(?i)\\\\b(cortexes|cortex)\\\\b')"
p33
atp34
Rp35
sS'year'
p36
V2009
p37
sS'species'
p38
g3
((lp39
S"(1, u'(?i)\\\\b(mice|mouse)\\\\b')"
p40
aS"(5, u'(?i)\\\\b(mices|mice)\\\\b')"
p41
atp42
Rp43
sb.