(ifile_types
ParseObject
p0
(dp1
S'methods'
p2
c__builtin__
set
p3
((lp4
S'Method.ANTAGONIST'
p5
aS'Method.AGONIST'
p6
atp7
Rp8
sS'topics'
p9
g3
((lp10
S"(26, u'\\\\bbehav')"
p11
aS"(2, u'\\\\bdisorder')"
p12
aS"(7, u'\\\\bdepressi')"
p13
aS"(9, u'\\\\bstress')"
p14
aS"(20, u'\\\\bmood')"
p15
aS"(4, u'\\\\btreatment')"
p16
atp17
Rp18
sS'receptors'
p19
g3
((lp20
(S'5ht1a'
p21
I103
I109
tp22
a(S'5ht2a'
p23
I1449
I1455
tp24
a(S'5ht1a'
p25
I1402
I1408
tp26
a(S'5ht1a'
p27
I2088
I2094
tp28
a(S'5ht2a'
p29
I2188
I2194
tp30
a(S'5ht1a'
p31
I1519
I1525
tp32
a(S'5ht2'
p33
I2188
I2194
tp34
a(S'5ht2a'
p35
I121
I127
tp36
a(S'5ht2a'
p37
I1871
I1877
tp38
atp39
Rp40
sS'raw_text_methods'
p41
g3
((lp42
S"(13, u'\\\\bagonist')"
p43
aS"(54, u'\\\\bautoradiography')"
p44
aS"(12, u'\\\\bantagonist')"
p45
atp46
Rp47
sS'regions'
p48
g3
((lp49
S"(12, u'(?i)\\\\b(amygdalas|amygdala)\\\\b')"
p50
atp51
Rp52
sS'year'
p53
V2008
p54
sS'species'
p55
g3
((lp56
S"(6, u'(?i)\\\\b(rodents|rodent)\\\\b')"
p57
aS"(2, u'(?i)\\\\b(females|female)\\\\b')"
p58
atp59
Rp60
sb.