(ifile_types
ParseObject
p0
(dp1
S'methods'
p2
c__builtin__
set
p3
((lp4
S'Method.ANTAGONIST'
p5
aS'Method.AGONIST'
p6
atp7
Rp8
sS'topics'
p9
g3
((lp10
tp11
Rp12
sS'receptors'
p13
g3
((lp14
(S'5ht7'
p15
I840
I845
tp16
a(S'5ht1b'
p17
I441
I447
tp18
a(S'5ht1b'
p19
I1919
I1925
tp20
a(S'5ht1b'
p21
I1829
I1835
tp22
a(S'5ht2'
p23
I910
I915
tp24
a(S'5ht1'
p25
I466
I471
tp26
a(S'5ht4'
p27
I920
I925
tp28
a(S'5ht1b'
p29
I1583
I1589
tp30
a(S'5ht1b'
p31
I52
I58
tp32
atp33
Rp34
sS'raw_text_methods'
p35
g3
((lp36
S"(13, u'\\\\bagonist')"
p37
aS"(7, u'\\\\bpropranolol')"
p38
aS"(34, u'\\\\b5ct')"
p39
aS"(12, u'\\\\bantagonist')"
p40
atp41
Rp42
sS'regions'
p43
g3
((lp44
S"(19, u'(?i)\\\\b(cortexes|cortex)\\\\b')"
p45
atp46
Rp47
sS'year'
p48
V1995
p49
sS'species'
p50
g3
((lp51
S"(4, u'(?i)\\\\b(rats|rat)\\\\b')"
p52
atp53
Rp54
sb.