(ifile_types
ParseObject
p0
(dp1
S'antagonists'
p2
c__builtin__
set
p3
((lp4
tp5
Rp6
sS'methods'
p7
g3
((lp8
S'Method.AGONIST'
p9
atp10
Rp11
sS'topics'
p12
g3
((lp13
S"(3, u'\\\\bsleep')"
p14
atp15
Rp16
sS'receptors'
p17
g3
((lp18
S'5ht1a'
p19
aS'5ht2'
p20
atp21
Rp22
sS'regions'
p23
g3
((lp24
S"(362, u'(?i)\\\\b(brains|brain)(-|\\\\s+)?(stems|stem)\\\\b')"
p25
atp26
Rp27
sS'year'
p28
V1990
p29
sS'agonists'
p30
g3
((lp31
tp32
Rp33
sS'species'
p34
g3
((lp35
S"(1057, u'(?i)\\\\b(humans|human)\\\\b')"
p36
aS"(3196, u'(?i)\\\\b(human|humans)\\\\b')"
p37
atp38
Rp39
sb.