(ifile_types
ParseObject
p0
(dp1
S'methods'
p2
c__builtin__
set
p3
((lp4
S'Method.PET'
p5
atp6
Rp7
sS'topics'
p8
g3
((lp9
S"(26, u'\\\\bbehav')"
p10
atp11
Rp12
sS'receptors'
p13
g3
((lp14
(S'5ht1a'
p15
I338
I344
tp16
a(S'5ht1a'
p17
I212
I218
tp18
a(S'5ht1a'
p19
I462
I468
tp20
a(S'5ht1a'
p21
I62
I68
tp22
atp23
Rp24
sS'raw_text_methods'
p25
g3
((lp26
S"(17, u'\\\\bpet')"
p27
aS"(18, u'\\\\bimaging')"
p28
atp29
Rp30
sS'regions'
p31
g3
((lp32
S"(22, u'(?i)\\\\b(anteriors|anterior)(-|\\\\s+)?(cingulates|cingulate)\\\\b')"
p33
aS"(9, u'(?i)\\\\b(cerebellums|cerebellum)\\\\b')"
p34
aS"(14, u'(?i)\\\\b(caudals|caudal)\\\\b')"
p35
atp36
Rp37
sS'year'
p38
V2014
p39
sS'species'
p40
g3
((lp41
S"(3, u'(?i)\\\\b(males|male)\\\\b')"
p42
atp43
Rp44
sb.