(ifile_types
ParseObject
p0
(dp1
S'antagonists'
p2
c__builtin__
set
p3
((lp4
S"(130, u'\\\\bzacopride')"
p5
aS"(34, u'\\\\bmetergoline')"
p6
aS"(195, u'\\\\bpimozide')"
p7
aS"(117, u'\\\\bketanserin')"
p8
aS"(22, u'\\\\bpropranolol')"
p9
aS"(91, u'\\\\bfluoxetine')"
p10
atp11
Rp12
sS'methods'
p13
g3
((lp14
S'Method.ANTAGONIST'
p15
aS'Method.AGONIST'
p16
atp17
Rp18
sS'topics'
p19
g3
((lp20
S"(35, u'\\\\bstress')"
p21
aS"(12, u'\\\\banxiogen')"
p22
aS"(10, u'\\\\banxiety')"
p23
atp24
Rp25
sS'receptors'
p26
g3
((lp27
S'5ht3'
p28
aS'5ht1a'
p29
aS'5ht3a'
p30
aS'5ht2'
p31
aS'5ht1'
p32
atp33
Rp34
sS'regions'
p35
g3
((lp36
S"(71, u'(?i)\\\\b(cerebellums|cerebellum)\\\\b')"
p37
aS"(34, u'(?i)\\\\b(pon|pons)\\\\b')"
p38
atp39
Rp40
sS'year'
p41
V1993
p42
sS'agonists'
p43
g3
((lp44
S"(20, u'\\\\bbuspirone')"
p45
aS"(208, u'\\\\bzacopride')"
p46
aS"(192, u'\\\\bquipazine')"
p47
atp48
Rp49
sS'species'
p50
g3
((lp51
S"(6753, u'(?i)\\\\b(da|das)\\\\b')"
p52
aS"(163, u'(?i)\\\\b(mice|mouse)\\\\b')"
p53
aS"(5958, u'(?i)\\\\b(rats|rat)\\\\b')"
p54
atp55
Rp56
sb.