(ifile_types
ParseObject
p0
(dp1
S'antagonists'
p2
c__builtin__
set
p3
((lp4
tp5
Rp6
sS'methods'
p7
g3
((lp8
S'Method.AGONIST'
p9
atp10
Rp11
sS'topics'
p12
g3
((lp13
tp14
Rp15
sS'receptors'
p16
g3
((lp17
S'5ht1a'
p18
atp19
Rp20
sS'regions'
p21
g3
((lp22
S"(34, u'(?i)(pon|pons)')"
p23
atp24
Rp25
sS'year'
p26
V1996
p27
sS'agonists'
p28
g3
((lp29
tp30
Rp31
sS'species'
p32
g3
((lp33
S"(6753, u'(?i)(da|das)')"
p34
aS"(5958, u'(?i)(rats|rat)')"
p35
aS"(6125, u'(?i)(females|female)')"
p36
aS"(5743, u'(?i)(bots|bot)')"
p37
aS"(5967, u'(?i)(males|male)')"
p38
aS"(1055, u'(?i)(men|man)')"
p39
aS"(7094, u'(?i)(curs|cur)')"
p40
aS"(4979, u'(?i)(cats|cat)')"
p41
aS"(6356, u'(?i)(ais|ai)')"
p42
aS"(6391, u'(?i)(asses|ass)')"
p43
aS"(2809, u'(?i)(toms|tom)')"
p44
atp45
Rp46
sb.