(ifile_types
ParseObject
p0
(dp1
S'methods'
p2
c__builtin__
set
p3
((lp4
S'Method.STIMULATION'
p5
aS'Method.AGONIST'
p6
atp7
Rp8
sS'topics'
p9
g3
((lp10
S"(24, u'\\\\banxiolytic')"
p11
aS"(26, u'\\\\bbehav')"
p12
aS"(2, u'\\\\bdisorder')"
p13
aS"(18, u'\\\\bavoidan')"
p14
aS"(8, u'\\\\banxi')"
p15
aS"(4, u'\\\\btreatment')"
p16
aS"(3, u'\\\\bclinical')"
p17
atp18
Rp19
sS'receptors'
p20
g3
((lp21
(S'5ht2a'
p22
I84
I90
tp23
a(S'5ht1a'
p24
I73
I79
tp25
a(S'5ht2a'
p26
I2249
I2255
tp27
a(S'5ht2a'
p28
I661
I667
tp29
a(S'5ht1a'
p30
I821
I827
tp31
a(S'5ht1a'
p32
I2238
I2244
tp33
a(S'5ht1a'
p34
I559
I565
tp35
a(S'5ht2a'
p36
I832
I838
tp37
atp38
Rp39
sS'raw_text_methods'
p40
g3
((lp41
S"(13, u'\\\\bagonist')"
p42
aS"(15, u'\\\\b8ohdpat')"
p43
aS"(49, u'\\\\bdoi')"
p44
aS"(22, u'\\\\bbuspirone')"
p45
atp46
Rp47
sS'regions'
p48
g3
((lp49
tp50
Rp51
sS'year'
p52
V2005
p53
sS'species'
p54
g3
((lp55
S"(4, u'(?i)\\\\b(rats|rat)\\\\b')"
p56
atp57
Rp58
sb.