(ifile_types
ParseObject
p0
(dp1
S'antagonists'
p2
c__builtin__
set
p3
((lp4
tp5
Rp6
sS'methods'
p7
g3
((lp8
tp9
Rp10
sS'topics'
p11
g3
((lp12
S"(11, u'\\\\banxiolyt')"
p13
atp14
Rp15
sS'receptors'
p16
g3
((lp17
S'5ht1a'
p18
atp19
Rp20
sS'regions'
p21
g3
((lp22
tp23
Rp24
sS'year'
p25
V1994
p26
sS'agonists'
p27
g3
((lp28
S"(20, u'\\\\bbuspirone')"
p29
aS"(45, u'\\\\bipsapirone')"
p30
aS"(83, u'\\\\bzalospirone')"
p31
aS"(42, u'\\\\bgepirone')"
p32
atp33
Rp34
sS'species'
p35
g3
((lp36
tp37
Rp38
sb.