(ifile_types
ParseObject
p0
(dp1
S'methods'
p2
c__builtin__
set
p3
((lp4
S'Method.ANTAGONIST'
p5
atp6
Rp7
sS'topics'
p8
g3
((lp9
S"(26, u'\\\\bbehav')"
p10
aS"(4, u'\\\\btreatment')"
p11
aS"(15, u'\\\\bmemory')"
p12
atp13
Rp14
sS'receptors'
p15
g3
((lp16
(S'5ht1d'
p17
I1619
I1625
tp18
a(S'5ht1d'
p19
I613
I619
tp20
a(S'5ht1d'
p21
I527
I533
tp22
atp23
Rp24
sS'raw_text_methods'
p25
g3
((lp26
S"(12, u'\\\\bantagonist')"
p27
aS"(10, u'\\\\bmethamphetamine')"
p28
atp29
Rp30
sS'regions'
p31
g3
((lp32
tp33
Rp34
sS'year'
p35
V2019
p36
sS'species'
p37
g3
((lp38
S"(4, u'(?i)\\\\b(rats|rat)\\\\b')"
p39
atp40
Rp41
sb.