(ifile_types
ParseObject
p0
(dp1
S'antagonists'
p2
c__builtin__
set
p3
((lp4
tp5
Rp6
sS'methods'
p7
g3
((lp8
S'Method.PET'
p9
atp10
Rp11
sS'topics'
p12
g3
((lp13
S"(4, u'\\\\blocomot')"
p14
aS"(9, u'\\\\bdepress')"
p15
aS"(29, u'\\\\bsex')"
p16
aS"(20, u'\\\\baggressi')"
p17
aS"(17, u'\\\\bgroom')"
p18
aS"(6, u'\\\\bcognit')"
p19
atp20
Rp21
sS'receptors'
p22
g3
((lp23
S'5ht1a'
p24
atp25
Rp26
sS'regions'
p27
g3
((lp28
S"(292, u'(?i)\\\\b(anteriors|anterior)(-|\\\\s+)?(cingulates|cingulate)\\\\b')"
p29
aS"(209, u'(?i)\\\\b(amygdalas|amygdala)\\\\b')"
p30
aS"(291, u'(?i)\\\\b(cingulates|cingulate)(-|\\\\s+)?(cortexes|cortex)\\\\b')"
p31
atp32
Rp33
sS'year'
p34
V2006
p35
sS'agonists'
p36
g3
((lp37
tp38
Rp39
sS'species'
p40
g3
((lp41
S"(1057, u'(?i)\\\\b(humans|human)\\\\b')"
p42
aS"(4091, u'(?i)\\\\b(adults|adult)\\\\b')"
p43
aS"(6125, u'(?i)\\\\b(females|female)\\\\b')"
p44
aS"(2341, u'(?i)\\\\b(monkeys|monkey)\\\\b')"
p45
aS"(3196, u'(?i)\\\\b(human|humans)\\\\b')"
p46
atp47
Rp48
sb.