(ifile_types
ParseObject
p0
(dp1
S'methods'
p2
c__builtin__
set
p3
((lp4
S'Method.AGONIST'
p5
atp6
Rp7
sS'topics'
p8
g3
((lp9
S"(1, u'\\\\bpatient')"
p10
aS"(26, u'\\\\bbehav')"
p11
aS"(17, u'\\\\balzheimer')"
p12
atp13
Rp14
sS'receptors'
p15
g3
((lp16
(S'5ht2'
p17
I422
I428
tp18
a(S'5ht1a'
p19
I412
I418
tp20
a(S'5ht4'
p21
I436
I441
tp22
a(S'5ht4'
p23
I878
I883
tp24
a(S'5ht4'
p25
I736
I741
tp26
a(S'5ht2a'
p27
I422
I428
tp28
a(S'5ht4'
p29
I636
I641
tp30
atp31
Rp32
sS'raw_text_methods'
p33
g3
((lp34
S"(13, u'\\\\bagonist')"
p35
atp36
Rp37
sS'regions'
p38
g3
((lp39
S"(19, u'(?i)\\\\b(cortexes|cortex)\\\\b')"
p40
atp41
Rp42
sS'year'
p43
V2010
p44
sS'species'
p45
g3
((lp46
tp47
Rp48
sb.