(ifile_types
ParseObject
p0
(dp1
S'antagonists'
p2
c__builtin__
set
p3
((lp4
S"(102, u'\\\\bfluoxetine')"
p5
atp6
Rp7
sS'methods'
p8
g3
((lp9
S'Method.STIMULATION'
p10
aS'Method.AGONIST'
p11
atp12
Rp13
sS'topics'
p14
g3
((lp15
tp16
Rp17
sS'receptors'
p18
g3
((lp19
S'5ht5'
p20
aS'5ht1a'
p21
aS'5ht3'
p22
aS'5ht2c'
p23
aS'5ht2a'
p24
atp25
Rp26
sS'regions'
p27
g3
((lp28
tp29
Rp30
sS'year'
p31
V1998
p32
sS'agonists'
p33
g3
((lp34
S"(198, u'\\\\bsr ?57227')"
p35
aS"(92, u'\\\\b8 ?oh ?dpat')"
p36
aS"(33, u'\\\\bdoi')"
p37
atp38
Rp39
sS'species'
p40
g3
((lp41
S"(5537, u'(?i)(hippos|hippo)')"
p42
aS"(2568, u'(?i)(hens|hen)')"
p43
aS"(5958, u'(?i)(rats|rat)')"
p44
aS"(6753, u'(?i)(da|das)')"
p45
aS"(4163, u'(?i)(ermines|ermine)')"
p46
aS"(5967, u'(?i)(males|male)')"
p47
aS"(468, u'(?i)(oxen|ox)')"
p48
aS"(1349, u'(?i)(rams|ram)')"
p49
aS"(6249, u'(?i)(ants|ant)')"
p50
aS"(2334, u'(?i)(eels|eel)')"
p51
aS"(3812, u'(?i)(studs|stud)')"
p52
aS"(3550, u'(?i)(anis|ani)')"
p53
aS"(3522, u'(?i)(tetras|tetra)')"
p54
aS"(1414, u'(?i)(chars|char)')"
p55
aS"(6391, u'(?i)(asses|ass)')"
p56
aS"(7058, u'(?i)(does|doe)')"
p57
atp58
Rp59
sb.