(ifile_types
ParseObject
p0
(dp1
S'antagonists'
p2
c__builtin__
set
p3
((lp4
tp5
Rp6
sS'methods'
p7
g3
((lp8
S'Method.AGONIST'
p9
atp10
Rp11
sS'topics'
p12
g3
((lp13
S"(18, u'\\\\bpsychostim')"
p14
aS"(4, u'\\\\blocomot')"
p15
atp16
Rp17
sS'receptors'
p18
g3
((lp19
S'5ht1a'
p20
aS'5ht5'
p21
atp22
Rp23
sS'regions'
p24
g3
((lp25
S"(157, u'(?i)(limbics|limbic)(-|\\\\s+)?(systems|system)')"
p26
atp27
Rp28
sS'year'
p29
V2012
p30
sS'agonists'
p31
g3
((lp32
S"(153, u'\\\\bmdma')"
p33
aS"(92, u'\\\\b8 ?oh ?dpat')"
p34
aS"(14, u'\\\\bamphetamine')"
p35
atp36
Rp37
sS'species'
p38
g3
((lp39
S"(1070, u'(?i)(pets|pet)')"
p40
aS"(2323, u'(?i)(bees|bee)')"
p41
aS"(2568, u'(?i)(hens|hen)')"
p42
aS"(867, u'(?i)(tits|tit)')"
p43
aS"(6753, u'(?i)(da|das)')"
p44
aS"(4371, u'(?i)(lizas|liza)')"
p45
aS"(468, u'(?i)(oxen|ox)')"
p46
aS"(1055, u'(?i)(men|man)')"
p47
aS"(6249, u'(?i)(ants|ant)')"
p48
aS"(3404, u'(?i)(titis|titi)')"
p49
aS"(1054, u'(?i)(homoes|homo)')"
p50
aS"(6356, u'(?i)(ais|ai)')"
p51
aS"(7094, u'(?i)(curs|cur)')"
p52
aS"(3550, u'(?i)(anis|ani)')"
p53
aS"(3522, u'(?i)(tetras|tetra)')"
p54
aS"(3426, u'(?i)(hares|hare)')"
p55
aS"(1961, u'(?i)(pens|pen)')"
p56
aS"(3812, u'(?i)(studs|stud)')"
p57
aS"(6391, u'(?i)(asses|ass)')"
p58
aS"(5958, u'(?i)(rats|rat)')"
p59
atp60
Rp61
sb.