(ifile_types
ParseObject
p0
(dp1
S'methods'
p2
c__builtin__
set
p3
((lp4
tp5
Rp6
sS'topics'
p7
g3
((lp8
S"(22, u'\\\\bschizophreni')"
p9
aS"(1, u'\\\\bpatient')"
p10
aS"(5, u'\\\\btherap')"
p11
aS"(23, u'\\\\bantipsychotic')"
p12
atp13
Rp14
sS'receptors'
p15
g3
((lp16
(S'5ht2a'
p17
I1284
I1290
tp18
a(S'5ht2a'
p19
I1556
I1562
tp20
a(S'5ht2a'
p21
I1773
I1779
tp22
a(S'5ht2a'
p23
I1393
I1399
tp24
a(S'5ht2a'
p25
I82
I88
tp26
a(S'5ht2a'
p27
I526
I532
tp28
a(S'5ht2a'
p29
I860
I866
tp30
a(S'5ht2a'
p31
I392
I398
tp32
a(S'5ht2a'
p33
I978
I984
tp34
atp35
Rp36
sS'raw_text_methods'
p37
g3
((lp38
S"(41, u'\\\\bhaloperidol')"
p39
atp40
Rp41
sS'regions'
p42
g3
((lp43
tp44
Rp45
sS'year'
p46
V2013
p47
sS'species'
p48
g3
((lp49
tp50
Rp51
sb.