(ifile_types
ParseObject
p0
(dp1
S'antagonists'
p2
c__builtin__
set
p3
((lp4
S"(17, u'\\\\bnan ?190')"
p5
aS"(117, u'\\\\bketanserin')"
p6
aS"(33, u'\\\\byohimbine')"
p7
atp8
Rp9
sS'methods'
p10
g3
((lp11
S'Method.ANTAGONIST'
p12
atp13
Rp14
sS'topics'
p15
g3
((lp16
tp17
Rp18
sS'receptors'
p19
g3
((lp20
S'5ht1a'
p21
aS'5ht2c'
p22
aS'5ht2a'
p23
atp24
Rp25
sS'regions'
p26
g3
((lp27
tp28
Rp29
sS'year'
p30
V2009
p31
sS'agonists'
p32
g3
((lp33
S"(210, u'\\\\bsulpiride')"
p34
aS"(82, u'\\\\byohimbine')"
p35
atp36
Rp37
sS'species'
p38
g3
((lp39
S"(5799, u'(?i)\\\\b(rodents|rodent)\\\\b')"
p40
aS"(163, u'(?i)\\\\b(mice|mouse)\\\\b')"
p41
atp42
Rp43
sb.