(ifile_types
ParseObject
p0
(dp1
S'antagonists'
p2
c__builtin__
set
p3
((lp4
S"(21, u'\\\\bpindolol')"
p5
aS"(102, u'\\\\bfluoxetine')"
p6
atp7
Rp8
sS'methods'
p9
g3
((lp10
S'Method.ANTAGONIST'
p11
aS'Method.AGONIST'
p12
atp13
Rp14
sS'topics'
p15
g3
((lp16
tp17
Rp18
sS'receptors'
p19
g3
((lp20
S'5ht1a'
p21
atp22
Rp23
sS'regions'
p24
g3
((lp25
S"(318, u'(?i)(raphes|raphe)(-|\\\\s+)?(nuclei|nucleus)')"
p26
aS"(94, u'(?i)(dorsals|dorsal)(-|\\\\s+)?(raphes|raphe)(-|\\\\s+)?(nuclei|nucleus)')"
p27
aS"(34, u'(?i)(pon|pons)')"
p28
atp29
Rp30
sS'year'
p31
V2004
p32
sS'agonists'
p33
g3
((lp34
tp35
Rp36
sS'species'
p37
g3
((lp38
S"(2323, u'(?i)(bees|bee)')"
p39
aS"(2568, u'(?i)(hens|hen)')"
p40
aS"(468, u'(?i)(oxen|ox)')"
p41
aS"(6249, u'(?i)(ants|ant)')"
p42
aS"(4979, u'(?i)(cats|cat)')"
p43
aS"(5958, u'(?i)(rats|rat)')"
p44
aS"(6356, u'(?i)(ais|ai)')"
p45
atp46
Rp47
sb.