(ifile_types
ParseObject
p0
(dp1
S'antagonists'
p2
c__builtin__
set
p3
((lp4
S"(131, u'\\\\bm1')"
p5
atp6
Rp7
sS'methods'
p8
g3
((lp9
S'Method.AGONIST'
p10
aS'Method.IMMUNOHISTOCHEMISTRY'
p11
aS'Method.ANTAGONIST'
p12
atp13
Rp14
sS'topics'
p15
g3
((lp16
S"(4, u'\\\\blocomot')"
p17
atp18
Rp19
sS'receptors'
p20
g3
((lp21
S'5ht2c'
p22
aS'5ht2'
p23
aS'5ht2a'
p24
atp25
Rp26
sS'regions'
p27
g3
((lp28
S"(223, u'(?i)\\\\b(putamens|putamen)\\\\b')"
p29
aS"(220, u'(?i)\\\\b(striatums|striatum)\\\\b')"
p30
aS"(254, u'(?i)\\\\b(prefrontals|prefrontal)(-|\\\\s+)?(cortexes|cortex)\\\\b')"
p31
aS"(255, u'(?i)\\\\b(pres|pre)(-|\\\\s+)?(frontals|frontal)(-|\\\\s+)?(cortexes|cortex)\\\\b')"
p32
atp33
Rp34
sS'year'
p35
V2012
p36
sS'agonists'
p37
g3
((lp38
S"(166, u'\\\\bmk ?212')"
p39
atp40
Rp41
sS'species'
p42
g3
((lp43
S"(6325, u'(?i)\\\\b(caudates|caudate)\\\\b')"
p44
aS"(5958, u'(?i)\\\\b(rats|rat)\\\\b')"
p45
atp46
Rp47
sb.