(ifile_types
ParseObject
p0
(dp1
S'methods'
p2
c__builtin__
set
p3
((lp4
S'Method.STAINING'
p5
aS'Method.IMMUNOHISTOCHEMISTRY'
p6
aS'Method.ANTAGONIST'
p7
atp8
Rp9
sS'topics'
p10
g3
((lp11
tp12
Rp13
sS'receptors'
p14
g3
((lp15
(S'5ht4a'
p16
I42
I53
tp17
a(S'5ht4'
p18
I1337
I1342
tp19
a(S'5ht4'
p20
I1478
I1483
tp21
a(S'5ht4'
p22
I1900
I1905
tp23
a(S'5ht4'
p24
I629
I634
tp25
a(S'5ht4'
p26
I488
I493
tp27
a(S'5ht4'
p28
I1598
I1603
tp29
a(S'5ht4'
p30
I242
I247
tp31
a(S'5ht4'
p32
I858
I863
tp33
atp34
Rp35
sS'raw_text_methods'
p36
g3
((lp37
S"(12, u'\\\\bantagonist')"
p38
atp39
Rp40
sS'regions'
p41
g3
((lp42
S"(19, u'(?i)\\\\b(cortexes|cortex)\\\\b')"
p43
aS"(8, u'(?i)\\\\b(centrals|central)(-|\\\\s+)?(nervouses|nervous)(-|\\\\s+)?(systems|system)\\\\b')"
p44
aS"(9, u'(?i)\\\\b(cerebellums|cerebellum)\\\\b')"
p45
atp46
Rp47
sS'year'
p48
V2014
p49
sS'species'
p50
g3
((lp51
S"(4, u'(?i)\\\\b(rats|rat)\\\\b')"
p52
atp53
Rp54
sb.