(ifile_types
ParseObject
p0
(dp1
S'antagonists'
p2
c__builtin__
set
p3
((lp4
S"(53, u'\\\\bketanserin')"
p5
aS"(200, u'\\\\bmesulergine')"
p6
aS"(130, u'\\\\britanserin')"
p7
aS"(14, u'\\\\bmethiothepin')"
p8
aS"(105, u'\\\\bmethysergide')"
p9
aS"(128, u'\\\\bketanserin')"
p10
aS"(67, u'\\\\bhaloperidol')"
p11
aS"(54, u'\\\\britanserin')"
p12
aS"(135, u'\\\\bondansetron')"
p13
atp14
Rp15
sS'methods'
p16
g3
((lp17
S'Method.ANTAGONIST'
p18
aS'Method.AGONIST'
p19
atp20
Rp21
sS'topics'
p22
g3
((lp23
tp24
Rp25
sS'receptors'
p26
g3
((lp27
S'5ht3'
p28
aS'5ht2c'
p29
aS'5ht2'
p30
aS'5ht1'
p31
aS'5ht2a'
p32
atp33
Rp34
sS'regions'
p35
g3
((lp36
S"(220, u'(?i)(striatums|striatum)')"
p37
atp38
Rp39
sS'year'
p40
V1997
p41
sS'agonists'
p42
g3
((lp43
S"(171, u'\\\\bmesulergine')"
p44
aS"(48, u'\\\\bhaloperidol')"
p45
aS"(60, u'\\\\bmethysergide')"
p46
aS"(33, u'\\\\bdoi')"
p47
atp48
Rp49
sS'species'
p50
g3
((lp51
S"(6753, u'(?i)(da|das)')"
p52
aS"(5958, u'(?i)(rats|rat)')"
p53
aS"(6356, u'(?i)(ais|ai)')"
p54
aS"(7610, u'(?i)(ernes|erne)')"
p55
aS"(4979, u'(?i)(cats|cat)')"
p56
aS"(6682, u'(?i)(tera|teras)')"
p57
aS"(468, u'(?i)(oxen|ox)')"
p58
aS"(1055, u'(?i)(men|man)')"
p59
aS"(1349, u'(?i)(rams|ram)')"
p60
aS"(4964, u'(?i)(serins|serin)')"
p61
aS"(6249, u'(?i)(ants|ant)')"
p62
aS"(821, u'(?i)(lice|louse)')"
p63
aS"(3812, u'(?i)(studs|stud)')"
p64
aS"(7609, u'(?i)(erns|ern)')"
p65
aS"(1683, u'(?i)(terns|tern)')"
p66
atp67
Rp68
sb.