(ifile_types
ParseObject
p0
(dp1
S'antagonists'
p2
c__builtin__
set
p3
((lp4
tp5
Rp6
sS'methods'
p7
g3
((lp8
S'Method.AGONIST'
p9
atp10
Rp11
sS'topics'
p12
g3
((lp13
S"(35, u'\\\\bstress')"
p14
atp15
Rp16
sS'receptors'
p17
g3
((lp18
S'5ht1a'
p19
atp20
Rp21
sS'regions'
p22
g3
((lp23
S"(362, u'(?i)\\\\b(brains|brain)(-|\\\\s+)?(stems|stem)\\\\b')"
p24
aS"(254, u'(?i)\\\\b(prefrontals|prefrontal)(-|\\\\s+)?(cortexes|cortex)\\\\b')"
p25
aS"(255, u'(?i)\\\\b(pres|pre)(-|\\\\s+)?(frontals|frontal)(-|\\\\s+)?(cortexes|cortex)\\\\b')"
p26
atp27
Rp28
sS'year'
p29
V1995
p30
sS'agonists'
p31
g3
((lp32
S"(85, u'\\\\b8 ?oh ?dpat')"
p33
atp34
Rp35
sS'species'
p36
g3
((lp37
S"(6753, u'(?i)\\\\b(da|das)\\\\b')"
p38
aS"(5967, u'(?i)\\\\b(males|male)\\\\b')"
p39
aS"(1057, u'(?i)\\\\b(humans|human)\\\\b')"
p40
aS"(5958, u'(?i)\\\\b(rats|rat)\\\\b')"
p41
aS"(3196, u'(?i)\\\\b(human|humans)\\\\b')"
p42
atp43
Rp44
sb.