(ifile_types
ParseObject
p0
(dp1
S'methods'
p2
c__builtin__
set
p3
((lp4
tp5
Rp6
sS'topics'
p7
g3
((lp8
S"(29, u'\\\\bhyperactiv')"
p9
atp10
Rp11
sS'receptors'
p12
g3
((lp13
(S'5ht2'
p14
I182
I187
tp15
a(S'5ht2'
p16
I346
I351
tp17
a(S'5ht2'
p18
I24
I29
tp19
a(S'5ht2'
p20
I719
I724
tp21
a(S'5ht2'
p22
I901
I906
tp23
a(S'5ht2'
p24
I389
I394
tp25
atp26
Rp27
sS'raw_text_methods'
p28
g3
((lp29
tp30
Rp31
sS'regions'
p32
g3
((lp33
tp34
Rp35
sS'year'
p36
V2008
p37
sS'species'
p38
g3
((lp39
S"(1, u'(?i)\\\\b(mice|mouse)\\\\b')"
p40
aS"(5, u'(?i)\\\\b(mices|mice)\\\\b')"
p41
atp42
Rp43
sb.