(ifile_types
ParseObject
p0
(dp1
S'antagonists'
p2
c__builtin__
set
p3
((lp4
S"(31, u'\\\\bway ?100635')"
p5
atp6
Rp7
sS'methods'
p8
g3
((lp9
S'Method.STIMULATION'
p10
aS'Method.AGONIST'
p11
aS'Method.IMMUNOHISTOCHEMISTRY'
p12
aS'Method.ANTAGONIST'
p13
atp14
Rp15
sS'topics'
p16
g3
((lp17
S"(12, u'\\\\banxiogen')"
p18
aS"(10, u'\\\\banxiety')"
p19
atp20
Rp21
sS'receptors'
p22
g3
((lp23
S'5ht1a'
p24
atp25
Rp26
sS'regions'
p27
g3
((lp28
S"(94, u'(?i)\\\\b(dorsals|dorsal)(-|\\\\s+)?(raphes|raphe)(-|\\\\s+)?(nuclei|nucleus)\\\\b')"
p29
aS"(318, u'(?i)\\\\b(raphes|raphe)(-|\\\\s+)?(nuclei|nucleus)\\\\b')"
p30
atp31
Rp32
sS'year'
p33
V2016
p34
sS'agonists'
p35
g3
((lp36
S"(85, u'\\\\b8 ?oh ?dpat')"
p37
atp38
Rp39
sS'species'
p40
g3
((lp41
S"(5967, u'(?i)\\\\b(males|male)\\\\b')"
p42
aS"(5958, u'(?i)\\\\b(rats|rat)\\\\b')"
p43
atp44
Rp45
sb.