(ifile_types
ParseObject
p0
(dp1
S'methods'
p2
c__builtin__
set
p3
((lp4
tp5
Rp6
sS'topics'
p7
g3
((lp8
S"(23, u'\\\\bantipsychotic')"
p9
atp10
Rp11
sS'receptors'
p12
g3
((lp13
(S'5ht1a'
p14
I1481
I1487
tp15
a(S'5ht5'
p16
I1452
I1462
tp17
a(S'5ht2a'
p18
I1462
I1468
tp19
a(S'5ht2c'
p20
I1470
I1476
tp21
a(S'5ht2'
p22
I91
I96
tp23
atp24
Rp25
sS'raw_text_methods'
p26
g3
((lp27
S"(18, u'\\\\bimaging')"
p28
atp29
Rp30
sS'regions'
p31
g3
((lp32
S"(20, u'(?i)\\\\b(prefrontals|prefrontal)\\\\b')"
p33
aS"(19, u'(?i)\\\\b(cortexes|cortex)\\\\b')"
p34
atp35
Rp36
sS'year'
p37
V2018
p38
sS'species'
p39
g3
((lp40
S"(4, u'(?i)\\\\b(rats|rat)\\\\b')"
p41
atp42
Rp43
sb.