(ifile_types
ParseObject
p0
(dp1
S'antagonists'
p2
c__builtin__
set
p3
((lp4
S"(67, u'\\\\bhaloperidol')"
p5
aS"(132, u'\\\\bsb ?243213')"
p6
atp7
Rp8
sS'methods'
p9
g3
((lp10
S'Method.AGONIST'
p11
atp12
Rp13
sS'topics'
p14
g3
((lp15
S"(15, u'\\\\bschizophreni')"
p16
aS"(12, u'\\\\banxiogen')"
p17
aS"(11, u'\\\\banxiolyt')"
p18
aS"(10, u'\\\\banxiety')"
p19
atp20
Rp21
sS'receptors'
p22
g3
((lp23
S'5ht2c'
p24
atp25
Rp26
sS'regions'
p27
g3
((lp28
tp29
Rp30
sS'year'
p31
V2001
p32
sS'agonists'
p33
g3
((lp34
S"(48, u'\\\\bhaloperidol')"
p35
aS"(14, u'\\\\bamphetamine')"
p36
atp37
Rp38
sS'species'
p39
g3
((lp40
S"(5799, u'(?i)(rodents|rodent)')"
p41
aS"(2568, u'(?i)(hens|hen)')"
p42
aS"(5743, u'(?i)(bots|bot)')"
p43
aS"(6682, u'(?i)(tera|teras)')"
p44
aS"(468, u'(?i)(oxen|ox)')"
p45
aS"(1055, u'(?i)(men|man)')"
p46
aS"(6249, u'(?i)(ants|ant)')"
p47
aS"(4979, u'(?i)(cats|cat)')"
p48
aS"(5958, u'(?i)(rats|rat)')"
p49
aS"(1057, u'(?i)(humans|human)')"
p50
aS"(3812, u'(?i)(studs|stud)')"
p51
aS"(3196, u'(?i)(human|humans)')"
p52
atp53
Rp54
sb.