(ifile_types
ParseObject
p0
(dp1
S'methods'
p2
c__builtin__
set
p3
((lp4
tp5
Rp6
sS'topics'
p7
g3
((lp8
tp9
Rp10
sS'receptors'
p11
g3
((lp12
(S'5ht1a'
p13
I81
I87
tp14
a(S'5ht1'
p15
I634
I639
tp16
a(S'5ht1a'
p17
I1323
I1329
tp18
a(S'5ht1a'
p19
I115
I121
tp20
a(S'5ht1a'
p21
I1078
I1084
tp22
a(S'5ht1a'
p23
I465
I471
tp24
a(S'5ht1a'
p25
I1286
I1292
tp26
a(S'5ht1a'
p27
I746
I752
tp28
a(S'5ht1a'
p29
I336
I342
tp30
a(S'5ht1a'
p31
I1201
I1207
tp32
a(S'5ht1a'
p33
I831
I837
tp34
a(S'5ht1a'
p35
I1473
I1479
tp36
a(S'5ht1a'
p37
I594
I600
tp38
a(S'5ht1a'
p39
I1006
I1012
tp40
a(S'5ht1a'
p41
I1348
I1354
tp42
a(S'5ht1a'
p43
I568
I574
tp44
a(S'5ht1a'
p45
I772
I778
tp46
a(S'5ht1a'
p47
I311
I317
tp48
atp49
Rp50
sS'raw_text_methods'
p51
g3
((lp52
S"(15, u'\\\\b8ohdpat')"
p53
aS"(54, u'\\\\bautoradiography')"
p54
atp55
Rp56
sS'regions'
p57
g3
((lp58
S"(4, u'(?i)\\\\b(presynaptics|presynaptic)\\\\b')"
p59
aS"(18, u'(?i)\\\\b(putamens|putamen)\\\\b')"
p60
aS"(1, u'(?i)\\\\b(neocortexes|neocortex)\\\\b')"
p61
aS"(3, u'(?i)\\\\b(postsynaptics|postsynaptic)\\\\b')"
p62
aS"(7, u'(?i)\\\\b(entorhinals|entorhinal)\\\\b')"
p63
aS"(19, u'(?i)\\\\b(cortexes|cortex)\\\\b')"
p64
aS"(17, u'(?i)\\\\b(caudates|caudate)\\\\b')"
p65
atp66
Rp67
sS'year'
p68
V1991
p69
sS'species'
p70
g3
((lp71
S"(4, u'(?i)\\\\b(rats|rat)\\\\b')"
p72
atp73
Rp74
sb.