(ifile_types
ParseObject
p0
(dp1
S'antagonists'
p2
c__builtin__
set
p3
((lp4
S"(135, u'\\\\bondansetron')"
p5
atp6
Rp7
sS'methods'
p8
g3
((lp9
S'Method.ANTAGONIST'
p10
atp11
Rp12
sS'topics'
p13
g3
((lp14
S"(29, u'\\\\bsex')"
p15
aS"(21, u'\\\\bpain')"
p16
aS"(24, u'\\\\banalgesi')"
p17
atp18
Rp19
sS'receptors'
p20
g3
((lp21
S'5ht3'
p22
aS'5ht3a'
p23
atp24
Rp25
sS'regions'
p26
g3
((lp27
tp28
Rp29
sS'year'
p30
V2015
p31
sS'agonists'
p32
g3
((lp33
tp34
Rp35
sS'species'
p36
g3
((lp37
S"(2323, u'(?i)(bees|bee)')"
p38
aS"(5958, u'(?i)(rats|rat)')"
p39
aS"(6753, u'(?i)(da|das)')"
p40
aS"(6682, u'(?i)(tera|teras)')"
p41
aS"(1055, u'(?i)(men|man)')"
p42
aS"(6249, u'(?i)(ants|ant)')"
p43
aS"(4979, u'(?i)(cats|cat)')"
p44
aS"(3550, u'(?i)(anis|ani)')"
p45
aS"(7058, u'(?i)(does|doe)')"
p46
aS"(1961, u'(?i)(pens|pen)')"
p47
aS"(3812, u'(?i)(studs|stud)')"
p48
aS"(1628, u'(?i)(cod|cod)')"
p49
aS"(6356, u'(?i)(ais|ai)')"
p50
atp51
Rp52
sb.