(ifile_types
ParseObject
p0
(dp1
S'antagonists'
p2
c__builtin__
set
p3
((lp4
tp5
Rp6
sS'methods'
p7
g3
((lp8
S'Method.ANTAGONIST'
p9
aS'Method.AGONIST'
p10
atp11
Rp12
sS'topics'
p13
g3
((lp14
tp15
Rp16
sS'receptors'
p17
g3
((lp18
S'5ht1c'
p19
aS'5ht1b'
p20
aS'5ht5'
p21
aS'5ht2b'
p22
aS'5ht2'
p23
aS'5ht1e'
p24
aS'5ht1d'
p25
aS'5ht1a'
p26
atp27
Rp28
sS'regions'
p29
g3
((lp30
S"(362, u'(?i)(brains|brain)(-|\\\\s+)?(stems|stem)')"
p31
atp32
Rp33
sS'year'
p34
V1993
p35
sS'agonists'
p36
g3
((lp37
tp38
Rp39
sS'species'
p40
g3
((lp41
S"(1070, u'(?i)(pets|pet)')"
p42
aS"(3404, u'(?i)(titis|titi)')"
p43
aS"(5958, u'(?i)(rats|rat)')"
p44
aS"(867, u'(?i)(tits|tit)')"
p45
aS"(6753, u'(?i)(da|das)')"
p46
aS"(6682, u'(?i)(tera|teras)')"
p47
aS"(3051, u'(?i)(pigs|pig)')"
p48
aS"(468, u'(?i)(oxen|ox)')"
p49
aS"(1055, u'(?i)(men|man)')"
p50
aS"(4604, u'(?i)(mites|mite)')"
p51
aS"(3062, u'(?i)(guineas|guinea)')"
p52
aS"(4979, u'(?i)(cats|cat)')"
p53
aS"(6249, u'(?i)(ants|ant)')"
p54
aS"(6356, u'(?i)(ais|ai)')"
p55
aS"(4480, u'(?i)(guineas|guinea)(-|\\\\s+)?(pigs|pig)')"
p56
aS"(5674, u'(?i)(ewes|ewe)')"
p57
atp58
Rp59
sb.