(ifile_types
ParseObject
p0
(dp1
S'methods'
p2
c__builtin__
set
p3
((lp4
S'Method.ANTAGONIST'
p5
aS'Method.AGONIST'
p6
atp7
Rp8
sS'topics'
p9
g3
((lp10
tp11
Rp12
sS'receptors'
p13
g3
((lp14
(S'5ht6'
p15
I1152
I1157
tp16
a(S'5ht6'
p17
I121
I126
tp18
a(S'5ht6'
p19
I878
I883
tp20
a(S'5ht6'
p21
I292
I297
tp22
atp23
Rp24
sS'raw_text_methods'
p25
g3
((lp26
S"(13, u'\\\\bagonist')"
p27
aS"(12, u'\\\\bantagonist')"
p28
atp29
Rp30
sS'regions'
p31
g3
((lp32
tp33
Rp34
sS'year'
p35
V2006
p36
sS'species'
p37
g3
((lp38
S"(1, u'(?i)\\\\b(mice|mouse)\\\\b')"
p39
atp40
Rp41
sb.