(ifile_types
ParseObject
p0
(dp1
S'antagonists'
p2
c__builtin__
set
p3
((lp4
tp5
Rp6
sS'methods'
p7
g3
((lp8
S'Method.AGONIST'
p9
atp10
Rp11
sS'topics'
p12
g3
((lp13
S"(34, u'\\\\bdementia')"
p14
atp15
Rp16
sS'receptors'
p17
g3
((lp18
S'5ht1a'
p19
atp20
Rp21
sS'regions'
p22
g3
((lp23
S"(364, u'(?i)(middles|middle)(-|\\\\s+)?(cerebrals|cerebral)(-|\\\\s+)?(arteries|artery)')"
p24
atp25
Rp26
sS'year'
p27
V1994
p28
sS'agonists'
p29
g3
((lp30
S"(86, u'\\\\burapidil')"
p31
atp32
Rp33
sS'species'
p34
g3
((lp35
S"(6249, u'(?i)(ants|ant)')"
p36
aS"(4163, u'(?i)(ermines|ermine)')"
p37
aS"(2568, u'(?i)(hens|hen)')"
p38
aS"(5958, u'(?i)(rats|rat)')"
p39
aS"(6753, u'(?i)(da|das)')"
p40
aS"(1266, u'(?i)(embryos|embryo)')"
p41
aS"(5967, u'(?i)(males|male)')"
p42
aS"(468, u'(?i)(oxen|ox)')"
p43
aS"(1055, u'(?i)(men|man)')"
p44
aS"(3726, u'(?i)(mates|mate)')"
p45
aS"(6580, u'(?i)(dams|dam)')"
p46
aS"(5743, u'(?i)(bots|bot)')"
p47
aS"(3550, u'(?i)(anis|ani)')"
p48
aS"(1961, u'(?i)(pens|pen)')"
p49
aS"(3812, u'(?i)(studs|stud)')"
p50
aS"(709, u'(?i)(chicks|chick)')"
p51
aS"(6356, u'(?i)(ais|ai)')"
p52
atp53
Rp54
sb.