(ifile_types
ParseObject
p0
(dp1
S'methods'
p2
c__builtin__
set
p3
((lp4
tp5
Rp6
sS'topics'
p7
g3
((lp8
S"(1, u'\\\\bpatient')"
p9
aS"(7, u'\\\\bdepressi')"
p10
aS"(9, u'\\\\bstress')"
p11
aS"(20, u'\\\\bmood')"
p12
aS"(2, u'\\\\bdisorder')"
p13
atp14
Rp15
sS'receptors'
p16
g3
((lp17
(S'5ht1a'
p18
I1281
I1287
tp19
a(S'5ht1a'
p20
I979
I985
tp21
a(S'5ht2a'
p22
I1307
I1313
tp23
a(S'5ht1a'
p24
I1096
I1102
tp25
atp26
Rp27
sS'raw_text_methods'
p28
g3
((lp29
tp30
Rp31
sS'regions'
p32
g3
((lp33
S"(20, u'(?i)\\\\b(prefrontals|prefrontal)\\\\b')"
p34
aS"(21, u'(?i)\\\\b(mpfcs|mpfc)\\\\b')"
p35
aS"(19, u'(?i)\\\\b(cortexes|cortex)\\\\b')"
p36
aS"(3, u'(?i)\\\\b(postsynaptics|postsynaptic)\\\\b')"
p37
atp38
Rp39
sS'year'
p40
V2002
p41
sS'species'
p42
g3
((lp43
tp44
Rp45
sb.