(ifile_types
ParseObject
p0
(dp1
S'antagonists'
p2
c__builtin__
set
p3
((lp4
tp5
Rp6
sS'methods'
p7
g3
((lp8
tp9
Rp10
sS'topics'
p11
g3
((lp12
S"(1, u'\\\\bmood')"
p13
atp14
Rp15
sS'receptors'
p16
g3
((lp17
S'5ht2a'
p18
atp19
Rp20
sS'regions'
p21
g3
((lp22
S"(227, u'(?i)\\\\b(olfactories|olfactory)(-|\\\\s+)?(tubercles|tubercle)\\\\b')"
p23
aS"(291, u'(?i)\\\\b(cingulates|cingulate)(-|\\\\s+)?(cortexes|cortex)\\\\b')"
p24
aS"(226, u'(?i)\\\\b(nuclei|nucleus)(-|\\\\s+)?(accumben|accumbens)\\\\b')"
p25
atp26
Rp27
sS'year'
p28
V1997
p29
sS'agonists'
p30
g3
((lp31
tp32
Rp33
sS'species'
p34
g3
((lp35
S"(5967, u'(?i)\\\\b(males|male)\\\\b')"
p36
aS"(3858, u'(?i)\\\\b(cobs|cob)\\\\b')"
p37
aS"(5958, u'(?i)\\\\b(rats|rat)\\\\b')"
p38
aS"(6125, u'(?i)\\\\b(females|female)\\\\b')"
p39
atp40
Rp41
sb.