(ifile_types
ParseObject
p0
(dp1
S'antagonists'
p2
c__builtin__
set
p3
((lp4
S"(117, u'\\\\bketanserin')"
p5
atp6
Rp7
sS'methods'
p8
g3
((lp9
tp10
Rp11
sS'topics'
p12
g3
((lp13
tp14
Rp15
sS'receptors'
p16
g3
((lp17
S'5ht1a'
p18
atp19
Rp20
sS'regions'
p21
g3
((lp22
tp23
Rp24
sS'year'
p25
V1987
p26
sS'agonists'
p27
g3
((lp28
S"(20, u'\\\\bbuspirone')"
p29
aS"(149, u'\\\\bmem')"
p30
aS"(85, u'\\\\b8 ?oh ?dpat')"
p31
atp32
Rp33
sS'species'
p34
g3
((lp35
S"(3152, u'(?i)\\\\b(layers|layer)\\\\b')"
p36
aS"(5958, u'(?i)\\\\b(rats|rat)\\\\b')"
p37
atp38
Rp39
sb.