(ifile_types
ParseObject
p0
(dp1
S'antagonists'
p2
c__builtin__
set
p3
((lp4
S"(112, u'\\\\bquetiapine')"
p5
aS"(114, u'\\\\bziprasidone')"
p6
aS"(131, u'\\\\bm1')"
p7
aS"(113, u'\\\\brisperidone')"
p8
aS"(50, u'\\\\bquetiapine')"
p9
aS"(111, u'\\\\bolanzapine')"
p10
aS"(35, u'\\\\baripiprazole')"
p11
atp12
Rp13
sS'methods'
p14
g3
((lp15
S'Method.ANTAGONIST'
p16
atp17
Rp18
sS'topics'
p19
g3
((lp20
S"(15, u'\\\\bschizophreni')"
p21
aS"(6, u'\\\\bcognit')"
p22
aS"(14, u'\\\\bpsychosis')"
p23
aS"(1, u'\\\\bmood')"
p24
atp25
Rp26
sS'receptors'
p27
g3
((lp28
S'5ht1a'
p29
aS'5ht2d'
p30
aS'5ht1d'
p31
aS'5ht2c'
p32
aS'5ht2a'
p33
atp34
Rp35
sS'regions'
p36
g3
((lp37
S"(315, u'(?i)\\\\b(mesolimbics|mesolimbic)(-|\\\\s+)?(pathways|pathway)\\\\b')"
p38
atp39
Rp40
sS'year'
p41
V2003
p42
sS'agonists'
p43
g3
((lp44
S"(57, u'\\\\bolanzapine')"
p45
aS"(64, u'\\\\bquetiapine')"
p46
aS"(223, u'\\\\baripiprazole')"
p47
aS"(84, u'\\\\bziprasidone')"
p48
atp49
Rp50
sS'species'
p51
g3
((lp52
S"(3191, u'(?i)\\\\b(worlds|world)\\\\b')"
p53
aS"(1057, u'(?i)\\\\b(humans|human)\\\\b')"
p54
aS"(3196, u'(?i)\\\\b(human|humans)\\\\b')"
p55
atp56
Rp57
sb.