(ifile_types
ParseObject
p0
(dp1
S'antagonists'
p2
c__builtin__
set
p3
((lp4
S"(134, u'\\\\bgranisetron')"
p5
atp6
Rp7
sS'methods'
p8
g3
((lp9
S'Method.STIMULATION'
p10
aS'Method.ANTAGONIST'
p11
atp12
Rp13
sS'topics'
p14
g3
((lp15
tp16
Rp17
sS'receptors'
p18
g3
((lp19
S'5ht5'
p20
aS'5ht3'
p21
atp22
Rp23
sS'regions'
p24
g3
((lp25
S"(374, u'(?i)(duras|dura)(-|\\\\s+)?(maters|mater)')"
p26
aS"(126, u'(?i)(thalamuses|thalamus)')"
p27
aS"(34, u'(?i)(pon|pons)')"
p28
atp29
Rp30
sS'year'
p31
V2018
p32
sS'agonists'
p33
g3
((lp34
tp35
Rp36
sS'species'
p37
g3
((lp38
S"(6249, u'(?i)(ants|ant)')"
p39
aS"(5626, u'(?i)(posters|poster)')"
p40
aS"(6753, u'(?i)(da|das)')"
p41
aS"(5958, u'(?i)(rats|rat)')"
p42
aS"(4979, u'(?i)(cats|cat)')"
p43
aS"(5967, u'(?i)(males|male)')"
p44
aS"(3592, u'(?i)(ravens|raven)')"
p45
aS"(3726, u'(?i)(mates|mate)')"
p46
aS"(1055, u'(?i)(men|man)')"
p47
aS"(853, u'(?i)(minas|mina)')"
p48
aS"(3550, u'(?i)(anis|ani)')"
p49
aS"(1961, u'(?i)(pens|pen)')"
p50
aS"(6356, u'(?i)(ais|ai)')"
p51
aS"(7058, u'(?i)(does|doe)')"
p52
atp53
Rp54
sb.