(ifile_types
ParseObject
p0
(dp1
S'antagonists'
p2
c__builtin__
set
p3
((lp4
S"(14, u'\\\\bmethiothepin')"
p5
atp6
Rp7
sS'methods'
p8
g3
((lp9
S'Method.ANTAGONIST'
p10
aS'Method.AGONIST'
p11
atp12
Rp13
sS'topics'
p14
g3
((lp15
tp16
Rp17
sS'receptors'
p18
g3
((lp19
S'5ht1a'
p20
aS'5ht5'
p21
aS'5ht2a'
p22
atp23
Rp24
sS'regions'
p25
g3
((lp26
S"(285, u'(?i)(entorhinals|entorhinal)(-|\\\\s+)?(cortexes|cortex)')"
p27
aS"(318, u'(?i)(raphes|raphe)(-|\\\\s+)?(nuclei|nucleus)')"
p28
aS"(94, u'(?i)(dorsals|dorsal)(-|\\\\s+)?(raphes|raphe)(-|\\\\s+)?(nuclei|nucleus)')"
p29
atp30
Rp31
sS'year'
p32
V1997
p33
sS'agonists'
p34
g3
((lp35
S"(92, u'\\\\b8 ?oh ?dpat')"
p36
aS"(155, u'\\\\bmem')"
p37
atp38
Rp39
sS'species'
p40
g3
((lp41
S"(1070, u'(?i)(pets|pet)')"
p42
aS"(5537, u'(?i)(hippos|hippo)')"
p43
aS"(6753, u'(?i)(da|das)')"
p44
aS"(5958, u'(?i)(rats|rat)')"
p45
aS"(867, u'(?i)(tits|tit)')"
p46
aS"(4979, u'(?i)(cats|cat)')"
p47
aS"(4163, u'(?i)(ermines|ermine)')"
p48
aS"(2183, u'(?i)(gars|gar)')"
p49
aS"(1055, u'(?i)(men|man)')"
p50
aS"(3404, u'(?i)(titis|titi)')"
p51
aS"(3812, u'(?i)(studs|stud)')"
p52
aS"(6249, u'(?i)(ants|ant)')"
p53
aS"(6682, u'(?i)(tera|teras)')"
p54
aS"(4371, u'(?i)(lizas|liza)')"
p55
aS"(1414, u'(?i)(chars|char)')"
p56
aS"(4074, u'(?i)(bulls|bull)')"
p57
aS"(6356, u'(?i)(ais|ai)')"
p58
atp59
Rp60
sb.