(ifile_types
ParseObject
p0
(dp1
S'antagonists'
p2
c__builtin__
set
p3
((lp4
tp5
Rp6
sS'methods'
p7
g3
((lp8
S'Method.ANTAGONIST'
p9
aS'Method.AGONIST'
p10
atp11
Rp12
sS'topics'
p13
g3
((lp14
tp15
Rp16
sS'receptors'
p17
g3
((lp18
S'5ht3'
p19
atp20
Rp21
sS'regions'
p22
g3
((lp23
S"(96, u'(?i)\\\\b(ventrals|ventral)(-|\\\\s+)?(tegmentals|tegmental)(-|\\\\s+)?(areas|area)\\\\b')"
p24
aS"(174, u'(?i)\\\\b(posteriors|posterior)\\\\b')"
p25
atp26
Rp27
sS'year'
p28
V2005
p29
sS'agonists'
p30
g3
((lp31
S"(189, u'\\\\bethanol')"
p32
atp33
Rp34
sS'species'
p35
g3
((lp36
S"(6753, u'(?i)\\\\b(da|das)\\\\b')"
p37
aS"(4091, u'(?i)\\\\b(adults|adult)\\\\b')"
p38
aS"(5958, u'(?i)\\\\b(rats|rat)\\\\b')"
p39
aS"(6125, u'(?i)\\\\b(females|female)\\\\b')"
p40
atp41
Rp42
sb.