(ifile_types
ParseObject
p0
(dp1
S'methods'
p2
c__builtin__
set
p3
((lp4
S'Method.AGONIST'
p5
atp6
Rp7
sS'topics'
p8
g3
((lp9
tp10
Rp11
sS'receptors'
p12
g3
((lp13
(S'5ht1a'
p14
I431
I437
tp15
a(S'5ht1a'
p16
I2028
I2034
tp17
a(S'5ht1a'
p18
I1524
I1530
tp19
a(S'5ht1a'
p20
I1262
I1268
tp21
a(S'5ht1a'
p22
I1778
I1784
tp23
a(S'5ht1a'
p24
I639
I645
tp25
a(S'5ht1a'
p26
I1106
I1112
tp27
a(S'5ht1a'
p28
I3581
I3587
tp29
a(S'5ht1a'
p30
I255
I261
tp31
atp32
Rp33
sS'raw_text_methods'
p34
g3
((lp35
S"(13, u'\\\\bagonist')"
p36
atp37
Rp38
sS'regions'
p39
g3
((lp40
S"(11, u'(?i)\\\\b(cerebrals|cerebral)\\\\b')"
p41
atp42
Rp43
sS'year'
p44
V2000
p45
sS'species'
p46
g3
((lp47
S"(4, u'(?i)\\\\b(rats|rat)\\\\b')"
p48
atp49
Rp50
sb.