(ifile_types
ParseObject
p0
(dp1
S'antagonists'
p2
c__builtin__
set
p3
((lp4
S"(6, u'\\\\bcyproheptadine')"
p5
aS"(34, u'\\\\bmetergoline')"
p6
aS"(53, u'\\\\bcyproheptadine')"
p7
aS"(119, u'\\\\britanserin')"
p8
atp9
Rp10
sS'methods'
p11
g3
((lp12
S'Method.ANTAGONIST'
p13
aS'Method.AGONIST'
p14
atp15
Rp16
sS'topics'
p17
g3
((lp18
tp19
Rp20
sS'receptors'
p21
g3
((lp22
S'5ht2c'
p23
aS'5ht2b'
p24
aS'5ht2'
p25
aS'5ht1'
p26
aS'5ht2a'
p27
atp28
Rp29
sS'regions'
p30
g3
((lp31
tp32
Rp33
sS'year'
p34
V2000
p35
sS'agonists'
p36
g3
((lp37
S"(20, u'\\\\bbuspirone')"
p38
atp39
Rp40
sS'species'
p41
g3
((lp42
S"(5958, u'(?i)\\\\b(rats|rat)\\\\b')"
p43
atp44
Rp45
sb.