(ifile_types
ParseObject
p0
(dp1
S'antagonists'
p2
c__builtin__
set
p3
((lp4
tp5
Rp6
sS'methods'
p7
g3
((lp8
tp9
Rp10
sS'topics'
p11
g3
((lp12
tp13
Rp14
sS'receptors'
p15
g3
((lp16
S'5ht4'
p17
atp18
Rp19
sS'regions'
p20
g3
((lp21
S"(227, u'(?i)\\\\b(olfactories|olfactory)(-|\\\\s+)?(tubercles|tubercle)\\\\b')"
p22
aS"(219, u'(?i)\\\\b(basals|basal)(-|\\\\s+)?(ganglias|ganglia)\\\\b')"
p23
aS"(220, u'(?i)\\\\b(striatums|striatum)\\\\b')"
p24
aS"(223, u'(?i)\\\\b(putamens|putamen)\\\\b')"
p25
aS"(225, u'(?i)\\\\b(ventrals|ventral)(-|\\\\s+)?(striatums|striatum)\\\\b')"
p26
aS"(103, u'(?i)\\\\b(substantias|substantia)(-|\\\\s+)?(nigras|nigra)\\\\b')"
p27
atp28
Rp29
sS'year'
p30
V1996
p31
sS'agonists'
p32
g3
((lp33
tp34
Rp35
sS'species'
p36
g3
((lp37
S"(6325, u'(?i)\\\\b(caudates|caudate)\\\\b')"
p38
aS"(5958, u'(?i)\\\\b(rats|rat)\\\\b')"
p39
atp40
Rp41
sb.