(ifile_types
ParseObject
p0
(dp1
S'antagonists'
p2
c__builtin__
set
p3
((lp4
S"(53, u'\\\\bketanserin')"
p5
aS"(128, u'\\\\bketanserin')"
p6
atp7
Rp8
sS'methods'
p9
g3
((lp10
S'Method.ANTAGONIST'
p11
aS'Method.AGONIST'
p12
atp13
Rp14
sS'topics'
p15
g3
((lp16
tp17
Rp18
sS'receptors'
p19
g3
((lp20
S'5ht7'
p21
aS'5ht1a'
p22
aS'5ht3'
p23
aS'5ht2'
p24
aS'5ht5'
p25
aS'5ht4a'
p26
atp27
Rp28
sS'regions'
p29
g3
((lp30
S"(34, u'(?i)(pon|pons)')"
p31
atp32
Rp33
sS'year'
p34
V2005
p35
sS'agonists'
p36
g3
((lp37
tp38
Rp39
sS'species'
p40
g3
((lp41
S"(5958, u'(?i)(rats|rat)')"
p42
aS"(7609, u'(?i)(erns|ern)')"
p43
aS"(7610, u'(?i)(ernes|erne)')"
p44
aS"(4979, u'(?i)(cats|cat)')"
p45
aS"(7552, u'(?i)(bats|bat)')"
p46
aS"(468, u'(?i)(oxen|ox)')"
p47
aS"(1349, u'(?i)(rams|ram)')"
p48
aS"(7094, u'(?i)(curs|cur)')"
p49
aS"(4964, u'(?i)(serins|serin)')"
p50
aS"(6249, u'(?i)(ants|ant)')"
p51
aS"(6356, u'(?i)(ais|ai)')"
p52
aS"(6391, u'(?i)(asses|ass)')"
p53
aS"(5743, u'(?i)(bots|bot)')"
p54
aS"(1683, u'(?i)(terns|tern)')"
p55
aS"(4133, u'(?i)(pikes|pike)')"
p56
atp57
Rp58
sb.