(ifile_types
ParseObject
p0
(dp1
S'methods'
p2
c__builtin__
set
p3
((lp4
S'Method.ANTAGONIST'
p5
aS'Method.AGONIST'
p6
atp7
Rp8
sS'topics'
p9
g3
((lp10
S"(5, u'\\\\btherap')"
p11
aS"(26, u'\\\\bbehav')"
p12
aS"(33, u'\\\\blocomot')"
p13
aS"(29, u'\\\\bhyperactiv')"
p14
atp15
Rp16
sS'receptors'
p17
g3
((lp18
(S'5ht1b'
p19
I950
I956
tp20
a(S'5ht1a'
p21
I871
I877
tp22
a(S'5ht1c'
p23
I1071
I1077
tp24
a(S'5ht1'
p25
I535
I540
tp26
a(S'5ht1b'
p27
I2584
I2590
tp28
a(S'5ht2'
p29
I1078
I1083
tp30
atp31
Rp32
sS'raw_text_methods'
p33
g3
((lp34
S"(13, u'\\\\bagonist')"
p35
aS"(8, u'\\\\bru24969')"
p36
aS"(48, u'\\\\bmdma')"
p37
aS"(12, u'\\\\bantagonist')"
p38
atp39
Rp40
sS'regions'
p41
g3
((lp42
S"(4, u'(?i)\\\\b(presynaptics|presynaptic)\\\\b')"
p43
aS"(23, u'(?i)\\\\b(forebrains|forebrain)\\\\b')"
p44
atp45
Rp46
sS'year'
p47
V1992
p48
sS'species'
p49
g3
((lp50
S"(4, u'(?i)\\\\b(rats|rat)\\\\b')"
p51
atp52
Rp53
sb.