(ifile_types
ParseObject
p0
(dp1
S'antagonists'
p2
c__builtin__
set
p3
((lp4
S"(67, u'\\\\bhaloperidol')"
p5
atp6
Rp7
sS'methods'
p8
g3
((lp9
S'Method.ANTAGONIST'
p10
aS'Method.AGONIST'
p11
atp12
Rp13
sS'topics'
p14
g3
((lp15
S"(4, u'\\\\blocomot')"
p16
atp17
Rp18
sS'receptors'
p19
g3
((lp20
S'5ht1a'
p21
atp22
Rp23
sS'regions'
p24
g3
((lp25
tp26
Rp27
sS'year'
p28
V1993
p29
sS'agonists'
p30
g3
((lp31
S"(48, u'\\\\bhaloperidol')"
p32
atp33
Rp34
sS'species'
p35
g3
((lp36
S"(6753, u'(?i)(da|das)')"
p37
aS"(2568, u'(?i)(hens|hen)')"
p38
aS"(4979, u'(?i)(cats|cat)')"
p39
aS"(1725, u'(?i)(clams|clam)')"
p40
aS"(1055, u'(?i)(men|man)')"
p41
aS"(6249, u'(?i)(ants|ant)')"
p42
aS"(1349, u'(?i)(rams|ram)')"
p43
aS"(5743, u'(?i)(bots|bot)')"
p44
aS"(5958, u'(?i)(rats|rat)')"
p45
aS"(6391, u'(?i)(asses|ass)')"
p46
atp47
Rp48
sb.