(ifile_types
ParseObject
p0
(dp1
S'antagonists'
p2
c__builtin__
set
p3
((lp4
S"(26, u'\\\\bspiperone')"
p5
aS"(91, u'\\\\bfluoxetine')"
p6
aS"(203, u'\\\\btfmpp')"
p7
aS"(117, u'\\\\bketanserin')"
p8
aS"(194, u'\\\\bmethysergide')"
p9
atp10
Rp11
sS'methods'
p12
g3
((lp13
S'Method.AGONIST'
p14
atp15
Rp16
sS'topics'
p17
g3
((lp18
S"(9, u'\\\\bdepress')"
p19
atp20
Rp21
sS'receptors'
p22
g3
((lp23
S'5ht1c'
p24
aS'5ht1b'
p25
aS'5ht1a'
p26
aS'5ht1'
p27
atp28
Rp29
sS'regions'
p30
g3
((lp31
tp32
Rp33
sS'year'
p34
V1991
p35
sS'agonists'
p36
g3
((lp37
S"(178, u'\\\\btfmpp')"
p38
aS"(53, u'\\\\bmethysergide')"
p39
aS"(149, u'\\\\bmem')"
p40
aS"(85, u'\\\\b8 ?oh ?dpat')"
p41
aS"(219, u'\\\\b5 ?ct')"
p42
atp43
Rp44
sS'species'
p45
g3
((lp46
S"(5958, u'(?i)\\\\b(rats|rat)\\\\b')"
p47
atp48
Rp49
sb.