(ifile_types
ParseObject
p0
(dp1
S'methods'
p2
c__builtin__
set
p3
((lp4
S'Method.AGONIST'
p5
atp6
Rp7
sS'topics'
p8
g3
((lp9
S"(22, u'\\\\bschizophreni')"
p10
aS"(19, u'\\\\bpsychosis')"
p11
aS"(2, u'\\\\bdisorder')"
p12
aS"(34, u'\\\\bparkinson')"
p13
aS"(23, u'\\\\bantipsychotic')"
p14
aS"(12, u'\\\\bsleep')"
p15
aS"(4, u'\\\\btreatment')"
p16
aS"(3, u'\\\\bclinical')"
p17
atp18
Rp19
sS'receptors'
p20
g3
((lp21
(S'5ht2a'
p22
I36
I42
tp23
a(S'5ht2a'
p24
I755
I761
tp25
a(S'5ht2a'
p26
I230
I236
tp27
a(S'5ht2a'
p28
I459
I465
tp29
a(S'5ht2a'
p30
I321
I327
tp31
atp32
Rp33
sS'raw_text_methods'
p34
g3
((lp35
S"(13, u'\\\\bagonist')"
p36
aS"(41, u'\\\\bhaloperidol')"
p37
atp38
Rp39
sS'regions'
p40
g3
((lp41
tp42
Rp43
sS'year'
p44
V2006
p45
sS'species'
p46
g3
((lp47
tp48
Rp49
sb.