(ifile_types
ParseObject
p0
(dp1
S'antagonists'
p2
c__builtin__
set
p3
((lp4
S"(117, u'\\\\bketanserin')"
p5
atp6
Rp7
sS'methods'
p8
g3
((lp9
tp10
Rp11
sS'topics'
p12
g3
((lp13
tp14
Rp15
sS'receptors'
p16
g3
((lp17
S'5ht1b'
p18
aS'5ht1d'
p19
atp20
Rp21
sS'regions'
p22
g3
((lp23
S"(227, u'(?i)\\\\b(olfactories|olfactory)(-|\\\\s+)?(tubercles|tubercle)\\\\b')"
p24
aS"(226, u'(?i)\\\\b(nuclei|nucleus)(-|\\\\s+)?(accumben|accumbens)\\\\b')"
p25
aS"(71, u'(?i)\\\\b(cerebellums|cerebellum)\\\\b')"
p26
aS"(209, u'(?i)\\\\b(amygdalas|amygdala)\\\\b')"
p27
aS"(285, u'(?i)\\\\b(entorhinals|entorhinal)(-|\\\\s+)?(cortexes|cortex)\\\\b')"
p28
aS"(220, u'(?i)\\\\b(striatums|striatum)\\\\b')"
p29
aS"(126, u'(?i)\\\\b(thalamuses|thalamus)\\\\b')"
p30
aS"(223, u'(?i)\\\\b(putamens|putamen)\\\\b')"
p31
aS"(103, u'(?i)\\\\b(substantias|substantia)(-|\\\\s+)?(nigras|nigra)\\\\b')"
p32
atp33
Rp34
sS'year'
p35
V1998
p36
sS'agonists'
p37
g3
((lp38
tp39
Rp40
sS'species'
p41
g3
((lp42
S"(4177, u'(?i)\\\\b(grays|gray)\\\\b')"
p43
aS"(6325, u'(?i)\\\\b(caudates|caudate)\\\\b')"
p44
aS"(3051, u'(?i)\\\\b(pigs|pig)\\\\b')"
p45
aS"(4480, u'(?i)\\\\b(guineas|guinea)(-|\\\\s+)?(pigs|pig)\\\\b')"
p46
aS"(3062, u'(?i)\\\\b(guineas|guinea)\\\\b')"
p47
atp48
Rp49
sb.