(ifile_types
ParseObject
p0
(dp1
S'antagonists'
p2
c__builtin__
set
p3
((lp4
tp5
Rp6
sS'methods'
p7
g3
((lp8
S'Method.ANTAGONIST'
p9
aS'Method.AGONIST'
p10
atp11
Rp12
sS'topics'
p13
g3
((lp14
tp15
Rp16
sS'receptors'
p17
g3
((lp18
S'5ht1a'
p19
atp20
Rp21
sS'regions'
p22
g3
((lp23
S"(34, u'(?i)(pon|pons)')"
p24
atp25
Rp26
sS'year'
p27
V1991
p28
sS'agonists'
p29
g3
((lp30
S"(92, u'\\\\b8 ?oh ?dpat')"
p31
aS"(196, u'\\\\bquipazine')"
p32
atp33
Rp34
sS'species'
p35
g3
((lp36
S"(5537, u'(?i)(hippos|hippo)')"
p37
aS"(5958, u'(?i)(rats|rat)')"
p38
aS"(6753, u'(?i)(da|das)')"
p39
aS"(468, u'(?i)(oxen|ox)')"
p40
aS"(6249, u'(?i)(ants|ant)')"
p41
aS"(4979, u'(?i)(cats|cat)')"
p42
aS"(3550, u'(?i)(anis|ani)')"
p43
aS"(3522, u'(?i)(tetras|tetra)')"
p44
aS"(3812, u'(?i)(studs|stud)')"
p45
aS"(6391, u'(?i)(asses|ass)')"
p46
aS"(5949, u'(?i)(dogs|dog)')"
p47
aS"(5568, u'(?i)(hakes|hake)')"
p48
aS"(6356, u'(?i)(ais|ai)')"
p49
aS"(5783, u'(?i)(hinds|hind)')"
p50
atp51
Rp52
sb.