(ifile_types
ParseObject
p0
(dp1
S'antagonists'
p2
c__builtin__
set
p3
((lp4
S"(84, u'\\\\bsb ?206553')"
p5
aS"(131, u'\\\\bm1')"
p6
aS"(113, u'\\\\brisperidone')"
p7
atp8
Rp9
sS'methods'
p10
g3
((lp11
S'Method.ANTAGONIST'
p12
aS'Method.AGONIST'
p13
atp14
Rp15
sS'topics'
p16
g3
((lp17
S"(35, u'\\\\bstress')"
p18
atp19
Rp20
sS'receptors'
p21
g3
((lp22
S'5ht2f'
p23
aS'5ht2b'
p24
aS'5ht2c'
p25
aS'5ht2'
p26
aS'5ht2a'
p27
atp28
Rp29
sS'regions'
p30
g3
((lp31
S"(96, u'(?i)\\\\b(ventrals|ventral)(-|\\\\s+)?(tegmentals|tegmental)(-|\\\\s+)?(areas|area)\\\\b')"
p32
aS"(254, u'(?i)\\\\b(prefrontals|prefrontal)(-|\\\\s+)?(cortexes|cortex)\\\\b')"
p33
aS"(255, u'(?i)\\\\b(pres|pre)(-|\\\\s+)?(frontals|frontal)(-|\\\\s+)?(cortexes|cortex)\\\\b')"
p34
atp35
Rp36
sS'year'
p37
V2006
p38
sS'agonists'
p39
g3
((lp40
S"(175, u'\\\\bdoi')"
p41
atp42
Rp43
sS'species'
p44
g3
((lp45
S"(6753, u'(?i)\\\\b(da|das)\\\\b')"
p46
aS"(5958, u'(?i)\\\\b(rats|rat)\\\\b')"
p47
atp48
Rp49
sb.