(ifile_types
ParseObject
p0
(dp1
S'methods'
p2
c__builtin__
set
p3
((lp4
S'Method.ANTAGONIST'
p5
atp6
Rp7
sS'topics'
p8
g3
((lp9
S"(29, u'\\\\bhyperactiv')"
p10
aS"(15, u'\\\\bmemory')"
p11
aS"(9, u'\\\\bstress')"
p12
aS"(4, u'\\\\btreatment')"
p13
aS"(2, u'\\\\bdisorder')"
p14
atp15
Rp16
sS'receptors'
p17
g3
((lp18
(S'5ht1a'
p19
I1769
I1775
tp20
a(S'5ht1a'
p21
I695
I701
tp22
a(S'5ht1a'
p23
I1116
I1122
tp24
a(S'5ht1a'
p25
I405
I411
tp26
a(S'5ht1a'
p27
I34
I40
tp28
a(S'5ht1a'
p29
I1634
I1640
tp30
atp31
Rp32
sS'raw_text_methods'
p33
g3
((lp34
S"(15, u'\\\\b8ohdpat')"
p35
aS"(38, u'\\\\bssri')"
p36
aS"(51, u'\\\\bway100635')"
p37
aS"(12, u'\\\\bantagonist')"
p38
atp39
Rp40
sS'regions'
p41
g3
((lp42
tp43
Rp44
sS'year'
p45
V2013
p46
sS'species'
p47
g3
((lp48
S"(1, u'(?i)\\\\b(mice|mouse)\\\\b')"
p49
aS"(5, u'(?i)\\\\b(mices|mice)\\\\b')"
p50
atp51
Rp52
sb.