(ifile_types
ParseObject
p0
(dp1
S'antagonists'
p2
c__builtin__
set
p3
((lp4
S"(91, u'\\\\bfluoxetine')"
p5
atp6
Rp7
sS'methods'
p8
g3
((lp9
S'Method.AGONIST'
p10
atp11
Rp12
sS'topics'
p13
g3
((lp14
S"(29, u'\\\\bsex')"
p15
aS"(35, u'\\\\bstress')"
p16
aS"(20, u'\\\\baggressi')"
p17
atp18
Rp19
sS'receptors'
p20
g3
((lp21
S'5ht1a'
p22
atp23
Rp24
sS'regions'
p25
g3
((lp26
tp27
Rp28
sS'year'
p29
V2016
p30
sS'agonists'
p31
g3
((lp32
S"(176, u'\\\\bdom')"
p33
atp34
Rp35
sS'species'
p36
g3
((lp37
S"(5967, u'(?i)\\\\b(males|male)\\\\b')"
p38
aS"(4099, u'(?i)\\\\b(hamsters|hamster)\\\\b')"
p39
aS"(6125, u'(?i)\\\\b(females|female)\\\\b')"
p40
atp41
Rp42
sb.