(ifile_types
ParseObject
p0
(dp1
S'antagonists'
p2
c__builtin__
set
p3
((lp4
S"(53, u'\\\\bketanserin')"
p5
aS"(128, u'\\\\bketanserin')"
p6
aS"(27, u'\\\\bspiperone')"
p7
atp8
Rp9
sS'methods'
p10
g3
((lp11
S'Method.ANTAGONIST'
p12
aS'Method.AGONIST'
p13
atp14
Rp15
sS'topics'
p16
g3
((lp17
tp18
Rp19
sS'receptors'
p20
g3
((lp21
S'5ht5'
p22
aS'5ht3'
p23
aS'5ht2'
p24
aS'5ht1'
p25
atp26
Rp27
sS'regions'
p28
g3
((lp29
S"(34, u'(?i)(pon|pons)')"
p30
atp31
Rp32
sS'year'
p33
V1999
p34
sS'agonists'
p35
g3
((lp36
S"(181, u'\\\\bdom')"
p37
aS"(190, u'\\\\b2 ?methyl ?5 ?ht')"
p38
aS"(155, u'\\\\bmem')"
p39
atp40
Rp41
sS'species'
p42
g3
((lp43
S"(1070, u'(?i)(pets|pet)')"
p44
aS"(6753, u'(?i)(da|das)')"
p45
aS"(5958, u'(?i)(rats|rat)')"
p46
aS"(6356, u'(?i)(ais|ai)')"
p47
aS"(4964, u'(?i)(serins|serin)')"
p48
aS"(1725, u'(?i)(clams|clam)')"
p49
aS"(468, u'(?i)(oxen|ox)')"
p50
aS"(3726, u'(?i)(mates|mate)')"
p51
aS"(6857, u'(?i)(ormers|ormer)')"
p52
aS"(853, u'(?i)(minas|mina)')"
p53
aS"(7094, u'(?i)(curs|cur)')"
p54
aS"(6249, u'(?i)(ants|ant)')"
p55
aS"(204, u'(?i)(moas|moa)')"
p56
aS"(1414, u'(?i)(chars|char)')"
p57
aS"(6391, u'(?i)(asses|ass)')"
p58
aS"(3722, u'(?i)(pups|pup)')"
p59
aS"(6642, u'(?i)(lions|lion)')"
p60
aS"(4979, u'(?i)(cats|cat)')"
p61
atp62
Rp63
sb.