(ifile_types
ParseObject
p0
(dp1
S'antagonists'
p2
c__builtin__
set
p3
((lp4
S"(102, u'\\\\bfluoxetine')"
p5
atp6
Rp7
sS'methods'
p8
g3
((lp9
S'Method.PET'
p10
atp11
Rp12
sS'topics'
p13
g3
((lp14
S"(35, u'\\\\bstress')"
p15
atp16
Rp17
sS'receptors'
p18
g3
((lp19
S'5ht1a'
p20
atp21
Rp22
sS'regions'
p23
g3
((lp24
tp25
Rp26
sS'year'
p27
V2014
p28
sS'agonists'
p29
g3
((lp30
tp31
Rp32
sS'species'
p33
g3
((lp34
S"(2401, u'(?i)(primates|primate)')"
p35
aS"(2183, u'(?i)(gars|gar)')"
p36
aS"(6981, u'(?i)(moths|moth)')"
p37
aS"(3247, u'(?i)(youngs|young)')"
p38
aS"(6249, u'(?i)(ants|ant)')"
p39
aS"(6391, u'(?i)(asses|ass)')"
p40
aS"(3812, u'(?i)(studs|stud)')"
p41
aS"(3196, u'(?i)(human|humans)')"
p42
aS"(4091, u'(?i)(adults|adult)')"
p43
aS"(5967, u'(?i)(males|male)')"
p44
aS"(468, u'(?i)(oxen|ox)')"
p45
aS"(5743, u'(?i)(bots|bot)')"
p46
aS"(3550, u'(?i)(anis|ani)')"
p47
aS"(2809, u'(?i)(toms|tom)')"
p48
aS"(2341, u'(?i)(monkeys|monkey)')"
p49
aS"(5537, u'(?i)(hippos|hippo)')"
p50
aS"(5958, u'(?i)(rats|rat)')"
p51
aS"(7609, u'(?i)(erns|ern)')"
p52
aS"(6682, u'(?i)(tera|teras)')"
p53
aS"(1055, u'(?i)(men|man)')"
p54
aS"(4597, u'(?i)(rhesuses|rhesus)(-|\\\\s+)?(monkeys|monkey)')"
p55
aS"(4979, u'(?i)(cats|cat)')"
p56
aS"(1057, u'(?i)(humans|human)')"
p57
aS"(6356, u'(?i)(ais|ai)')"
p58
aS"(4596, u'(?i)(rhesuses|rhesus)')"
p59
aS"(853, u'(?i)(minas|mina)')"
p60
aS"(3726, u'(?i)(mates|mate)')"
p61
aS"(5917, u'(?i)(roaches|roach)')"
p62
aS"(1683, u'(?i)(terns|tern)')"
p63
atp64
Rp65
sb.