(ifile_types
ParseObject
p0
(dp1
S'methods'
p2
c__builtin__
set
p3
((lp4
tp5
Rp6
sS'topics'
p7
g3
((lp8
tp9
Rp10
sS'receptors'
p11
g3
((lp12
(S'5ht2'
p13
I1544
I1549
tp14
a(S'5ht2'
p15
I413
I418
tp16
a(S'5ht2'
p17
I992
I997
tp18
a(S'5ht2'
p19
I1337
I1342
tp20
a(S'5ht2'
p21
I461
I466
tp22
a(S'5ht2c'
p23
I1919
I1925
tp24
a(S'5ht2'
p25
I1237
I1242
tp26
a(S'5ht2c'
p27
I396
I402
tp28
a(S'5ht2'
p29
I694
I699
tp30
a(S'5ht2'
p31
I1142
I1147
tp32
atp33
Rp34
sS'raw_text_methods'
p35
g3
((lp36
tp37
Rp38
sS'regions'
p39
g3
((lp40
tp41
Rp42
sS'year'
p43
V1996
p44
sS'species'
p45
g3
((lp46
S"(1, u'(?i)\\\\b(mice|mouse)\\\\b')"
p47
aS"(4, u'(?i)\\\\b(rats|rat)\\\\b')"
p48
atp49
Rp50
sb.