(ifile_types
ParseObject
p0
(dp1
S'antagonists'
p2
c__builtin__
set
p3
((lp4
S"(6, u'\\\\bcyproheptadine')"
p5
aS"(53, u'\\\\bcyproheptadine')"
p6
aS"(21, u'\\\\bpindolol')"
p7
aS"(26, u'\\\\bspiperone')"
p8
aS"(117, u'\\\\bketanserin')"
p9
atp10
Rp11
sS'methods'
p12
g3
((lp13
S'Method.ANTAGONIST'
p14
aS'Method.AGONIST'
p15
atp16
Rp17
sS'topics'
p18
g3
((lp19
tp20
Rp21
sS'receptors'
p22
g3
((lp23
S'5ht1c'
p24
aS'5ht1b'
p25
aS'5ht1a'
p26
aS'5ht3'
p27
aS'5ht2'
p28
aS'5ht2a'
p29
atp30
Rp31
sS'regions'
p32
g3
((lp33
tp34
Rp35
sS'year'
p36
V1992
p37
sS'agonists'
p38
g3
((lp39
S"(179, u'\\\\b5 ?meo ?dmt')"
p40
aS"(85, u'\\\\b8 ?oh ?dpat')"
p41
aS"(73, u'\\\\btandospirone')"
p42
aS"(175, u'\\\\bdoi')"
p43
atp44
Rp45
sS'species'
p46
g3
((lp47
S"(4091, u'(?i)\\\\b(adults|adult)\\\\b')"
p48
aS"(5958, u'(?i)\\\\b(rats|rat)\\\\b')"
p49
atp50
Rp51
sb.