(ifile_types
ParseObject
p0
(dp1
S'antagonists'
p2
c__builtin__
set
p3
((lp4
S"(35, u'\\\\baripiprazole')"
p5
aS"(114, u'\\\\bziprasidone')"
p6
aS"(31, u'\\\\bway ?100635')"
p7
atp8
Rp9
sS'methods'
p10
g3
((lp11
S'Method.ANTAGONIST'
p12
aS'Method.AGONIST'
p13
atp14
Rp15
sS'topics'
p16
g3
((lp17
tp18
Rp19
sS'receptors'
p20
g3
((lp21
S'5ht7'
p22
aS'5ht6'
p23
aS'5ht1a'
p24
aS'5ht2c'
p25
aS'5ht2a'
p26
atp27
Rp28
sS'regions'
p29
g3
((lp30
tp31
Rp32
sS'year'
p33
V2007
p34
sS'agonists'
p35
g3
((lp36
S"(20, u'\\\\bbuspirone')"
p37
aS"(223, u'\\\\baripiprazole')"
p38
aS"(149, u'\\\\bmem')"
p39
aS"(84, u'\\\\bziprasidone')"
p40
atp41
Rp42
sS'species'
p43
g3
((lp44
S"(1057, u'(?i)\\\\b(humans|human)\\\\b')"
p45
aS"(5958, u'(?i)\\\\b(rats|rat)\\\\b')"
p46
aS"(3196, u'(?i)\\\\b(human|humans)\\\\b')"
p47
atp48
Rp49
sb.