(ifile_types
ParseObject
p0
(dp1
S'antagonists'
p2
c__builtin__
set
p3
((lp4
S"(42, u'\\\\bvortioxetine')"
p5
atp6
Rp7
sS'methods'
p8
g3
((lp9
S'Method.ANTAGONIST'
p10
aS'Method.AGONIST'
p11
atp12
Rp13
sS'topics'
p14
g3
((lp15
S"(6, u'\\\\bcognit')"
p16
aS"(9, u'\\\\bdepress')"
p17
atp18
Rp19
sS'receptors'
p20
g3
((lp21
S'5ht7'
p22
aS'5ht1b'
p23
aS'5ht1a'
p24
aS'5ht3'
p25
aS'5ht1d'
p26
atp27
Rp28
sS'regions'
p29
g3
((lp30
S"(254, u'(?i)\\\\b(prefrontals|prefrontal)(-|\\\\s+)?(cortexes|cortex)\\\\b')"
p31
aS"(255, u'(?i)\\\\b(pres|pre)(-|\\\\s+)?(frontals|frontal)(-|\\\\s+)?(cortexes|cortex)\\\\b')"
p32
atp33
Rp34
sS'year'
p35
V2017
p36
sS'agonists'
p37
g3
((lp38
S"(94, u'\\\\bvortioxetine')"
p39
atp40
Rp41
sS'species'
p42
g3
((lp43
S"(5958, u'(?i)\\\\b(rats|rat)\\\\b')"
p44
atp45
Rp46
sb.