(ifile_types
ParseObject
p0
(dp1
S'antagonists'
p2
c__builtin__
set
p3
((lp4
tp5
Rp6
sS'methods'
p7
g3
((lp8
S'Method.AGONIST'
p9
atp10
Rp11
sS'topics'
p12
g3
((lp13
S"(31, u'\\\\bobesity')"
p14
aS"(15, u'\\\\bschizophreni')"
p15
aS"(9, u'\\\\bdepress')"
p16
atp17
Rp18
sS'receptors'
p19
g3
((lp20
S'5ht5'
p21
aS'5ht2c'
p22
atp23
Rp24
sS'regions'
p25
g3
((lp26
tp27
Rp28
sS'year'
p29
V2005
p30
sS'agonists'
p31
g3
((lp32
S"(196, u'\\\\bquipazine')"
p33
aS"(33, u'\\\\bdoi')"
p34
atp35
Rp36
sS'species'
p37
g3
((lp38
S"(2670, u'(?i)(arabs|arab)')"
p39
aS"(2568, u'(?i)(hens|hen)')"
p40
aS"(7609, u'(?i)(erns|ern)')"
p41
aS"(867, u'(?i)(tits|tit)')"
p42
aS"(4979, u'(?i)(cats|cat)')"
p43
aS"(479, u'(?i)(lings|ling)')"
p44
aS"(468, u'(?i)(oxen|ox)')"
p45
aS"(3812, u'(?i)(studs|stud)')"
p46
aS"(4099, u'(?i)(hamsters|hamster)')"
p47
aS"(3550, u'(?i)(anis|ani)')"
p48
aS"(5229, u'(?i)(moles|mole)')"
p49
aS"(1961, u'(?i)(pens|pen)')"
p50
aS"(1414, u'(?i)(chars|char)')"
p51
aS"(5743, u'(?i)(bots|bot)')"
p52
aS"(6356, u'(?i)(ais|ai)')"
p53
atp54
Rp55
sb.