(ifile_types
ParseObject
p0
(dp1
S'antagonists'
p2
c__builtin__
set
p3
((lp4
S"(32, u'\\\\bway ?100635')"
p5
aS"(21, u'\\\\bpindolol')"
p6
aS"(57, u'\\\\bolanzapine')"
p7
aS"(41, u'\\\\bziprasidone')"
p8
aS"(124, u'\\\\bolanzapine')"
p9
aS"(61, u'\\\\bmdl ?100907')"
p10
atp11
Rp12
sS'methods'
p13
g3
((lp14
tp15
Rp16
sS'topics'
p17
g3
((lp18
tp19
Rp20
sS'receptors'
p21
g3
((lp22
S'5ht1a'
p23
aS'5ht5'
p24
aS'5ht1'
p25
aS'5ht2a'
p26
atp27
Rp28
sS'regions'
p29
g3
((lp30
tp31
Rp32
sS'year'
p33
V2017
p34
sS'agonists'
p35
g3
((lp36
S"(91, u'\\\\bziprasidone')"
p37
aS"(64, u'\\\\bolanzapine')"
p38
atp39
Rp40
sS'species'
p41
g3
((lp42
S"(2670, u'(?i)(arabs|arab)')"
p43
aS"(2568, u'(?i)(hens|hen)')"
p44
aS"(5958, u'(?i)(rats|rat)')"
p45
aS"(5743, u'(?i)(bots|bot)')"
p46
aS"(6682, u'(?i)(tera|teras)')"
p47
aS"(6249, u'(?i)(ants|ant)')"
p48
aS"(468, u'(?i)(oxen|ox)')"
p49
aS"(1055, u'(?i)(men|man)')"
p50
aS"(6215, u'(?i)(racers|racer)')"
p51
aS"(1054, u'(?i)(homoes|homo)')"
p52
aS"(4979, u'(?i)(cats|cat)')"
p53
aS"(3550, u'(?i)(anis|ani)')"
p54
aS"(663, u'(?i)(cocks|cock)')"
p55
aS"(3812, u'(?i)(studs|stud)')"
p56
aS"(6391, u'(?i)(asses|ass)')"
p57
aS"(6356, u'(?i)(ais|ai)')"
p58
atp59
Rp60
sb.