(ifile_types
ParseObject
p0
(dp1
S'antagonists'
p2
c__builtin__
set
p3
((lp4
S"(17, u'\\\\bnan ?190')"
p5
atp6
Rp7
sS'methods'
p8
g3
((lp9
S'Method.ANTAGONIST'
p10
aS'Method.AGONIST'
p11
atp12
Rp13
sS'topics'
p14
g3
((lp15
S"(3, u'\\\\bsleep')"
p16
atp17
Rp18
sS'receptors'
p19
g3
((lp20
S'5ht1a'
p21
atp22
Rp23
sS'regions'
p24
g3
((lp25
S"(158, u'(?i)\\\\b(suprachiasmatics|suprachiasmatic)(-|\\\\s+)?(nuclei|nucleus)\\\\b')"
p26
atp27
Rp28
sS'year'
p29
V2008
p30
sS'agonists'
p31
g3
((lp32
tp33
Rp34
sS'species'
p35
g3
((lp36
S"(7540, u'(?i)\\\\b(mammalians|mammalian)\\\\b')"
p37
aS"(4099, u'(?i)\\\\b(hamsters|hamster)\\\\b')"
p38
aS"(1949, u'(?i)\\\\b(pacemakers|pacemaker)\\\\b')"
p39
atp40
Rp41
sb.