(ifile_types
ParseObject
p0
(dp1
S'antagonists'
p2
c__builtin__
set
p3
((lp4
S"(135, u'\\\\bondansetron')"
p5
atp6
Rp7
sS'methods'
p8
g3
((lp9
S'Method.ANTAGONIST'
p10
aS'Method.AGONIST'
p11
atp12
Rp13
sS'topics'
p14
g3
((lp15
S"(35, u'\\\\bstress')"
p16
atp17
Rp18
sS'receptors'
p19
g3
((lp20
S'5ht3a'
p21
aS'5ht3'
p22
atp23
Rp24
sS'regions'
p25
g3
((lp26
S"(34, u'(?i)(pon|pons)')"
p27
atp28
Rp29
sS'year'
p30
V2011
p31
sS'agonists'
p32
g3
((lp33
tp34
Rp35
sS'species'
p36
g3
((lp37
S"(2323, u'(?i)(bees|bee)')"
p38
aS"(2568, u'(?i)(hens|hen)')"
p39
aS"(6753, u'(?i)(da|das)')"
p40
aS"(6249, u'(?i)(ants|ant)')"
p41
aS"(4979, u'(?i)(cats|cat)')"
p42
aS"(5958, u'(?i)(rats|rat)')"
p43
aS"(1961, u'(?i)(pens|pen)')"
p44
aS"(3812, u'(?i)(studs|stud)')"
p45
aS"(6356, u'(?i)(ais|ai)')"
p46
atp47
Rp48
sb.