(ifile_types
ParseObject
p0
(dp1
S'antagonists'
p2
c__builtin__
set
p3
((lp4
tp5
Rp6
sS'methods'
p7
g3
((lp8
tp9
Rp10
sS'topics'
p11
g3
((lp12
S"(1, u'\\\\bmood')"
p13
aS"(4, u'\\\\blocomot')"
p14
aS"(9, u'\\\\bdepress')"
p15
aS"(7, u'\\\\bmemory')"
p16
aS"(8, u'\\\\blearning')"
p17
aS"(10, u'\\\\banxiety')"
p18
atp19
Rp20
sS'receptors'
p21
g3
((lp22
S'5ht1a'
p23
atp24
Rp25
sS'regions'
p26
g3
((lp27
S"(318, u'(?i)\\\\b(raphes|raphe)(-|\\\\s+)?(nuclei|nucleus)\\\\b')"
p28
atp29
Rp30
sS'year'
p31
V2015
p32
sS'agonists'
p33
g3
((lp34
S"(149, u'\\\\bmem')"
p35
atp36
Rp37
sS'species'
p38
g3
((lp39
S"(4091, u'(?i)\\\\b(adults|adult)\\\\b')"
p40
aS"(163, u'(?i)\\\\b(mice|mouse)\\\\b')"
p41
atp42
Rp43
sb.