(ifile_types
ParseObject
p0
(dp1
S'antagonists'
p2
c__builtin__
set
p3
((lp4
S"(209, u'\\\\btfmpp')"
p5
atp6
Rp7
sS'methods'
p8
g3
((lp9
S'Method.AGONIST'
p10
atp11
Rp12
sS'topics'
p13
g3
((lp14
tp15
Rp16
sS'receptors'
p17
g3
((lp18
S'5ht1b'
p19
aS'5ht5'
p20
aS'5ht1a'
p21
atp22
Rp23
sS'regions'
p24
g3
((lp25
S"(362, u'(?i)(brains|brain)(-|\\\\s+)?(stems|stem)')"
p26
atp27
Rp28
sS'year'
p29
V1989
p30
sS'agonists'
p31
g3
((lp32
S"(161, u'\\\\bmcpp')"
p33
aS"(83, u'\\\\btrifluoromethylphenylpiperazine')"
p34
aS"(92, u'\\\\b8 ?oh ?dpat')"
p35
aS"(183, u'\\\\btfmpp')"
p36
atp37
Rp38
sS'species'
p39
g3
((lp40
S"(2323, u'(?i)(bees|bee)')"
p41
aS"(2568, u'(?i)(hens|hen)')"
p42
aS"(7609, u'(?i)(erns|ern)')"
p43
aS"(4163, u'(?i)(ermines|ermine)')"
p44
aS"(468, u'(?i)(oxen|ox)')"
p45
aS"(1055, u'(?i)(men|man)')"
p46
aS"(6249, u'(?i)(ants|ant)')"
p47
aS"(5743, u'(?i)(bots|bot)')"
p48
aS"(3550, u'(?i)(anis|ani)')"
p49
aS"(3522, u'(?i)(tetras|tetra)')"
p50
aS"(7094, u'(?i)(curs|cur)')"
p51
aS"(1961, u'(?i)(pens|pen)')"
p52
aS"(3812, u'(?i)(studs|stud)')"
p53
aS"(7610, u'(?i)(ernes|erne)')"
p54
aS"(6356, u'(?i)(ais|ai)')"
p55
atp56
Rp57
sb.