(ifile_types
ParseObject
p0
(dp1
S'methods'
p2
c__builtin__
set
p3
((lp4
S'Method.ANTAGONIST'
p5
aS'Method.AGONIST'
p6
atp7
Rp8
sS'topics'
p9
g3
((lp10
S"(23, u'\\\\bantipsychotic')"
p11
atp12
Rp13
sS'receptors'
p14
g3
((lp15
(S'5ht7'
p16
I1720
I1725
tp17
a(S'5ht1'
p18
I1150
I1155
tp19
a(S'5ht6'
p20
I1775
I1780
tp21
a(S'5ht1a'
p22
I2087
I2093
tp23
a(S'5ht1a'
p24
I87
I93
tp25
a(S'5ht2a'
p26
I1633
I1639
tp27
a(S'5ht2c'
p28
I1691
I1697
tp29
a(S'5ht1'
p30
I966
I971
tp31
a(S'5ht6'
p32
I932
I937
tp33
a(S'5ht2'
p34
I1891
I1896
tp35
a(S'5ht2a'
p36
I98
I104
tp37
a(S'5ht1a'
p38
I1447
I1453
tp39
atp40
Rp41
sS'raw_text_methods'
p42
g3
((lp43
S"(13, u'\\\\bagonist')"
p44
aS"(51, u'\\\\bway100635')"
p45
aS"(22, u'\\\\bbuspirone')"
p46
aS"(12, u'\\\\bantagonist')"
p47
atp48
Rp49
sS'regions'
p50
g3
((lp51
S"(19, u'(?i)\\\\b(cortexes|cortex)\\\\b')"
p52
atp53
Rp54
sS'year'
p55
V2007
p56
sS'species'
p57
g3
((lp58
S"(4, u'(?i)\\\\b(rats|rat)\\\\b')"
p59
atp60
Rp61
sb.