(ifile_types
ParseObject
p0
(dp1
S'methods'
p2
c__builtin__
set
p3
((lp4
S'Method.AGONIST'
p5
atp6
Rp7
sS'topics'
p8
g3
((lp9
S"(24, u'\\\\banxiolytic')"
p10
aS"(26, u'\\\\bbehav')"
p11
aS"(2, u'\\\\bdisorder')"
p12
aS"(8, u'\\\\banxi')"
p13
aS"(1, u'\\\\bpatient')"
p14
aS"(4, u'\\\\btreatment')"
p15
atp16
Rp17
sS'receptors'
p18
g3
((lp19
(S'5ht1a'
p20
I365
I371
tp21
atp22
Rp23
sS'raw_text_methods'
p24
g3
((lp25
S"(13, u'\\\\bagonist')"
p26
aS"(22, u'\\\\bbuspirone')"
p27
atp28
Rp29
sS'regions'
p30
g3
((lp31
tp32
Rp33
sS'year'
p34
V1991
p35
sS'species'
p36
g3
((lp37
tp38
Rp39
sb.