(ifile_types
ParseObject
p0
(dp1
S'antagonists'
p2
c__builtin__
set
p3
((lp4
S"(30, u'\\\\buh ?301')"
p5
atp6
Rp7
sS'methods'
p8
g3
((lp9
S'Method.ANTAGONIST'
p10
aS'Method.AGONIST'
p11
atp12
Rp13
sS'topics'
p14
g3
((lp15
S"(15, u'\\\\bschizophreni')"
p16
aS"(18, u'\\\\bpsychostim')"
p17
atp18
Rp19
sS'receptors'
p20
g3
((lp21
S'5ht1a'
p22
atp23
Rp24
sS'regions'
p25
g3
((lp26
S"(34, u'(?i)(pon|pons)')"
p27
atp28
Rp29
sS'year'
p30
V2006
p31
sS'agonists'
p32
g3
((lp33
S"(92, u'\\\\b8 ?oh ?dpat')"
p34
aS"(14, u'\\\\bamphetamine')"
p35
atp36
Rp37
sS'species'
p38
g3
((lp39
S"(1070, u'(?i)(pets|pet)')"
p40
aS"(5799, u'(?i)(rodents|rodent)')"
p41
aS"(2568, u'(?i)(hens|hen)')"
p42
aS"(867, u'(?i)(tits|tit)')"
p43
aS"(6753, u'(?i)(da|das)')"
p44
aS"(479, u'(?i)(lings|ling)')"
p45
aS"(1885, u'(?i)(apars|apar)')"
p46
aS"(5967, u'(?i)(males|male)')"
p47
aS"(3404, u'(?i)(titis|titi)')"
p48
aS"(6249, u'(?i)(ants|ant)')"
p49
aS"(2942, u'(?i)(daws|daw)')"
p50
aS"(5958, u'(?i)(rats|rat)')"
p51
aS"(3812, u'(?i)(studs|stud)')"
p52
aS"(6356, u'(?i)(ais|ai)')"
p53
atp54
Rp55
sb.