(ifile_types
ParseObject
p0
(dp1
S'methods'
p2
c__builtin__
set
p3
((lp4
tp5
Rp6
sS'topics'
p7
g3
((lp8
S"(35, u'\\\\bnocicept')"
p9
atp10
Rp11
sS'receptors'
p12
g3
((lp13
(S'5ht3'
p14
I34
I39
tp15
a(S'5ht3'
p16
I603
I608
tp17
a(S'5ht3'
p18
I1548
I1553
tp19
a(S'5ht3'
p20
I580
I585
tp21
a(S'5ht3'
p22
I519
I524
tp23
a(S'5ht3'
p24
I1141
I1146
tp25
a(S'5ht3'
p26
I727
I732
tp27
atp28
Rp29
sS'raw_text_methods'
p30
g3
((lp31
tp32
Rp33
sS'regions'
p34
g3
((lp35
tp36
Rp37
sS'year'
p38
V2017
p39
sS'species'
p40
g3
((lp41
S"(1, u'(?i)\\\\b(mice|mouse)\\\\b')"
p42
aS"(5, u'(?i)\\\\b(mices|mice)\\\\b')"
p43
atp44
Rp45
sb.