(ifile_types
ParseObject
p0
(dp1
S'methods'
p2
c__builtin__
set
p3
((lp4
S'Method.IMMUNOHISTOCHEMISTRY'
p5
atp6
Rp7
sS'topics'
p8
g3
((lp9
tp10
Rp11
sS'receptors'
p12
g3
((lp13
(S'5ht3'
p14
I1240
I1245
tp15
a(S'5ht2a'
p16
I983
I989
tp17
a(S'5ht2a'
p18
I733
I739
tp19
atp20
Rp21
sS'raw_text_methods'
p22
g3
((lp23
tp24
Rp25
sS'regions'
p26
g3
((lp27
S"(11, u'(?i)\\\\b(cerebrals|cerebral)\\\\b')"
p28
aS"(19, u'(?i)\\\\b(cortexes|cortex)\\\\b')"
p29
aS"(3, u'(?i)\\\\b(postsynaptics|postsynaptic)\\\\b')"
p30
atp31
Rp32
sS'year'
p33
V1999
p34
sS'species'
p35
g3
((lp36
S"(4, u'(?i)\\\\b(rats|rat)\\\\b')"
p37
atp38
Rp39
sb.