(ifile_types
ParseObject
p0
(dp1
S'methods'
p2
c__builtin__
set
p3
((lp4
S'Method.AGONIST'
p5
atp6
Rp7
sS'topics'
p8
g3
((lp9
S"(4, u'\\\\btreatment')"
p10
atp11
Rp12
sS'receptors'
p13
g3
((lp14
(S'5ht2a'
p15
I1369
I1375
tp16
a(S'5ht2'
p17
I88
I93
tp18
a(S'5ht2a'
p19
I962
I968
tp20
a(S'5ht2a'
p21
I750
I756
tp22
a(S'5ht2a'
p23
I483
I489
tp24
a(S'5ht2a'
p25
I320
I326
tp26
a(S'5ht2a'
p27
I403
I409
tp28
a(S'5ht2c'
p29
I490
I496
tp30
a(S'5ht2a'
p31
I80
I86
tp32
a(S'5ht2a'
p33
I626
I632
tp34
atp35
Rp36
sS'raw_text_methods'
p37
g3
((lp38
S"(13, u'\\\\bagonist')"
p39
atp40
Rp41
sS'regions'
p42
g3
((lp43
tp44
Rp45
sS'year'
p46
V1995
p47
sS'species'
p48
g3
((lp49
tp50
Rp51
sb.