(ifile_types
ParseObject
p0
(dp1
S'antagonists'
p2
c__builtin__
set
p3
((lp4
tp5
Rp6
sS'methods'
p7
g3
((lp8
S'Method.AGONIST'
p9
atp10
Rp11
sS'topics'
p12
g3
((lp13
S"(8, u'\\\\blearning')"
p14
aS"(7, u'\\\\bmemory')"
p15
atp16
Rp17
sS'receptors'
p18
g3
((lp19
S'5ht1b'
p20
aS'5ht1d'
p21
atp22
Rp23
sS'regions'
p24
g3
((lp25
tp26
Rp27
sS'year'
p28
V2016
p29
sS'agonists'
p30
g3
((lp31
S"(155, u'\\\\bmem')"
p32
aS"(112, u'\\\\b5 ?nonyloxytryptamine')"
p33
atp34
Rp35
sS'species'
p36
g3
((lp37
S"(2323, u'(?i)(bees|bee)')"
p38
aS"(4624, u'(?i)(apes|ape)')"
p39
aS"(6753, u'(?i)(da|das)')"
p40
aS"(5958, u'(?i)(rats|rat)')"
p41
aS"(6356, u'(?i)(ais|ai)')"
p42
aS"(163, u'(?i)(mice|mouse)')"
p43
aS"(7539, u'(?i)(mammals|mammal)')"
p44
aS"(4091, u'(?i)(adults|adult)')"
p45
aS"(468, u'(?i)(oxen|ox)')"
p46
aS"(1055, u'(?i)(men|man)')"
p47
aS"(6249, u'(?i)(ants|ant)')"
p48
aS"(3812, u'(?i)(studs|stud)')"
p49
aS"(3550, u'(?i)(anis|ani)')"
p50
aS"(7094, u'(?i)(curs|cur)')"
p51
aS"(5229, u'(?i)(moles|mole)')"
p52
aS"(1961, u'(?i)(pens|pen)')"
p53
aS"(1414, u'(?i)(chars|char)')"
p54
aS"(6391, u'(?i)(asses|ass)')"
p55
aS"(7540, u'(?i)(mammalians|mammalian)')"
p56
aS"(4979, u'(?i)(cats|cat)')"
p57
atp58
Rp59
sb.