(ifile_types
ParseObject
p0
(dp1
S'antagonists'
p2
c__builtin__
set
p3
((lp4
tp5
Rp6
sS'methods'
p7
g3
((lp8
S'Method.AGONIST'
p9
atp10
Rp11
sS'topics'
p12
g3
((lp13
tp14
Rp15
sS'receptors'
p16
g3
((lp17
S'5ht1a'
p18
atp19
Rp20
sS'regions'
p21
g3
((lp22
S"(362, u'(?i)\\\\b(brains|brain)(-|\\\\s+)?(stems|stem)\\\\b')"
p23
atp24
Rp25
sS'year'
p26
V1993
p27
sS'agonists'
p28
g3
((lp29
S"(20, u'\\\\bbuspirone')"
p30
aS"(189, u'\\\\bethanol')"
p31
atp32
Rp33
sS'species'
p34
g3
((lp35
S"(3248, u'(?i)\\\\b(offspring|offspring)\\\\b')"
p36
aS"(5958, u'(?i)\\\\b(rats|rat)\\\\b')"
p37
aS"(6125, u'(?i)\\\\b(females|female)\\\\b')"
p38
atp39
Rp40
sb.