(ifile_types
ParseObject
p0
(dp1
S'methods'
p2
c__builtin__
set
p3
((lp4
S'Method.IMMUNOHISTOCHEMISTRY'
p5
atp6
Rp7
sS'topics'
p8
g3
((lp9
S"(23, u'\\\\bantipsychotic')"
p10
aS"(4, u'\\\\btreatment')"
p11
aS"(34, u'\\\\bparkinson')"
p12
atp13
Rp14
sS'receptors'
p15
g3
((lp16
(S'5ht2a'
p17
I500
I506
tp18
a(S'5ht2a'
p19
I660
I666
tp20
a(S'5ht2a'
p21
I597
I603
tp22
a(S'5ht2a'
p23
I741
I747
tp24
a(S'5ht2'
p25
I914
I919
tp26
a(S'5ht2a'
p27
I1400
I1406
tp28
a(S'5ht2'
p29
I1127
I1132
tp30
a(S'5ht2a'
p31
I1224
I1230
tp32
a(S'5ht2a'
p33
I54
I60
tp34
a(S'5ht2'
p35
I948
I953
tp36
atp37
Rp38
sS'raw_text_methods'
p39
g3
((lp40
S"(3, u'\\\\bimmunoreactiv')"
p41
atp42
Rp43
sS'regions'
p44
g3
((lp45
S"(19, u'(?i)\\\\b(cortexes|cortex)\\\\b')"
p46
atp47
Rp48
sS'year'
p49
V2001
p50
sS'species'
p51
g3
((lp52
S"(4, u'(?i)\\\\b(rats|rat)\\\\b')"
p53
atp54
Rp55
sb.