(ifile_types
ParseObject
p0
(dp1
S'methods'
p2
c__builtin__
set
p3
((lp4
S'Method.PET'
p5
aS'Method.ANTAGONIST'
p6
atp7
Rp8
sS'topics'
p9
g3
((lp10
S"(22, u'\\\\bschizophreni')"
p11
aS"(1, u'\\\\bpatient')"
p12
aS"(23, u'\\\\bantipsychotic')"
p13
aS"(4, u'\\\\btreatment')"
p14
aS"(3, u'\\\\bclinical')"
p15
atp16
Rp17
sS'receptors'
p18
g3
((lp19
(S'5ht2a'
p20
I2262
I2267
tp21
a(S'5ht2a'
p22
I2227
I2232
tp23
a(S'5ht2a'
p24
I2369
I2374
tp25
atp26
Rp27
sS'raw_text_methods'
p28
g3
((lp29
S"(17, u'\\\\bpet')"
p30
aS"(18, u'\\\\bimaging')"
p31
aS"(12, u'\\\\bantagonist')"
p32
atp33
Rp34
sS'regions'
p35
g3
((lp36
S"(17, u'(?i)\\\\b(caudates|caudate)\\\\b')"
p37
aS"(18, u'(?i)\\\\b(putamens|putamen)\\\\b')"
p38
atp39
Rp40
sS'year'
p41
V1995
p42
sS'species'
p43
g3
((lp44
tp45
Rp46
sb.