(ifile_types
ParseObject
p0
(dp1
S'antagonists'
p2
c__builtin__
set
p3
((lp4
S"(157, u'\\\\bsb ?699551')"
p5
aS"(31, u'\\\\bway ?100635')"
p6
atp7
Rp8
sS'methods'
p9
g3
((lp10
S'Method.ANTAGONIST'
p11
atp12
Rp13
sS'topics'
p14
g3
((lp15
S"(9, u'\\\\bdepress')"
p16
atp17
Rp18
sS'receptors'
p19
g3
((lp20
S'5ht7'
p21
aS'5ht1b'
p22
aS'5ht1a'
p23
aS'5ht2c'
p24
aS'5ht2a'
p25
aS'5ht1d'
p26
aS'5ht5a'
p27
atp28
Rp29
sS'regions'
p30
g3
((lp31
tp32
Rp33
sS'year'
p34
V2006
p35
sS'agonists'
p36
g3
((lp37
S"(149, u'\\\\bmem')"
p38
aS"(219, u'\\\\b5 ?ct')"
p39
atp40
Rp41
sS'species'
p42
g3
((lp43
S"(3196, u'(?i)\\\\b(human|humans)\\\\b')"
p44
aS"(1057, u'(?i)\\\\b(humans|human)\\\\b')"
p45
aS"(3051, u'(?i)\\\\b(pigs|pig)\\\\b')"
p46
aS"(4480, u'(?i)\\\\b(guineas|guinea)(-|\\\\s+)?(pigs|pig)\\\\b')"
p47
aS"(3062, u'(?i)\\\\b(guineas|guinea)\\\\b')"
p48
atp49
Rp50
sb.