(ifile_types
ParseObject
p0
(dp1
S'antagonists'
p2
c__builtin__
set
p3
((lp4
tp5
Rp6
sS'methods'
p7
g3
((lp8
tp9
Rp10
sS'topics'
p11
g3
((lp12
tp13
Rp14
sS'receptors'
p15
g3
((lp16
S'5ht1a'
p17
aS'5ht2a'
p18
atp19
Rp20
sS'regions'
p21
g3
((lp22
S"(362, u'(?i)(brains|brain)(-|\\\\s+)?(stems|stem)')"
p23
aS"(103, u'(?i)(substantias|substantia)(-|\\\\s+)?(nigras|nigra)')"
p24
aS"(287, u'(?i)(parahippocampals|parahippocampal)(-|\\\\s+)?(gyruses|gyrus)')"
p25
aS"(219, u'(?i)(basals|basal)(-|\\\\s+)?(ganglias|ganglia)')"
p26
aS"(203, u'(?i)(dentates|dentate)(-|\\\\s+)?(gyruses|gyrus)')"
p27
aS"(220, u'(?i)(striatums|striatum)')"
p28
aS"(318, u'(?i)(raphes|raphe)(-|\\\\s+)?(nuclei|nucleus)')"
p29
aS"(71, u'(?i)(cerebellums|cerebellum)')"
p30
atp31
Rp32
sS'year'
p33
V1995
p34
sS'agonists'
p35
g3
((lp36
tp37
Rp38
sS'species'
p39
g3
((lp40
S"(5537, u'(?i)(hippos|hippo)')"
p41
aS"(6753, u'(?i)(da|das)')"
p42
aS"(5958, u'(?i)(rats|rat)')"
p43
aS"(6125, u'(?i)(females|female)')"
p44
aS"(7609, u'(?i)(erns|ern)')"
p45
aS"(7610, u'(?i)(ernes|erne)')"
p46
aS"(4979, u'(?i)(cats|cat)')"
p47
aS"(5967, u'(?i)(males|male)')"
p48
aS"(468, u'(?i)(oxen|ox)')"
p49
aS"(1349, u'(?i)(rams|ram)')"
p50
aS"(1055, u'(?i)(men|man)')"
p51
aS"(853, u'(?i)(minas|mina)')"
p52
aS"(6249, u'(?i)(ants|ant)')"
p53
aS"(1057, u'(?i)(humans|human)')"
p54
aS"(4176, u'(?i)(greys|grey)')"
p55
aS"(6356, u'(?i)(ais|ai)')"
p56
aS"(3196, u'(?i)(human|humans)')"
p57
aS"(6094, u'(?i)(emus|emu)')"
p58
aS"(1683, u'(?i)(terns|tern)')"
p59
aS"(204, u'(?i)(moas|moa)')"
p60
atp61
Rp62
sb.