(ifile_types
ParseObject
p0
(dp1
S'antagonists'
p2
c__builtin__
set
p3
((lp4
S"(37, u'\\\\bsb ?216641')"
p5
aS"(99, u'\\\\bsb ?242084')"
p6
aS"(31, u'\\\\bway ?100635')"
p7
atp8
Rp9
sS'methods'
p10
g3
((lp11
S'Method.ANTAGONIST'
p12
atp13
Rp14
sS'topics'
p15
g3
((lp16
S"(2, u'\\\\bappetite')"
p17
aS"(16, u'\\\\bfeed')"
p18
atp19
Rp20
sS'receptors'
p21
g3
((lp22
S'5ht1b'
p23
aS'5ht1a'
p24
aS'5ht2c'
p25
atp26
Rp27
sS'regions'
p28
g3
((lp29
tp30
Rp31
sS'year'
p32
V2012
p33
sS'agonists'
p34
g3
((lp35
tp36
Rp37
sS'species'
p38
g3
((lp39
S"(5958, u'(?i)\\\\b(rats|rat)\\\\b')"
p40
atp41
Rp42
sb.