(ifile_types
ParseObject
p0
(dp1
S'antagonists'
p2
c__builtin__
set
p3
((lp4
S"(32, u'\\\\bway ?100635')"
p5
atp6
Rp7
sS'methods'
p8
g3
((lp9
S'Method.PET'
p10
aS'Method.ANTAGONIST'
p11
aS'Method.AGONIST'
p12
atp13
Rp14
sS'topics'
p15
g3
((lp16
S"(15, u'\\\\bschizophreni')"
p17
aS"(3, u'\\\\bsleep')"
p18
aS"(9, u'\\\\bdepress')"
p19
aS"(1, u'\\\\bmood')"
p20
aS"(29, u'\\\\bsex')"
p21
aS"(2, u'\\\\bappetite')"
p22
aS"(34, u'\\\\bdementia')"
p23
aS"(20, u'\\\\baggressi')"
p24
aS"(26, u'\\\\bcardiovascular')"
p25
aS"(10, u'\\\\banxiety')"
p26
atp27
Rp28
sS'receptors'
p29
g3
((lp30
S'5ht7'
p31
aS'5ht7a'
p32
aS'5ht1a'
p33
aS'5ht5'
p34
aS'5ht1'
p35
atp36
Rp37
sS'regions'
p38
g3
((lp39
S"(285, u'(?i)(entorhinals|entorhinal)(-|\\\\s+)?(cortexes|cortex)')"
p40
aS"(362, u'(?i)(brains|brain)(-|\\\\s+)?(stems|stem)')"
p41
aS"(318, u'(?i)(raphes|raphe)(-|\\\\s+)?(nuclei|nucleus)')"
p42
aS"(126, u'(?i)(thalamuses|thalamus)')"
p43
atp44
Rp45
sS'year'
p46
V2004
p47
sS'agonists'
p48
g3
((lp49
S"(92, u'\\\\b8 ?oh ?dpat')"
p50
atp51
Rp52
sS'species'
p53
g3
((lp54
S"(2401, u'(?i)(primates|primate)')"
p55
aS"(7094, u'(?i)(curs|cur)')"
p56
aS"(3812, u'(?i)(studs|stud)')"
p57
aS"(5229, u'(?i)(moles|mole)')"
p58
aS"(6391, u'(?i)(asses|ass)')"
p59
aS"(6356, u'(?i)(ais|ai)')"
p60
aS"(3048, u'(?i)(hogs|hog)')"
p61
aS"(1070, u'(?i)(pets|pet)')"
p62
aS"(479, u'(?i)(lings|ling)')"
p63
aS"(468, u'(?i)(oxen|ox)')"
p64
aS"(5743, u'(?i)(bots|bot)')"
p65
aS"(3522, u'(?i)(tetras|tetra)')"
p66
aS"(2809, u'(?i)(toms|tom)')"
p67
aS"(5537, u'(?i)(hippos|hippo)')"
p68
aS"(6753, u'(?i)(da|das)')"
p69
aS"(6249, u'(?i)(ants|ant)')"
p70
aS"(867, u'(?i)(tits|tit)')"
p71
aS"(1055, u'(?i)(men|man)')"
p72
aS"(6215, u'(?i)(racers|racer)')"
p73
aS"(853, u'(?i)(minas|mina)')"
p74
aS"(4371, u'(?i)(lizas|liza)')"
p75
aS"(2323, u'(?i)(bees|bee)')"
p76
aS"(2568, u'(?i)(hens|hen)')"
p77
aS"(4979, u'(?i)(cats|cat)')"
p78
aS"(3726, u'(?i)(mates|mate)')"
p79
atp80
Rp81
sb.