(ifile_types
ParseObject
p0
(dp1
S'antagonists'
p2
c__builtin__
set
p3
((lp4
S"(53, u'\\\\bketanserin')"
p5
aS"(32, u'\\\\bway ?100635')"
p6
aS"(128, u'\\\\bketanserin')"
p7
atp8
Rp9
sS'methods'
p10
g3
((lp11
S'Method.ANTAGONIST'
p12
aS'Method.AGONIST'
p13
atp14
Rp15
sS'topics'
p16
g3
((lp17
tp18
Rp19
sS'receptors'
p20
g3
((lp21
S'5ht1a'
p22
aS'5ht2'
p23
aS'5ht2a'
p24
atp25
Rp26
sS'regions'
p27
g3
((lp28
S"(34, u'(?i)(pon|pons)')"
p29
atp30
Rp31
sS'year'
p32
V2004
p33
sS'agonists'
p34
g3
((lp35
S"(92, u'\\\\b8 ?oh ?dpat')"
p36
aS"(169, u'\\\\bfenfluramine')"
p37
aS"(33, u'\\\\bdoi')"
p38
atp39
Rp40
sS'species'
p41
g3
((lp42
S"(2323, u'(?i)(bees|bee)')"
p43
aS"(6753, u'(?i)(da|das)')"
p44
aS"(2568, u'(?i)(hens|hen)')"
p45
aS"(3601, u'(?i)(efts|eft)')"
p46
aS"(4979, u'(?i)(cats|cat)')"
p47
aS"(6682, u'(?i)(tera|teras)')"
p48
aS"(468, u'(?i)(oxen|ox)')"
p49
aS"(1055, u'(?i)(men|man)')"
p50
aS"(6249, u'(?i)(ants|ant)')"
p51
aS"(1349, u'(?i)(rams|ram)')"
p52
aS"(4964, u'(?i)(serins|serin)')"
p53
aS"(5958, u'(?i)(rats|rat)')"
p54
aS"(3522, u'(?i)(tetras|tetra)')"
p55
aS"(7094, u'(?i)(curs|cur)')"
p56
aS"(6356, u'(?i)(ais|ai)')"
p57
aS"(5743, u'(?i)(bots|bot)')"
p58
aS"(5949, u'(?i)(dogs|dog)')"
p59
atp60
Rp61
sb.