(ifile_types
ParseObject
p0
(dp1
S'methods'
p2
c__builtin__
set
p3
((lp4
S'Method.ANTAGONIST'
p5
aS'Method.AGONIST'
p6
atp7
Rp8
sS'topics'
p9
g3
((lp10
tp11
Rp12
sS'receptors'
p13
g3
((lp14
(S'5ht4'
p15
I1521
I1526
tp16
a(S'5ht1'
p17
I638
I643
tp18
a(S'5ht1a'
p19
I1091
I1097
tp20
a(S'5ht2c'
p21
I781
I787
tp22
a(S'5ht2'
p23
I602
I607
tp24
a(S'5ht2c'
p25
I125
I131
tp26
a(S'5ht4'
p27
I133
I138
tp28
a(S'5ht1a'
p29
I1587
I1593
tp30
a(S'5ht1a'
p31
I143
I149
tp32
a(S'5ht4'
p33
I843
I847
tp34
a(S'5ht2c'
p35
I1510
I1516
tp36
atp37
Rp38
sS'raw_text_methods'
p39
g3
((lp40
S"(13, u'\\\\bagonist')"
p41
aS"(12, u'\\\\bantagonist')"
p42
atp43
Rp44
sS'regions'
p45
g3
((lp46
S"(3, u'(?i)\\\\b(postsynaptics|postsynaptic)\\\\b')"
p47
atp48
Rp49
sS'year'
p50
V2005
p51
sS'species'
p52
g3
((lp53
S"(1, u'(?i)\\\\b(mice|mouse)\\\\b')"
p54
atp55
Rp56
sb.