(ifile_types
ParseObject
p0
(dp1
S'methods'
p2
c__builtin__
set
p3
((lp4
S'Method.ANTAGONIST'
p5
aS'Method.AGONIST'
p6
atp7
Rp8
sS'topics'
p9
g3
((lp10
tp11
Rp12
sS'receptors'
p13
g3
((lp14
(S'5ht2c'
p15
I1145
I1156
tp16
a(S'5ht2c'
p17
I1361
I1372
tp18
a(S'5ht2c'
p19
I205
I216
tp20
a(S'5ht2c'
p21
I103
I114
tp22
a(S'5ht2c'
p23
I1553
I1564
tp24
a(S'5ht2c'
p25
I805
I816
tp26
atp27
Rp28
sS'raw_text_methods'
p29
g3
((lp30
S"(13, u'\\\\bagonist')"
p31
aS"(39, u'\\\\bselective serotonin reuptake inhibitor')"
p32
aS"(12, u'\\\\bantagonist')"
p33
atp34
Rp35
sS'regions'
p36
g3
((lp37
S"(20, u'(?i)\\\\b(prefrontals|prefrontal)\\\\b')"
p38
aS"(19, u'(?i)\\\\b(cortexes|cortex)\\\\b')"
p39
atp40
Rp41
sS'year'
p42
V2010
p43
sS'species'
p44
g3
((lp45
S"(1, u'(?i)\\\\b(mice|mouse)\\\\b')"
p46
aS"(5, u'(?i)\\\\b(mices|mice)\\\\b')"
p47
atp48
Rp49
sb.