(ifile_types
ParseObject
p0
(dp1
S'methods'
p2
c__builtin__
set
p3
((lp4
S'Method.ANTAGONIST'
p5
aS'Method.AGONIST'
p6
atp7
Rp8
sS'topics'
p9
g3
((lp10
tp11
Rp12
sS'receptors'
p13
g3
((lp14
(S'5ht1a'
p15
I797
I803
tp16
a(S'5ht5'
p17
I358
I368
tp18
a(S'5ht2'
p19
I908
I913
tp20
atp21
Rp22
sS'raw_text_methods'
p23
g3
((lp24
S"(13, u'\\\\bagonist')"
p25
aS"(15, u'\\\\b8ohdpat')"
p26
aS"(52, u'\\\\bmk212')"
p27
aS"(53, u'\\\\bketanserin')"
p28
aS"(12, u'\\\\bantagonist')"
p29
atp30
Rp31
sS'regions'
p32
g3
((lp33
S"(9, u'(?i)\\\\b(cerebellums|cerebellum)\\\\b')"
p34
atp35
Rp36
sS'year'
p37
V1987
p38
sS'species'
p39
g3
((lp40
S"(4, u'(?i)\\\\b(rats|rat)\\\\b')"
p41
atp42
Rp43
sb.