(ifile_types
ParseObject
p0
(dp1
S'methods'
p2
c__builtin__
set
p3
((lp4
tp5
Rp6
sS'topics'
p7
g3
((lp8
S"(14, u'\\\\bcogniti')"
p9
aS"(4, u'\\\\btreatment')"
p10
atp11
Rp12
sS'receptors'
p13
g3
((lp14
(S'5ht1a'
p15
I915
I921
tp16
a(S'5ht1a'
p17
I1032
I1038
tp18
a(S'5ht1a'
p19
I1322
I1328
tp20
a(S'5ht1a'
p21
I67
I73
tp22
a(S'5ht1a'
p23
I386
I392
tp24
atp25
Rp26
sS'raw_text_methods'
p27
g3
((lp28
S"(3, u'\\\\bimmunoreactiv')"
p29
aS"(11, u'\\\\bfluoxetine')"
p30
aS"(39, u'\\\\bselective serotonin reuptake inhibitor')"
p31
atp32
Rp33
sS'regions'
p34
g3
((lp35
tp36
Rp37
sS'year'
p38
V2002
p39
sS'species'
p40
g3
((lp41
S"(4, u'(?i)\\\\b(rats|rat)\\\\b')"
p42
atp43
Rp44
sb.