(ifile_types
ParseObject
p0
(dp1
S'methods'
p2
c__builtin__
set
p3
((lp4
tp5
Rp6
sS'topics'
p7
g3
((lp8
S"(4, u'\\\\btreatment')"
p9
atp10
Rp11
sS'receptors'
p12
g3
((lp13
(S'5ht4'
p14
I971
I976
tp15
a(S'5ht1a'
p16
I117
I123
tp17
a(S'5ht1a'
p18
I335
I341
tp19
a(S'5ht4'
p20
I1280
I1285
tp21
a(S'5ht4'
p22
I346
I351
tp23
a(S'5ht1a'
p24
I1269
I1275
tp25
a(S'5ht1a'
p26
I893
I899
tp27
a(S'5ht4'
p28
I128
I133
tp29
a(S'5ht1a'
p30
I735
I741
tp31
a(S'5ht4'
p32
I746
I751
tp33
atp34
Rp35
sS'raw_text_methods'
p36
g3
((lp37
S"(15, u'\\\\b8ohdpat')"
p38
aS"(28, u'\\\\bzacopride')"
p39
atp40
Rp41
sS'regions'
p42
g3
((lp43
tp44
Rp45
sS'year'
p46
V2006
p47
sS'species'
p48
g3
((lp49
S"(4, u'(?i)\\\\b(rats|rat)\\\\b')"
p50
atp51
Rp52
sb.