(ifile_types
ParseObject
p0
(dp1
S'methods'
p2
c__builtin__
set
p3
((lp4
S'Method.OPTOGENETICS'
p5
aS'Method.IMMUNOHISTOCHEMISTRY'
p6
atp7
Rp8
sS'topics'
p9
g3
((lp10
S"(12, u'\\\\bsleep')"
p11
atp12
Rp13
sS'receptors'
p14
g3
((lp15
(S'5ht1a'
p16
I565
I571
tp17
a(S'5ht1a'
p18
I1301
I1306
tp19
atp20
Rp21
sS'raw_text_methods'
p22
g3
((lp23
tp24
Rp25
sS'regions'
p26
g3
((lp27
S"(3, u'(?i)\\\\b(postsynaptics|postsynaptic)\\\\b')"
p28
atp29
Rp30
sS'year'
p31
V2016
p32
sS'species'
p33
g3
((lp34
S"(1, u'(?i)\\\\b(mice|mouse)\\\\b')"
p35
aS"(5, u'(?i)\\\\b(mices|mice)\\\\b')"
p36
atp37
Rp38
sb.