(ifile_types
ParseObject
p0
(dp1
S'antagonists'
p2
c__builtin__
set
p3
((lp4
S"(34, u'\\\\bmetergoline')"
p5
aS"(21, u'\\\\bpindolol')"
p6
aS"(28, u'\\\\bspiroxatrine')"
p7
aS"(14, u'\\\\bmethiothepin')"
p8
aS"(33, u'\\\\byohimbine')"
p9
aS"(26, u'\\\\bspiperone')"
p10
atp11
Rp12
sS'methods'
p13
g3
((lp14
S'Method.ANTAGONIST'
p15
aS'Method.AGONIST'
p16
atp17
Rp18
sS'topics'
p19
g3
((lp20
S"(25, u'\\\\bvasoconstrict')"
p21
atp22
Rp23
sS'receptors'
p24
g3
((lp25
S'5ht1a'
p26
aS'5ht1'
p27
aS'5ht1d'
p28
atp29
Rp30
sS'regions'
p31
g3
((lp32
tp33
Rp34
sS'year'
p35
V1991
p36
sS'agonists'
p37
g3
((lp38
S"(65, u'\\\\brauwolscine')"
p39
aS"(96, u'\\\\bsumatriptan')"
p40
aS"(85, u'\\\\b8 ?oh ?dpat')"
p41
aS"(82, u'\\\\byohimbine')"
p42
atp43
Rp44
sS'species'
p45
g3
((lp46
S"(7058, u'(?i)\\\\b(does|doe)\\\\b')"
p47
aS"(5949, u'(?i)\\\\b(dogs|dog)\\\\b')"
p48
atp49
Rp50
sb.