(ifile_types
ParseObject
p0
(dp1
S'antagonists'
p2
c__builtin__
set
p3
((lp4
tp5
Rp6
sS'methods'
p7
g3
((lp8
S'Method.PET'
p9
atp10
Rp11
sS'topics'
p12
g3
((lp13
tp14
Rp15
sS'receptors'
p16
g3
((lp17
S'5ht1a'
p18
aS'5ht2a'
p19
atp20
Rp21
sS'regions'
p22
g3
((lp23
tp24
Rp25
sS'year'
p26
V2001
p27
sS'agonists'
p28
g3
((lp29
S"(11, u'\\\\bamphetamine')"
p30
aS"(163, u'\\\\bfenfluramine')"
p31
atp32
Rp33
sS'species'
p34
g3
((lp35
S"(163, u'(?i)\\\\b(mice|mouse)\\\\b')"
p36
atp37
Rp38
sb.