(ifile_types
ParseObject
p0
(dp1
S'antagonists'
p2
c__builtin__
set
p3
((lp4
tp5
Rp6
sS'methods'
p7
g3
((lp8
S'Method.ANTAGONIST'
p9
atp10
Rp11
sS'topics'
p12
g3
((lp13
tp14
Rp15
sS'receptors'
p16
g3
((lp17
S'5ht1a'
p18
atp19
Rp20
sS'regions'
p21
g3
((lp22
S"(209, u'(?i)\\\\b(amygdalas|amygdala)\\\\b')"
p23
aS"(34, u'(?i)\\\\b(pon|pons)\\\\b')"
p24
aS"(244, u'(?i)\\\\b(piriforms|piriform)(-|\\\\s+)?(cortexes|cortex)\\\\b')"
p25
atp26
Rp27
sS'year'
p28
V1993
p29
sS'agonists'
p30
g3
((lp31
S"(149, u'\\\\bmem')"
p32
aS"(95, u'\\\\boxymetazoline')"
p33
atp34
Rp35
sS'species'
p36
g3
((lp37
S"(5958, u'(?i)\\\\b(rats|rat)\\\\b')"
p38
atp39
Rp40
sb.