(ifile_types
ParseObject
p0
(dp1
S'antagonists'
p2
c__builtin__
set
p3
((lp4
S"(67, u'\\\\bhaloperidol')"
p5
aS"(27, u'\\\\bspiperone')"
p6
aS"(4, u'\\\\bbmy ?7378')"
p7
atp8
Rp9
sS'methods'
p10
g3
((lp11
S'Method.ANTAGONIST'
p12
aS'Method.AGONIST'
p13
atp14
Rp15
sS'topics'
p16
g3
((lp17
S"(29, u'\\\\bsex')"
p18
aS"(11, u'\\\\banxiolyt')"
p19
atp20
Rp21
sS'receptors'
p22
g3
((lp23
S'5ht1a'
p24
atp25
Rp26
sS'regions'
p27
g3
((lp28
S"(318, u'(?i)(raphes|raphe)(-|\\\\s+)?(nuclei|nucleus)')"
p29
atp30
Rp31
sS'year'
p32
V1999
p33
sS'agonists'
p34
g3
((lp35
S"(47, u'\\\\bgepirone')"
p36
aS"(48, u'\\\\bhaloperidol')"
p37
aS"(92, u'\\\\b8 ?oh ?dpat')"
p38
aS"(24, u'\\\\bbuspirone')"
p39
atp40
Rp41
sS'species'
p42
g3
((lp43
S"(4624, u'(?i)(apes|ape)')"
p44
aS"(2568, u'(?i)(hens|hen)')"
p45
aS"(5743, u'(?i)(bots|bot)')"
p46
aS"(6682, u'(?i)(tera|teras)')"
p47
aS"(5967, u'(?i)(males|male)')"
p48
aS"(468, u'(?i)(oxen|ox)')"
p49
aS"(1055, u'(?i)(men|man)')"
p50
aS"(3726, u'(?i)(mates|mate)')"
p51
aS"(4979, u'(?i)(cats|cat)')"
p52
aS"(7094, u'(?i)(curs|cur)')"
p53
aS"(5958, u'(?i)(rats|rat)')"
p54
aS"(3426, u'(?i)(hares|hare)')"
p55
aS"(1961, u'(?i)(pens|pen)')"
p56
aS"(6356, u'(?i)(ais|ai)')"
p57
aS"(6391, u'(?i)(asses|ass)')"
p58
aS"(6249, u'(?i)(ants|ant)')"
p59
atp60
Rp61
sb.