(ifile_types
ParseObject
p0
(dp1
S'antagonists'
p2
c__builtin__
set
p3
((lp4
S"(43, u'\\\\bgr ?127935')"
p5
aS"(14, u'\\\\bmethiothepin')"
p6
atp7
Rp8
sS'methods'
p9
g3
((lp10
S'Method.ANTAGONIST'
p11
aS'Method.AGONIST'
p12
atp13
Rp14
sS'topics'
p15
g3
((lp16
tp17
Rp18
sS'receptors'
p19
g3
((lp20
S'5ht1b'
p21
aS'5ht1a'
p22
aS'5ht1d'
p23
atp24
Rp25
sS'regions'
p26
g3
((lp27
S"(248, u'(?i)\\\\b(cerebrals|cerebral)(-|\\\\s+)?(cortexes|cortex)\\\\b')"
p28
atp29
Rp30
sS'year'
p31
V1996
p32
sS'agonists'
p33
g3
((lp34
tp35
Rp36
sS'species'
p37
g3
((lp38
S"(163, u'(?i)\\\\b(mice|mouse)\\\\b')"
p39
aS"(3062, u'(?i)\\\\b(guineas|guinea)\\\\b')"
p40
aS"(3196, u'(?i)\\\\b(human|humans)\\\\b')"
p41
aS"(1057, u'(?i)\\\\b(humans|human)\\\\b')"
p42
aS"(3051, u'(?i)\\\\b(pigs|pig)\\\\b')"
p43
aS"(473, u'(?i)\\\\b(rabbits|rabbit)\\\\b')"
p44
aS"(4480, u'(?i)\\\\b(guineas|guinea)(-|\\\\s+)?(pigs|pig)\\\\b')"
p45
aS"(5958, u'(?i)\\\\b(rats|rat)\\\\b')"
p46
atp47
Rp48
sb.