(ifile_types
ParseObject
p0
(dp1
S'antagonists'
p2
c__builtin__
set
p3
((lp4
S"(29, u'\\\\bspiroxatrine')"
p5
atp6
Rp7
sS'methods'
p8
g3
((lp9
S'Method.STIMULATION'
p10
aS'Method.ANTAGONIST'
p11
aS'Method.AGONIST'
p12
atp13
Rp14
sS'topics'
p15
g3
((lp16
tp17
Rp18
sS'receptors'
p19
g3
((lp20
S'5ht1a'
p21
atp22
Rp23
sS'regions'
p24
g3
((lp25
tp26
Rp27
sS'year'
p28
V1990
p29
sS'agonists'
p30
g3
((lp31
S"(92, u'\\\\b8 ?oh ?dpat')"
p32
atp33
Rp34
sS'species'
p35
g3
((lp36
S"(2323, u'(?i)(bees|bee)')"
p37
aS"(2568, u'(?i)(hens|hen)')"
p38
aS"(6356, u'(?i)(ais|ai)')"
p39
aS"(5958, u'(?i)(rats|rat)')"
p40
aS"(4163, u'(?i)(ermines|ermine)')"
p41
aS"(81, u'(?i)(asps|asp)')"
p42
aS"(468, u'(?i)(oxen|ox)')"
p43
aS"(1055, u'(?i)(men|man)')"
p44
aS"(6249, u'(?i)(ants|ant)')"
p45
aS"(1349, u'(?i)(rams|ram)')"
p46
aS"(4979, u'(?i)(cats|cat)')"
p47
aS"(7094, u'(?i)(curs|cur)')"
p48
aS"(3550, u'(?i)(anis|ani)')"
p49
aS"(3522, u'(?i)(tetras|tetra)')"
p50
aS"(821, u'(?i)(lice|louse)')"
p51
aS"(5917, u'(?i)(roaches|roach)')"
p52
aS"(1961, u'(?i)(pens|pen)')"
p53
aS"(3812, u'(?i)(studs|stud)')"
p54
aS"(7609, u'(?i)(erns|ern)')"
p55
aS"(1683, u'(?i)(terns|tern)')"
p56
aS"(6682, u'(?i)(tera|teras)')"
p57
atp58
Rp59
sb.