(ifile_types
ParseObject
p0
(dp1
S'antagonists'
p2
c__builtin__
set
p3
((lp4
S"(21, u'\\\\bpindolol')"
p5
aS"(54, u'\\\\britanserin')"
p6
aS"(17, u'\\\\bnan ?190')"
p7
aS"(130, u'\\\\britanserin')"
p8
aS"(135, u'\\\\bondansetron')"
p9
atp10
Rp11
sS'methods'
p12
g3
((lp13
S'Method.ANTAGONIST'
p14
aS'Method.AGONIST'
p15
atp16
Rp17
sS'topics'
p18
g3
((lp19
S"(7, u'\\\\bmemory')"
p20
atp21
Rp22
sS'receptors'
p23
g3
((lp24
S'5ht5'
p25
aS'5ht3'
p26
aS'5ht1a'
p27
aS'5ht2a'
p28
atp29
Rp30
sS'regions'
p31
g3
((lp32
tp33
Rp34
sS'year'
p35
V1995
p36
sS'agonists'
p37
g3
((lp38
S"(155, u'\\\\bmem')"
p39
atp40
Rp41
sS'species'
p42
g3
((lp43
S"(1070, u'(?i)(pets|pet)')"
p44
aS"(2568, u'(?i)(hens|hen)')"
p45
aS"(5958, u'(?i)(rats|rat)')"
p46
aS"(6753, u'(?i)(da|das)')"
p47
aS"(468, u'(?i)(oxen|ox)')"
p48
aS"(1055, u'(?i)(men|man)')"
p49
aS"(6249, u'(?i)(ants|ant)')"
p50
aS"(4964, u'(?i)(serins|serin)')"
p51
aS"(3550, u'(?i)(anis|ani)')"
p52
aS"(6356, u'(?i)(ais|ai)')"
p53
atp54
Rp55
sb.