(ifile_types
ParseObject
p0
(dp1
S'antagonists'
p2
c__builtin__
set
p3
((lp4
S"(110, u'\\\\bclozapine')"
p5
aS"(113, u'\\\\brisperidone')"
p6
aS"(58, u'\\\\bhaloperidol')"
p7
atp8
Rp9
sS'methods'
p10
g3
((lp11
tp12
Rp13
sS'topics'
p14
g3
((lp15
S"(15, u'\\\\bschizophreni')"
p16
atp17
Rp18
sS'receptors'
p19
g3
((lp20
S'5ht2a'
p21
atp22
Rp23
sS'regions'
p24
g3
((lp25
tp26
Rp27
sS'year'
p28
V1995
p29
sS'agonists'
p30
g3
((lp31
S"(23, u'\\\\bclozapine')"
p32
aS"(43, u'\\\\bhaloperidol')"
p33
atp34
Rp35
sS'species'
p36
g3
((lp37
S"(3062, u'(?i)\\\\b(guineas|guinea)\\\\b')"
p38
aS"(3196, u'(?i)\\\\b(human|humans)\\\\b')"
p39
aS"(1057, u'(?i)\\\\b(humans|human)\\\\b')"
p40
aS"(5958, u'(?i)\\\\b(rats|rat)\\\\b')"
p41
aS"(4480, u'(?i)\\\\b(guineas|guinea)(-|\\\\s+)?(pigs|pig)\\\\b')"
p42
aS"(3051, u'(?i)\\\\b(pigs|pig)\\\\b')"
p43
atp44
Rp45
sb.