(ifile_types
ParseObject
p0
(dp1
S'methods'
p2
c__builtin__
set
p3
((lp4
tp5
Rp6
sS'topics'
p7
g3
((lp8
S"(16, u'\\\\blearning')"
p9
aS"(26, u'\\\\bbehav')"
p10
aS"(15, u'\\\\bmemory')"
p11
atp12
Rp13
sS'receptors'
p14
g3
((lp15
(S'5ht1a'
p16
I976
I982
tp17
atp18
Rp19
sS'raw_text_methods'
p20
g3
((lp21
tp22
Rp23
sS'regions'
p24
g3
((lp25
tp26
Rp27
sS'year'
p28
V2015
p29
sS'species'
p30
g3
((lp31
S"(3, u'(?i)\\\\b(males|male)\\\\b')"
p32
aS"(4, u'(?i)\\\\b(rats|rat)\\\\b')"
p33
atp34
Rp35
sb.