(ifile_types
ParseObject
p0
(dp1
S'antagonists'
p2
c__builtin__
set
p3
((lp4
S"(6, u'\\\\bcyproheptadine')"
p5
aS"(62, u'\\\\bcyproheptadine')"
p6
aS"(135, u'\\\\bondansetron')"
p7
aS"(139, u'\\\\bmetoclopramide')"
p8
aS"(130, u'\\\\britanserin')"
p9
aS"(54, u'\\\\britanserin')"
p10
atp11
Rp12
sS'methods'
p13
g3
((lp14
tp15
Rp16
sS'topics'
p17
g3
((lp18
tp19
Rp20
sS'receptors'
p21
g3
((lp22
S'5ht3b'
p23
aS'5ht2'
p24
aS'5ht2a'
p25
atp26
Rp27
sS'regions'
p28
g3
((lp29
S"(34, u'(?i)(pon|pons)')"
p30
atp31
Rp32
sS'year'
p33
V1998
p34
sS'agonists'
p35
g3
((lp36
S"(213, u'\\\\bmetoclopramide')"
p37
aS"(33, u'\\\\bdoi')"
p38
atp39
Rp40
sS'species'
p41
g3
((lp42
S"(2054, u'(?i)(heads|head)')"
p43
aS"(5799, u'(?i)(rodents|rodent)')"
p44
aS"(2568, u'(?i)(hens|hen)')"
p45
aS"(163, u'(?i)(mice|mouse)')"
p46
aS"(6753, u'(?i)(da|das)')"
p47
aS"(468, u'(?i)(oxen|ox)')"
p48
aS"(1349, u'(?i)(rams|ram)')"
p49
aS"(6249, u'(?i)(ants|ant)')"
p50
aS"(1055, u'(?i)(men|man)')"
p51
aS"(4964, u'(?i)(serins|serin)')"
p52
aS"(3550, u'(?i)(anis|ani)')"
p53
aS"(1961, u'(?i)(pens|pen)')"
p54
aS"(6356, u'(?i)(ais|ai)')"
p55
aS"(6391, u'(?i)(asses|ass)')"
p56
aS"(4979, u'(?i)(cats|cat)')"
p57
atp58
Rp59
sb.