(ifile_types
ParseObject
p0
(dp1
S'methods'
p2
c__builtin__
set
p3
((lp4
S'Method.AGONIST'
p5
atp6
Rp7
sS'topics'
p8
g3
((lp9
S"(26, u'\\\\bbehav')"
p10
aS"(10, u'\\\\bocd')"
p11
aS"(2, u'\\\\bdisorder')"
p12
atp13
Rp14
sS'receptors'
p15
g3
((lp16
(S'5ht1a'
p17
I553
I559
tp18
atp19
Rp20
sS'raw_text_methods'
p21
g3
((lp22
S"(13, u'\\\\bagonist')"
p23
aS"(15, u'\\\\b8ohdpat')"
p24
atp25
Rp26
sS'regions'
p27
g3
((lp28
tp29
Rp30
sS'year'
p31
V2004
p32
sS'species'
p33
g3
((lp34
S"(2, u'(?i)\\\\b(females|female)\\\\b')"
p35
aS"(3, u'(?i)\\\\b(males|male)\\\\b')"
p36
aS"(4, u'(?i)\\\\b(rats|rat)\\\\b')"
p37
atp38
Rp39
sb.