(ifile_types
ParseObject
p0
(dp1
S'antagonists'
p2
c__builtin__
set
p3
((lp4
S"(110, u'\\\\bclozapine')"
p5
aS"(59, u'\\\\bchlorpromazine')"
p6
aS"(113, u'\\\\brisperidone')"
p7
aS"(108, u'\\\\bfluphenazine')"
p8
aS"(109, u'\\\\bthioridazine')"
p9
aS"(26, u'\\\\bspiperone')"
p10
aS"(58, u'\\\\bhaloperidol')"
p11
atp12
Rp13
sS'methods'
p14
g3
((lp15
S'Method.ANTAGONIST'
p16
atp17
Rp18
sS'topics'
p19
g3
((lp20
tp21
Rp22
sS'receptors'
p23
g3
((lp24
S'5ht2c'
p25
aS'5ht2a'
p26
atp27
Rp28
sS'regions'
p29
g3
((lp30
tp31
Rp32
sS'year'
p33
V1994
p34
sS'agonists'
p35
g3
((lp36
S"(210, u'\\\\bsulpiride')"
p37
aS"(23, u'\\\\bclozapine')"
p38
aS"(43, u'\\\\bhaloperidol')"
p39
atp40
Rp41
sS'species'
p42
g3
((lp43
S"(5958, u'(?i)\\\\b(rats|rat)\\\\b')"
p44
atp45
Rp46
sb.