(ifile_types
ParseObject
p0
(dp1
S'methods'
p2
c__builtin__
set
p3
((lp4
S'Method.PET'
p5
aS'Method.ANTAGONIST'
p6
atp7
Rp8
sS'topics'
p9
g3
((lp10
S"(7, u'\\\\bdepressi')"
p11
aS"(13, u'\\\\bantidepress')"
p12
aS"(4, u'\\\\btreatment')"
p13
aS"(3, u'\\\\bclinical')"
p14
atp15
Rp16
sS'receptors'
p17
g3
((lp18
(S'5ht1b'
p19
I651
I657
tp20
a(S'5ht1b'
p21
I821
I827
tp22
a(S'5ht1b'
p23
I71
I77
tp24
a(S'5ht1b'
p25
I245
I251
tp26
a(S'5ht1b'
p27
I1836
I1842
tp28
a(S'5ht1b'
p29
I382
I388
tp30
a(S'5ht1b'
p31
I1681
I1687
tp32
a(S'5ht1b'
p33
I1935
I1941
tp34
atp35
Rp36
sS'raw_text_methods'
p37
g3
((lp38
S"(17, u'\\\\bpet')"
p39
aS"(19, u'\\\\bpositron emission tomography')"
p40
aS"(12, u'\\\\bantagonist')"
p41
atp42
Rp43
sS'regions'
p44
g3
((lp45
S"(19, u'(?i)\\\\b(cortexes|cortex)\\\\b')"
p46
atp47
Rp48
sS'year'
p49
V2011
p50
sS'species'
p51
g3
((lp52
S"(8, u'(?i)\\\\b(primates|primate)\\\\b')"
p53
atp54
Rp55
sb.