(ifile_types
ParseObject
p0
(dp1
S'methods'
p2
c__builtin__
set
p3
((lp4
S'Method.KNOCKOUT'
p5
aS'Method.AGONIST'
p6
atp7
Rp8
sS'topics'
p9
g3
((lp10
S"(1, u'\\\\bpatient')"
p11
aS"(4, u'\\\\btreatment')"
p12
aS"(3, u'\\\\bclinical')"
p13
atp14
Rp15
sS'receptors'
p16
g3
((lp17
(S'5ht4'
p18
I531
I536
tp19
a(S'5ht4'
p20
I67
I72
tp21
a(S'5ht4'
p22
I1978
I1983
tp23
a(S'5ht4'
p24
I515
I520
tp25
atp26
Rp27
sS'raw_text_methods'
p28
g3
((lp29
S"(13, u'\\\\bagonist')"
p30
aS"(18, u'\\\\bimaging')"
p31
aS"(44, u'\\\\btetrodotoxin')"
p32
atp33
Rp34
sS'regions'
p35
g3
((lp36
tp37
Rp38
sS'year'
p39
V2019
p40
sS'species'
p41
g3
((lp42
S"(1, u'(?i)\\\\b(mice|mouse)\\\\b')"
p43
aS"(5, u'(?i)\\\\b(mices|mice)\\\\b')"
p44
atp45
Rp46
sb.