(ifile_types
ParseObject
p0
(dp1
S'methods'
p2
c__builtin__
set
p3
((lp4
S'Method.KNOCKOUT'
p5
aS'Method.ANTAGONIST'
p6
aS'Method.AGONIST'
p7
atp8
Rp9
sS'topics'
p10
g3
((lp11
S"(9, u'\\\\bstress')"
p12
atp13
Rp14
sS'receptors'
p15
g3
((lp16
(S'5ht1a'
p17
I1345
I1351
tp18
a(S'5ht1b'
p19
I354
I360
tp20
a(S'5ht1b'
p21
I35
I41
tp22
a(S'5ht1a'
p23
I435
I441
tp24
a(S'5ht1a'
p25
I341
I347
tp26
a(S'5ht1b'
p27
I1494
I1500
tp28
a(S'5ht1a'
p29
I1464
I1470
tp30
a(S'5ht1b'
p31
I498
I504
tp32
a(S'5ht1a'
p33
I512
I518
tp34
a(S'5ht1b'
p35
I478
I484
tp36
a(S'5ht1a'
p37
I95
I101
tp38
a(S'5ht1a'
p39
I710
I716
tp40
a(S'5ht1b'
p41
I843
I849
tp42
a(S'5ht1a'
p43
I592
I598
tp44
a(S'5ht1b'
p45
I1309
I1315
tp46
a(S'5ht1a'
p47
I1123
I1129
tp48
atp49
Rp50
sS'raw_text_methods'
p51
g3
((lp52
S"(13, u'\\\\bagonist')"
p53
aS"(51, u'\\\\bway100635')"
p54
aS"(12, u'\\\\bantagonist')"
p55
atp56
Rp57
sS'regions'
p58
g3
((lp59
S"(4, u'(?i)\\\\b(presynaptics|presynaptic)\\\\b')"
p60
atp61
Rp62
sS'year'
p63
V2002
p64
sS'species'
p65
g3
((lp66
S"(1, u'(?i)\\\\b(mice|mouse)\\\\b')"
p67
aS"(5, u'(?i)\\\\b(mices|mice)\\\\b')"
p68
atp69
Rp70
sb.