(ifile_types
ParseObject
p0
(dp1
S'antagonists'
p2
c__builtin__
set
p3
((lp4
tp5
Rp6
sS'methods'
p7
g3
((lp8
tp9
Rp10
sS'topics'
p11
g3
((lp12
tp13
Rp14
sS'receptors'
p15
g3
((lp16
S'5ht1a'
p17
atp18
Rp19
sS'regions'
p20
g3
((lp21
tp22
Rp23
sS'year'
p24
V2003
p25
sS'agonists'
p26
g3
((lp27
tp28
Rp29
sS'species'
p30
g3
((lp31
S"(6391, u'(?i)(asses|ass)')"
p32
aS"(468, u'(?i)(oxen|ox)')"
p33
aS"(5229, u'(?i)(moles|mole)')"
p34
aS"(6753, u'(?i)(da|das)')"
p35
atp36
Rp37
sb.