(ifile_types
ParseObject
p0
(dp1
S'methods'
p2
c__builtin__
set
p3
((lp4
S'Method.ANTAGONIST'
p5
aS'Method.IMMUNOHISTOCHEMISTRY'
p6
atp7
Rp8
sS'topics'
p9
g3
((lp10
S"(22, u'\\\\bschizophreni')"
p11
aS"(14, u'\\\\bcogniti')"
p12
aS"(26, u'\\\\bbehav')"
p13
aS"(25, u'\\\\bsocial')"
p14
aS"(33, u'\\\\blocomot')"
p15
aS"(15, u'\\\\bmemory')"
p16
aS"(5, u'\\\\btherap')"
p17
atp18
Rp19
sS'receptors'
p20
g3
((lp21
(S'5ht6'
p22
I179
I184
tp23
a(S'5ht6'
p24
I446
I451
tp25
atp26
Rp27
sS'raw_text_methods'
p28
g3
((lp29
S"(12, u'\\\\bantagonist')"
p30
atp31
Rp32
sS'regions'
p33
g3
((lp34
tp35
Rp36
sS'year'
p37
V2018
p38
sS'species'
p39
g3
((lp40
S"(3, u'(?i)\\\\b(males|male)\\\\b')"
p41
aS"(4, u'(?i)\\\\b(rats|rat)\\\\b')"
p42
atp43
Rp44
sb.