(ifile_types
ParseObject
p0
(dp1
S'antagonists'
p2
c__builtin__
set
p3
((lp4
S"(52, u'\\\\bmetergoline')"
p5
aS"(35, u'\\\\bmetergoline')"
p6
atp7
Rp8
sS'methods'
p9
g3
((lp10
S'Method.ANTAGONIST'
p11
atp12
Rp13
sS'topics'
p14
g3
((lp15
tp16
Rp17
sS'receptors'
p18
g3
((lp19
S'5ht3'
p20
aS'5ht2'
p21
aS'5ht1'
p22
atp23
Rp24
sS'regions'
p25
g3
((lp26
tp27
Rp28
sS'year'
p29
V2002
p30
sS'agonists'
p31
g3
((lp32
tp33
Rp34
sS'species'
p35
g3
((lp36
S"(4624, u'(?i)(apes|ape)')"
p37
aS"(5958, u'(?i)(rats|rat)')"
p38
aS"(468, u'(?i)(oxen|ox)')"
p39
aS"(1055, u'(?i)(men|man)')"
p40
aS"(3726, u'(?i)(mates|mate)')"
p41
aS"(6753, u'(?i)(da|das)')"
p42
aS"(6249, u'(?i)(ants|ant)')"
p43
aS"(1961, u'(?i)(pens|pen)')"
p44
aS"(6356, u'(?i)(ais|ai)')"
p45
aS"(2809, u'(?i)(toms|tom)')"
p46
atp47
Rp48
sb.