(ifile_types
ParseObject
p0
(dp1
S'methods'
p2
c__builtin__
set
p3
((lp4
S'Method.KNOCKOUT'
p5
atp6
Rp7
sS'topics'
p8
g3
((lp9
tp10
Rp11
sS'receptors'
p12
g3
((lp13
(S'5ht2a'
p14
I32
I38
tp15
a(S'5ht2a'
p16
I491
I497
tp17
atp18
Rp19
sS'raw_text_methods'
p20
g3
((lp21
S"(18, u'\\\\bimaging')"
p22
aS"(54, u'\\\\bautoradiography')"
p23
atp24
Rp25
sS'regions'
p26
g3
((lp27
S"(9, u'(?i)\\\\b(cerebellums|cerebellum)\\\\b')"
p28
atp29
Rp30
sS'year'
p31
V2016
p32
sS'species'
p33
g3
((lp34
S"(4, u'(?i)\\\\b(rats|rat)\\\\b')"
p35
atp36
Rp37
sb.