(ifile_types
ParseObject
p0
(dp1
S'antagonists'
p2
c__builtin__
set
p3
((lp4
tp5
Rp6
sS'methods'
p7
g3
((lp8
S'Method.ANTAGONIST'
p9
aS'Method.AGONIST'
p10
aS'Method.IMMUNOHISTOCHEMISTRY'
p11
aS'Method.STAINING'
p12
atp13
Rp14
sS'topics'
p15
g3
((lp16
tp17
Rp18
sS'receptors'
p19
g3
((lp20
S'5ht5'
p21
aS'5ht1f'
p22
atp23
Rp24
sS'regions'
p25
g3
((lp26
S"(43, u'(?i)(vestibulars|vestibular)(-|\\\\s+)?(nuclei|nucleus)')"
p27
atp28
Rp29
sS'year'
p30
V2009
p31
sS'agonists'
p32
g3
((lp33
tp34
Rp35
sS'species'
p36
g3
((lp37
S"(2323, u'(?i)(bees|bee)')"
p38
aS"(6753, u'(?i)(da|das)')"
p39
aS"(5958, u'(?i)(rats|rat)')"
p40
aS"(4979, u'(?i)(cats|cat)')"
p41
aS"(6391, u'(?i)(asses|ass)')"
p42
aS"(4163, u'(?i)(ermines|ermine)')"
p43
aS"(1055, u'(?i)(men|man)')"
p44
aS"(6249, u'(?i)(ants|ant)')"
p45
aS"(853, u'(?i)(minas|mina)')"
p46
aS"(3550, u'(?i)(anis|ani)')"
p47
aS"(7094, u'(?i)(curs|cur)')"
p48
aS"(4371, u'(?i)(lizas|liza)')"
p49
aS"(3812, u'(?i)(studs|stud)')"
p50
aS"(3048, u'(?i)(hogs|hog)')"
p51
aS"(6356, u'(?i)(ais|ai)')"
p52
atp53
Rp54
sb.