(ifile_types
ParseObject
p0
(dp1
S'methods'
p2
c__builtin__
set
p3
((lp4
S'Method.ANTAGONIST'
p5
aS'Method.AGONIST'
p6
atp7
Rp8
sS'topics'
p9
g3
((lp10
S"(26, u'\\\\bbehav')"
p11
aS"(4, u'\\\\btreatment')"
p12
atp13
Rp14
sS'receptors'
p15
g3
((lp16
(S'5ht1'
p17
I366
I371
tp18
a(S'5ht2'
p19
I366
I372
tp20
a(S'5ht2'
p21
I1639
I1645
tp22
a(S'5ht1'
p23
I1639
I1644
tp24
a(S'5ht1b'
p25
I424
I430
tp26
a(S'5ht1d'
p27
I1357
I1365
tp28
a(S'5ht1b'
p29
I1357
I1363
tp30
a(S'5ht1d'
p31
I424
I432
tp32
atp33
Rp34
sS'raw_text_methods'
p35
g3
((lp36
S"(13, u'\\\\bagonist')"
p37
aS"(45, u'\\\\bmetergoline')"
p38
aS"(12, u'\\\\bantagonist')"
p39
atp40
Rp41
sS'regions'
p42
g3
((lp43
S"(12, u'(?i)\\\\b(amygdalas|amygdala)\\\\b')"
p44
atp45
Rp46
sS'year'
p47
V2009
p48
sS'species'
p49
g3
((lp50
S"(6, u'(?i)\\\\b(rodents|rodent)\\\\b')"
p51
atp52
Rp53
sb.