(ifile_types
ParseObject
p0
(dp1
S'methods'
p2
c__builtin__
set
p3
((lp4
S'Method.AGONIST'
p5
atp6
Rp7
sS'topics'
p8
g3
((lp9
S"(5, u'\\\\btherap')"
p10
aS"(15, u'\\\\bmemory')"
p11
atp12
Rp13
sS'receptors'
p14
g3
((lp15
(S'5ht4'
p16
I29
I34
tp17
a(S'5ht4'
p18
I375
I380
tp19
a(S'5ht4'
p20
I858
I863
tp21
a(S'5ht4'
p22
I1108
I1113
tp23
a(S'5ht4'
p24
I1198
I1203
tp25
a(S'5ht4'
p26
I983
I988
tp27
a(S'5ht4'
p28
I773
I778
tp29
a(S'5ht4'
p30
I688
I693
tp31
a(S'5ht4'
p32
I574
I579
tp33
a(S'5ht4'
p34
I432
I437
tp35
atp36
Rp37
sS'raw_text_methods'
p38
g3
((lp39
S"(13, u'\\\\bagonist')"
p40
atp41
Rp42
sS'regions'
p43
g3
((lp44
tp45
Rp46
sS'year'
p47
V1998
p48
sS'species'
p49
g3
((lp50
tp51
Rp52
sb.