(ifile_types
ParseObject
p0
(dp1
S'methods'
p2
c__builtin__
set
p3
((lp4
S'Method.AGONIST'
p5
atp6
Rp7
sS'topics'
p8
g3
((lp9
S"(26, u'\\\\bbehav')"
p10
atp11
Rp12
sS'receptors'
p13
g3
((lp14
(S'5ht4'
p15
I975
I980
tp16
a(S'5ht1a'
p17
I674
I680
tp18
a(S'5ht4'
p19
I454
I459
tp20
a(S'5ht2'
p21
I1676
I1681
tp22
a(S'5ht2'
p23
I1725
I1730
tp24
a(S'5ht1a'
p25
I1346
I1352
tp26
a(S'5ht1a'
p27
I1544
I1550
tp28
atp29
Rp30
sS'raw_text_methods'
p31
g3
((lp32
S"(13, u'\\\\bagonist')"
p33
aS"(15, u'\\\\b8ohdpat')"
p34
aS"(41, u'\\\\bhaloperidol')"
p35
atp36
Rp37
sS'regions'
p38
g3
((lp39
S"(3, u'(?i)\\\\b(postsynaptics|postsynaptic)\\\\b')"
p40
atp41
Rp42
sS'year'
p43
V1999
p44
sS'species'
p45
g3
((lp46
S"(4, u'(?i)\\\\b(rats|rat)\\\\b')"
p47
atp48
Rp49
sb.