(ifile_types
ParseObject
p0
(dp1
S'antagonists'
p2
c__builtin__
set
p3
((lp4
S"(117, u'\\\\bketanserin')"
p5
atp6
Rp7
sS'methods'
p8
g3
((lp9
S'Method.STIMULATION'
p10
aS'Method.ANTAGONIST'
p11
aS'Method.AGONIST'
p12
atp13
Rp14
sS'topics'
p15
g3
((lp16
S"(9, u'\\\\bdepress')"
p17
atp18
Rp19
sS'receptors'
p20
g3
((lp21
S'5ht7'
p22
aS'5ht1a'
p23
aS'5ht2'
p24
aS'5ht2a'
p25
atp26
Rp27
sS'regions'
p28
g3
((lp29
S"(85, u'(?i)\\\\b(tectums|tectum)\\\\b')"
p30
atp31
Rp32
sS'year'
p33
V1991
p34
sS'agonists'
p35
g3
((lp36
S"(20, u'\\\\bbuspirone')"
p37
aS"(85, u'\\\\b8 ?oh ?dpat')"
p38
aS"(42, u'\\\\bgepirone')"
p39
atp40
Rp41
sS'species'
p42
g3
((lp43
S"(5958, u'(?i)\\\\b(rats|rat)\\\\b')"
p44
atp45
Rp46
sb.