(ifile_types
ParseObject
p0
(dp1
S'antagonists'
p2
c__builtin__
set
p3
((lp4
S"(53, u'\\\\bketanserin')"
p5
aS"(128, u'\\\\bketanserin')"
p6
aS"(61, u'\\\\bmdl ?100907')"
p7
atp8
Rp9
sS'methods'
p10
g3
((lp11
S'Method.KNOCKOUT'
p12
aS'Method.ANTAGONIST'
p13
atp14
Rp15
sS'topics'
p16
g3
((lp17
S"(20, u'\\\\baggressi')"
p18
aS"(8, u'\\\\blearning')"
p19
aS"(35, u'\\\\bstress')"
p20
aS"(30, u'\\\\bparkinsons')"
p21
aS"(7, u'\\\\bmemory')"
p22
atp23
Rp24
sS'receptors'
p25
g3
((lp26
S'5ht5'
p27
aS'5ht2c'
p28
aS'5ht1a'
p29
aS'5ht2a'
p30
atp31
Rp32
sS'regions'
p33
g3
((lp34
S"(34, u'(?i)(pon|pons)')"
p35
atp36
Rp37
sS'year'
p38
V2004
p39
sS'agonists'
p40
g3
((lp41
S"(181, u'\\\\bdom')"
p42
aS"(155, u'\\\\bmem')"
p43
atp44
Rp45
sS'species'
p46
g3
((lp47
S"(2323, u'(?i)(bees|bee)')"
p48
aS"(6753, u'(?i)(da|das)')"
p49
aS"(2568, u'(?i)(hens|hen)')"
p50
aS"(867, u'(?i)(tits|tit)')"
p51
aS"(163, u'(?i)(mice|mouse)')"
p52
aS"(468, u'(?i)(oxen|ox)')"
p53
aS"(1055, u'(?i)(men|man)')"
p54
aS"(6249, u'(?i)(ants|ant)')"
p55
aS"(4964, u'(?i)(serins|serin)')"
p56
aS"(5958, u'(?i)(rats|rat)')"
p57
aS"(3812, u'(?i)(studs|stud)')"
p58
aS"(1628, u'(?i)(cod|cod)')"
p59
aS"(5743, u'(?i)(bots|bot)')"
p60
aS"(6356, u'(?i)(ais|ai)')"
p61
atp62
Rp63
sb.