(ifile_types
ParseObject
p0
(dp1
S'methods'
p2
c__builtin__
set
p3
((lp4
S'Method.STIMULATION'
p5
aS'Method.ANTAGONIST'
p6
aS'Method.AGONIST'
p7
atp8
Rp9
sS'topics'
p10
g3
((lp11
tp12
Rp13
sS'receptors'
p14
g3
((lp15
(S'5ht1a'
p16
I473
I484
tp17
a(S'5ht1d'
p18
I1033
I1041
tp19
a(S'5ht1b'
p20
I41
I47
tp21
a(S'5ht1a'
p22
I870
I876
tp23
a(S'5ht1a'
p24
I1780
I1786
tp25
a(S'5ht1d'
p26
I1759
I1767
tp27
a(S'5ht1b'
p28
I524
I530
tp29
a(S'5ht1a'
p30
I488
I494
tp31
a(S'5ht1d'
p32
I41
I49
tp33
a(S'5ht1'
p34
I1033
I1041
tp35
a(S'5ht1b'
p36
I1033
I1039
tp37
a(S'5ht1a'
p38
I30
I36
tp39
a(S'5ht1b'
p40
I1759
I1765
tp41
a(S'5ht1d'
p42
I524
I532
tp43
atp44
Rp45
sS'raw_text_methods'
p46
g3
((lp47
S"(13, u'\\\\bagonist')"
p48
aS"(15, u'\\\\b8ohdpat')"
p49
aS"(6, u'\\\\bgr127935')"
p50
aS"(51, u'\\\\bway100635')"
p51
aS"(12, u'\\\\bantagonist')"
p52
atp53
Rp54
sS'regions'
p55
g3
((lp56
tp57
Rp58
sS'year'
p59
V2000
p60
sS'species'
p61
g3
((lp62
tp63
Rp64
sb.