(ifile_types
ParseObject
p0
(dp1
S'antagonists'
p2
c__builtin__
set
p3
((lp4
S"(101, u'\\\\btramadol')"
p5
aS"(117, u'\\\\bketanserin')"
p6
atp7
Rp8
sS'methods'
p9
g3
((lp10
S'Method.ANTAGONIST'
p11
atp12
Rp13
sS'topics'
p14
g3
((lp15
S"(21, u'\\\\bpain')"
p16
aS"(24, u'\\\\banalgesi')"
p17
atp18
Rp19
sS'receptors'
p20
g3
((lp21
S'5ht2a'
p22
atp23
Rp24
sS'regions'
p25
g3
((lp26
S"(91, u'(?i)\\\\b(periaqueductals|periaqueductal)(-|\\\\s+)?(grays|gray)\\\\b')"
p27
atp28
Rp29
sS'year'
p30
V2008
p31
sS'agonists'
p32
g3
((lp33
tp34
Rp35
sS'species'
p36
g3
((lp37
S"(4177, u'(?i)\\\\b(grays|gray)\\\\b')"
p38
aS"(5958, u'(?i)\\\\b(rats|rat)\\\\b')"
p39
atp40
Rp41
sb.