(ifile_types
ParseObject
p0
(dp1
S'methods'
p2
c__builtin__
set
p3
((lp4
S'Method.ANTAGONIST'
p5
atp6
Rp7
sS'topics'
p8
g3
((lp9
S"(30, u'\\\\bpain')"
p10
aS"(4, u'\\\\btreatment')"
p11
aS"(3, u'\\\\bclinical')"
p12
atp13
Rp14
sS'receptors'
p15
g3
((lp16
(S'5ht2a'
p17
I372
I378
tp18
a(S'5ht2a'
p19
I613
I619
tp20
a(S'5ht2a'
p21
I1427
I1433
tp22
a(S'5ht2a'
p23
I40
I51
tp24
a(S'5ht2a'
p25
I1312
I1318
tp26
a(S'5ht2a'
p27
I1126
I1132
tp28
a(S'5ht2a'
p29
I699
I705
tp30
atp31
Rp32
sS'raw_text_methods'
p33
g3
((lp34
S"(53, u'\\\\bketanserin')"
p35
aS"(12, u'\\\\bantagonist')"
p36
atp37
Rp38
sS'regions'
p39
g3
((lp40
tp41
Rp42
sS'year'
p43
V2008
p44
sS'species'
p45
g3
((lp46
S"(4, u'(?i)\\\\b(rats|rat)\\\\b')"
p47
atp48
Rp49
sb.