(ifile_types
ParseObject
p0
(dp1
S'methods'
p2
c__builtin__
set
p3
((lp4
S'Method.IMMUNOHISTOCHEMISTRY'
p5
atp6
Rp7
sS'topics'
p8
g3
((lp9
tp10
Rp11
sS'receptors'
p12
g3
((lp13
(S'5ht4'
p14
I449
I454
tp15
a(S'5ht4'
p16
I36
I41
tp17
a(S'5ht4'
p18
I777
I782
tp19
a(S'5ht5'
p20
I210
I220
tp21
a(S'5ht4'
p22
I1064
I1069
tp23
a(S'5ht4'
p24
I466
I471
tp25
atp26
Rp27
sS'raw_text_methods'
p28
g3
((lp29
tp30
Rp31
sS'regions'
p32
g3
((lp33
S"(8, u'(?i)\\\\b(centrals|central)(-|\\\\s+)?(nervouses|nervous)(-|\\\\s+)?(systems|system)\\\\b')"
p34
aS"(16, u'(?i)\\\\b(drns|drn)\\\\b')"
p35
atp36
Rp37
sS'year'
p38
V2017
p39
sS'species'
p40
g3
((lp41
S"(1, u'(?i)\\\\b(mice|mouse)\\\\b')"
p42
aS"(5, u'(?i)\\\\b(mices|mice)\\\\b')"
p43
atp44
Rp45
sb.