(ifile_types
ParseObject
p0
(dp1
S'antagonists'
p2
c__builtin__
set
p3
((lp4
S"(209, u'\\\\btfmpp')"
p5
aS"(32, u'\\\\bway ?100635')"
p6
aS"(43, u'\\\\bbrl ?15572')"
p7
aS"(201, u'\\\\bpimozide')"
p8
aS"(94, u'\\\\bsb ?204741')"
p9
atp10
Rp11
sS'methods'
p12
g3
((lp13
S'Method.ANTAGONIST'
p14
aS'Method.AGONIST'
p15
atp16
Rp17
sS'topics'
p18
g3
((lp19
tp20
Rp21
sS'receptors'
p22
g3
((lp23
S'5ht7'
p24
aS'5ht1b'
p25
aS'5ht1a'
p26
aS'5ht2b'
p27
aS'5ht2'
p28
aS'5ht1'
p29
aS'5ht1d'
p30
aS'5ht5'
p31
atp32
Rp33
sS'regions'
p34
g3
((lp35
tp36
Rp37
sS'year'
p38
V2010
p39
sS'agonists'
p40
g3
((lp41
S"(5, u'\\\\b5 ?ct')"
p42
aS"(183, u'\\\\btfmpp')"
p43
atp44
Rp45
sS'species'
p46
g3
((lp47
S"(4624, u'(?i)(apes|ape)')"
p48
aS"(5958, u'(?i)(rats|rat)')"
p49
aS"(7539, u'(?i)(mammals|mammal)')"
p50
aS"(4163, u'(?i)(ermines|ermine)')"
p51
aS"(1349, u'(?i)(rams|ram)')"
p52
aS"(6215, u'(?i)(racers|racer)')"
p53
aS"(6356, u'(?i)(ais|ai)')"
p54
aS"(6249, u'(?i)(ants|ant)')"
p55
aS"(6391, u'(?i)(asses|ass)')"
p56
aS"(3812, u'(?i)(studs|stud)')"
p57
aS"(233, u'(?i)(rainbows|rainbow)(-|\\\\s+)?(trout|trout)')"
p58
aS"(4392, u'(?i)(trout|trout)')"
p59
aS"(5949, u'(?i)(dogs|dog)')"
p60
atp61
Rp62
sb.