(ifile_types
ParseObject
p0
(dp1
S'antagonists'
p2
c__builtin__
set
p3
((lp4
S"(30, u'\\\\bway ?100135')"
p5
atp6
Rp7
sS'methods'
p8
g3
((lp9
S'Method.STIMULATION'
p10
aS'Method.ANTAGONIST'
p11
aS'Method.AGONIST'
p12
atp13
Rp14
sS'topics'
p15
g3
((lp16
S"(7, u'\\\\bmemory')"
p17
aS"(3, u'\\\\bsleep')"
p18
aS"(2, u'\\\\bappetite')"
p19
aS"(1, u'\\\\bmood')"
p20
atp21
Rp22
sS'receptors'
p23
g3
((lp24
S'5ht7a'
p25
aS'5ht1a'
p26
atp27
Rp28
sS'regions'
p29
g3
((lp30
tp31
Rp32
sS'year'
p33
V2013
p34
sS'agonists'
p35
g3
((lp36
S"(149, u'\\\\bmem')"
p37
aS"(85, u'\\\\b8 ?oh ?dpat')"
p38
atp39
Rp40
sS'species'
p41
g3
((lp42
S"(3152, u'(?i)\\\\b(layers|layer)\\\\b')"
p43
aS"(4091, u'(?i)\\\\b(adults|adult)\\\\b')"
p44
aS"(163, u'(?i)\\\\b(mice|mouse)\\\\b')"
p45
aS"(5958, u'(?i)\\\\b(rats|rat)\\\\b')"
p46
atp47
Rp48
sb.