(ifile_types
ParseObject
p0
(dp1
S'antagonists'
p2
c__builtin__
set
p3
((lp4
S"(102, u'\\\\bfluoxetine')"
p5
atp6
Rp7
sS'methods'
p8
g3
((lp9
S'Method.PET'
p10
atp11
Rp12
sS'topics'
p13
g3
((lp14
tp15
Rp16
sS'receptors'
p17
g3
((lp18
S'5ht5'
p19
aS'5ht2a'
p20
atp21
Rp22
sS'regions'
p23
g3
((lp24
tp25
Rp26
sS'year'
p27
V2012
p28
sS'agonists'
p29
g3
((lp30
tp31
Rp32
sS'species'
p33
g3
((lp34
S"(2323, u'(?i)(bees|bee)')"
p35
aS"(5958, u'(?i)(rats|rat)')"
p36
aS"(6391, u'(?i)(asses|ass)')"
p37
aS"(6682, u'(?i)(tera|teras)')"
p38
aS"(468, u'(?i)(oxen|ox)')"
p39
aS"(1055, u'(?i)(men|man)')"
p40
aS"(3726, u'(?i)(mates|mate)')"
p41
aS"(6753, u'(?i)(da|das)')"
p42
aS"(7094, u'(?i)(curs|cur)')"
p43
aS"(6249, u'(?i)(ants|ant)')"
p44
aS"(4604, u'(?i)(mites|mite)')"
p45
aS"(1057, u'(?i)(humans|human)')"
p46
aS"(5466, u'(?i)(sawyers|sawyer)')"
p47
aS"(6356, u'(?i)(ais|ai)')"
p48
aS"(3196, u'(?i)(human|humans)')"
p49
aS"(6521, u'(?i)(macaques|macaque)')"
p50
aS"(2809, u'(?i)(toms|tom)')"
p51
aS"(4596, u'(?i)(rhesuses|rhesus)')"
p52
aS"(7127, u'(?i)(monitors|monitor)')"
p53
atp54
Rp55
sb.