(ifile_types
ParseObject
p0
(dp1
S'antagonists'
p2
c__builtin__
set
p3
((lp4
S"(34, u'\\\\bmetergoline')"
p5
aS"(38, u'\\\\bsb ?224289')"
p6
aS"(117, u'\\\\bketanserin')"
p7
aS"(124, u'\\\\bondansetron')"
p8
aS"(43, u'\\\\bgr ?127935')"
p9
aS"(11, u'\\\\bisamoltane')"
p10
atp11
Rp12
sS'methods'
p13
g3
((lp14
S'Method.ANTAGONIST'
p15
aS'Method.AGONIST'
p16
atp17
Rp18
sS'topics'
p19
g3
((lp20
tp21
Rp22
sS'receptors'
p23
g3
((lp24
S'5ht1b'
p25
aS'5ht1a'
p26
aS'5ht3'
p27
aS'5ht2'
p28
aS'5ht1d'
p29
atp30
Rp31
sS'regions'
p32
g3
((lp33
tp34
Rp35
sS'year'
p36
V1999
p37
sS'agonists'
p38
g3
((lp39
S"(100, u'\\\\bcp ?93129')"
p40
aS"(85, u'\\\\b8 ?oh ?dpat')"
p41
aS"(175, u'\\\\bdoi')"
p42
atp43
Rp44
sS'species'
p45
g3
((lp46
S"(5958, u'(?i)\\\\b(rats|rat)\\\\b')"
p47
atp48
Rp49
sb.