(ifile_types
ParseObject
p0
(dp1
S'antagonists'
p2
c__builtin__
set
p3
((lp4
S"(99, u'\\\\bsb ?242084')"
p5
aS"(83, u'\\\\bsb ?204741')"
p6
aS"(117, u'\\\\bketanserin')"
p7
aS"(58, u'\\\\bhaloperidol')"
p8
atp9
Rp10
sS'methods'
p11
g3
((lp12
S'Method.ANTAGONIST'
p13
aS'Method.AGONIST'
p14
atp15
Rp16
sS'topics'
p17
g3
((lp18
S"(29, u'\\\\bsex')"
p19
atp20
Rp21
sS'receptors'
p22
g3
((lp23
S'5ht2a'
p24
aS'5ht2b'
p25
aS'5ht2c'
p26
aS'5ht2'
p27
atp28
Rp29
sS'regions'
p30
g3
((lp31
tp32
Rp33
sS'year'
p34
V2009
p35
sS'agonists'
p36
g3
((lp37
S"(210, u'\\\\bsulpiride')"
p38
aS"(176, u'\\\\bdom')"
p39
aS"(155, u'\\\\bmcpp')"
p40
aS"(43, u'\\\\bhaloperidol')"
p41
atp42
Rp43
sS'species'
p44
g3
((lp45
S"(5967, u'(?i)\\\\b(males|male)\\\\b')"
p46
aS"(6753, u'(?i)\\\\b(da|das)\\\\b')"
p47
aS"(5958, u'(?i)\\\\b(rats|rat)\\\\b')"
p48
atp49
Rp50
sb.