(ifile_types
ParseObject
p0
(dp1
S'antagonists'
p2
c__builtin__
set
p3
((lp4
S"(110, u'\\\\bclozapine')"
p5
aS"(17, u'\\\\bnan ?190')"
p6
aS"(28, u'\\\\bspiroxatrine')"
p7
aS"(34, u'\\\\bmetergoline')"
p8
aS"(124, u'\\\\bondansetron')"
p9
aS"(58, u'\\\\bhaloperidol')"
p10
atp11
Rp12
sS'methods'
p13
g3
((lp14
S'Method.ANTAGONIST'
p15
aS'Method.AGONIST'
p16
atp17
Rp18
sS'topics'
p19
g3
((lp20
tp21
Rp22
sS'receptors'
p23
g3
((lp24
S'5ht1c'
p25
aS'5ht1b'
p26
aS'5ht1a'
p27
aS'5ht3a'
p28
aS'5ht2a'
p29
atp30
Rp31
sS'regions'
p32
g3
((lp33
tp34
Rp35
sS'year'
p36
V1998
p37
sS'agonists'
p38
g3
((lp39
S"(20, u'\\\\bbuspirone')"
p40
aS"(74, u'\\\\btiospirone')"
p41
aS"(192, u'\\\\bquipazine')"
p42
aS"(155, u'\\\\bmcpp')"
p43
aS"(43, u'\\\\bhaloperidol')"
p44
aS"(23, u'\\\\bclozapine')"
p45
aS"(85, u'\\\\b8 ?oh ?dpat')"
p46
atp47
Rp48
sS'species'
p49
g3
((lp50
S"(1312, u'(?i)\\\\b(pigeons|pigeon)\\\\b')"
p51
atp52
Rp53
sb.