(ifile_types
ParseObject
p0
(dp1
S'methods'
p2
c__builtin__
set
p3
((lp4
S'Method.AGONIST'
p5
atp6
Rp7
sS'topics'
p8
g3
((lp9
S"(33, u'\\\\blocomot')"
p10
aS"(4, u'\\\\btreatment')"
p11
atp12
Rp13
sS'receptors'
p14
g3
((lp15
(S'5ht2c'
p16
I1735
I1741
tp17
a(S'5ht2c'
p18
I316
I322
tp19
a(S'5ht2c'
p20
I1834
I1840
tp21
atp22
Rp23
sS'raw_text_methods'
p24
g3
((lp25
S"(13, u'\\\\bagonist')"
p26
aS"(33, u'\\\\bmcpp')"
p27
atp28
Rp29
sS'regions'
p30
g3
((lp31
tp32
Rp33
sS'year'
p34
V2000
p35
sS'species'
p36
g3
((lp37
S"(3, u'(?i)\\\\b(males|male)\\\\b')"
p38
aS"(4, u'(?i)\\\\b(rats|rat)\\\\b')"
p39
atp40
Rp41
sb.