(ifile_types
ParseObject
p0
(dp1
S'methods'
p2
c__builtin__
set
p3
((lp4
tp5
Rp6
sS'topics'
p7
g3
((lp8
S"(12, u'\\\\bsleep')"
p9
atp10
Rp11
sS'receptors'
p12
g3
((lp13
(S'5ht1a'
p14
I1042
I1048
tp15
atp16
Rp17
sS'raw_text_methods'
p18
g3
((lp19
tp20
Rp21
sS'regions'
p22
g3
((lp23
tp24
Rp25
sS'year'
p26
V2007
p27
sS'species'
p28
g3
((lp29
S"(4, u'(?i)\\\\b(rats|rat)\\\\b')"
p30
atp31
Rp32
sb.