(ifile_types
ParseObject
p0
(dp1
S'antagonists'
p2
c__builtin__
set
p3
((lp4
S"(31, u'\\\\bway ?100635')"
p5
aS"(194, u'\\\\bmethysergide')"
p6
atp7
Rp8
sS'methods'
p9
g3
((lp10
S'Method.ANTAGONIST'
p11
atp12
Rp13
sS'topics'
p14
g3
((lp15
S"(21, u'\\\\bpain')"
p16
aS"(9, u'\\\\bdepress')"
p17
aS"(24, u'\\\\banalgesi')"
p18
atp19
Rp20
sS'receptors'
p21
g3
((lp22
S'5ht1a'
p23
atp24
Rp25
sS'regions'
p26
g3
((lp27
tp28
Rp29
sS'year'
p30
V2014
p31
sS'agonists'
p32
g3
((lp33
S"(53, u'\\\\bmethysergide')"
p34
atp35
Rp36
sS'species'
p37
g3
((lp38
S"(163, u'(?i)\\\\b(mice|mouse)\\\\b')"
p39
atp40
Rp41
sb.