(ifile_types
ParseObject
p0
(dp1
S'antagonists'
p2
c__builtin__
set
p3
((lp4
tp5
Rp6
sS'methods'
p7
g3
((lp8
tp9
Rp10
sS'topics'
p11
g3
((lp12
S"(15, u'\\\\bschizophreni')"
p13
aS"(9, u'\\\\bdepress')"
p14
atp15
Rp16
sS'receptors'
p17
g3
((lp18
S'5ht1b'
p19
atp20
Rp21
sS'regions'
p22
g3
((lp23
S"(292, u'(?i)\\\\b(anteriors|anterior)(-|\\\\s+)?(cingulates|cingulate)\\\\b')"
p24
aS"(291, u'(?i)\\\\b(cingulates|cingulate)(-|\\\\s+)?(cortexes|cortex)\\\\b')"
p25
atp26
Rp27
sS'year'
p28
V2017
p29
sS'agonists'
p30
g3
((lp31
tp32
Rp33
sS'species'
p34
g3
((lp35
S"(3152, u'(?i)\\\\b(layers|layer)\\\\b')"
p36
aS"(6125, u'(?i)\\\\b(females|female)\\\\b')"
p37
aS"(5967, u'(?i)\\\\b(males|male)\\\\b')"
p38
atp39
Rp40
sb.