(ifile_types
ParseObject
p0
(dp1
S'methods'
p2
c__builtin__
set
p3
((lp4
S'Method.AGONIST'
p5
atp6
Rp7
sS'topics'
p8
g3
((lp9
tp10
Rp11
sS'receptors'
p12
g3
((lp13
(S'5ht2a'
p14
I1228
I1234
tp15
a(S'5ht2a'
p16
I1291
I1297
tp17
a(S'5ht2a'
p18
I62
I68
tp19
a(S'5ht2a'
p20
I969
I975
tp21
a(S'5ht2a'
p22
I219
I225
tp23
atp24
Rp25
sS'raw_text_methods'
p26
g3
((lp27
S"(13, u'\\\\bagonist')"
p28
aS"(49, u'\\\\bdoi')"
p29
aS"(54, u'\\\\bautoradiography')"
p30
atp31
Rp32
sS'regions'
p33
g3
((lp34
S"(22, u'(?i)\\\\b(anteriors|anterior)(-|\\\\s+)?(cingulates|cingulate)\\\\b')"
p35
aS"(20, u'(?i)\\\\b(prefrontals|prefrontal)\\\\b')"
p36
aS"(19, u'(?i)\\\\b(cortexes|cortex)\\\\b')"
p37
atp38
Rp39
sS'year'
p40
V1999
p41
sS'species'
p42
g3
((lp43
S"(4, u'(?i)\\\\b(rats|rat)\\\\b')"
p44
atp45
Rp46
sb.