(ifile_types
ParseObject
p0
(dp1
S'antagonists'
p2
c__builtin__
set
p3
((lp4
S"(26, u'\\\\bspiperone')"
p5
aS"(14, u'\\\\bmethiothepin')"
p6
atp7
Rp8
sS'methods'
p9
g3
((lp10
S'Method.ANTAGONIST'
p11
atp12
Rp13
sS'topics'
p14
g3
((lp15
tp16
Rp17
sS'receptors'
p18
g3
((lp19
S'5ht7'
p20
atp21
Rp22
sS'regions'
p23
g3
((lp24
tp25
Rp26
sS'year'
p27
V1994
p28
sS'agonists'
p29
g3
((lp30
S"(220, u'\\\\b5 ?methoxytryptamine')"
p31
aS"(96, u'\\\\bsumatriptan')"
p32
aS"(222, u'\\\\b5 ?meot')"
p33
aS"(176, u'\\\\bdom')"
p34
aS"(85, u'\\\\b8 ?oh ?dpat')"
p35
aS"(219, u'\\\\b5 ?ct')"
p36
atp37
Rp38
sS'species'
p39
g3
((lp40
S"(5958, u'(?i)\\\\b(rats|rat)\\\\b')"
p41
aS"(3051, u'(?i)\\\\b(pigs|pig)\\\\b')"
p42
aS"(4480, u'(?i)\\\\b(guineas|guinea)(-|\\\\s+)?(pigs|pig)\\\\b')"
p43
aS"(3062, u'(?i)\\\\b(guineas|guinea)\\\\b')"
p44
atp45
Rp46
sb.