(ifile_types
ParseObject
p0
(dp1
S'antagonists'
p2
c__builtin__
set
p3
((lp4
tp5
Rp6
sS'methods'
p7
g3
((lp8
tp9
Rp10
sS'topics'
p11
g3
((lp12
tp13
Rp14
sS'receptors'
p15
g3
((lp16
S'5ht5b'
p17
atp18
Rp19
sS'regions'
p20
g3
((lp21
S"(318, u'(?i)(raphes|raphe)(-|\\\\s+)?(nuclei|nucleus)')"
p22
atp23
Rp24
sS'year'
p25
V2004
p26
sS'agonists'
p27
g3
((lp28
tp29
Rp30
sS'species'
p31
g3
((lp32
S"(6753, u'(?i)(da|das)')"
p33
aS"(5958, u'(?i)(rats|rat)')"
p34
aS"(6682, u'(?i)(tera|teras)')"
p35
aS"(6249, u'(?i)(ants|ant)')"
p36
aS"(4371, u'(?i)(lizas|liza)')"
p37
atp38
Rp39
sb.