(ifile_types
ParseObject
p0
(dp1
S'methods'
p2
c__builtin__
set
p3
((lp4
tp5
Rp6
sS'topics'
p7
g3
((lp8
tp9
Rp10
sS'receptors'
p11
g3
((lp12
(S'5ht1d'
p13
I756
I762
tp14
a(S'5ht1d'
p15
I806
I812
tp16
a(S'5ht1d'
p17
I326
I332
tp18
a(S'5ht1b'
p19
I699
I705
tp20
a(S'5ht1d'
p21
I921
I927
tp22
a(S'5ht1b'
p23
I909
I915
tp24
a(S'5ht1d'
p25
I534
I540
tp26
a(S'5ht1b'
p27
I794
I800
tp28
a(S'5ht1b'
p29
I314
I320
tp30
a(S'5ht1b'
p31
I560
I566
tp32
a(S'5ht1d'
p33
I64
I70
tp34
a(S'5ht1b'
p35
I509
I515
tp36
a(S'5ht1b'
p37
I52
I58
tp38
a(S'5ht1d'
p39
I658
I664
tp40
atp41
Rp42
sS'raw_text_methods'
p43
g3
((lp44
S"(2, u'\\\\blabeling')"
p45
atp46
Rp47
sS'regions'
p48
g3
((lp49
tp50
Rp51
sS'year'
p52
V1998
p53
sS'species'
p54
g3
((lp55
S"(7, u'(?i)\\\\b(guineas|guinea)(-|\\\\s+)?(pigs|pig)\\\\b')"
p56
atp57
Rp58
sb.