(ifile_types
ParseObject
p0
(dp1
S'antagonists'
p2
c__builtin__
set
p3
((lp4
tp5
Rp6
sS'methods'
p7
g3
((lp8
S'Method.ANTAGONIST'
p9
atp10
Rp11
sS'topics'
p12
g3
((lp13
tp14
Rp15
sS'receptors'
p16
g3
((lp17
S'5ht3a'
p18
aS'5ht4'
p19
aS'5ht3'
p20
aS'5ht2a'
p21
atp22
Rp23
sS'regions'
p24
g3
((lp25
S"(34, u'(?i)(pon|pons)')"
p26
atp27
Rp28
sS'year'
p29
V1998
p30
sS'agonists'
p31
g3
((lp32
tp33
Rp34
sS'species'
p35
g3
((lp36
S"(5958, u'(?i)(rats|rat)')"
p37
aS"(867, u'(?i)(tits|tit)')"
p38
aS"(468, u'(?i)(oxen|ox)')"
p39
aS"(1055, u'(?i)(men|man)')"
p40
aS"(5131, u'(?i)(hags|hag)')"
p41
aS"(6753, u'(?i)(da|das)')"
p42
aS"(6249, u'(?i)(ants|ant)')"
p43
aS"(6356, u'(?i)(ais|ai)')"
p44
aS"(1628, u'(?i)(cod|cod)')"
p45
atp46
Rp47
sb.