(ifile_types
ParseObject
p0
(dp1
S'antagonists'
p2
c__builtin__
set
p3
((lp4
S"(135, u'\\\\bondansetron')"
p5
aS"(114, u'\\\\bimipramine')"
p6
aS"(117, u'\\\\bmianserin')"
p7
atp8
Rp9
sS'methods'
p10
g3
((lp11
S'Method.ANTAGONIST'
p12
atp13
Rp14
sS'topics'
p15
g3
((lp16
tp17
Rp18
sS'receptors'
p19
g3
((lp20
S'5ht3a'
p21
aS'5ht3'
p22
aS'5ht2'
p23
aS'5ht2a'
p24
atp25
Rp26
sS'regions'
p27
g3
((lp28
S"(34, u'(?i)(pon|pons)')"
p29
atp30
Rp31
sS'year'
p32
V2001
p33
sS'agonists'
p34
g3
((lp35
tp36
Rp37
sS'species'
p38
g3
((lp39
S"(6753, u'(?i)(da|das)')"
p40
aS"(2568, u'(?i)(hens|hen)')"
p41
aS"(5958, u'(?i)(rats|rat)')"
p42
aS"(4979, u'(?i)(cats|cat)')"
p43
aS"(5967, u'(?i)(males|male)')"
p44
aS"(468, u'(?i)(oxen|ox)')"
p45
aS"(1055, u'(?i)(men|man)')"
p46
aS"(6249, u'(?i)(ants|ant)')"
p47
aS"(1349, u'(?i)(rams|ram)')"
p48
aS"(4964, u'(?i)(serins|serin)')"
p49
aS"(3550, u'(?i)(anis|ani)')"
p50
aS"(1961, u'(?i)(pens|pen)')"
p51
aS"(6356, u'(?i)(ais|ai)')"
p52
aS"(6391, u'(?i)(asses|ass)')"
p53
aS"(7552, u'(?i)(bats|bat)')"
p54
atp55
Rp56
sb.