(ifile_types
ParseObject
p0
(dp1
S'antagonists'
p2
c__builtin__
set
p3
((lp4
S"(136, u'\\\\btropisetron')"
p5
atp6
Rp7
sS'methods'
p8
g3
((lp9
S'Method.ANTAGONIST'
p10
aS'Method.AGONIST'
p11
atp12
Rp13
sS'topics'
p14
g3
((lp15
tp16
Rp17
sS'receptors'
p18
g3
((lp19
S'5ht5'
p20
aS'5ht3'
p21
atp22
Rp23
sS'regions'
p24
g3
((lp25
S"(220, u'(?i)(striatums|striatum)')"
p26
atp27
Rp28
sS'year'
p29
V1998
p30
sS'agonists'
p31
g3
((lp32
tp33
Rp34
sS'species'
p35
g3
((lp36
S"(2323, u'(?i)(bees|bee)')"
p37
aS"(2568, u'(?i)(hens|hen)')"
p38
aS"(3137, u'(?i)(iguanids|iguanid)')"
p39
aS"(867, u'(?i)(tits|tit)')"
p40
aS"(4979, u'(?i)(cats|cat)')"
p41
aS"(468, u'(?i)(oxen|ox)')"
p42
aS"(1055, u'(?i)(men|man)')"
p43
aS"(6249, u'(?i)(ants|ant)')"
p44
aS"(853, u'(?i)(minas|mina)')"
p45
aS"(3550, u'(?i)(anis|ani)')"
p46
aS"(5958, u'(?i)(rats|rat)')"
p47
aS"(6356, u'(?i)(ais|ai)')"
p48
aS"(7609, u'(?i)(erns|ern)')"
p49
aS"(6878, u'(?i)(guans|guan)')"
p50
aS"(1683, u'(?i)(terns|tern)')"
p51
atp52
Rp53
sb.