(ifile_types
ParseObject
p0
(dp1
S'methods'
p2
c__builtin__
set
p3
((lp4
S'Method.ANTAGONIST'
p5
atp6
Rp7
sS'topics'
p8
g3
((lp9
S"(14, u'\\\\bcogniti')"
p10
aS"(26, u'\\\\bbehav')"
p11
aS"(7, u'\\\\bdepressi')"
p12
aS"(15, u'\\\\bmemory')"
p13
aS"(13, u'\\\\bantidepress')"
p14
aS"(4, u'\\\\btreatment')"
p15
atp16
Rp17
sS'receptors'
p18
g3
((lp19
(S'5ht3'
p20
I1697
I1702
tp21
a(S'5ht2'
p22
I1436
I1443
tp23
a(S'5ht1'
p24
I1375
I1380
tp25
a(S'5ht3'
p26
I1503
I1508
tp27
a(S'5ht1a'
p28
I1686
I1692
tp29
a(S'5ht2a'
p30
I1436
I1442
tp31
atp32
Rp33
sS'raw_text_methods'
p34
g3
((lp35
S"(51, u'\\\\bway100635')"
p36
aS"(20, u'\\\\bondansetron')"
p37
aS"(9, u'\\\\britanserin')"
p38
aS"(12, u'\\\\bantagonist')"
p39
atp40
Rp41
sS'regions'
p42
g3
((lp43
S"(19, u'(?i)\\\\b(cortexes|cortex)\\\\b')"
p44
atp45
Rp46
sS'year'
p47
V2012
p48
sS'species'
p49
g3
((lp50
S"(3, u'(?i)\\\\b(males|male)\\\\b')"
p51
aS"(4, u'(?i)\\\\b(rats|rat)\\\\b')"
p52
atp53
Rp54
sb.