(ifile_types
ParseObject
p0
(dp1
S'antagonists'
p2
c__builtin__
set
p3
((lp4
S"(114, u'\\\\bimipramine')"
p5
aS"(34, u'\\\\byohimbine')"
p6
atp7
Rp8
sS'methods'
p9
g3
((lp10
S'Method.ANTAGONIST'
p11
aS'Method.AGONIST'
p12
atp13
Rp14
sS'topics'
p15
g3
((lp16
S"(12, u'\\\\banxiogen')"
p17
aS"(11, u'\\\\banxiolyt')"
p18
aS"(10, u'\\\\banxiety')"
p19
aS"(4, u'\\\\blocomot')"
p20
atp21
Rp22
sS'receptors'
p23
g3
((lp24
S'5ht1a'
p25
aS'5ht2b'
p26
aS'5ht2c'
p27
atp28
Rp29
sS'regions'
p30
g3
((lp31
S"(34, u'(?i)(pon|pons)')"
p32
atp33
Rp34
sS'year'
p35
V2004
p36
sS'agonists'
p37
g3
((lp38
S"(89, u'\\\\byohimbine')"
p39
aS"(161, u'\\\\bmcpp')"
p40
aS"(92, u'\\\\b8 ?oh ?dpat')"
p41
aS"(24, u'\\\\bbuspirone')"
p42
aS"(169, u'\\\\bfenfluramine')"
p43
atp44
Rp45
sS'species'
p46
g3
((lp47
S"(4624, u'(?i)(apes|ape)')"
p48
aS"(6753, u'(?i)(da|das)')"
p49
aS"(5958, u'(?i)(rats|rat)')"
p50
aS"(163, u'(?i)(mice|mouse)')"
p51
aS"(468, u'(?i)(oxen|ox)')"
p52
aS"(1349, u'(?i)(rams|ram)')"
p53
aS"(7094, u'(?i)(curs|cur)')"
p54
aS"(1055, u'(?i)(men|man)')"
p55
aS"(5176, u'(?i)(tegs|teg)')"
p56
aS"(6249, u'(?i)(ants|ant)')"
p57
aS"(1961, u'(?i)(pens|pen)')"
p58
aS"(3812, u'(?i)(studs|stud)')"
p59
aS"(6356, u'(?i)(ais|ai)')"
p60
atp61
Rp62
sb.