(ifile_types
ParseObject
p0
(dp1
S'antagonists'
p2
c__builtin__
set
p3
((lp4
tp5
Rp6
sS'methods'
p7
g3
((lp8
tp9
Rp10
sS'topics'
p11
g3
((lp12
S"(8, u'\\\\blearning')"
p13
aS"(6, u'\\\\bcognit')"
p14
aS"(35, u'\\\\bstress')"
p15
aS"(10, u'\\\\banxiety')"
p16
aS"(7, u'\\\\bmemory')"
p17
atp18
Rp19
sS'receptors'
p20
g3
((lp21
S'5ht1a'
p22
atp23
Rp24
sS'regions'
p25
g3
((lp26
S"(34, u'(?i)(pon|pons)')"
p27
atp28
Rp29
sS'year'
p30
V2013
p31
sS'agonists'
p32
g3
((lp33
S"(155, u'\\\\bmem')"
p34
atp35
Rp36
sS'species'
p37
g3
((lp38
S"(5537, u'(?i)(hippos|hippo)')"
p39
aS"(6753, u'(?i)(da|das)')"
p40
aS"(2568, u'(?i)(hens|hen)')"
p41
aS"(6356, u'(?i)(ais|ai)')"
p42
aS"(867, u'(?i)(tits|tit)')"
p43
aS"(163, u'(?i)(mice|mouse)')"
p44
aS"(2389, u'(?i)(spats|spat)')"
p45
aS"(4979, u'(?i)(cats|cat)')"
p46
aS"(3550, u'(?i)(anis|ani)')"
p47
aS"(5229, u'(?i)(moles|mole)')"
p48
aS"(3812, u'(?i)(studs|stud)')"
p49
aS"(7609, u'(?i)(erns|ern)')"
p50
aS"(5743, u'(?i)(bots|bot)')"
p51
aS"(1683, u'(?i)(terns|tern)')"
p52
atp53
Rp54
sb.