(ifile_types
ParseObject
p0
(dp1
S'methods'
p2
c__builtin__
set
p3
((lp4
S'Method.ANTAGONIST'
p5
atp6
Rp7
sS'topics'
p8
g3
((lp9
S"(30, u'\\\\bpain')"
p10
aS"(26, u'\\\\bbehav')"
p11
atp12
Rp13
sS'receptors'
p14
g3
((lp15
(S'5ht2c'
p16
I46
I57
tp17
a(S'5ht2'
p18
I556
I561
tp19
a(S'5ht2c'
p20
I331
I342
tp21
a(S'5ht2'
p22
I1538
I1543
tp23
a(S'5ht2'
p24
I355
I360
tp25
atp26
Rp27
sS'raw_text_methods'
p28
g3
((lp29
S"(12, u'\\\\bantagonist')"
p30
atp31
Rp32
sS'regions'
p33
g3
((lp34
tp35
Rp36
sS'year'
p37
V2015
p38
sS'species'
p39
g3
((lp40
S"(1, u'(?i)\\\\b(mice|mouse)\\\\b')"
p41
aS"(5, u'(?i)\\\\b(mices|mice)\\\\b')"
p42
atp43
Rp44
sb.