(ifile_types
ParseObject
p0
(dp1
S'antagonists'
p2
c__builtin__
set
p3
((lp4
S"(54, u'\\\\britanserin')"
p5
aS"(132, u'\\\\bsb ?243213')"
p6
aS"(130, u'\\\\britanserin')"
p7
atp8
Rp9
sS'methods'
p10
g3
((lp11
S'Method.ANTAGONIST'
p12
aS'Method.AGONIST'
p13
atp14
Rp15
sS'topics'
p16
g3
((lp17
S"(9, u'\\\\bdepress')"
p18
aS"(3, u'\\\\bsleep')"
p19
atp20
Rp21
sS'receptors'
p22
g3
((lp23
S'5ht2a'
p24
aS'5ht2c'
p25
aS'5ht2'
p26
atp27
Rp28
sS'regions'
p29
g3
((lp30
S"(34, u'(?i)(pon|pons)')"
p31
atp32
Rp33
sS'year'
p34
V2002
p35
sS'agonists'
p36
g3
((lp37
tp38
Rp39
sS'species'
p40
g3
((lp41
S"(6753, u'(?i)(da|das)')"
p42
aS"(5958, u'(?i)(rats|rat)')"
p43
aS"(867, u'(?i)(tits|tit)')"
p44
aS"(4964, u'(?i)(serins|serin)')"
p45
aS"(468, u'(?i)(oxen|ox)')"
p46
aS"(2183, u'(?i)(gars|gar)')"
p47
aS"(1055, u'(?i)(men|man)')"
p48
aS"(7094, u'(?i)(curs|cur)')"
p49
aS"(853, u'(?i)(minas|mina)')"
p50
aS"(6249, u'(?i)(ants|ant)')"
p51
aS"(6682, u'(?i)(tera|teras)')"
p52
aS"(1057, u'(?i)(humans|human)')"
p53
aS"(3812, u'(?i)(studs|stud)')"
p54
aS"(3196, u'(?i)(human|humans)')"
p55
aS"(5743, u'(?i)(bots|bot)')"
p56
atp57
Rp58
sb.