(ifile_types
ParseObject
p0
(dp1
S'methods'
p2
c__builtin__
set
p3
((lp4
S'Method.AGONIST'
p5
atp6
Rp7
sS'topics'
p8
g3
((lp9
S"(8, u'\\\\banxi')"
p10
aS"(5, u'\\\\btherap')"
p11
aS"(26, u'\\\\bbehav')"
p12
aS"(25, u'\\\\bsocial')"
p13
aS"(2, u'\\\\bdisorder')"
p14
atp15
Rp16
sS'receptors'
p17
g3
((lp18
(S'5ht2c'
p19
I1282
I1288
tp20
a(S'5ht2c'
p21
I1214
I1220
tp22
atp23
Rp24
sS'raw_text_methods'
p25
g3
((lp26
S"(13, u'\\\\bagonist')"
p27
atp28
Rp29
sS'regions'
p30
g3
((lp31
tp32
Rp33
sS'year'
p34
V2010
p35
sS'species'
p36
g3
((lp37
S"(1, u'(?i)\\\\b(mice|mouse)\\\\b')"
p38
aS"(5, u'(?i)\\\\b(mices|mice)\\\\b')"
p39
atp40
Rp41
sb.