(ifile_types
ParseObject
p0
(dp1
S'methods'
p2
c__builtin__
set
p3
((lp4
S'Method.AGONIST'
p5
atp6
Rp7
sS'topics'
p8
g3
((lp9
S"(33, u'\\\\blocomot')"
p10
aS"(29, u'\\\\bhyperactiv')"
p11
aS"(25, u'\\\\bsocial')"
p12
atp13
Rp14
sS'receptors'
p15
g3
((lp16
(S'5ht1'
p17
I1464
I1469
tp18
a(S'5ht1a'
p19
I829
I835
tp20
a(S'5ht1a'
p21
I500
I505
tp22
a(S'5ht1a'
p23
I211
I217
tp24
a(S'5ht1a'
p25
I39
I44
tp26
atp27
Rp28
sS'raw_text_methods'
p29
g3
((lp30
S"(13, u'\\\\bagonist')"
p31
aS"(15, u'\\\\b8ohdpat')"
p32
atp33
Rp34
sS'regions'
p35
g3
((lp36
S"(4, u'(?i)\\\\b(presynaptics|presynaptic)\\\\b')"
p37
atp38
Rp39
sS'year'
p40
V2018
p41
sS'species'
p42
g3
((lp43
S"(4, u'(?i)\\\\b(rats|rat)\\\\b')"
p44
atp45
Rp46
sb.