(ifile_types
ParseObject
p0
(dp1
S'antagonists'
p2
c__builtin__
set
p3
((lp4
tp5
Rp6
sS'methods'
p7
g3
((lp8
S'Method.STAINING'
p9
aS'Method.IMMUNOHISTOCHEMISTRY'
p10
atp11
Rp12
sS'topics'
p13
g3
((lp14
S"(6, u'\\\\bcognit')"
p15
atp16
Rp17
sS'receptors'
p18
g3
((lp19
S'5ht2a'
p20
atp21
Rp22
sS'regions'
p23
g3
((lp24
S"(362, u'(?i)(brains|brain)(-|\\\\s+)?(stems|stem)')"
p25
aS"(32, u'(?i)(hypoglossals|hypoglossal)(-|\\\\s+)?(nuclei|nucleus)')"
p26
atp27
Rp28
sS'year'
p29
V2013
p30
sS'agonists'
p31
g3
((lp32
S"(193, u'\\\\bethanol')"
p33
atp34
Rp35
sS'species'
p36
g3
((lp37
S"(6753, u'(?i)(da|das)')"
p38
aS"(949, u'(?i)(cohoes|coho)')"
p39
aS"(6127, u'(?i)(chats|chat)')"
p40
aS"(5743, u'(?i)(bots|bot)')"
p41
aS"(479, u'(?i)(lings|ling)')"
p42
aS"(5967, u'(?i)(males|male)')"
p43
aS"(6682, u'(?i)(tera|teras)')"
p44
aS"(1055, u'(?i)(men|man)')"
p45
aS"(6249, u'(?i)(ants|ant)')"
p46
aS"(2942, u'(?i)(daws|daw)')"
p47
aS"(7094, u'(?i)(curs|cur)')"
p48
aS"(5958, u'(?i)(rats|rat)')"
p49
aS"(1057, u'(?i)(humans|human)')"
p50
aS"(3431, u'(?i)(roans|roan)')"
p51
aS"(6356, u'(?i)(ais|ai)')"
p52
aS"(3196, u'(?i)(human|humans)')"
p53
aS"(2809, u'(?i)(toms|tom)')"
p54
aS"(7552, u'(?i)(bats|bat)')"
p55
atp56
Rp57
sb.