(ifile_types
ParseObject
p0
(dp1
S'methods'
p2
c__builtin__
set
p3
((lp4
tp5
Rp6
sS'topics'
p7
g3
((lp8
S"(23, u'\\\\bantipsychotic')"
p9
atp10
Rp11
sS'receptors'
p12
g3
((lp13
(S'5ht2a'
p14
I888
I894
tp15
a(S'5ht2a'
p16
I1167
I1173
tp17
a(S'5ht1a'
p18
I995
I1001
tp19
a(S'5ht2a'
p20
I667
I673
tp21
atp22
Rp23
sS'raw_text_methods'
p24
g3
((lp25
tp26
Rp27
sS'regions'
p28
g3
((lp29
S"(19, u'(?i)\\\\b(cortexes|cortex)\\\\b')"
p30
aS"(13, u'(?i)\\\\b(septums|septum)\\\\b')"
p31
aS"(17, u'(?i)\\\\b(caudates|caudate)\\\\b')"
p32
aS"(7, u'(?i)\\\\b(entorhinals|entorhinal)\\\\b')"
p33
aS"(18, u'(?i)\\\\b(putamens|putamen)\\\\b')"
p34
atp35
Rp36
sS'year'
p37
V1998
p38
sS'species'
p39
g3
((lp40
S"(4, u'(?i)\\\\b(rats|rat)\\\\b')"
p41
atp42
Rp43
sb.