(ifile_types
ParseObject
p0
(dp1
S'methods'
p2
c__builtin__
set
p3
((lp4
S'Method.ANTAGONIST'
p5
aS'Method.AGONIST'
p6
atp7
Rp8
sS'topics'
p9
g3
((lp10
S"(7, u'\\\\bdepressi')"
p11
aS"(2, u'\\\\bdisorder')"
p12
aS"(33, u'\\\\blocomot')"
p13
aS"(13, u'\\\\bantidepress')"
p14
aS"(9, u'\\\\bstress')"
p15
aS"(5, u'\\\\btherap')"
p16
aS"(26, u'\\\\bbehav')"
p17
aS"(4, u'\\\\btreatment')"
p18
atp19
Rp20
sS'receptors'
p21
g3
((lp22
(S'5ht1a'
p23
I1268
I1273
tp24
a(S'5ht1a'
p25
I275
I281
tp26
a(S'5ht1a'
p27
I773
I779
tp28
a(S'5ht1a'
p29
I1644
I1649
tp30
a(S'5ht1a'
p31
I130
I136
tp32
a(S'5ht1a'
p33
I541
I547
tp34
atp35
Rp36
sS'raw_text_methods'
p37
g3
((lp38
S"(13, u'\\\\bagonist')"
p39
aS"(51, u'\\\\bway100635')"
p40
aS"(39, u'\\\\bselective serotonin reuptake inhibitor')"
p41
aS"(12, u'\\\\bantagonist')"
p42
atp43
Rp44
sS'regions'
p45
g3
((lp46
tp47
Rp48
sS'year'
p49
V2013
p50
sS'species'
p51
g3
((lp52
S"(1, u'(?i)\\\\b(mice|mouse)\\\\b')"
p53
aS"(5, u'(?i)\\\\b(mices|mice)\\\\b')"
p54
aS"(4, u'(?i)\\\\b(rats|rat)\\\\b')"
p55
atp56
Rp57
sb.