(ifile_types
ParseObject
p0
(dp1
S'antagonists'
p2
c__builtin__
set
p3
((lp4
S"(32, u'\\\\bway ?100635')"
p5
aS"(67, u'\\\\bhaloperidol')"
p6
aS"(123, u'\\\\bclozapine')"
p7
aS"(56, u'\\\\bclozapine')"
p8
atp9
Rp10
sS'methods'
p11
g3
((lp12
S'Method.ANTAGONIST'
p13
aS'Method.AGONIST'
p14
atp15
Rp16
sS'topics'
p17
g3
((lp18
S"(15, u'\\\\bschizophreni')"
p19
aS"(6, u'\\\\bcognit')"
p20
atp21
Rp22
sS'receptors'
p23
g3
((lp24
S'5ht1a'
p25
aS'5ht5'
p26
atp27
Rp28
sS'regions'
p29
g3
((lp30
S"(220, u'(?i)(striatums|striatum)')"
p31
aS"(254, u'(?i)(prefrontals|prefrontal)(-|\\\\s+)?(cortexes|cortex)')"
p32
aS"(255, u'(?i)(pres|pre)(-|\\\\s+)?(frontals|frontal)(-|\\\\s+)?(cortexes|cortex)')"
p33
atp34
Rp35
sS'year'
p36
V2009
p37
sS'agonists'
p38
g3
((lp39
S"(92, u'\\\\b8 ?oh ?dpat')"
p40
aS"(48, u'\\\\bhaloperidol')"
p41
aS"(27, u'\\\\bclozapine')"
p42
atp43
Rp44
sS'species'
p45
g3
((lp46
S"(465, u'(?i)(bruins|bruin)')"
p47
aS"(2568, u'(?i)(hens|hen)')"
p48
aS"(867, u'(?i)(tits|tit)')"
p49
aS"(5743, u'(?i)(bots|bot)')"
p50
aS"(468, u'(?i)(oxen|ox)')"
p51
aS"(1055, u'(?i)(men|man)')"
p52
aS"(6249, u'(?i)(ants|ant)')"
p53
aS"(4979, u'(?i)(cats|cat)')"
p54
aS"(5958, u'(?i)(rats|rat)')"
p55
aS"(3522, u'(?i)(tetras|tetra)')"
p56
aS"(1961, u'(?i)(pens|pen)')"
p57
aS"(6356, u'(?i)(ais|ai)')"
p58
aS"(6391, u'(?i)(asses|ass)')"
p59
aS"(2809, u'(?i)(toms|tom)')"
p60
aS"(7604, u'(?i)(cyclop|cyclops)')"
p61
atp62
Rp63
sb.