(ifile_types
ParseObject
p0
(dp1
S'methods'
p2
c__builtin__
set
p3
((lp4
S'Method.ANTAGONIST'
p5
aS'Method.AGONIST'
p6
atp7
Rp8
sS'topics'
p9
g3
((lp10
S"(14, u'\\\\bcogniti')"
p11
aS"(7, u'\\\\bdepressi')"
p12
aS"(26, u'\\\\bbehav')"
p13
aS"(15, u'\\\\bmemory')"
p14
atp15
Rp16
sS'receptors'
p17
g3
((lp18
(S'5ht4'
p19
I1013
I1018
tp20
a(S'5ht4'
p21
I1187
I1192
tp22
a(S'5ht4'
p23
I518
I523
tp24
a(S'5ht4'
p25
I758
I763
tp26
a(S'5ht4'
p27
I407
I412
tp28
a(S'5ht4'
p29
I1141
I1146
tp30
a(S'5ht4'
p31
I922
I927
tp32
a(S'5ht4'
p33
I1305
I1310
tp34
a(S'5ht4'
p35
I1480
I1485
tp36
atp37
Rp38
sS'raw_text_methods'
p39
g3
((lp40
S"(13, u'\\\\bagonist')"
p41
aS"(12, u'\\\\bantagonist')"
p42
atp43
Rp44
sS'regions'
p45
g3
((lp46
tp47
Rp48
sS'year'
p49
V2016
p50
sS'species'
p51
g3
((lp52
S"(4, u'(?i)\\\\b(rats|rat)\\\\b')"
p53
atp54
Rp55
sb.