(ifile_types
ParseObject
p0
(dp1
S'methods'
p2
c__builtin__
set
p3
((lp4
S'Method.PET'
p5
aS'Method.ANTAGONIST'
p6
aS'Method.AGONIST'
p7
atp8
Rp9
sS'topics'
p10
g3
((lp11
S"(14, u'\\\\bcogniti')"
p12
aS"(15, u'\\\\bmemory')"
p13
atp14
Rp15
sS'receptors'
p16
g3
((lp17
(S'5ht1a'
p18
I1673
I1679
tp19
a(S'5ht1a'
p20
I666
I672
tp21
a(S'5ht1a'
p22
I741
I747
tp23
a(S'5ht1a'
p24
I820
I826
tp25
a(S'5ht1a'
p26
I318
I324
tp27
a(S'5ht1a'
p28
I997
I1003
tp29
a(S'5ht1a'
p30
I1083
I1089
tp31
a(S'5ht1a'
p32
I1444
I1450
tp33
a(S'5ht1a'
p34
I461
I467
tp35
a(S'5ht1a'
p36
I61
I67
tp37
a(S'5ht1a'
p38
I1488
I1494
tp39
a(S'5ht1a'
p40
I1803
I1809
tp41
atp42
Rp43
sS'raw_text_methods'
p44
g3
((lp45
S"(13, u'\\\\bagonist')"
p46
aS"(17, u'\\\\bpet')"
p47
aS"(19, u'\\\\bpositron emission tomography')"
p48
aS"(12, u'\\\\bantagonist')"
p49
atp50
Rp51
sS'regions'
p52
g3
((lp53
S"(3, u'(?i)\\\\b(postsynaptics|postsynaptic)\\\\b')"
p54
atp55
Rp56
sS'year'
p57
V2003
p58
sS'species'
p59
g3
((lp60
tp61
Rp62
sb.