(ifile_types
ParseObject
p0
(dp1
S'antagonists'
p2
c__builtin__
set
p3
((lp4
tp5
Rp6
sS'methods'
p7
g3
((lp8
S'Method.KNOCKOUT'
p9
atp10
Rp11
sS'topics'
p12
g3
((lp13
S"(9, u'\\\\bdepress')"
p14
aS"(7, u'\\\\bmemory')"
p15
aS"(23, u'\\\\bsocial dominance')"
p16
aS"(16, u'\\\\bfeed')"
p17
aS"(11, u'\\\\banxiolyt')"
p18
aS"(20, u'\\\\baggressi')"
p19
aS"(35, u'\\\\bstress')"
p20
aS"(10, u'\\\\banxiety')"
p21
atp22
Rp23
sS'receptors'
p24
g3
((lp25
S'5ht1a'
p26
aS'5ht1'
p27
atp28
Rp29
sS'regions'
p30
g3
((lp31
S"(220, u'(?i)\\\\b(striatums|striatum)\\\\b')"
p32
aS"(291, u'(?i)\\\\b(cingulates|cingulate)(-|\\\\s+)?(cortexes|cortex)\\\\b')"
p33
aS"(203, u'(?i)\\\\b(dentates|dentate)(-|\\\\s+)?(gyruses|gyrus)\\\\b')"
p34
aS"(226, u'(?i)\\\\b(nuclei|nucleus)(-|\\\\s+)?(accumben|accumbens)\\\\b')"
p35
atp36
Rp37
sS'year'
p38
V2012
p39
sS'agonists'
p40
g3
((lp41
S"(176, u'\\\\bdom')"
p42
aS"(149, u'\\\\bmem')"
p43
atp44
Rp45
sS'species'
p46
g3
((lp47
S"(163, u'(?i)\\\\b(mice|mouse)\\\\b')"
p48
atp49
Rp50
sb.