(ifile_types
ParseObject
p0
(dp1
S'antagonists'
p2
c__builtin__
set
p3
((lp4
tp5
Rp6
sS'methods'
p7
g3
((lp8
S'Method.STAINING'
p9
aS'Method.IMMUNOHISTOCHEMISTRY'
p10
atp11
Rp12
sS'topics'
p13
g3
((lp14
S"(15, u'\\\\bschizophreni')"
p15
aS"(9, u'\\\\bdepress')"
p16
atp17
Rp18
sS'receptors'
p19
g3
((lp20
S'5ht2a'
p21
atp22
Rp23
sS'regions'
p24
g3
((lp25
S"(241, u'(?i)(olfactories|olfactory)(-|\\\\s+)?(bulbs|bulb)')"
p26
aS"(220, u'(?i)(striatums|striatum)')"
p27
aS"(302, u'(?i)(corpuses|corpus)(-|\\\\s+)?(callosums|callosum)')"
p28
aS"(209, u'(?i)(amygdalas|amygdala)')"
p29
aS"(222, u'(?i)(neostriatums|neostriatum)')"
p30
atp31
Rp32
sS'year'
p33
V2000
p34
sS'agonists'
p35
g3
((lp36
tp37
Rp38
sS'species'
p39
g3
((lp40
S"(2323, u'(?i)(bees|bee)')"
p41
aS"(5537, u'(?i)(hippos|hippo)')"
p42
aS"(949, u'(?i)(cohoes|coho)')"
p43
aS"(5454, u'(?i)(brills|brill)')"
p44
aS"(6753, u'(?i)(da|das)')"
p45
aS"(479, u'(?i)(lings|ling)')"
p46
aS"(1349, u'(?i)(rams|ram)')"
p47
aS"(6249, u'(?i)(ants|ant)')"
p48
aS"(3152, u'(?i)(layers|layer)')"
p49
aS"(4979, u'(?i)(cats|cat)')"
p50
aS"(5958, u'(?i)(rats|rat)')"
p51
aS"(4371, u'(?i)(lizas|liza)')"
p52
aS"(3812, u'(?i)(studs|stud)')"
p53
aS"(4074, u'(?i)(bulls|bull)')"
p54
aS"(6356, u'(?i)(ais|ai)')"
p55
atp56
Rp57
sb.