(ifile_types
ParseObject
p0
(dp1
S'antagonists'
p2
c__builtin__
set
p3
((lp4
S"(17, u'\\\\bnan ?190')"
p5
atp6
Rp7
sS'methods'
p8
g3
((lp9
S'Method.ANTAGONIST'
p10
aS'Method.AGONIST'
p11
atp12
Rp13
sS'topics'
p14
g3
((lp15
S"(9, u'\\\\bdepress')"
p16
atp17
Rp18
sS'receptors'
p19
g3
((lp20
S'5ht1b'
p21
aS'5ht1a'
p22
aS'5ht3'
p23
aS'5ht2c'
p24
atp25
Rp26
sS'regions'
p27
g3
((lp28
S"(285, u'(?i)\\\\b(entorhinals|entorhinal)(-|\\\\s+)?(cortexes|cortex)\\\\b')"
p29
aS"(318, u'(?i)\\\\b(raphes|raphe)(-|\\\\s+)?(nuclei|nucleus)\\\\b')"
p30
atp31
Rp32
sS'year'
p33
V1998
p34
sS'agonists'
p35
g3
((lp36
S"(85, u'\\\\b8 ?oh ?dpat')"
p37
aS"(219, u'\\\\b5 ?ct')"
p38
atp39
Rp40
sS'species'
p41
g3
((lp42
S"(3152, u'(?i)\\\\b(layers|layer)\\\\b')"
p43
atp44
Rp45
sb.