(ifile_types
ParseObject
p0
(dp1
S'methods'
p2
c__builtin__
set
p3
((lp4
tp5
Rp6
sS'topics'
p7
g3
((lp8
S"(24, u'\\\\banxiolytic')"
p9
aS"(8, u'\\\\banxi')"
p10
aS"(5, u'\\\\btherap')"
p11
aS"(26, u'\\\\bbehav')"
p12
atp13
Rp14
sS'receptors'
p15
g3
((lp16
(S'5ht3'
p17
I478
I483
tp18
atp19
Rp20
sS'raw_text_methods'
p21
g3
((lp22
tp23
Rp24
sS'regions'
p25
g3
((lp26
S"(10, u'(?i)\\\\b(peripherals|peripheral)(-|\\\\s+)?(nervouses|nervous)(-|\\\\s+)?(systems|system)\\\\b')"
p27
atp28
Rp29
sS'year'
p30
V2009
p31
sS'species'
p32
g3
((lp33
tp34
Rp35
sb.