(ifile_types
ParseObject
p0
(dp1
S'antagonists'
p2
c__builtin__
set
p3
((lp4
tp5
Rp6
sS'methods'
p7
g3
((lp8
S'Method.ANTAGONIST'
p9
aS'Method.AGONIST'
p10
atp11
Rp12
sS'topics'
p13
g3
((lp14
S"(35, u'\\\\bstress')"
p15
atp16
Rp17
sS'receptors'
p18
g3
((lp19
S'5ht1a'
p20
atp21
Rp22
sS'regions'
p23
g3
((lp24
S"(94, u'(?i)\\\\b(dorsals|dorsal)(-|\\\\s+)?(raphes|raphe)(-|\\\\s+)?(nuclei|nucleus)\\\\b')"
p25
aS"(318, u'(?i)\\\\b(raphes|raphe)(-|\\\\s+)?(nuclei|nucleus)\\\\b')"
p26
aS"(96, u'(?i)\\\\b(ventrals|ventral)(-|\\\\s+)?(tegmentals|tegmental)(-|\\\\s+)?(areas|area)\\\\b')"
p27
aS"(226, u'(?i)\\\\b(nuclei|nucleus)(-|\\\\s+)?(accumben|accumbens)\\\\b')"
p28
atp29
Rp30
sS'year'
p31
V2004
p32
sS'agonists'
p33
g3
((lp34
tp35
Rp36
sS'species'
p37
g3
((lp38
S"(5967, u'(?i)\\\\b(males|male)\\\\b')"
p39
aS"(6753, u'(?i)\\\\b(da|das)\\\\b')"
p40
aS"(5958, u'(?i)\\\\b(rats|rat)\\\\b')"
p41
atp42
Rp43
sb.