(ifile_types
ParseObject
p0
(dp1
S'methods'
p2
c__builtin__
set
p3
((lp4
tp5
Rp6
sS'topics'
p7
g3
((lp8
tp9
Rp10
sS'receptors'
p11
g3
((lp12
(S'5ht1a'
p13
I396
I402
tp14
a(S'5ht1a'
p15
I695
I701
tp16
a(S'5ht1a'
p17
I274
I280
tp18
atp19
Rp20
sS'raw_text_methods'
p21
g3
((lp22
S"(51, u'\\\\bway100635')"
p23
aS"(18, u'\\\\bimaging')"
p24
atp25
Rp26
sS'regions'
p27
g3
((lp28
tp29
Rp30
sS'year'
p31
V2011
p32
sS'species'
p33
g3
((lp34
S"(4, u'(?i)\\\\b(rats|rat)\\\\b')"
p35
atp36
Rp37
sb.