(ifile_types
ParseObject
p0
(dp1
S'methods'
p2
c__builtin__
set
p3
((lp4
tp5
Rp6
sS'topics'
p7
g3
((lp8
S"(26, u'\\\\bbehav')"
p9
atp10
Rp11
sS'receptors'
p12
g3
((lp13
(S'5ht7'
p14
I738
I743
tp15
a(S'5ht7'
p16
I1474
I1479
tp17
a(S'5ht7'
p18
I73
I78
tp19
a(S'5ht7'
p20
I1253
I1258
tp21
a(S'5ht7'
p22
I1418
I1423
tp23
atp24
Rp25
sS'raw_text_methods'
p26
g3
((lp27
S"(47, u'\\\\bsumatriptan')"
p28
atp29
Rp30
sS'regions'
p31
g3
((lp32
S"(15, u'(?i)\\\\b(substantias|substantia)(-|\\\\s+)?(nigras|nigra)\\\\b')"
p33
aS"(11, u'(?i)\\\\b(cerebrals|cerebral)\\\\b')"
p34
aS"(19, u'(?i)\\\\b(cortexes|cortex)\\\\b')"
p35
atp36
Rp37
sS'year'
p38
V1995
p39
sS'species'
p40
g3
((lp41
S"(7, u'(?i)\\\\b(guineas|guinea)(-|\\\\s+)?(pigs|pig)\\\\b')"
p42
atp43
Rp44
sb.