(ifile_types
ParseObject
p0
(dp1
S'methods'
p2
c__builtin__
set
p3
((lp4
S'Method.ANTAGONIST'
p5
atp6
Rp7
sS'topics'
p8
g3
((lp9
tp10
Rp11
sS'receptors'
p12
g3
((lp13
(S'5ht2'
p14
I2130
I2135
tp15
a(S'5ht1'
p16
I2164
I2169
tp17
a(S'5ht1'
p18
I1009
I1014
tp19
a(S'5ht2'
p20
I1054
I1059
tp21
atp22
Rp23
sS'raw_text_methods'
p24
g3
((lp25
S"(51, u'\\\\bway100635')"
p26
aS"(38, u'\\\\bssri')"
p27
aS"(39, u'\\\\bselective serotonin reuptake inhibitor')"
p28
aS"(12, u'\\\\bantagonist')"
p29
atp30
Rp31
sS'regions'
p32
g3
((lp33
tp34
Rp35
sS'year'
p36
V2007
p37
sS'species'
p38
g3
((lp39
S"(3, u'(?i)\\\\b(males|male)\\\\b')"
p40
aS"(4, u'(?i)\\\\b(rats|rat)\\\\b')"
p41
atp42
Rp43
sb.