(ifile_types
ParseObject
p0
(dp1
S'antagonists'
p2
c__builtin__
set
p3
((lp4
S"(53, u'\\\\bketanserin')"
p5
aS"(128, u'\\\\bketanserin')"
p6
atp7
Rp8
sS'methods'
p9
g3
((lp10
tp11
Rp12
sS'topics'
p13
g3
((lp14
tp15
Rp16
sS'receptors'
p17
g3
((lp18
S'5ht1b'
p19
aS'5ht5'
p20
aS'5ht1d'
p21
atp22
Rp23
sS'regions'
p24
g3
((lp25
S"(285, u'(?i)(entorhinals|entorhinal)(-|\\\\s+)?(cortexes|cortex)')"
p26
aS"(103, u'(?i)(substantias|substantia)(-|\\\\s+)?(nigras|nigra)')"
p27
aS"(209, u'(?i)(amygdalas|amygdala)')"
p28
aS"(227, u'(?i)(olfactories|olfactory)(-|\\\\s+)?(tubercles|tubercle)')"
p29
aS"(126, u'(?i)(thalamuses|thalamus)')"
p30
aS"(223, u'(?i)(putamens|putamen)')"
p31
aS"(71, u'(?i)(cerebellums|cerebellum)')"
p32
aS"(220, u'(?i)(striatums|striatum)')"
p33
aS"(226, u'(?i)(nuclei|nucleus)(-|\\\\s+)?(accumben|accumbens)')"
p34
atp35
Rp36
sS'year'
p37
V1998
p38
sS'agonists'
p39
g3
((lp40
tp41
Rp42
sS'species'
p43
g3
((lp44
S"(3812, u'(?i)(studs|stud)')"
p45
aS"(6356, u'(?i)(ais|ai)')"
p46
aS"(3431, u'(?i)(roans|roan)')"
p47
aS"(2665, u'(?i)(rays|ray)')"
p48
aS"(4480, u'(?i)(guineas|guinea)(-|\\\\s+)?(pigs|pig)')"
p49
aS"(479, u'(?i)(lings|ling)')"
p50
aS"(3062, u'(?i)(guineas|guinea)')"
p51
aS"(391, u'(?i)(alli|allis)')"
p52
aS"(2809, u'(?i)(toms|tom)')"
p53
aS"(5537, u'(?i)(hippos|hippo)')"
p54
aS"(6249, u'(?i)(ants|ant)')"
p55
aS"(7609, u'(?i)(erns|ern)')"
p56
aS"(867, u'(?i)(tits|tit)')"
p57
aS"(1055, u'(?i)(men|man)')"
p58
aS"(853, u'(?i)(minas|mina)')"
p59
aS"(4371, u'(?i)(lizas|liza)')"
p60
aS"(6642, u'(?i)(lions|lion)')"
p61
aS"(6325, u'(?i)(caudates|caudate)')"
p62
aS"(2568, u'(?i)(hens|hen)')"
p63
aS"(6753, u'(?i)(da|das)')"
p64
aS"(3051, u'(?i)(pigs|pig)')"
p65
aS"(4177, u'(?i)(grays|gray)')"
p66
aS"(4964, u'(?i)(serins|serin)')"
p67
aS"(1683, u'(?i)(terns|tern)')"
p68
atp69
Rp70
sb.