(ifile_types
ParseObject
p0
(dp1
S'methods'
p2
c__builtin__
set
p3
((lp4
S'Method.ANTAGONIST'
p5
aS'Method.AGONIST'
p6
atp7
Rp8
sS'topics'
p9
g3
((lp10
tp11
Rp12
sS'receptors'
p13
g3
((lp14
(S'5ht2a'
p15
I664
I670
tp16
a(S'5ht2'
p17
I435
I440
tp18
a(S'5ht2a'
p19
I1233
I1239
tp20
a(S'5ht2a'
p21
I78
I89
tp22
atp23
Rp24
sS'raw_text_methods'
p25
g3
((lp26
S"(13, u'\\\\bagonist')"
p27
aS"(53, u'\\\\bketanserin')"
p28
aS"(49, u'\\\\bdoi')"
p29
aS"(5, u'\\\\bmk801')"
p30
aS"(12, u'\\\\bantagonist')"
p31
atp32
Rp33
sS'regions'
p34
g3
((lp35
tp36
Rp37
sS'year'
p38
V2001
p39
sS'species'
p40
g3
((lp41
tp42
Rp43
sb.