(ifile_types
ParseObject
p0
(dp1
S'antagonists'
p2
c__builtin__
set
p3
((lp4
S"(211, u'\\\\bzotepine')"
p5
aS"(207, u'\\\\bsertindole')"
p6
aS"(36, u'\\\\baripiprazole')"
p7
aS"(56, u'\\\\bclozapine')"
p8
aS"(188, u'\\\\bsertindole')"
p9
aS"(120, u'\\\\bfluphenazine')"
p10
aS"(122, u'\\\\bthioridazine')"
p11
aS"(125, u'\\\\bquetiapine')"
p12
aS"(142, u'\\\\bm1')"
p13
aS"(68, u'\\\\bchlorpromazine')"
p14
aS"(58, u'\\\\bquetiapine')"
p15
aS"(123, u'\\\\bclozapine')"
p16
aS"(102, u'\\\\bfluoxetine')"
p17
atp18
Rp19
sS'methods'
p20
g3
((lp21
S'Method.ANTAGONIST'
p22
aS'Method.AGONIST'
p23
atp24
Rp25
sS'topics'
p26
g3
((lp27
tp28
Rp29
sS'receptors'
p30
g3
((lp31
S'5ht5'
p32
aS'5ht2a'
p33
atp34
Rp35
sS'regions'
p36
g3
((lp37
S"(34, u'(?i)(pon|pons)')"
p38
atp39
Rp40
sS'year'
p41
V2009
p42
sS'agonists'
p43
g3
((lp44
S"(71, u'\\\\bquetiapine')"
p45
aS"(16, u'\\\\baripiprazole')"
p46
aS"(14, u'\\\\bamphetamine')"
p47
aS"(27, u'\\\\bclozapine')"
p48
atp49
Rp50
sS'species'
p51
g3
((lp52
S"(2323, u'(?i)(bees|bee)')"
p53
aS"(6753, u'(?i)(da|das)')"
p54
aS"(2568, u'(?i)(hens|hen)')"
p55
aS"(6356, u'(?i)(ais|ai)')"
p56
aS"(702, u'(?i)(genets|genet)')"
p57
aS"(867, u'(?i)(tits|tit)')"
p58
aS"(163, u'(?i)(mice|mouse)')"
p59
aS"(6682, u'(?i)(tera|teras)')"
p60
aS"(5967, u'(?i)(males|male)')"
p61
aS"(468, u'(?i)(oxen|ox)')"
p62
aS"(1055, u'(?i)(men|man)')"
p63
aS"(6249, u'(?i)(ants|ant)')"
p64
aS"(853, u'(?i)(minas|mina)')"
p65
aS"(3550, u'(?i)(anis|ani)')"
p66
aS"(5958, u'(?i)(rats|rat)')"
p67
aS"(4371, u'(?i)(lizas|liza)')"
p68
aS"(1414, u'(?i)(chars|char)')"
p69
aS"(3812, u'(?i)(studs|stud)')"
p70
atp71
Rp72
sb.