(ifile_types
ParseObject
p0
(dp1
S'antagonists'
p2
c__builtin__
set
p3
((lp4
tp5
Rp6
sS'methods'
p7
g3
((lp8
S'Method.OPTOGENETICS'
p9
atp10
Rp11
sS'topics'
p12
g3
((lp13
S"(7, u'\\\\bmemory')"
p14
atp15
Rp16
sS'receptors'
p17
g3
((lp18
S'5ht4'
p19
atp20
Rp21
sS'regions'
p22
g3
((lp23
tp24
Rp25
sS'year'
p26
V2018
p27
sS'agonists'
p28
g3
((lp29
S"(149, u'\\\\bmem')"
p30
atp31
Rp32
sS'species'
p33
g3
((lp34
S"(7540, u'(?i)\\\\b(mammalians|mammalian)\\\\b')"
p35
aS"(163, u'(?i)\\\\b(mice|mouse)\\\\b')"
p36
aS"(5156, u'(?i)\\\\b(invertebrates|invertebrate)\\\\b')"
p37
atp38
Rp39
sb.