(ifile_types
ParseObject
p0
(dp1
S'methods'
p2
c__builtin__
set
p3
((lp4
S'Method.ANTAGONIST'
p5
aS'Method.AGONIST'
p6
atp7
Rp8
sS'topics'
p9
g3
((lp10
tp11
Rp12
sS'receptors'
p13
g3
((lp14
(S'5ht2c'
p15
I378
I386
tp16
a(S'5ht2c'
p17
I147
I155
tp18
a(S'5ht2a'
p19
I378
I384
tp20
a(S'5ht2c'
p21
I456
I462
tp22
a(S'5ht2a'
p23
I147
I153
tp24
atp25
Rp26
sS'raw_text_methods'
p27
g3
((lp28
S"(13, u'\\\\bagonist')"
p29
aS"(9, u'\\\\britanserin')"
p30
aS"(49, u'\\\\bdoi')"
p31
aS"(32, u'\\\\blesions')"
p32
aS"(12, u'\\\\bantagonist')"
p33
atp34
Rp35
sS'regions'
p36
g3
((lp37
S"(15, u'(?i)\\\\b(substantias|substantia)(-|\\\\s+)?(nigras|nigra)\\\\b')"
p38
aS"(20, u'(?i)\\\\b(prefrontals|prefrontal)\\\\b')"
p39
aS"(21, u'(?i)\\\\b(mpfcs|mpfc)\\\\b')"
p40
aS"(19, u'(?i)\\\\b(cortexes|cortex)\\\\b')"
p41
atp42
Rp43
sS'year'
p44
V2010
p45
sS'species'
p46
g3
((lp47
S"(4, u'(?i)\\\\b(rats|rat)\\\\b')"
p48
atp49
Rp50
sb.