(ifile_types
ParseObject
p0
(dp1
S'methods'
p2
c__builtin__
set
p3
((lp4
S'Method.ANTAGONIST'
p5
aS'Method.AGONIST'
p6
atp7
Rp8
sS'topics'
p9
g3
((lp10
S"(5, u'\\\\btherap')"
p11
atp12
Rp13
sS'receptors'
p14
g3
((lp15
(S'5ht3'
p16
I1301
I1306
tp17
a(S'5ht1b'
p18
I82
I88
tp19
a(S'5ht3'
p20
I1576
I1581
tp21
a(S'5ht1b'
p22
I1702
I1708
tp23
a(S'5ht2'
p24
I1502
I1507
tp25
atp26
Rp27
sS'raw_text_methods'
p28
g3
((lp29
S"(53, u'\\\\bketanserin')"
p30
aS"(23, u'\\\\bmdl')"
p31
aS"(29, u'\\\\bdiethylamide')"
p32
aS"(13, u'\\\\bagonist')"
p33
aS"(46, u'\\\\bspiperone')"
p34
aS"(12, u'\\\\bantagonist')"
p35
atp36
Rp37
sS'regions'
p38
g3
((lp39
tp40
Rp41
sS'year'
p42
V1992
p43
sS'species'
p44
g3
((lp45
S"(4, u'(?i)\\\\b(rats|rat)\\\\b')"
p46
atp47
Rp48
sb.