(ifile_types
ParseObject
p0
(dp1
S'antagonists'
p2
c__builtin__
set
p3
((lp4
S"(53, u'\\\\bketanserin')"
p5
aS"(32, u'\\\\bway ?100635')"
p6
aS"(128, u'\\\\bketanserin')"
p7
aS"(34, u'\\\\byohimbine')"
p8
atp9
Rp10
sS'methods'
p11
g3
((lp12
S'Method.ANTAGONIST'
p13
atp14
Rp15
sS'topics'
p16
g3
((lp17
S"(21, u'\\\\bpain')"
p18
aS"(24, u'\\\\banalgesi')"
p19
atp20
Rp21
sS'receptors'
p22
g3
((lp23
S'5ht1a'
p24
aS'5ht2'
p25
atp26
Rp27
sS'regions'
p28
g3
((lp29
tp30
Rp31
sS'year'
p32
V2007
p33
sS'agonists'
p34
g3
((lp35
S"(89, u'\\\\byohimbine')"
p36
atp37
Rp38
sS'species'
p39
g3
((lp40
S"(4624, u'(?i)(apes|ape)')"
p41
aS"(6753, u'(?i)(da|das)')"
p42
aS"(2568, u'(?i)(hens|hen)')"
p43
aS"(5958, u'(?i)(rats|rat)')"
p44
aS"(163, u'(?i)(mice|mouse)')"
p45
aS"(4163, u'(?i)(ermines|ermine)')"
p46
aS"(81, u'(?i)(asps|asp)')"
p47
aS"(468, u'(?i)(oxen|ox)')"
p48
aS"(1055, u'(?i)(men|man)')"
p49
aS"(6249, u'(?i)(ants|ant)')"
p50
aS"(6215, u'(?i)(racers|racer)')"
p51
aS"(4964, u'(?i)(serins|serin)')"
p52
aS"(3550, u'(?i)(anis|ani)')"
p53
aS"(5917, u'(?i)(roaches|roach)')"
p54
aS"(1961, u'(?i)(pens|pen)')"
p55
aS"(6356, u'(?i)(ais|ai)')"
p56
aS"(4979, u'(?i)(cats|cat)')"
p57
atp58
Rp59
sb.