(ifile_types
ParseObject
p0
(dp1
S'antagonists'
p2
c__builtin__
set
p3
((lp4
S"(102, u'\\\\bfluoxetine')"
p5
aS"(110, u'\\\\bsb ?242084')"
p6
atp7
Rp8
sS'methods'
p9
g3
((lp10
tp11
Rp12
sS'topics'
p13
g3
((lp14
tp15
Rp16
sS'receptors'
p17
g3
((lp18
S'5ht2c'
p19
atp20
Rp21
sS'regions'
p22
g3
((lp23
S"(390, u'(?i)(laterals|lateral)(-|\\\\s+)?(ventricle|ventricles)')"
p24
aS"(34, u'(?i)(pon|pons)')"
p25
atp26
Rp27
sS'year'
p28
V2013
p29
sS'agonists'
p30
g3
((lp31
S"(92, u'\\\\b8 ?oh ?dpat')"
p32
atp33
Rp34
sS'species'
p35
g3
((lp36
S"(2323, u'(?i)(bees|bee)')"
p37
aS"(6249, u'(?i)(ants|ant)')"
p38
aS"(4163, u'(?i)(ermines|ermine)')"
p39
aS"(468, u'(?i)(oxen|ox)')"
p40
aS"(1055, u'(?i)(men|man)')"
p41
aS"(5131, u'(?i)(hags|hag)')"
p42
aS"(6215, u'(?i)(racers|racer)')"
p43
aS"(3550, u'(?i)(anis|ani)')"
p44
aS"(2512, u'(?i)(chickens|chicken)')"
p45
aS"(3812, u'(?i)(studs|stud)')"
p46
aS"(709, u'(?i)(chicks|chick)')"
p47
aS"(6682, u'(?i)(tera|teras)')"
p48
atp49
Rp50
sb.