(ifile_types
ParseObject
p0
(dp1
S'methods'
p2
c__builtin__
set
p3
((lp4
S'Method.ANTAGONIST'
p5
atp6
Rp7
sS'topics'
p8
g3
((lp9
tp10
Rp11
sS'receptors'
p12
g3
((lp13
(S'5ht3'
p14
I1473
I1478
tp15
a(S'5ht3'
p16
I536
I546
tp17
a(S'5ht3'
p18
I233
I243
tp19
a(S'5ht3'
p20
I1868
I1873
tp21
a(S'5ht3'
p22
I883
I888
tp23
a(S'5ht3'
p24
I549
I554
tp25
atp26
Rp27
sS'raw_text_methods'
p28
g3
((lp29
S"(25, u'\\\\bics205930')"
p30
aS"(12, u'\\\\bantagonist')"
p31
atp32
Rp33
sS'regions'
p34
g3
((lp35
S"(20, u'(?i)\\\\b(prefrontals|prefrontal)\\\\b')"
p36
aS"(21, u'(?i)\\\\b(mpfcs|mpfc)\\\\b')"
p37
aS"(19, u'(?i)\\\\b(cortexes|cortex)\\\\b')"
p38
atp39
Rp40
sS'year'
p41
V2011
p42
sS'species'
p43
g3
((lp44
S"(2, u'(?i)\\\\b(females|female)\\\\b')"
p45
aS"(4, u'(?i)\\\\b(rats|rat)\\\\b')"
p46
atp47
Rp48
sb.