(ifile_types
ParseObject
p0
(dp1
S'methods'
p2
c__builtin__
set
p3
((lp4
tp5
Rp6
sS'topics'
p7
g3
((lp8
tp9
Rp10
sS'receptors'
p11
g3
((lp12
(S'5ht1a'
p13
I184
I190
tp14
a(S'5ht1a'
p15
I702
I708
tp16
a(S'5ht1a'
p17
I68
I74
tp18
atp19
Rp20
sS'raw_text_methods'
p21
g3
((lp22
tp23
Rp24
sS'regions'
p25
g3
((lp26
S"(1, u'(?i)\\\\b(neocortexes|neocortex)\\\\b')"
p27
aS"(9, u'(?i)\\\\b(cerebellums|cerebellum)\\\\b')"
p28
atp29
Rp30
sS'year'
p31
V1998
p32
sS'species'
p33
g3
((lp34
tp35
Rp36
sb.