(ifile_types
ParseObject
p0
(dp1
S'antagonists'
p2
c__builtin__
set
p3
((lp4
tp5
Rp6
sS'methods'
p7
g3
((lp8
S'Method.IMMUNOHISTOCHEMISTRY'
p9
atp10
Rp11
sS'topics'
p12
g3
((lp13
tp14
Rp15
sS'receptors'
p16
g3
((lp17
S'5ht5'
p18
aS'5ht4'
p19
atp20
Rp21
sS'regions'
p22
g3
((lp23
S"(318, u'(?i)(raphes|raphe)(-|\\\\s+)?(nuclei|nucleus)')"
p24
aS"(94, u'(?i)(dorsals|dorsal)(-|\\\\s+)?(raphes|raphe)(-|\\\\s+)?(nuclei|nucleus)')"
p25
atp26
Rp27
sS'year'
p28
V2017
p29
sS'agonists'
p30
g3
((lp31
tp32
Rp33
sS'species'
p34
g3
((lp35
S"(2568, u'(?i)(hens|hen)')"
p36
aS"(163, u'(?i)(mice|mouse)')"
p37
aS"(468, u'(?i)(oxen|ox)')"
p38
aS"(1055, u'(?i)(men|man)')"
p39
aS"(3726, u'(?i)(mates|mate)')"
p40
aS"(1054, u'(?i)(homoes|homo)')"
p41
aS"(853, u'(?i)(minas|mina)')"
p42
aS"(6249, u'(?i)(ants|ant)')"
p43
aS"(6356, u'(?i)(ais|ai)')"
p44
atp45
Rp46
sb.