(ifile_types
ParseObject
p0
(dp1
S'antagonists'
p2
c__builtin__
set
p3
((lp4
S"(133, u'\\\\bmianserin')"
p5
aS"(6, u'\\\\bcyproheptadine')"
p6
aS"(53, u'\\\\bcyproheptadine')"
p7
aS"(117, u'\\\\bketanserin')"
p8
atp9
Rp10
sS'methods'
p11
g3
((lp12
S'Method.ANTAGONIST'
p13
aS'Method.AGONIST'
p14
atp15
Rp16
sS'topics'
p17
g3
((lp18
tp19
Rp20
sS'receptors'
p21
g3
((lp22
S'5ht2a'
p23
atp24
Rp25
sS'regions'
p26
g3
((lp27
tp28
Rp29
sS'year'
p30
V2005
p31
sS'agonists'
p32
g3
((lp33
S"(175, u'\\\\bdoi')"
p34
atp35
Rp36
sS'species'
p37
g3
((lp38
S"(1961, u'(?i)\\\\b(pens|pen)\\\\b')"
p39
aS"(5958, u'(?i)\\\\b(rats|rat)\\\\b')"
p40
atp41
Rp42
sb.