(ifile_types
ParseObject
p0
(dp1
S'antagonists'
p2
c__builtin__
set
p3
((lp4
S"(61, u'\\\\bmdl ?100907')"
p5
atp6
Rp7
sS'methods'
p8
g3
((lp9
S'Method.ANTAGONIST'
p10
atp11
Rp12
sS'topics'
p13
g3
((lp14
S"(18, u'\\\\bpsychostim')"
p15
atp16
Rp17
sS'receptors'
p18
g3
((lp19
S'5ht2c'
p20
aS'5ht2a'
p21
atp22
Rp23
sS'regions'
p24
g3
((lp25
S"(203, u'(?i)(dentates|dentate)(-|\\\\s+)?(gyruses|gyrus)')"
p26
atp27
Rp28
sS'year'
p29
V2015
p30
sS'agonists'
p31
g3
((lp32
S"(153, u'\\\\bmdma')"
p33
atp34
Rp35
sS'species'
p36
g3
((lp37
S"(5537, u'(?i)(hippos|hippo)')"
p38
aS"(5958, u'(?i)(rats|rat)')"
p39
aS"(7609, u'(?i)(erns|ern)')"
p40
aS"(468, u'(?i)(oxen|ox)')"
p41
aS"(3726, u'(?i)(mates|mate)')"
p42
aS"(6753, u'(?i)(da|das)')"
p43
aS"(6249, u'(?i)(ants|ant)')"
p44
aS"(1961, u'(?i)(pens|pen)')"
p45
aS"(7610, u'(?i)(ernes|erne)')"
p46
aS"(1683, u'(?i)(terns|tern)')"
p47
atp48
Rp49
sb.