(ifile_types
ParseObject
p0
(dp1
S'antagonists'
p2
c__builtin__
set
p3
((lp4
S"(130, u'\\\\bzacopride')"
p5
aS"(14, u'\\\\bmethiothepin')"
p6
aS"(146, u'\\\\bgr ?125487')"
p7
atp8
Rp9
sS'methods'
p10
g3
((lp11
S'Method.ANTAGONIST'
p12
aS'Method.AGONIST'
p13
atp14
Rp15
sS'topics'
p16
g3
((lp17
tp18
Rp19
sS'receptors'
p20
g3
((lp21
S'5ht4'
p22
aS'5ht3'
p23
aS'5ht2'
p24
aS'5ht1'
p25
aS'5ht6a'
p26
aS'5ht4a'
p27
atp28
Rp29
sS'regions'
p30
g3
((lp31
S"(220, u'(?i)\\\\b(striatums|striatum)\\\\b')"
p32
atp33
Rp34
sS'year'
p35
V1997
p36
sS'agonists'
p37
g3
((lp38
S"(220, u'\\\\b5 ?methoxytryptamine')"
p39
aS"(197, u'\\\\bbimu ?8')"
p40
aS"(208, u'\\\\bzacopride')"
p41
aS"(222, u'\\\\b5 ?meot')"
p42
atp43
Rp44
sS'species'
p45
g3
((lp46
S"(6753, u'(?i)\\\\b(da|das)\\\\b')"
p47
aS"(5958, u'(?i)\\\\b(rats|rat)\\\\b')"
p48
atp49
Rp50
sb.