(ifile_types
ParseObject
p0
(dp1
S'antagonists'
p2
c__builtin__
set
p3
((lp4
S"(34, u'\\\\byohimbine')"
p5
aS"(54, u'\\\\britanserin')"
p6
aS"(17, u'\\\\bnan ?190')"
p7
aS"(130, u'\\\\britanserin')"
p8
aS"(135, u'\\\\bondansetron')"
p9
atp10
Rp11
sS'methods'
p12
g3
((lp13
S'Method.ANTAGONIST'
p14
atp15
Rp16
sS'topics'
p17
g3
((lp18
S"(2, u'\\\\bappetite')"
p19
atp20
Rp21
sS'receptors'
p22
g3
((lp23
S'5ht3a'
p24
aS'5ht5'
p25
aS'5ht2c'
p26
aS'5ht1a'
p27
aS'5ht2a'
p28
atp29
Rp30
sS'regions'
p31
g3
((lp32
S"(220, u'(?i)(striatums|striatum)')"
p33
atp34
Rp35
sS'year'
p36
V2015
p37
sS'agonists'
p38
g3
((lp39
S"(89, u'\\\\byohimbine')"
p40
aS"(214, u'\\\\bsulpiride')"
p41
atp42
Rp43
sS'species'
p44
g3
((lp45
S"(1070, u'(?i)(pets|pet)')"
p46
aS"(2323, u'(?i)(bees|bee)')"
p47
aS"(6753, u'(?i)(da|das)')"
p48
aS"(5958, u'(?i)(rats|rat)')"
p49
aS"(6356, u'(?i)(ais|ai)')"
p50
aS"(7609, u'(?i)(erns|ern)')"
p51
aS"(867, u'(?i)(tits|tit)')"
p52
aS"(163, u'(?i)(mice|mouse)')"
p53
aS"(4163, u'(?i)(ermines|ermine)')"
p54
aS"(1055, u'(?i)(men|man)')"
p55
aS"(4964, u'(?i)(serins|serin)')"
p56
aS"(6249, u'(?i)(ants|ant)')"
p57
aS"(1961, u'(?i)(pens|pen)')"
p58
aS"(3812, u'(?i)(studs|stud)')"
p59
aS"(6391, u'(?i)(asses|ass)')"
p60
aS"(4979, u'(?i)(cats|cat)')"
p61
atp62
Rp63
sb.