(ifile_types
ParseObject
p0
(dp1
S'methods'
p2
c__builtin__
set
p3
((lp4
S'Method.ANTAGONIST'
p5
aS'Method.AGONIST'
p6
atp7
Rp8
sS'topics'
p9
g3
((lp10
S"(26, u'\\\\bbehav')"
p11
aS"(23, u'\\\\bantipsychotic')"
p12
atp13
Rp14
sS'receptors'
p15
g3
((lp16
(S'5ht1'
p17
I378
I383
tp18
a(S'5ht1'
p19
I1956
I1962
tp20
a(S'5ht1c'
p21
I1968
I1974
tp22
a(S'5ht1b'
p23
I999
I1005
tp24
a(S'5ht1a'
p25
I864
I870
tp26
a(S'5ht1c'
p27
I1461
I1467
tp28
a(S'5ht1c'
p29
I2208
I2214
tp30
a(S'5ht1a'
p31
I2171
I2177
tp32
a(S'5ht1b'
p33
I2024
I2030
tp34
a(S'5ht1a'
p35
I1956
I1962
tp36
a(S'5ht1'
p37
I864
I870
tp38
atp39
Rp40
sS'raw_text_methods'
p41
g3
((lp42
S"(41, u'\\\\bhaloperidol')"
p43
aS"(33, u'\\\\bmcpp')"
p44
aS"(15, u'\\\\b8ohdpat')"
p45
aS"(40, u'\\\\bclozapine')"
p46
aS"(13, u'\\\\bagonist')"
p47
aS"(12, u'\\\\bantagonist')"
p48
atp49
Rp50
sS'regions'
p51
g3
((lp52
tp53
Rp54
sS'year'
p55
V1994
p56
sS'species'
p57
g3
((lp58
S"(1, u'(?i)\\\\b(mice|mouse)\\\\b')"
p59
aS"(5, u'(?i)\\\\b(mices|mice)\\\\b')"
p60
aS"(4, u'(?i)\\\\b(rats|rat)\\\\b')"
p61
atp62
Rp63
sb.