(ifile_types
ParseObject
p0
(dp1
S'antagonists'
p2
c__builtin__
set
p3
((lp4
S"(102, u'\\\\bfluoxetine')"
p5
atp6
Rp7
sS'methods'
p8
g3
((lp9
S'Method.ANTAGONIST'
p10
aS'Method.AGONIST'
p11
atp12
Rp13
sS'topics'
p14
g3
((lp15
S"(9, u'\\\\bdepress')"
p16
aS"(11, u'\\\\banxiolyt')"
p17
aS"(10, u'\\\\banxiety')"
p18
atp19
Rp20
sS'receptors'
p21
g3
((lp22
S'5ht7'
p23
aS'5ht1b'
p24
aS'5ht1'
p25
atp26
Rp27
sS'regions'
p28
g3
((lp29
S"(203, u'(?i)(dentates|dentate)(-|\\\\s+)?(gyruses|gyrus)')"
p30
atp31
Rp32
sS'year'
p33
V2006
p34
sS'agonists'
p35
g3
((lp36
tp37
Rp38
sS'species'
p39
g3
((lp40
S"(4624, u'(?i)(apes|ape)')"
p41
aS"(5958, u'(?i)(rats|rat)')"
p42
aS"(6356, u'(?i)(ais|ai)')"
p43
aS"(3196, u'(?i)(human|humans)')"
p44
aS"(675, u'(?i)(marmosets|marmoset)')"
p45
aS"(5743, u'(?i)(bots|bot)')"
p46
aS"(468, u'(?i)(oxen|ox)')"
p47
aS"(3062, u'(?i)(guineas|guinea)')"
p48
aS"(2942, u'(?i)(daws|daw)')"
p49
aS"(6249, u'(?i)(ants|ant)')"
p50
aS"(7609, u'(?i)(erns|ern)')"
p51
aS"(163, u'(?i)(mice|mouse)')"
p52
aS"(1055, u'(?i)(men|man)')"
p53
aS"(2334, u'(?i)(eels|eel)')"
p54
aS"(4979, u'(?i)(cats|cat)')"
p55
aS"(1057, u'(?i)(humans|human)')"
p56
aS"(1414, u'(?i)(chars|char)')"
p57
aS"(4480, u'(?i)(guineas|guinea)(-|\\\\s+)?(pigs|pig)')"
p58
aS"(2568, u'(?i)(hens|hen)')"
p59
aS"(6753, u'(?i)(da|das)')"
p60
aS"(3051, u'(?i)(pigs|pig)')"
p61
aS"(3726, u'(?i)(mates|mate)')"
p62
aS"(1683, u'(?i)(terns|tern)')"
p63
atp64
Rp65
sb.