(ifile_types
ParseObject
p0
(dp1
S'methods'
p2
c__builtin__
set
p3
((lp4
S'Method.ANTAGONIST'
p5
atp6
Rp7
sS'topics'
p8
g3
((lp9
tp10
Rp11
sS'receptors'
p12
g3
((lp13
(S'5ht1a'
p14
I556
I562
tp15
a(S'5ht1a'
p16
I1032
I1038
tp17
a(S'5ht1a'
p18
I155
I161
tp19
a(S'5ht1a'
p20
I1228
I1234
tp21
a(S'5ht1a'
p22
I236
I242
tp23
atp24
Rp25
sS'raw_text_methods'
p26
g3
((lp27
S"(11, u'\\\\bfluoxetine')"
p28
aS"(12, u'\\\\bantagonist')"
p29
atp30
Rp31
sS'regions'
p32
g3
((lp33
tp34
Rp35
sS'year'
p36
V1996
p37
sS'species'
p38
g3
((lp39
S"(4, u'(?i)\\\\b(rats|rat)\\\\b')"
p40
atp41
Rp42
sb.