(ifile_types
ParseObject
p0
(dp1
S'antagonists'
p2
c__builtin__
set
p3
((lp4
S"(102, u'\\\\bfluoxetine')"
p5
atp6
Rp7
sS'methods'
p8
g3
((lp9
S'Method.ANTAGONIST'
p10
aS'Method.AGONIST'
p11
atp12
Rp13
sS'topics'
p14
g3
((lp15
S"(9, u'\\\\bdepress')"
p16
aS"(35, u'\\\\bstress')"
p17
aS"(4, u'\\\\blocomot')"
p18
atp19
Rp20
sS'receptors'
p21
g3
((lp22
S'5ht1a'
p23
aS'5ht2'
p24
atp25
Rp26
sS'regions'
p27
g3
((lp28
tp29
Rp30
sS'year'
p31
V1997
p32
sS'agonists'
p33
g3
((lp34
S"(45, u'\\\\bflibanserin')"
p35
atp36
Rp37
sS'species'
p38
g3
((lp39
S"(2323, u'(?i)(bees|bee)')"
p40
aS"(6753, u'(?i)(da|das)')"
p41
aS"(5958, u'(?i)(rats|rat)')"
p42
aS"(163, u'(?i)(mice|mouse)')"
p43
aS"(468, u'(?i)(oxen|ox)')"
p44
aS"(1055, u'(?i)(men|man)')"
p45
aS"(6249, u'(?i)(ants|ant)')"
p46
aS"(853, u'(?i)(minas|mina)')"
p47
aS"(3550, u'(?i)(anis|ani)')"
p48
aS"(3812, u'(?i)(studs|stud)')"
p49
aS"(5743, u'(?i)(bots|bot)')"
p50
aS"(6356, u'(?i)(ais|ai)')"
p51
aS"(4964, u'(?i)(serins|serin)')"
p52
atp53
Rp54
sb.