(ifile_types
ParseObject
p0
(dp1
S'methods'
p2
c__builtin__
set
p3
((lp4
S'Method.AGONIST'
p5
atp6
Rp7
sS'topics'
p8
g3
((lp9
tp10
Rp11
sS'receptors'
p12
g3
((lp13
(S'5ht3'
p14
I994
I999
tp15
a(S'5ht3'
p16
I863
I868
tp17
a(S'5ht3'
p18
I29
I34
tp19
a(S'5ht3'
p20
I1436
I1441
tp21
a(S'5ht3'
p22
I267
I272
tp23
a(S'5ht3'
p24
I1707
I1712
tp25
atp26
Rp27
sS'raw_text_methods'
p28
g3
((lp29
S"(13, u'\\\\bagonist')"
p30
atp31
Rp32
sS'regions'
p33
g3
((lp34
S"(20, u'(?i)\\\\b(prefrontals|prefrontal)\\\\b')"
p35
aS"(21, u'(?i)\\\\b(mpfcs|mpfc)\\\\b')"
p36
aS"(19, u'(?i)\\\\b(cortexes|cortex)\\\\b')"
p37
atp38
Rp39
sS'year'
p40
V1996
p41
sS'species'
p42
g3
((lp43
S"(4, u'(?i)\\\\b(rats|rat)\\\\b')"
p44
atp45
Rp46
sb.