(ifile_types
ParseObject
p0
(dp1
S'methods'
p2
c__builtin__
set
p3
((lp4
S'Method.ANTAGONIST'
p5
aS'Method.AGONIST'
p6
atp7
Rp8
sS'topics'
p9
g3
((lp10
S"(13, u'\\\\bantidepress')"
p11
atp12
Rp13
sS'receptors'
p14
g3
((lp15
(S'5ht1a'
p16
I353
I359
tp17
a(S'5ht1a'
p18
I1123
I1129
tp19
a(S'5ht2a'
p20
I1237
I1243
tp21
a(S'5ht1a'
p22
I1586
I1592
tp23
a(S'5ht2a'
p24
I366
I372
tp25
a(S'5ht1a'
p26
I1742
I1748
tp27
a(S'5ht5'
p28
I301
I311
tp29
a(S'5ht1a'
p30
I1060
I1066
tp31
a(S'5ht2a'
p32
I1323
I1329
tp33
atp34
Rp35
sS'raw_text_methods'
p36
g3
((lp37
S"(13, u'\\\\bagonist')"
p38
aS"(27, u'\\\\blsd')"
p39
aS"(49, u'\\\\bdoi')"
p40
aS"(51, u'\\\\bway100635')"
p41
aS"(12, u'\\\\bantagonist')"
p42
atp43
Rp44
sS'regions'
p45
g3
((lp46
S"(16, u'(?i)\\\\b(drns|drn)\\\\b')"
p47
aS"(3, u'(?i)\\\\b(postsynaptics|postsynaptic)\\\\b')"
p48
atp49
Rp50
sS'year'
p51
V2008
p52
sS'species'
p53
g3
((lp54
S"(4, u'(?i)\\\\b(rats|rat)\\\\b')"
p55
atp56
Rp57
sb.