(ifile_types
ParseObject
p0
(dp1
S'antagonists'
p2
c__builtin__
set
p3
((lp4
S"(32, u'\\\\bway ?100635')"
p5
atp6
Rp7
sS'methods'
p8
g3
((lp9
S'Method.ANTAGONIST'
p10
aS'Method.AGONIST'
p11
atp12
Rp13
sS'topics'
p14
g3
((lp15
tp16
Rp17
sS'receptors'
p18
g3
((lp19
S'5ht7'
p20
aS'5ht1a'
p21
atp22
Rp23
sS'regions'
p24
g3
((lp25
S"(362, u'(?i)(brains|brain)(-|\\\\s+)?(stems|stem)')"
p26
aS"(34, u'(?i)(pon|pons)')"
p27
atp28
Rp29
sS'year'
p30
V2008
p31
sS'agonists'
p32
g3
((lp33
S"(92, u'\\\\b8 ?oh ?dpat')"
p34
atp35
Rp36
sS'species'
p37
g3
((lp38
S"(6249, u'(?i)(ants|ant)')"
p39
aS"(3550, u'(?i)(anis|ani)')"
p40
aS"(1169, u'(?i)(grades|grade)')"
p41
aS"(6356, u'(?i)(ais|ai)')"
p42
aS"(5958, u'(?i)(rats|rat)')"
p43
aS"(1725, u'(?i)(clams|clam)')"
p44
aS"(468, u'(?i)(oxen|ox)')"
p45
aS"(3726, u'(?i)(mates|mate)')"
p46
aS"(5743, u'(?i)(bots|bot)')"
p47
aS"(2568, u'(?i)(hens|hen)')"
p48
aS"(3522, u'(?i)(tetras|tetra)')"
p49
aS"(7094, u'(?i)(curs|cur)')"
p50
aS"(1961, u'(?i)(pens|pen)')"
p51
aS"(3812, u'(?i)(studs|stud)')"
p52
aS"(6642, u'(?i)(lions|lion)')"
p53
aS"(821, u'(?i)(lice|louse)')"
p54
atp55
Rp56
sb.