(ifile_types
ParseObject
p0
(dp1
S'methods'
p2
c__builtin__
set
p3
((lp4
S'Method.ANTAGONIST'
p5
atp6
Rp7
sS'topics'
p8
g3
((lp9
S"(26, u'\\\\bbehav')"
p10
atp11
Rp12
sS'receptors'
p13
g3
((lp14
(S'5ht2a'
p15
I36
I42
tp16
a(S'5ht2a'
p17
I401
I407
tp18
a(S'5ht2a'
p19
I1337
I1343
tp20
a(S'5ht2'
p21
I506
I511
tp22
a(S'5ht2a'
p23
I165
I171
tp24
a(S'5ht2a'
p25
I1243
I1249
tp26
atp27
Rp28
sS'raw_text_methods'
p29
g3
((lp30
S"(53, u'\\\\bketanserin')"
p31
aS"(42, u'\\\\bneuroleptics')"
p32
aS"(12, u'\\\\bantagonist')"
p33
atp34
Rp35
sS'regions'
p36
g3
((lp37
tp38
Rp39
sS'year'
p40
V2002
p41
sS'species'
p42
g3
((lp43
S"(7, u'(?i)\\\\b(guineas|guinea)(-|\\\\s+)?(pigs|pig)\\\\b')"
p44
aS"(4, u'(?i)\\\\b(rats|rat)\\\\b')"
p45
atp46
Rp47
sb.