(ifile_types
ParseObject
p0
(dp1
S'methods'
p2
c__builtin__
set
p3
((lp4
S'Method.ANTAGONIST'
p5
aS'Method.AGONIST'
p6
atp7
Rp8
sS'topics'
p9
g3
((lp10
tp11
Rp12
sS'receptors'
p13
g3
((lp14
(S'5ht3'
p15
I329
I334
tp16
a(S'5ht3'
p17
I1082
I1087
tp18
a(S'5ht3'
p19
I463
I468
tp20
a(S'5ht3'
p21
I1297
I1302
tp22
a(S'5ht3'
p23
I45
I50
tp24
a(S'5ht3'
p25
I1411
I1416
tp26
a(S'5ht3'
p27
I1387
I1392
tp28
a(S'5ht3'
p29
I1000
I1005
tp30
atp31
Rp32
sS'raw_text_methods'
p33
g3
((lp34
S"(13, u'\\\\bagonist')"
p35
aS"(20, u'\\\\bondansetron')"
p36
aS"(30, u'\\\\b2methyl')"
p37
aS"(12, u'\\\\bantagonist')"
p38
atp39
Rp40
sS'regions'
p41
g3
((lp42
tp43
Rp44
sS'year'
p45
V1999
p46
sS'species'
p47
g3
((lp48
S"(4, u'(?i)\\\\b(rats|rat)\\\\b')"
p49
atp50
Rp51
sb.