(ifile_types
ParseObject
p0
(dp1
S'antagonists'
p2
c__builtin__
set
p3
((lp4
tp5
Rp6
sS'methods'
p7
g3
((lp8
tp9
Rp10
sS'topics'
p11
g3
((lp12
S"(9, u'\\\\bdepress')"
p13
aS"(10, u'\\\\banxiety')"
p14
atp15
Rp16
sS'receptors'
p17
g3
((lp18
S'5ht1b'
p19
aS'5ht1a'
p20
aS'5ht5'
p21
atp22
Rp23
sS'regions'
p24
g3
((lp25
S"(318, u'(?i)(raphes|raphe)(-|\\\\s+)?(nuclei|nucleus)')"
p26
aS"(174, u'(?i)(posteriors|posterior)')"
p27
aS"(94, u'(?i)(dorsals|dorsal)(-|\\\\s+)?(raphes|raphe)(-|\\\\s+)?(nuclei|nucleus)')"
p28
atp29
Rp30
sS'year'
p31
V2006
p32
sS'agonists'
p33
g3
((lp34
tp35
Rp36
sS'species'
p37
g3
((lp38
S"(5626, u'(?i)(posters|poster)')"
p39
aS"(5958, u'(?i)(rats|rat)')"
p40
aS"(6356, u'(?i)(ais|ai)')"
p41
aS"(7609, u'(?i)(erns|ern)')"
p42
aS"(867, u'(?i)(tits|tit)')"
p43
aS"(5176, u'(?i)(tegs|teg)')"
p44
aS"(6682, u'(?i)(tera|teras)')"
p45
aS"(468, u'(?i)(oxen|ox)')"
p46
aS"(1055, u'(?i)(men|man)')"
p47
aS"(6249, u'(?i)(ants|ant)')"
p48
aS"(4979, u'(?i)(cats|cat)')"
p49
aS"(3550, u'(?i)(anis|ani)')"
p50
aS"(1961, u'(?i)(pens|pen)')"
p51
aS"(3812, u'(?i)(studs|stud)')"
p52
aS"(6391, u'(?i)(asses|ass)')"
p53
aS"(1225, u'(?i)(larks|lark)')"
p54
aS"(2809, u'(?i)(toms|tom)')"
p55
aS"(1683, u'(?i)(terns|tern)')"
p56
atp57
Rp58
sb.