(ifile_types
ParseObject
p0
(dp1
S'antagonists'
p2
c__builtin__
set
p3
((lp4
S"(209, u'\\\\btfmpp')"
p5
atp6
Rp7
sS'methods'
p8
g3
((lp9
S'Method.AGONIST'
p10
atp11
Rp12
sS'topics'
p13
g3
((lp14
tp15
Rp16
sS'receptors'
p17
g3
((lp18
S'5ht1a'
p19
atp20
Rp21
sS'regions'
p22
g3
((lp23
S"(34, u'(?i)(pon|pons)')"
p24
atp25
Rp26
sS'year'
p27
V1991
p28
sS'agonists'
p29
g3
((lp30
S"(92, u'\\\\b8 ?oh ?dpat')"
p31
aS"(183, u'\\\\btfmpp')"
p32
atp33
Rp34
sS'species'
p35
g3
((lp36
S"(2568, u'(?i)(hens|hen)')"
p37
aS"(6753, u'(?i)(da|das)')"
p38
aS"(468, u'(?i)(oxen|ox)')"
p39
aS"(6249, u'(?i)(ants|ant)')"
p40
aS"(4979, u'(?i)(cats|cat)')"
p41
aS"(5958, u'(?i)(rats|rat)')"
p42
aS"(3522, u'(?i)(tetras|tetra)')"
p43
aS"(3812, u'(?i)(studs|stud)')"
p44
atp45
Rp46
sb.