(ifile_types
ParseObject
p0
(dp1
S'methods'
p2
c__builtin__
set
p3
((lp4
S'Method.ANTAGONIST'
p5
atp6
Rp7
sS'topics'
p8
g3
((lp9
S"(31, u'\\\\brespiratory')"
p10
atp11
Rp12
sS'receptors'
p13
g3
((lp14
(S'5ht1'
p15
I341
I345
tp16
a(S'5ht1'
p17
I698
I702
tp18
a(S'5ht1'
p19
I669
I673
tp20
a(S'5ht1'
p21
I519
I523
tp22
a(S'5ht1a'
p23
I236
I241
tp24
a(S'5ht1'
p25
I253
I257
tp26
a(S'5ht1a'
p27
I65
I70
tp28
a(S'5ht1'
p29
I537
I541
tp30
atp31
Rp32
sS'raw_text_methods'
p33
g3
((lp34
S"(12, u'\\\\bantagonist')"
p35
atp36
Rp37
sS'regions'
p38
g3
((lp39
tp40
Rp41
sS'year'
p42
V2016
p43
sS'species'
p44
g3
((lp45
S"(1, u'(?i)\\\\b(mice|mouse)\\\\b')"
p46
aS"(5, u'(?i)\\\\b(mices|mice)\\\\b')"
p47
atp48
Rp49
sb.