(ifile_types
ParseObject
p0
(dp1
S'antagonists'
p2
c__builtin__
set
p3
((lp4
S"(110, u'\\\\bclozapine')"
p5
atp6
Rp7
sS'methods'
p8
g3
((lp9
S'Method.KNOCKOUT'
p10
aS'Method.AGONIST'
p11
atp12
Rp13
sS'topics'
p14
g3
((lp15
S"(15, u'\\\\bschizophreni')"
p16
aS"(14, u'\\\\bpsychosis')"
p17
atp18
Rp19
sS'receptors'
p20
g3
((lp21
S'5ht2a'
p22
atp23
Rp24
sS'regions'
p25
g3
((lp26
tp27
Rp28
sS'year'
p29
V2019
p30
sS'agonists'
p31
g3
((lp32
S"(23, u'\\\\bclozapine')"
p33
atp34
Rp35
sS'species'
p36
g3
((lp37
S"(5799, u'(?i)\\\\b(rodents|rodent)\\\\b')"
p38
aS"(163, u'(?i)\\\\b(mice|mouse)\\\\b')"
p39
atp40
Rp41
sb.