(ifile_types
ParseObject
p0
(dp1
S'antagonists'
p2
c__builtin__
set
p3
((lp4
tp5
Rp6
sS'methods'
p7
g3
((lp8
tp9
Rp10
sS'topics'
p11
g3
((lp12
tp13
Rp14
sS'receptors'
p15
g3
((lp16
S'5ht1a'
p17
atp18
Rp19
sS'regions'
p20
g3
((lp21
S"(285, u'(?i)(entorhinals|entorhinal)(-|\\\\s+)?(cortexes|cortex)')"
p22
aS"(237, u'(?i)(medials|medial)(-|\\\\s+)?(septals|septal)(-|\\\\s+)?(nuclei|nucleus)')"
p23
aS"(236, u'(?i)(septals|septal)(-|\\\\s+)?(nuclei|nucleus)')"
p24
aS"(126, u'(?i)(thalamuses|thalamus)')"
p25
aS"(223, u'(?i)(putamens|putamen)')"
p26
aS"(203, u'(?i)(dentates|dentate)(-|\\\\s+)?(gyruses|gyrus)')"
p27
aS"(318, u'(?i)(raphes|raphe)(-|\\\\s+)?(nuclei|nucleus)')"
p28
atp29
Rp30
sS'year'
p31
V1991
p32
sS'agonists'
p33
g3
((lp34
S"(92, u'\\\\b8 ?oh ?dpat')"
p35
atp36
Rp37
sS'species'
p38
g3
((lp39
S"(5537, u'(?i)(hippos|hippo)')"
p40
aS"(6753, u'(?i)(da|das)')"
p41
aS"(5958, u'(?i)(rats|rat)')"
p42
aS"(5743, u'(?i)(bots|bot)')"
p43
aS"(1055, u'(?i)(men|man)')"
p44
aS"(4979, u'(?i)(cats|cat)')"
p45
aS"(3550, u'(?i)(anis|ani)')"
p46
aS"(3812, u'(?i)(studs|stud)')"
p47
aS"(2809, u'(?i)(toms|tom)')"
p48
aS"(6325, u'(?i)(caudates|caudate)')"
p49
aS"(6356, u'(?i)(ais|ai)')"
p50
atp51
Rp52
sb.