(ifile_types
ParseObject
p0
(dp1
S'methods'
p2
c__builtin__
set
p3
((lp4
tp5
Rp6
sS'topics'
p7
g3
((lp8
S"(26, u'\\\\bbehav')"
p9
aS"(4, u'\\\\btreatment')"
p10
atp11
Rp12
sS'receptors'
p13
g3
((lp14
(S'5ht2c'
p15
I1167
I1175
tp16
a(S'5ht2c'
p17
I1290
I1298
tp18
a(S'5ht2a'
p19
I109
I115
tp20
a(S'5ht2a'
p21
I657
I663
tp22
a(S'5ht2a'
p23
I1290
I1296
tp24
a(S'5ht2a'
p25
I456
I461
tp26
a(S'5ht2a'
p27
I219
I225
tp28
a(S'5ht2a'
p29
I1008
I1014
tp30
a(S'5ht2a'
p31
I1167
I1173
tp32
atp33
Rp34
sS'raw_text_methods'
p35
g3
((lp36
S"(40, u'\\\\bclozapine')"
p37
atp38
Rp39
sS'regions'
p40
g3
((lp41
tp42
Rp43
sS'year'
p44
V2005
p45
sS'species'
p46
g3
((lp47
S"(4, u'(?i)\\\\b(rats|rat)\\\\b')"
p48
atp49
Rp50
sb.