(ifile_types
ParseObject
p0
(dp1
S'antagonists'
p2
c__builtin__
set
p3
((lp4
S"(32, u'\\\\bway ?100635')"
p5
atp6
Rp7
sS'methods'
p8
g3
((lp9
S'Method.PET'
p10
aS'Method.ANTAGONIST'
p11
aS'Method.AGONIST'
p12
atp13
Rp14
sS'topics'
p15
g3
((lp16
S"(15, u'\\\\bschizophreni')"
p17
aS"(9, u'\\\\bdepress')"
p18
aS"(34, u'\\\\bdementia')"
p19
aS"(10, u'\\\\banxiety')"
p20
atp21
Rp22
sS'receptors'
p23
g3
((lp24
S'5ht7'
p25
aS'5ht1a'
p26
aS'5ht1'
p27
atp28
Rp29
sS'regions'
p30
g3
((lp31
S"(285, u'(?i)(entorhinals|entorhinal)(-|\\\\s+)?(cortexes|cortex)')"
p32
aS"(362, u'(?i)(brains|brain)(-|\\\\s+)?(stems|stem)')"
p33
aS"(318, u'(?i)(raphes|raphe)(-|\\\\s+)?(nuclei|nucleus)')"
p34
aS"(126, u'(?i)(thalamuses|thalamus)')"
p35
atp36
Rp37
sS'year'
p38
V2004
p39
sS'agonists'
p40
g3
((lp41
tp42
Rp43
sS'species'
p44
g3
((lp45
S"(1070, u'(?i)(pets|pet)')"
p46
aS"(2323, u'(?i)(bees|bee)')"
p47
aS"(6753, u'(?i)(da|das)')"
p48
aS"(2568, u'(?i)(hens|hen)')"
p49
aS"(4979, u'(?i)(cats|cat)')"
p50
aS"(1928, u'(?i)(bears|bear)')"
p51
aS"(468, u'(?i)(oxen|ox)')"
p52
aS"(1055, u'(?i)(men|man)')"
p53
aS"(853, u'(?i)(minas|mina)')"
p54
aS"(6249, u'(?i)(ants|ant)')"
p55
aS"(5229, u'(?i)(moles|mole)')"
p56
aS"(4371, u'(?i)(lizas|liza)')"
p57
aS"(6356, u'(?i)(ais|ai)')"
p58
aS"(3048, u'(?i)(hogs|hog)')"
p59
aS"(6391, u'(?i)(asses|ass)')"
p60
aS"(2809, u'(?i)(toms|tom)')"
p61
aS"(5537, u'(?i)(hippos|hippo)')"
p62
aS"(5743, u'(?i)(bots|bot)')"
p63
atp64
Rp65
sb.