(ifile_types
ParseObject
p0
(dp1
S'methods'
p2
c__builtin__
set
p3
((lp4
S'Method.PET'
p5
aS'Method.ANTAGONIST'
p6
atp7
Rp8
sS'topics'
p9
g3
((lp10
S"(3, u'\\\\bclinical')"
p11
atp12
Rp13
sS'receptors'
p14
g3
((lp15
(S'5ht1a'
p16
I403
I409
tp17
a(S'5ht1a'
p18
I66
I72
tp19
atp20
Rp21
sS'raw_text_methods'
p22
g3
((lp23
S"(17, u'\\\\bpet')"
p24
aS"(18, u'\\\\bimaging')"
p25
aS"(12, u'\\\\bantagonist')"
p26
atp27
Rp28
sS'regions'
p29
g3
((lp30
S"(11, u'(?i)\\\\b(cerebrals|cerebral)\\\\b')"
p31
atp32
Rp33
sS'year'
p34
V2005
p35
sS'species'
p36
g3
((lp37
S"(2, u'(?i)\\\\b(females|female)\\\\b')"
p38
aS"(3, u'(?i)\\\\b(males|male)\\\\b')"
p39
atp40
Rp41
sb.