(ifile_types
ParseObject
p0
(dp1
S'antagonists'
p2
c__builtin__
set
p3
((lp4
S"(5, u'\\\\bcyanopindolol')"
p5
aS"(200, u'\\\\bmesulergine')"
p6
aS"(54, u'\\\\britanserin')"
p7
aS"(130, u'\\\\britanserin')"
p8
atp9
Rp10
sS'methods'
p11
g3
((lp12
S'Method.ANTAGONIST'
p13
aS'Method.AGONIST'
p14
atp15
Rp16
sS'topics'
p17
g3
((lp18
tp19
Rp20
sS'receptors'
p21
g3
((lp22
S'5ht7'
p23
aS'5ht7a'
p24
aS'5ht1a'
p25
aS'5ht1'
p26
aS'5ht2a'
p27
atp28
Rp29
sS'regions'
p30
g3
((lp31
S"(130, u'(?i)(anterodorsals|anterodorsal)(-|\\\\s+)?(nuclei|nucleus)')"
p32
aS"(126, u'(?i)(thalamuses|thalamus)')"
p33
aS"(34, u'(?i)(pon|pons)')"
p34
atp35
Rp36
sS'year'
p37
V2001
p38
sS'agonists'
p39
g3
((lp40
S"(105, u'\\\\b5 ?carboxamidotryptamine')"
p41
aS"(5, u'\\\\b5 ?ct')"
p42
aS"(224, u'\\\\b5 ?methoxytryptamine')"
p43
aS"(56, u'\\\\blsd')"
p44
aS"(171, u'\\\\bmesulergine')"
p45
aS"(155, u'\\\\bmem')"
p46
atp47
Rp48
sS'species'
p49
g3
((lp50
S"(4163, u'(?i)(ermines|ermine)')"
p51
aS"(5958, u'(?i)(rats|rat)')"
p52
aS"(6356, u'(?i)(ais|ai)')"
p53
aS"(4964, u'(?i)(serins|serin)')"
p54
aS"(468, u'(?i)(oxen|ox)')"
p55
aS"(2183, u'(?i)(gars|gar)')"
p56
aS"(1055, u'(?i)(men|man)')"
p57
aS"(3726, u'(?i)(mates|mate)')"
p58
aS"(3812, u'(?i)(studs|stud)')"
p59
aS"(7094, u'(?i)(curs|cur)')"
p60
aS"(6249, u'(?i)(ants|ant)')"
p61
aS"(3522, u'(?i)(tetras|tetra)')"
p62
aS"(4979, u'(?i)(cats|cat)')"
p63
aS"(1414, u'(?i)(chars|char)')"
p64
aS"(2809, u'(?i)(toms|tom)')"
p65
aS"(821, u'(?i)(lice|louse)')"
p66
aS"(7552, u'(?i)(bats|bat)')"
p67
atp68
Rp69
sb.