(ifile_types
ParseObject
p0
(dp1
S'antagonists'
p2
c__builtin__
set
p3
((lp4
S"(32, u'\\\\bway ?100635')"
p5
aS"(21, u'\\\\bpindolol')"
p6
atp7
Rp8
sS'methods'
p9
g3
((lp10
S'Method.ANTAGONIST'
p11
aS'Method.AGONIST'
p12
atp13
Rp14
sS'topics'
p15
g3
((lp16
tp17
Rp18
sS'receptors'
p19
g3
((lp20
S'5ht1a'
p21
aS'5ht4'
p22
aS'5ht1'
p23
atp24
Rp25
sS'regions'
p26
g3
((lp27
S"(318, u'(?i)(raphes|raphe)(-|\\\\s+)?(nuclei|nucleus)')"
p28
aS"(94, u'(?i)(dorsals|dorsal)(-|\\\\s+)?(raphes|raphe)(-|\\\\s+)?(nuclei|nucleus)')"
p29
atp30
Rp31
sS'year'
p32
V1998
p33
sS'agonists'
p34
g3
((lp35
S"(105, u'\\\\b5 ?carboxamidotryptamine')"
p36
aS"(5, u'\\\\b5 ?ct')"
p37
aS"(50, u'\\\\bipsapirone')"
p38
aS"(155, u'\\\\bmem')"
p39
atp40
Rp41
sS'species'
p42
g3
((lp43
S"(1070, u'(?i)(pets|pet)')"
p44
aS"(3404, u'(?i)(titis|titi)')"
p45
aS"(6753, u'(?i)(da|das)')"
p46
aS"(2568, u'(?i)(hens|hen)')"
p47
aS"(5537, u'(?i)(hippos|hippo)')"
p48
aS"(867, u'(?i)(tits|tit)')"
p49
aS"(4979, u'(?i)(cats|cat)')"
p50
aS"(479, u'(?i)(lings|ling)')"
p51
aS"(468, u'(?i)(oxen|ox)')"
p52
aS"(1055, u'(?i)(men|man)')"
p53
aS"(6249, u'(?i)(ants|ant)')"
p54
aS"(1349, u'(?i)(rams|ram)')"
p55
aS"(3812, u'(?i)(studs|stud)')"
p56
aS"(5958, u'(?i)(rats|rat)')"
p57
aS"(1961, u'(?i)(pens|pen)')"
p58
aS"(1414, u'(?i)(chars|char)')"
p59
aS"(6391, u'(?i)(asses|ass)')"
p60
aS"(6356, u'(?i)(ais|ai)')"
p61
aS"(1795, u'(?i)(mounts|mount)')"
p62
aS"(5743, u'(?i)(bots|bot)')"
p63
aS"(821, u'(?i)(lice|louse)')"
p64
atp65
Rp66
sb.