(ifile_types
ParseObject
p0
(dp1
S'methods'
p2
c__builtin__
set
p3
((lp4
S'Method.STAINING'
p5
atp6
Rp7
sS'topics'
p8
g3
((lp9
S"(26, u'\\\\bbehav')"
p10
atp11
Rp12
sS'receptors'
p13
g3
((lp14
(S'5ht2a'
p15
I244
I250
tp16
a(S'5ht2a'
p17
I926
I932
tp18
a(S'5ht2a'
p19
I547
I553
tp20
a(S'5ht1a'
p21
I694
I700
tp22
a(S'5ht2c'
p23
I255
I261
tp24
a(S'5ht1b'
p25
I702
I708
tp26
a(S'5ht1d'
p27
I702
I709
tp28
a(S'5ht1a'
p29
I939
I945
tp30
a(S'5ht2c'
p31
I558
I564
tp32
a(S'5ht3'
p33
I712
I717
tp34
a(S'5ht2c'
p35
I926
I933
tp36
a(S'5ht2a'
p37
I1027
I1033
tp38
atp39
Rp40
sS'raw_text_methods'
p41
g3
((lp42
tp43
Rp44
sS'regions'
p45
g3
((lp46
S"(23, u'(?i)\\\\b(forebrains|forebrain)\\\\b')"
p47
atp48
Rp49
sS'year'
p50
V2000
p51
sS'species'
p52
g3
((lp53
tp54
Rp55
sb.