(ifile_types
ParseObject
p0
(dp1
S'antagonists'
p2
c__builtin__
set
p3
((lp4
S"(26, u'\\\\bspiperone')"
p5
aS"(14, u'\\\\bmethiothepin')"
p6
aS"(31, u'\\\\bway ?100635')"
p7
atp8
Rp9
sS'methods'
p10
g3
((lp11
S'Method.ANTAGONIST'
p12
aS'Method.AGONIST'
p13
atp14
Rp15
sS'topics'
p16
g3
((lp17
tp18
Rp19
sS'receptors'
p20
g3
((lp21
S'5ht1a'
p22
aS'5ht5'
p23
aS'5ht2'
p24
atp25
Rp26
sS'regions'
p27
g3
((lp28
tp29
Rp30
sS'year'
p31
V1998
p32
sS'agonists'
p33
g3
((lp34
S"(20, u'\\\\bbuspirone')"
p35
aS"(98, u'\\\\b5 ?carboxamidotryptamine')"
p36
aS"(149, u'\\\\bmem')"
p37
aS"(175, u'\\\\bdoi')"
p38
atp39
Rp40
sS'species'
p41
g3
((lp42
S"(5958, u'(?i)\\\\b(rats|rat)\\\\b')"
p43
atp44
Rp45
sb.