(ifile_types
ParseObject
p0
(dp1
S'methods'
p2
c__builtin__
set
p3
((lp4
S'Method.AGONIST'
p5
atp6
Rp7
sS'topics'
p8
g3
((lp9
S"(24, u'\\\\banxiolytic')"
p10
aS"(26, u'\\\\bbehav')"
p11
aS"(13, u'\\\\bantidepress')"
p12
aS"(5, u'\\\\btherap')"
p13
aS"(8, u'\\\\banxi')"
p14
aS"(3, u'\\\\bclinical')"
p15
atp16
Rp17
sS'receptors'
p18
g3
((lp19
(S'5ht1a'
p20
I265
I271
tp21
a(S'5ht1a'
p22
I2382
I2388
tp23
a(S'5ht1a'
p24
I1242
I1248
tp25
a(S'5ht1a'
p26
I2197
I2203
tp27
a(S'5ht1a'
p28
I504
I510
tp29
a(S'5ht1a'
p30
I1360
I1366
tp31
a(S'5ht1a'
p32
I171
I177
tp33
a(S'5ht1a'
p34
I2726
I2732
tp35
a(S'5ht1a'
p36
I20
I26
tp37
a(S'5ht1a'
p38
I1133
I1139
tp39
a(S'5ht1a'
p40
I928
I934
tp41
atp42
Rp43
sS'raw_text_methods'
p44
g3
((lp45
S"(13, u'\\\\bagonist')"
p46
aS"(15, u'\\\\b8ohdpat')"
p47
aS"(21, u'\\\\bipsapirone')"
p48
atp49
Rp50
sS'regions'
p51
g3
((lp52
S"(11, u'(?i)\\\\b(cerebrals|cerebral)\\\\b')"
p53
aS"(19, u'(?i)\\\\b(cortexes|cortex)\\\\b')"
p54
aS"(4, u'(?i)\\\\b(presynaptics|presynaptic)\\\\b')"
p55
aS"(3, u'(?i)\\\\b(postsynaptics|postsynaptic)\\\\b')"
p56
atp57
Rp58
sS'year'
p59
V1995
p60
sS'species'
p61
g3
((lp62
tp63
Rp64
sb.