(ifile_types
ParseObject
p0
(dp1
S'methods'
p2
c__builtin__
set
p3
((lp4
S'Method.PET'
p5
atp6
Rp7
sS'topics'
p8
g3
((lp9
S"(1, u'\\\\bpatient')"
p10
aS"(7, u'\\\\bdepressi')"
p11
aS"(26, u'\\\\bbehav')"
p12
atp13
Rp14
sS'receptors'
p15
g3
((lp16
(S'5ht1a'
p17
I37
I43
tp18
a(S'5ht1a'
p19
I930
I936
tp20
a(S'5ht1a'
p21
I415
I421
tp22
a(S'5ht1a'
p23
I1142
I1148
tp24
a(S'5ht1a'
p25
I368
I374
tp26
atp27
Rp28
sS'raw_text_methods'
p29
g3
((lp30
S"(51, u'\\\\bway100635')"
p31
aS"(17, u'\\\\bpet')"
p32
aS"(19, u'\\\\bpositron emission tomography')"
p33
atp34
Rp35
sS'regions'
p36
g3
((lp37
tp38
Rp39
sS'year'
p40
V2005
p41
sS'species'
p42
g3
((lp43
tp44
Rp45
sb.