(ifile_types
ParseObject
p0
(dp1
S'methods'
p2
c__builtin__
set
p3
((lp4
S'Method.ANTAGONIST'
p5
aS'Method.AGONIST'
p6
atp7
Rp8
sS'topics'
p9
g3
((lp10
tp11
Rp12
sS'receptors'
p13
g3
((lp14
(S'5ht1b'
p15
I1671
I1676
tp16
a(S'5ht1a'
p17
I692
I697
tp18
a(S'5ht1b'
p19
I636
I641
tp20
a(S'5ht1a'
p21
I1778
I1783
tp22
a(S'5ht1b'
p23
I130
I135
tp24
a(S'5ht1a'
p25
I1661
I1666
tp26
a(S'5ht2'
p27
I299
I303
tp28
a(S'5ht1b'
p29
I1435
I1440
tp30
a(S'5ht1b'
p31
I1237
I1242
tp32
a(S'5ht1a'
p33
I412
I417
tp34
a(S'5ht1b'
p35
I421
I426
tp36
a(S'5ht1a'
p37
I1263
I1268
tp38
a(S'5ht1a'
p39
I1426
I1431
tp40
a(S'5ht1a'
p41
I121
I126
tp42
a(S'5ht1'
p43
I291
I295
tp44
a(S'5ht1b'
p45
I1787
I1792
tp46
atp47
Rp48
sS'raw_text_methods'
p49
g3
((lp50
S"(13, u'\\\\bagonist')"
p51
aS"(33, u'\\\\bmcpp')"
p52
aS"(12, u'\\\\bantagonist')"
p53
atp54
Rp55
sS'regions'
p56
g3
((lp57
tp58
Rp59
sS'year'
p60
V1986
p61
sS'species'
p62
g3
((lp63
S"(4, u'(?i)\\\\b(rats|rat)\\\\b')"
p64
atp65
Rp66
sb.