(ifile_types
ParseObject
p0
(dp1
S'methods'
p2
c__builtin__
set
p3
((lp4
S'Method.ANTAGONIST'
p5
aS'Method.AGONIST'
p6
atp7
Rp8
sS'topics'
p9
g3
((lp10
S"(22, u'\\\\bschizophreni')"
p11
aS"(1, u'\\\\bpatient')"
p12
aS"(26, u'\\\\bbehav')"
p13
aS"(23, u'\\\\bantipsychotic')"
p14
atp15
Rp16
sS'receptors'
p17
g3
((lp18
(S'5ht2a'
p19
I1301
I1307
tp20
a(S'5ht2a'
p21
I1125
I1131
tp22
atp23
Rp24
sS'raw_text_methods'
p25
g3
((lp26
S"(13, u'\\\\bagonist')"
p27
aS"(40, u'\\\\bclozapine')"
p28
aS"(9, u'\\\\britanserin')"
p29
aS"(49, u'\\\\bdoi')"
p30
aS"(12, u'\\\\bantagonist')"
p31
atp32
Rp33
sS'regions'
p34
g3
((lp35
tp36
Rp37
sS'year'
p38
V2017
p39
sS'species'
p40
g3
((lp41
S"(6, u'(?i)\\\\b(rodents|rodent)\\\\b')"
p42
aS"(4, u'(?i)\\\\b(rats|rat)\\\\b')"
p43
atp44
Rp45
sb.