(ifile_types
ParseObject
p0
(dp1
S'methods'
p2
c__builtin__
set
p3
((lp4
tp5
Rp6
sS'topics'
p7
g3
((lp8
S"(8, u'\\\\banxi')"
p9
aS"(26, u'\\\\bbehav')"
p10
aS"(9, u'\\\\bstress')"
p11
atp12
Rp13
sS'receptors'
p14
g3
((lp15
(S'5ht2a'
p16
I1304
I1310
tp17
a(S'5ht2a'
p18
I457
I463
tp19
a(S'5ht2a'
p20
I163
I169
tp21
atp22
Rp23
sS'raw_text_methods'
p24
g3
((lp25
tp26
Rp27
sS'regions'
p28
g3
((lp29
S"(19, u'(?i)\\\\b(cortexes|cortex)\\\\b')"
p30
atp31
Rp32
sS'year'
p33
V1998
p34
sS'species'
p35
g3
((lp36
S"(2, u'(?i)\\\\b(females|female)\\\\b')"
p37
aS"(3, u'(?i)\\\\b(males|male)\\\\b')"
p38
aS"(4, u'(?i)\\\\b(rats|rat)\\\\b')"
p39
atp40
Rp41
sb.