(ifile_types
ParseObject
p0
(dp1
S'methods'
p2
c__builtin__
set
p3
((lp4
S'Method.ANTAGONIST'
p5
aS'Method.AGONIST'
p6
atp7
Rp8
sS'topics'
p9
g3
((lp10
S"(26, u'\\\\bbehav')"
p11
atp12
Rp13
sS'receptors'
p14
g3
((lp15
(S'5ht2c'
p16
I583
I591
tp17
a(S'5ht2a'
p18
I205
I211
tp19
a(S'5ht2a'
p20
I357
I363
tp21
a(S'5ht2a'
p22
I583
I589
tp23
a(S'5ht2'
p24
I45
I50
tp25
a(S'5ht2c'
p26
I1479
I1485
tp27
a(S'5ht2c'
p28
I368
I374
tp29
a(S'5ht2c'
p30
I205
I213
tp31
a(S'5ht2a'
p32
I1248
I1254
tp33
a(S'5ht2a'
p34
I1341
I1347
tp35
a(S'5ht2a'
p36
I1403
I1408
tp37
atp38
Rp39
sS'raw_text_methods'
p40
g3
((lp41
S"(13, u'\\\\bagonist')"
p42
aS"(53, u'\\\\bketanserin')"
p43
aS"(49, u'\\\\bdoi')"
p44
aS"(12, u'\\\\bantagonist')"
p45
atp46
Rp47
sS'regions'
p48
g3
((lp49
tp50
Rp51
sS'year'
p52
V2004
p53
sS'species'
p54
g3
((lp55
tp56
Rp57
sb.