(ifile_types
ParseObject
p0
(dp1
S'methods'
p2
c__builtin__
set
p3
((lp4
S'Method.ANTAGONIST'
p5
aS'Method.AGONIST'
p6
atp7
Rp8
sS'topics'
p9
g3
((lp10
S"(15, u'\\\\bmemory')"
p11
atp12
Rp13
sS'receptors'
p14
g3
((lp15
(S'5ht7'
p16
I689
I694
tp17
a(S'5ht1a'
p18
I131
I137
tp19
a(S'5ht1a'
p20
I1333
I1339
tp21
a(S'5ht1a'
p22
I384
I390
tp23
a(S'5ht7'
p24
I391
I396
tp25
a(S'5ht1a'
p26
I477
I483
tp27
atp28
Rp29
sS'raw_text_methods'
p30
g3
((lp31
S"(13, u'\\\\bagonist')"
p32
aS"(15, u'\\\\b8ohdpat')"
p33
aS"(51, u'\\\\bway100635')"
p34
aS"(12, u'\\\\bantagonist')"
p35
atp36
Rp37
sS'regions'
p38
g3
((lp39
tp40
Rp41
sS'year'
p42
V2006
p43
sS'species'
p44
g3
((lp45
S"(4, u'(?i)\\\\b(rats|rat)\\\\b')"
p46
atp47
Rp48
sb.