(ifile_types
ParseObject
p0
(dp1
S'methods'
p2
c__builtin__
set
p3
((lp4
S'Method.STIMULATION'
p5
aS'Method.AGONIST'
p6
atp7
Rp8
sS'topics'
p9
g3
((lp10
S"(13, u'\\\\bantidepress')"
p11
aS"(4, u'\\\\btreatment')"
p12
atp13
Rp14
sS'receptors'
p15
g3
((lp16
(S'5ht1a'
p17
I201
I207
tp18
a(S'5ht1a'
p19
I633
I639
tp20
a(S'5ht1a'
p21
I354
I360
tp22
a(S'5ht1a'
p23
I975
I981
tp24
a(S'5ht1a'
p25
I86
I92
tp26
atp27
Rp28
sS'raw_text_methods'
p29
g3
((lp30
S"(13, u'\\\\bagonist')"
p31
aS"(15, u'\\\\b8ohdpat')"
p32
atp33
Rp34
sS'regions'
p35
g3
((lp36
tp37
Rp38
sS'year'
p39
V1998
p40
sS'species'
p41
g3
((lp42
tp43
Rp44
sb.