(ifile_types
ParseObject
p0
(dp1
S'antagonists'
p2
c__builtin__
set
p3
((lp4
S"(32, u'\\\\bway ?100635')"
p5
aS"(67, u'\\\\bhaloperidol')"
p6
aS"(123, u'\\\\bclozapine')"
p7
aS"(56, u'\\\\bclozapine')"
p8
atp9
Rp10
sS'methods'
p11
g3
((lp12
S'Method.ANTAGONIST'
p13
aS'Method.AGONIST'
p14
atp15
Rp16
sS'topics'
p17
g3
((lp18
S"(15, u'\\\\bschizophreni')"
p19
aS"(6, u'\\\\bcognit')"
p20
atp21
Rp22
sS'receptors'
p23
g3
((lp24
S'5ht1a'
p25
atp26
Rp27
sS'regions'
p28
g3
((lp29
S"(220, u'(?i)(striatums|striatum)')"
p30
aS"(254, u'(?i)(prefrontals|prefrontal)(-|\\\\s+)?(cortexes|cortex)')"
p31
aS"(226, u'(?i)(nuclei|nucleus)(-|\\\\s+)?(accumben|accumbens)')"
p32
aS"(255, u'(?i)(pres|pre)(-|\\\\s+)?(frontals|frontal)(-|\\\\s+)?(cortexes|cortex)')"
p33
atp34
Rp35
sS'year'
p36
V2004
p37
sS'agonists'
p38
g3
((lp39
S"(48, u'\\\\bhaloperidol')"
p40
aS"(27, u'\\\\bclozapine')"
p41
atp42
Rp43
sS'species'
p44
g3
((lp45
S"(2323, u'(?i)(bees|bee)')"
p46
aS"(2670, u'(?i)(arabs|arab)')"
p47
aS"(6753, u'(?i)(da|das)')"
p48
aS"(5958, u'(?i)(rats|rat)')"
p49
aS"(4979, u'(?i)(cats|cat)')"
p50
aS"(2183, u'(?i)(gars|gar)')"
p51
aS"(81, u'(?i)(asps|asp)')"
p52
aS"(468, u'(?i)(oxen|ox)')"
p53
aS"(1055, u'(?i)(men|man)')"
p54
aS"(853, u'(?i)(minas|mina)')"
p55
aS"(6249, u'(?i)(ants|ant)')"
p56
aS"(3812, u'(?i)(studs|stud)')"
p57
aS"(5537, u'(?i)(hippos|hippo)')"
p58
aS"(5743, u'(?i)(bots|bot)')"
p59
aS"(6356, u'(?i)(ais|ai)')"
p60
atp61
Rp62
sb.