(ifile_types
ParseObject
p0
(dp1
S'antagonists'
p2
c__builtin__
set
p3
((lp4
S"(135, u'\\\\bquinine')"
p5
atp6
Rp7
sS'methods'
p8
g3
((lp9
tp10
Rp11
sS'topics'
p12
g3
((lp13
S"(20, u'\\\\baggressi')"
p14
atp15
Rp16
sS'receptors'
p17
g3
((lp18
S'5ht1b'
p19
aS'5ht1'
p20
atp21
Rp22
sS'regions'
p23
g3
((lp24
tp25
Rp26
sS'year'
p27
V1996
p28
sS'agonists'
p29
g3
((lp30
S"(189, u'\\\\bethanol')"
p31
atp32
Rp33
sS'species'
p34
g3
((lp35
S"(702, u'(?i)\\\\b(genets|genet)\\\\b')"
p36
aS"(2395, u'(?i)\\\\b(mutants|mutant)\\\\b')"
p37
aS"(163, u'(?i)\\\\b(mice|mouse)\\\\b')"
p38
aS"(5799, u'(?i)\\\\b(rodents|rodent)\\\\b')"
p39
atp40
Rp41
sb.