(ifile_types
ParseObject
p0
(dp1
S'antagonists'
p2
c__builtin__
set
p3
((lp4
S"(136, u'\\\\btropisetron')"
p5
aS"(54, u'\\\\britanserin')"
p6
aS"(105, u'\\\\bmethysergide')"
p7
aS"(135, u'\\\\bondansetron')"
p8
aS"(130, u'\\\\britanserin')"
p9
atp10
Rp11
sS'methods'
p12
g3
((lp13
S'Method.ANTAGONIST'
p14
atp15
Rp16
sS'topics'
p17
g3
((lp18
tp19
Rp20
sS'receptors'
p21
g3
((lp22
S'5ht5'
p23
aS'5ht4'
p24
aS'5ht3'
p25
aS'5ht2c'
p26
aS'5ht2a'
p27
atp28
Rp29
sS'regions'
p30
g3
((lp31
S"(34, u'(?i)(pon|pons)')"
p32
atp33
Rp34
sS'year'
p35
V1994
p36
sS'agonists'
p37
g3
((lp38
S"(181, u'\\\\bdom')"
p39
aS"(60, u'\\\\bmethysergide')"
p40
atp41
Rp42
sS'species'
p43
g3
((lp44
S"(6753, u'(?i)(da|das)')"
p45
aS"(2568, u'(?i)(hens|hen)')"
p46
aS"(853, u'(?i)(minas|mina)')"
p47
aS"(6682, u'(?i)(tera|teras)')"
p48
aS"(163, u'(?i)(mice|mouse)')"
p49
aS"(468, u'(?i)(oxen|ox)')"
p50
aS"(1055, u'(?i)(men|man)')"
p51
aS"(6249, u'(?i)(ants|ant)')"
p52
aS"(4964, u'(?i)(serins|serin)')"
p53
aS"(5958, u'(?i)(rats|rat)')"
p54
aS"(6356, u'(?i)(ais|ai)')"
p55
atp56
Rp57
sb.