(ifile_types
ParseObject
p0
(dp1
S'antagonists'
p2
c__builtin__
set
p3
((lp4
S"(111, u'\\\\bolanzapine')"
p5
atp6
Rp7
sS'methods'
p8
g3
((lp9
tp10
Rp11
sS'topics'
p12
g3
((lp13
S"(15, u'\\\\bschizophreni')"
p14
atp15
Rp16
sS'receptors'
p17
g3
((lp18
S'5ht2a'
p19
atp20
Rp21
sS'regions'
p22
g3
((lp23
S"(396, u'(?i)\\\\b(subventriculars|subventricular)(-|\\\\s+)?(zones|zone)\\\\b')"
p24
atp25
Rp26
sS'year'
p27
V2006
p28
sS'agonists'
p29
g3
((lp30
S"(57, u'\\\\bolanzapine')"
p31
atp32
Rp33
sS'species'
p34
g3
((lp35
S"(7058, u'(?i)\\\\b(does|doe)\\\\b')"
p36
aS"(4091, u'(?i)\\\\b(adults|adult)\\\\b')"
p37
atp38
Rp39
sb.