(ifile_types
ParseObject
p0
(dp1
S'methods'
p2
c__builtin__
set
p3
((lp4
S'Method.ANTAGONIST'
p5
atp6
Rp7
sS'topics'
p8
g3
((lp9
S"(22, u'\\\\bschizophreni')"
p10
aS"(14, u'\\\\bcogniti')"
p11
aS"(26, u'\\\\bbehav')"
p12
aS"(16, u'\\\\blearning')"
p13
aS"(23, u'\\\\bantipsychotic')"
p14
aS"(1, u'\\\\bpatient')"
p15
aS"(4, u'\\\\btreatment')"
p16
aS"(3, u'\\\\bclinical')"
p17
atp18
Rp19
sS'receptors'
p20
g3
((lp21
(S'5ht6'
p22
I1404
I1409
tp23
a(S'5ht6'
p24
I75
I80
tp25
atp26
Rp27
sS'raw_text_methods'
p28
g3
((lp29
S"(40, u'\\\\bclozapine')"
p30
aS"(5, u'\\\\bmk801')"
p31
aS"(12, u'\\\\bantagonist')"
p32
atp33
Rp34
sS'regions'
p35
g3
((lp36
tp37
Rp38
sS'year'
p39
V2013
p40
sS'species'
p41
g3
((lp42
S"(3, u'(?i)\\\\b(males|male)\\\\b')"
p43
aS"(4, u'(?i)\\\\b(rats|rat)\\\\b')"
p44
atp45
Rp46
sb.