(ifile_types
ParseObject
p0
(dp1
S'antagonists'
p2
c__builtin__
set
p3
((lp4
tp5
Rp6
sS'methods'
p7
g3
((lp8
S'Method.ANTAGONIST'
p9
aS'Method.AGONIST'
p10
atp11
Rp12
sS'topics'
p13
g3
((lp14
S"(35, u'\\\\bstress')"
p15
aS"(20, u'\\\\baggressi')"
p16
atp17
Rp18
sS'receptors'
p19
g3
((lp20
S'5ht5'
p21
aS'5ht3'
p22
aS'5ht2'
p23
aS'5ht2a'
p24
aS'5ht1a'
p25
aS'5ht3a'
p26
atp27
Rp28
sS'regions'
p29
g3
((lp30
S"(34, u'(?i)(pon|pons)')"
p31
atp32
Rp33
sS'year'
p34
V1998
p35
sS'agonists'
p36
g3
((lp37
S"(92, u'\\\\b8 ?oh ?dpat')"
p38
aS"(196, u'\\\\bquipazine')"
p39
atp40
Rp41
sS'species'
p42
g3
((lp43
S"(949, u'(?i)(cohoes|coho)')"
p44
aS"(3951, u'(?i)(americans|american)(-|\\\\s+)?(chameleons|chameleon)')"
p45
aS"(5333, u'(?i)(reptiles|reptile)')"
p46
aS"(7094, u'(?i)(curs|cur)')"
p47
aS"(6249, u'(?i)(ants|ant)')"
p48
aS"(6356, u'(?i)(ais|ai)')"
p49
aS"(6878, u'(?i)(guans|guan)')"
p50
aS"(3601, u'(?i)(efts|eft)')"
p51
aS"(4091, u'(?i)(adults|adult)')"
p52
aS"(5967, u'(?i)(males|male)')"
p53
aS"(468, u'(?i)(oxen|ox)')"
p54
aS"(5743, u'(?i)(bots|bot)')"
p55
aS"(3550, u'(?i)(anis|ani)')"
p56
aS"(3522, u'(?i)(tetras|tetra)')"
p57
aS"(5958, u'(?i)(rats|rat)')"
p58
aS"(3137, u'(?i)(iguanids|iguanid)')"
p59
aS"(4599, u'(?i)(chameleons|chameleon)')"
p60
aS"(6682, u'(?i)(tera|teras)')"
p61
aS"(1055, u'(?i)(men|man)')"
p62
aS"(4979, u'(?i)(cats|cat)')"
p63
aS"(2568, u'(?i)(hens|hen)')"
p64
aS"(853, u'(?i)(minas|mina)')"
p65
aS"(3953, u'(?i)(anoli|anolis)(-|\\\\s+)?(carolinenses|carolinensis)')"
p66
aS"(3952, u'(?i)(anoles|anole)')"
p67
atp68
Rp69
sb.