(ifile_types
ParseObject
p0
(dp1
S'antagonists'
p2
c__builtin__
set
p3
((lp4
S"(32, u'\\\\bway ?100635')"
p5
atp6
Rp7
sS'methods'
p8
g3
((lp9
S'Method.PET'
p10
atp11
Rp12
sS'topics'
p13
g3
((lp14
S"(3, u'\\\\bsleep')"
p15
aS"(1, u'\\\\bmood')"
p16
atp17
Rp18
sS'receptors'
p19
g3
((lp20
S'5ht1a'
p21
atp22
Rp23
sS'regions'
p24
g3
((lp25
tp26
Rp27
sS'year'
p28
V2001
p29
sS'agonists'
p30
g3
((lp31
tp32
Rp33
sS'species'
p34
g3
((lp35
S"(1070, u'(?i)(pets|pet)')"
p36
aS"(2323, u'(?i)(bees|bee)')"
p37
aS"(5958, u'(?i)(rats|rat)')"
p38
aS"(4091, u'(?i)(adults|adult)')"
p39
aS"(6682, u'(?i)(tera|teras)')"
p40
aS"(1055, u'(?i)(men|man)')"
p41
aS"(6249, u'(?i)(ants|ant)')"
p42
aS"(6356, u'(?i)(ais|ai)')"
p43
aS"(6391, u'(?i)(asses|ass)')"
p44
aS"(4624, u'(?i)(apes|ape)')"
p45
aS"(2809, u'(?i)(toms|tom)')"
p46
atp47
Rp48
sb.