(ifile_types
ParseObject
p0
(dp1
S'antagonists'
p2
c__builtin__
set
p3
((lp4
tp5
Rp6
sS'methods'
p7
g3
((lp8
S'Method.IMMUNOHISTOCHEMISTRY'
p9
atp10
Rp11
sS'topics'
p12
g3
((lp13
tp14
Rp15
sS'receptors'
p16
g3
((lp17
tp18
Rp19
sS'regions'
p20
g3
((lp21
S"(313, u'(?i)\\\\b(solitaries|solitary)(-|\\\\s+)?(tracts|tract)\\\\b')"
p22
atp23
Rp24
sS'year'
p25
V2013
p26
sS'agonists'
p27
g3
((lp28
tp29
Rp30
sS'species'
p31
g3
((lp32
S"(5967, u'(?i)\\\\b(males|male)\\\\b')"
p33
aS"(4091, u'(?i)\\\\b(adults|adult)\\\\b')"
p34
aS"(5958, u'(?i)\\\\b(rats|rat)\\\\b')"
p35
atp36
Rp37
sb.