(ifile_types
ParseObject
p0
(dp1
S'methods'
p2
c__builtin__
set
p3
((lp4
S'Method.ANTAGONIST'
p5
atp6
Rp7
sS'topics'
p8
g3
((lp9
S"(22, u'\\\\bschizophreni')"
p10
aS"(14, u'\\\\bcogniti')"
p11
aS"(25, u'\\\\bsocial')"
p12
aS"(17, u'\\\\balzheimer')"
p13
aS"(16, u'\\\\blearning')"
p14
aS"(18, u'\\\\bavoidan')"
p15
aS"(4, u'\\\\btreatment')"
p16
atp17
Rp18
sS'receptors'
p19
g3
((lp20
(S'5ht6'
p21
I44
I49
tp22
a(S'5ht6'
p23
I328
I333
tp24
atp25
Rp26
sS'raw_text_methods'
p27
g3
((lp28
S"(5, u'\\\\bmk801')"
p29
aS"(12, u'\\\\bantagonist')"
p30
atp31
Rp32
sS'regions'
p33
g3
((lp34
S"(3, u'(?i)\\\\b(postsynaptics|postsynaptic)\\\\b')"
p35
atp36
Rp37
sS'year'
p38
V2016
p39
sS'species'
p40
g3
((lp41
S"(1, u'(?i)\\\\b(mice|mouse)\\\\b')"
p42
aS"(6, u'(?i)\\\\b(rodents|rodent)\\\\b')"
p43
aS"(5, u'(?i)\\\\b(mices|mice)\\\\b')"
p44
aS"(4, u'(?i)\\\\b(rats|rat)\\\\b')"
p45
atp46
Rp47
sb.