(ifile_types
ParseObject
p0
(dp1
S'antagonists'
p2
c__builtin__
set
p3
((lp4
tp5
Rp6
sS'methods'
p7
g3
((lp8
S'Method.ANTAGONIST'
p9
aS'Method.AGONIST'
p10
atp11
Rp12
sS'topics'
p13
g3
((lp14
tp15
Rp16
sS'receptors'
p17
g3
((lp18
S'5ht1a'
p19
atp20
Rp21
sS'regions'
p22
g3
((lp23
S"(220, u'(?i)(striatums|striatum)')"
p24
atp25
Rp26
sS'year'
p27
V1996
p28
sS'agonists'
p29
g3
((lp30
S"(224, u'\\\\b5 ?methoxytryptamine')"
p31
aS"(133, u'\\\\bmexamine')"
p32
aS"(155, u'\\\\bmem')"
p33
atp34
Rp35
sS'species'
p36
g3
((lp37
S"(2323, u'(?i)(bees|bee)')"
p38
aS"(6753, u'(?i)(da|das)')"
p39
aS"(2568, u'(?i)(hens|hen)')"
p40
aS"(6356, u'(?i)(ais|ai)')"
p41
aS"(867, u'(?i)(tits|tit)')"
p42
aS"(4979, u'(?i)(cats|cat)')"
p43
aS"(4163, u'(?i)(ermines|ermine)')"
p44
aS"(468, u'(?i)(oxen|ox)')"
p45
aS"(1055, u'(?i)(men|man)')"
p46
aS"(6249, u'(?i)(ants|ant)')"
p47
aS"(1349, u'(?i)(rams|ram)')"
p48
aS"(853, u'(?i)(minas|mina)')"
p49
aS"(5958, u'(?i)(rats|rat)')"
p50
aS"(3522, u'(?i)(tetras|tetra)')"
p51
aS"(5229, u'(?i)(moles|mole)')"
p52
aS"(1414, u'(?i)(chars|char)')"
p53
aS"(6391, u'(?i)(asses|ass)')"
p54
aS"(3812, u'(?i)(studs|stud)')"
p55
atp56
Rp57
sb.