(ifile_types
ParseObject
p0
(dp1
S'methods'
p2
c__builtin__
set
p3
((lp4
S'Method.PET'
p5
atp6
Rp7
sS'topics'
p8
g3
((lp9
tp10
Rp11
sS'receptors'
p12
g3
((lp13
(S'5ht1a'
p14
I2051
I2057
tp15
a(S'5ht1a'
p16
I248
I254
tp17
atp18
Rp19
sS'raw_text_methods'
p20
g3
((lp21
S"(17, u'\\\\bpet')"
p22
aS"(18, u'\\\\bimaging')"
p23
atp24
Rp25
sS'regions'
p26
g3
((lp27
tp28
Rp29
sS'year'
p30
V2013
p31
sS'species'
p32
g3
((lp33
S"(1, u'(?i)\\\\b(mice|mouse)\\\\b')"
p34
aS"(2, u'(?i)\\\\b(females|female)\\\\b')"
p35
aS"(5, u'(?i)\\\\b(mices|mice)\\\\b')"
p36
aS"(3, u'(?i)\\\\b(males|male)\\\\b')"
p37
atp38
Rp39
sb.