(ifile_types
ParseObject
p0
(dp1
S'antagonists'
p2
c__builtin__
set
p3
((lp4
S"(194, u'\\\\bmethysergide')"
p5
atp6
Rp7
sS'methods'
p8
g3
((lp9
S'Method.STAINING'
p10
aS'Method.AGONIST'
p11
aS'Method.ANTAGONIST'
p12
atp13
Rp14
sS'topics'
p15
g3
((lp16
S"(2, u'\\\\bappetite')"
p17
atp18
Rp19
sS'receptors'
p20
g3
((lp21
S'5ht2'
p22
aS'5ht1'
p23
atp24
Rp25
sS'regions'
p26
g3
((lp27
S"(238, u'(?i)\\\\b(laminas|lamina)(-|\\\\s+)?(terminali|terminalis)\\\\b')"
p28
aS"(55, u'(?i)\\\\b(laterals|lateral)(-|\\\\s+)?(parabrachials|parabrachial)(-|\\\\s+)?(nuclei|nucleus)\\\\b')"
p29
aS"(209, u'(?i)\\\\b(amygdalas|amygdala)\\\\b')"
p30
atp31
Rp32
sS'year'
p33
V2010
p34
sS'agonists'
p35
g3
((lp36
S"(53, u'\\\\bmethysergide')"
p37
atp38
Rp39
sS'species'
p40
g3
((lp41
S"(5958, u'(?i)\\\\b(rats|rat)\\\\b')"
p42
atp43
Rp44
sb.