(ifile_types
ParseObject
p0
(dp1
S'antagonists'
p2
c__builtin__
set
p3
((lp4
tp5
Rp6
sS'methods'
p7
g3
((lp8
S'Method.ANTAGONIST'
p9
aS'Method.AGONIST'
p10
atp11
Rp12
sS'topics'
p13
g3
((lp14
S"(8, u'\\\\blearning')"
p15
aS"(15, u'\\\\bschizophreni')"
p16
aS"(7, u'\\\\bmemory')"
p17
aS"(33, u'\\\\balzheimers')"
p18
aS"(4, u'\\\\blocomot')"
p19
atp20
Rp21
sS'receptors'
p22
g3
((lp23
S'5ht6'
p24
aS'5ht6a'
p25
atp26
Rp27
sS'regions'
p28
g3
((lp29
S"(34, u'(?i)(pon|pons)')"
p30
atp31
Rp32
sS'year'
p33
V2018
p34
sS'agonists'
p35
g3
((lp36
S"(155, u'\\\\bmem')"
p37
aS"(223, u'\\\\bemd ?386088')"
p38
atp39
Rp40
sS'species'
p41
g3
((lp42
S"(4624, u'(?i)(apes|ape)')"
p43
aS"(2670, u'(?i)(arabs|arab)')"
p44
aS"(5958, u'(?i)(rats|rat)')"
p45
aS"(6356, u'(?i)(ais|ai)')"
p46
aS"(163, u'(?i)(mice|mouse)')"
p47
aS"(468, u'(?i)(oxen|ox)')"
p48
aS"(1055, u'(?i)(men|man)')"
p49
aS"(7094, u'(?i)(curs|cur)')"
p50
aS"(5743, u'(?i)(bots|bot)')"
p51
aS"(6249, u'(?i)(ants|ant)')"
p52
aS"(3812, u'(?i)(studs|stud)')"
p53
aS"(7609, u'(?i)(erns|ern)')"
p54
aS"(1683, u'(?i)(terns|tern)')"
p55
atp56
Rp57
sb.