(ifile_types
ParseObject
p0
(dp1
S'methods'
p2
c__builtin__
set
p3
((lp4
S'Method.ANTAGONIST'
p5
aS'Method.AGONIST'
p6
atp7
Rp8
sS'topics'
p9
g3
((lp10
S"(12, u'\\\\bsleep')"
p11
atp12
Rp13
sS'receptors'
p14
g3
((lp15
(S'5ht1a'
p16
I817
I823
tp17
a(S'5ht1b'
p18
I610
I616
tp19
a(S'5ht2'
p20
I872
I877
tp21
a(S'5ht2'
p22
I641
I646
tp23
a(S'5ht1'
p24
I1019
I1024
tp25
a(S'5ht1b'
p26
I828
I834
tp27
a(S'5ht1a'
p28
I712
I718
tp29
atp30
Rp31
sS'raw_text_methods'
p32
g3
((lp33
S"(13, u'\\\\bagonist')"
p34
aS"(9, u'\\\\britanserin')"
p35
aS"(21, u'\\\\bipsapirone')"
p36
aS"(12, u'\\\\bantagonist')"
p37
atp38
Rp39
sS'regions'
p40
g3
((lp41
tp42
Rp43
sS'year'
p44
V1992
p45
sS'species'
p46
g3
((lp47
S"(4, u'(?i)\\\\b(rats|rat)\\\\b')"
p48
atp49
Rp50
sb.