(ifile_types
ParseObject
p0
(dp1
S'antagonists'
p2
c__builtin__
set
p3
((lp4
tp5
Rp6
sS'methods'
p7
g3
((lp8
S'Method.AGONIST'
p9
aS'Method.IMMUNOHISTOCHEMISTRY'
p10
atp11
Rp12
sS'topics'
p13
g3
((lp14
S"(6, u'\\\\bcognit')"
p15
aS"(3, u'\\\\bsleep')"
p16
aS"(1, u'\\\\bmood')"
p17
atp18
Rp19
sS'receptors'
p20
g3
((lp21
S'5ht7'
p22
aS'5ht5'
p23
atp24
Rp25
sS'regions'
p26
g3
((lp27
S"(254, u'(?i)\\\\b(prefrontals|prefrontal)(-|\\\\s+)?(cortexes|cortex)\\\\b')"
p28
aS"(255, u'(?i)\\\\b(pres|pre)(-|\\\\s+)?(frontals|frontal)(-|\\\\s+)?(cortexes|cortex)\\\\b')"
p29
aS"(226, u'(?i)\\\\b(nuclei|nucleus)(-|\\\\s+)?(accumben|accumbens)\\\\b')"
p30
atp31
Rp32
sS'year'
p33
V2014
p34
sS'agonists'
p35
g3
((lp36
S"(231, u'\\\\blp ?211')"
p37
atp38
Rp39
sS'species'
p40
g3
((lp41
S"(4091, u'(?i)\\\\b(adults|adult)\\\\b')"
p42
aS"(5958, u'(?i)\\\\b(rats|rat)\\\\b')"
p43
atp44
Rp45
sb.