(ifile_types
ParseObject
p0
(dp1
S'methods'
p2
c__builtin__
set
p3
((lp4
S'Method.ANTAGONIST'
p5
aS'Method.AGONIST'
p6
atp7
Rp8
sS'topics'
p9
g3
((lp10
S"(6, u'\\\\baggressi')"
p11
aS"(33, u'\\\\blocomot')"
p12
aS"(26, u'\\\\bbehav')"
p13
aS"(25, u'\\\\bsocial')"
p14
aS"(4, u'\\\\btreatment')"
p15
atp16
Rp17
sS'receptors'
p18
g3
((lp19
(S'5ht2a'
p20
I84
I90
tp21
a(S'5ht2a'
p22
I340
I346
tp23
a(S'5ht2c'
p24
I542
I550
tp25
a(S'5ht2a'
p26
I2057
I2063
tp27
a(S'5ht2a'
p28
I717
I723
tp29
a(S'5ht2'
p30
I746
I754
tp31
a(S'5ht2a'
p32
I746
I752
tp33
a(S'5ht2a'
p34
I542
I548
tp35
a(S'5ht2c'
p36
I746
I754
tp37
a(S'5ht2c'
p38
I84
I92
tp39
a(S'5ht2c'
p40
I2416
I2424
tp41
a(S'5ht2c'
p42
I717
I725
tp43
a(S'5ht2a'
p44
I2416
I2422
tp45
a(S'5ht2c'
p46
I340
I348
tp47
a(S'5ht2c'
p48
I2057
I2065
tp49
atp50
Rp51
sS'raw_text_methods'
p52
g3
((lp53
S"(13, u'\\\\bagonist')"
p54
aS"(53, u'\\\\bketanserin')"
p55
aS"(12, u'\\\\bantagonist')"
p56
atp57
Rp58
sS'regions'
p59
g3
((lp60
S"(13, u'(?i)\\\\b(septums|septum)\\\\b')"
p61
atp62
Rp63
sS'year'
p64
V2005
p65
sS'species'
p66
g3
((lp67
S"(2, u'(?i)\\\\b(females|female)\\\\b')"
p68
aS"(4, u'(?i)\\\\b(rats|rat)\\\\b')"
p69
atp70
Rp71
sb.