(ifile_types
ParseObject
p0
(dp1
S'antagonists'
p2
c__builtin__
set
p3
((lp4
S"(53, u'\\\\bketanserin')"
p5
aS"(108, u'\\\\brs ?102221')"
p6
aS"(128, u'\\\\bketanserin')"
p7
atp8
Rp9
sS'methods'
p10
g3
((lp11
S'Method.ANTAGONIST'
p12
aS'Method.AGONIST'
p13
atp14
Rp15
sS'topics'
p16
g3
((lp17
tp18
Rp19
sS'receptors'
p20
g3
((lp21
S'5ht2'
p22
aS'5ht2c'
p23
atp24
Rp25
sS'regions'
p26
g3
((lp27
S"(214, u'(?i)(laterals|lateral)(-|\\\\s+)?(amygdalas|amygdala)')"
p28
aS"(215, u'(?i)(basolaterals|basolateral)(-|\\\\s+)?(amygdalas|amygdala)')"
p29
aS"(209, u'(?i)(amygdalas|amygdala)')"
p30
aS"(34, u'(?i)(pon|pons)')"
p31
atp32
Rp33
sS'year'
p34
V2003
p35
sS'agonists'
p36
g3
((lp37
S"(155, u'\\\\bmem')"
p38
aS"(33, u'\\\\bdoi')"
p39
atp40
Rp41
sS'species'
p42
g3
((lp43
S"(6753, u'(?i)(da|das)')"
p44
aS"(2568, u'(?i)(hens|hen)')"
p45
aS"(5958, u'(?i)(rats|rat)')"
p46
aS"(4979, u'(?i)(cats|cat)')"
p47
aS"(6682, u'(?i)(tera|teras)')"
p48
aS"(81, u'(?i)(asps|asp)')"
p49
aS"(468, u'(?i)(oxen|ox)')"
p50
aS"(6249, u'(?i)(ants|ant)')"
p51
aS"(4964, u'(?i)(serins|serin)')"
p52
aS"(3550, u'(?i)(anis|ani)')"
p53
aS"(6356, u'(?i)(ais|ai)')"
p54
aS"(821, u'(?i)(lice|louse)')"
p55
aS"(7552, u'(?i)(bats|bat)')"
p56
atp57
Rp58
sb.