(ifile_types
ParseObject
p0
(dp1
S'methods'
p2
c__builtin__
set
p3
((lp4
S'Method.AGONIST'
p5
atp6
Rp7
sS'topics'
p8
g3
((lp9
tp10
Rp11
sS'receptors'
p12
g3
((lp13
(S'5ht5'
p14
I226
I231
tp15
a(S'5ht1a'
p16
I364
I370
tp17
a(S'5ht1a'
p18
I136
I142
tp19
a(S'5ht5'
p20
I215
I225
tp21
a(S'5ht1a'
p22
I2343
I2349
tp23
a(S'5ht1a'
p24
I667
I673
tp25
a(S'5ht1a'
p26
I446
I451
tp27
a(S'5ht1a'
p28
I1872
I1878
tp29
a(S'5ht1a'
p30
I1771
I1777
tp31
atp32
Rp33
sS'raw_text_methods'
p34
g3
((lp35
S"(13, u'\\\\bagonist')"
p36
aS"(15, u'\\\\b8ohdpat')"
p37
aS"(11, u'\\\\bfluoxetine')"
p38
aS"(38, u'\\\\bssri')"
p39
atp40
Rp41
sS'regions'
p42
g3
((lp43
S"(19, u'(?i)\\\\b(cortexes|cortex)\\\\b')"
p44
atp45
Rp46
sS'year'
p47
V2002
p48
sS'species'
p49
g3
((lp50
S"(4, u'(?i)\\\\b(rats|rat)\\\\b')"
p51
atp52
Rp53
sb.