(ifile_types
ParseObject
p0
(dp1
S'methods'
p2
c__builtin__
set
p3
((lp4
S'Method.ANTAGONIST'
p5
atp6
Rp7
sS'topics'
p8
g3
((lp9
S"(13, u'\\\\bantidepress')"
p10
atp11
Rp12
sS'receptors'
p13
g3
((lp14
(S'5ht3'
p15
I1621
I1626
tp16
a(S'5ht3'
p17
I663
I668
tp18
a(S'5ht3a'
p19
I595
I601
tp20
a(S'5ht3'
p21
I100
I105
tp22
atp23
Rp24
sS'raw_text_methods'
p25
g3
((lp26
S"(11, u'\\\\bfluoxetine')"
p27
aS"(12, u'\\\\bantagonist')"
p28
atp29
Rp30
sS'regions'
p31
g3
((lp32
tp33
Rp34
sS'year'
p35
V2003
p36
sS'species'
p37
g3
((lp38
S"(4, u'(?i)\\\\b(rats|rat)\\\\b')"
p39
atp40
Rp41
sb.