(ifile_types
ParseObject
p0
(dp1
S'antagonists'
p2
c__builtin__
set
p3
((lp4
S"(17, u'\\\\bnan ?190')"
p5
atp6
Rp7
sS'methods'
p8
g3
((lp9
S'Method.ANTAGONIST'
p10
aS'Method.AGONIST'
p11
atp12
Rp13
sS'topics'
p14
g3
((lp15
S"(21, u'\\\\bpain')"
p16
atp17
Rp18
sS'receptors'
p19
g3
((lp20
S'5ht1a'
p21
aS'5ht1'
p22
atp23
Rp24
sS'regions'
p25
g3
((lp26
tp27
Rp28
sS'year'
p29
V2013
p30
sS'agonists'
p31
g3
((lp32
S"(92, u'\\\\b8 ?oh ?dpat')"
p33
atp34
Rp35
sS'species'
p36
g3
((lp37
S"(5958, u'(?i)(rats|rat)')"
p38
aS"(4979, u'(?i)(cats|cat)')"
p39
aS"(1725, u'(?i)(clams|clam)')"
p40
aS"(468, u'(?i)(oxen|ox)')"
p41
aS"(1055, u'(?i)(men|man)')"
p42
aS"(3726, u'(?i)(mates|mate)')"
p43
aS"(853, u'(?i)(minas|mina)')"
p44
aS"(6249, u'(?i)(ants|ant)')"
p45
aS"(7094, u'(?i)(curs|cur)')"
p46
aS"(1961, u'(?i)(pens|pen)')"
p47
aS"(6356, u'(?i)(ais|ai)')"
p48
atp49
Rp50
sb.