(ifile_types
ParseObject
p0
(dp1
S'methods'
p2
c__builtin__
set
p3
((lp4
S'Method.AGONIST'
p5
atp6
Rp7
sS'topics'
p8
g3
((lp9
tp10
Rp11
sS'receptors'
p12
g3
((lp13
(S'5ht4'
p14
I878
I883
tp15
a(S'5ht4'
p16
I963
I968
tp17
a(S'5ht4'
p18
I28
I33
tp19
a(S'5ht4'
p20
I602
I607
tp21
atp22
Rp23
sS'raw_text_methods'
p24
g3
((lp25
S"(13, u'\\\\bagonist')"
p26
atp27
Rp28
sS'regions'
p29
g3
((lp30
tp31
Rp32
sS'year'
p33
V2013
p34
sS'species'
p35
g3
((lp36
tp37
Rp38
sb.