(ifile_types
ParseObject
p0
(dp1
S'methods'
p2
c__builtin__
set
p3
((lp4
S'Method.AGONIST'
p5
atp6
Rp7
sS'topics'
p8
g3
((lp9
tp10
Rp11
sS'receptors'
p12
g3
((lp13
(S'5ht3'
p14
I1834
I1839
tp15
a(S'5ht3'
p16
I1929
I1934
tp17
a(S'5ht3'
p18
I109
I114
tp19
a(S'5ht3'
p20
I1213
I1218
tp21
a(S'5ht3'
p22
I1970
I1975
tp23
a(S'5ht3'
p24
I487
I492
tp25
a(S'5ht3'
p26
I854
I859
tp27
a(S'5ht3'
p28
I320
I325
tp29
atp30
Rp31
sS'raw_text_methods'
p32
g3
((lp33
S"(13, u'\\\\bagonist')"
p34
aS"(18, u'\\\\bimaging')"
p35
atp36
Rp37
sS'regions'
p38
g3
((lp39
S"(4, u'(?i)\\\\b(presynaptics|presynaptic)\\\\b')"
p40
atp41
Rp42
sS'year'
p43
V2009
p44
sS'species'
p45
g3
((lp46
S"(4, u'(?i)\\\\b(rats|rat)\\\\b')"
p47
atp48
Rp49
sb.