(ifile_types
ParseObject
p0
(dp1
S'antagonists'
p2
c__builtin__
set
p3
((lp4
S"(173, u'\\\\blu ae58054')"
p5
aS"(172, u'\\\\bidalopirdine')"
p6
atp7
Rp8
sS'methods'
p9
g3
((lp10
S'Method.ANTAGONIST'
p11
atp12
Rp13
sS'topics'
p14
g3
((lp15
S"(33, u'\\\\balzheimers')"
p16
aS"(6, u'\\\\bcognit')"
p17
atp18
Rp19
sS'receptors'
p20
g3
((lp21
S'5ht6'
p22
atp23
Rp24
sS'regions'
p25
g3
((lp26
tp27
Rp28
sS'year'
p29
V2017
p30
sS'agonists'
p31
g3
((lp32
tp33
Rp34
sS'species'
p35
g3
((lp36
S"(2103, u'(?i)(nesters|nester)')"
p37
aS"(6753, u'(?i)(da|das)')"
p38
aS"(2568, u'(?i)(hens|hen)')"
p39
aS"(6356, u'(?i)(ais|ai)')"
p40
aS"(5958, u'(?i)(rats|rat)')"
p41
aS"(4979, u'(?i)(cats|cat)')"
p42
aS"(479, u'(?i)(lings|ling)')"
p43
aS"(6249, u'(?i)(ants|ant)')"
p44
aS"(6682, u'(?i)(tera|teras)')"
p45
aS"(1055, u'(?i)(men|man)')"
p46
aS"(3726, u'(?i)(mates|mate)')"
p47
aS"(853, u'(?i)(minas|mina)')"
p48
aS"(3550, u'(?i)(anis|ani)')"
p49
aS"(7610, u'(?i)(ernes|erne)')"
p50
aS"(7094, u'(?i)(curs|cur)')"
p51
aS"(5917, u'(?i)(roaches|roach)')"
p52
aS"(3812, u'(?i)(studs|stud)')"
p53
aS"(7609, u'(?i)(erns|ern)')"
p54
aS"(2809, u'(?i)(toms|tom)')"
p55
aS"(1683, u'(?i)(terns|tern)')"
p56
atp57
Rp58
sb.