(ifile_types
ParseObject
p0
(dp1
S'methods'
p2
c__builtin__
set
p3
((lp4
S'Method.ANTAGONIST'
p5
atp6
Rp7
sS'topics'
p8
g3
((lp9
S"(22, u'\\\\bschizophreni')"
p10
aS"(1, u'\\\\bpatient')"
p11
aS"(23, u'\\\\bantipsychotic')"
p12
aS"(4, u'\\\\btreatment')"
p13
atp14
Rp15
sS'receptors'
p16
g3
((lp17
(S'5ht6'
p18
I1737
I1742
tp19
a(S'5ht6'
p20
I29
I34
tp21
a(S'5ht6'
p22
I230
I240
tp23
a(S'5ht6'
p24
I863
I868
tp25
a(S'5ht6'
p26
I398
I403
tp27
a(S'5ht6d'
p28
I863
I869
tp29
a(S'5ht6'
p30
I253
I258
tp31
a(S'5ht6'
p32
I1449
I1454
tp33
atp34
Rp35
sS'raw_text_methods'
p36
g3
((lp37
S"(41, u'\\\\bhaloperidol')"
p38
aS"(40, u'\\\\bclozapine')"
p39
aS"(54, u'\\\\bautoradiography')"
p40
aS"(12, u'\\\\bantagonist')"
p41
atp42
Rp43
sS'regions'
p44
g3
((lp45
S"(20, u'(?i)\\\\b(prefrontals|prefrontal)\\\\b')"
p46
aS"(19, u'(?i)\\\\b(cortexes|cortex)\\\\b')"
p47
atp48
Rp49
sS'year'
p50
V2002
p51
sS'species'
p52
g3
((lp53
S"(6, u'(?i)\\\\b(rodents|rodent)\\\\b')"
p54
aS"(4, u'(?i)\\\\b(rats|rat)\\\\b')"
p55
atp56
Rp57
sb.