(ifile_types
ParseObject
p0
(dp1
S'methods'
p2
c__builtin__
set
p3
((lp4
S'Method.ANTAGONIST'
p5
atp6
Rp7
sS'topics'
p8
g3
((lp9
S"(26, u'\\\\bbehav')"
p10
atp11
Rp12
sS'receptors'
p13
g3
((lp14
(S'5ht2c'
p15
I137
I143
tp16
a(S'5ht2b'
p17
I1503
I1509
tp18
a(S'5ht2b'
p19
I1307
I1313
tp20
a(S'5ht2c'
p21
I2267
I2273
tp22
a(S'5ht2c'
p23
I1318
I1324
tp24
a(S'5ht2c'
p25
I918
I924
tp26
a(S'5ht2b'
p27
I1409
I1415
tp28
a(S'5ht2c'
p29
I1419
I1425
tp30
a(S'5ht2'
p31
I1556
I1562
tp32
a(S'5ht2b'
p33
I1099
I1105
tp34
a(S'5ht2c'
p35
I1918
I1924
tp36
a(S'5ht2c'
p37
I1649
I1655
tp38
a(S'5ht2'
p39
I1701
I1707
tp40
a(S'5ht2c'
p41
I2488
I2494
tp42
a(S'5ht2'
p43
I906
I912
tp44
a(S'5ht2c'
p45
I1701
I1707
tp46
a(S'5ht2'
p47
I1918
I1924
tp48
a(S'5ht2c'
p49
I1099
I1107
tp50
a(S'5ht2b'
p51
I2247
I2253
tp52
a(S'5ht2b'
p53
I906
I912
tp54
a(S'5ht2b'
p55
I1556
I1562
tp56
atp57
Rp58
sS'raw_text_methods'
p59
g3
((lp60
S"(12, u'\\\\bantagonist')"
p61
atp62
Rp63
sS'regions'
p64
g3
((lp65
S"(8, u'(?i)\\\\b(centrals|central)(-|\\\\s+)?(nervouses|nervous)(-|\\\\s+)?(systems|system)\\\\b')"
p66
atp67
Rp68
sS'year'
p69
V2001
p70
sS'species'
p71
g3
((lp72
S"(3, u'(?i)\\\\b(males|male)\\\\b')"
p73
aS"(4, u'(?i)\\\\b(rats|rat)\\\\b')"
p74
atp75
Rp76
sb.