(ifile_types
ParseObject
p0
(dp1
S'methods'
p2
c__builtin__
set
p3
((lp4
S'Method.PET'
p5
atp6
Rp7
sS'topics'
p8
g3
((lp9
S"(6, u'\\\\baggressi')"
p10
atp11
Rp12
sS'receptors'
p13
g3
((lp14
(S'5ht1'
p15
I986
I991
tp16
a(S'5ht1b'
p17
I626
I637
tp18
a(S'5ht1'
p19
I649
I654
tp20
a(S'5ht1'
p21
I779
I784
tp22
a(S'5ht1b'
p23
I54
I65
tp24
a(S'5ht1'
p25
I1356
I1361
tp26
atp27
Rp28
sS'raw_text_methods'
p29
g3
((lp30
S"(19, u'\\\\bpositron emission tomography')"
p31
atp32
Rp33
sS'regions'
p34
g3
((lp35
S"(22, u'(?i)\\\\b(anteriors|anterior)(-|\\\\s+)?(cingulates|cingulate)\\\\b')"
p36
aS"(11, u'(?i)\\\\b(cerebrals|cerebral)\\\\b')"
p37
aS"(19, u'(?i)\\\\b(cortexes|cortex)\\\\b')"
p38
atp39
Rp40
sS'year'
p41
V2017
p42
sS'species'
p43
g3
((lp44
tp45
Rp46
sb.