(ifile_types
ParseObject
p0
(dp1
S'methods'
p2
c__builtin__
set
p3
((lp4
S'Method.AGONIST'
p5
atp6
Rp7
sS'topics'
p8
g3
((lp9
S"(18, u'\\\\bavoidan')"
p10
aS"(16, u'\\\\blearning')"
p11
aS"(26, u'\\\\bbehav')"
p12
aS"(15, u'\\\\bmemory')"
p13
atp14
Rp15
sS'receptors'
p16
g3
((lp17
(S'5ht2a'
p18
I581
I587
tp19
a(S'5ht2a'
p20
I158
I164
tp21
a(S'5ht2a'
p22
I255
I266
tp23
a(S'5ht2a'
p24
I288
I294
tp25
a(S'5ht2a'
p26
I128
I134
tp27
a(S'5ht2a'
p28
I688
I694
tp29
a(S'5ht2a'
p30
I1462
I1468
tp31
a(S'5ht2a'
p32
I1071
I1077
tp33
atp34
Rp35
sS'raw_text_methods'
p36
g3
((lp37
S"(13, u'\\\\bagonist')"
p38
atp39
Rp40
sS'regions'
p41
g3
((lp42
S"(8, u'(?i)\\\\b(centrals|central)(-|\\\\s+)?(nervouses|nervous)(-|\\\\s+)?(systems|system)\\\\b')"
p43
aS"(19, u'(?i)\\\\b(cortexes|cortex)\\\\b')"
p44
atp45
Rp46
sS'year'
p47
V2018
p48
sS'species'
p49
g3
((lp50
S"(6, u'(?i)\\\\b(rodents|rodent)\\\\b')"
p51
aS"(8, u'(?i)\\\\b(primates|primate)\\\\b')"
p52
aS"(4, u'(?i)\\\\b(rats|rat)\\\\b')"
p53
atp54
Rp55
sb.