(ifile_types
ParseObject
p0
(dp1
S'methods'
p2
c__builtin__
set
p3
((lp4
tp5
Rp6
sS'topics'
p7
g3
((lp8
tp9
Rp10
sS'receptors'
p11
g3
((lp12
(S'5ht2b'
p13
I229
I235
tp14
a(S'5ht2c'
p15
I413
I419
tp16
a(S'5ht2b'
p17
I47
I53
tp18
a(S'5ht2c'
p19
I58
I64
tp20
a(S'5ht2b'
p21
I371
I377
tp22
a(S'5ht2b'
p23
I501
I507
tp24
atp25
Rp26
sS'raw_text_methods'
p27
g3
((lp28
tp29
Rp30
sS'regions'
p31
g3
((lp32
tp33
Rp34
sS'year'
p35
V2003
p36
sS'species'
p37
g3
((lp38
tp39
Rp40
sb.