(ifile_types
ParseObject
p0
(dp1
S'methods'
p2
c__builtin__
set
p3
((lp4
S'Method.ANTAGONIST'
p5
atp6
Rp7
sS'topics'
p8
g3
((lp9
S"(7, u'\\\\bdepressi')"
p10
atp11
Rp12
sS'receptors'
p13
g3
((lp14
(S'5ht2'
p15
I344
I349
tp16
a(S'5ht3'
p17
I574
I579
tp18
a(S'5ht1a'
p19
I528
I534
tp20
a(S'5ht2'
p21
I859
I864
tp22
a(S'5ht2'
p23
I101
I106
tp24
a(S'5ht2'
p25
I2118
I2123
tp26
a(S'5ht2'
p27
I1843
I1848
tp28
atp29
Rp30
sS'raw_text_methods'
p31
g3
((lp32
S"(9, u'\\\\britanserin')"
p33
aS"(49, u'\\\\bdoi')"
p34
aS"(12, u'\\\\bantagonist')"
p35
atp36
Rp37
sS'regions'
p38
g3
((lp39
S"(11, u'(?i)\\\\b(cerebrals|cerebral)\\\\b')"
p40
aS"(8, u'(?i)\\\\b(centrals|central)(-|\\\\s+)?(nervouses|nervous)(-|\\\\s+)?(systems|system)\\\\b')"
p41
aS"(19, u'(?i)\\\\b(cortexes|cortex)\\\\b')"
p42
atp43
Rp44
sS'year'
p45
V1992
p46
sS'species'
p47
g3
((lp48
S"(1, u'(?i)\\\\b(mice|mouse)\\\\b')"
p49
aS"(6, u'(?i)\\\\b(rodents|rodent)\\\\b')"
p50
aS"(5, u'(?i)\\\\b(mices|mice)\\\\b')"
p51
aS"(4, u'(?i)\\\\b(rats|rat)\\\\b')"
p52
atp53
Rp54
sb.