(ifile_types
ParseObject
p0
(dp1
S'methods'
p2
c__builtin__
set
p3
((lp4
S'Method.KNOCKOUT'
p5
aS'Method.AGONIST'
p6
atp7
Rp8
sS'topics'
p9
g3
((lp10
S"(22, u'\\\\bschizophreni')"
p11
aS"(1, u'\\\\bpatient')"
p12
aS"(26, u'\\\\bbehav')"
p13
aS"(4, u'\\\\btreatment')"
p14
atp15
Rp16
sS'receptors'
p17
g3
((lp18
(S'5ht1b'
p19
I1813
I1819
tp20
a(S'5ht1b'
p21
I681
I687
tp22
a(S'5ht1b'
p23
I1269
I1275
tp24
a(S'5ht1a'
p25
I944
I950
tp26
a(S'5ht1b'
p27
I565
I571
tp28
a(S'5ht1b'
p29
I142
I153
tp30
a(S'5ht1b'
p31
I550
I561
tp32
a(S'5ht1b'
p33
I848
I856
tp34
a(S'5ht1b'
p35
I31
I42
tp36
a(S'5ht1b'
p37
I650
I656
tp38
a(S'5ht1b'
p39
I1745
I1751
tp40
a(S'5ht1b'
p41
I1883
I1889
tp42
a(S'5ht1b'
p43
I1385
I1391
tp44
a(S'5ht1a'
p45
I848
I854
tp46
a(S'5ht1b'
p47
I1535
I1541
tp48
a(S'5ht1a'
p49
I2043
I2049
tp50
atp51
Rp52
sS'raw_text_methods'
p53
g3
((lp54
S"(13, u'\\\\bagonist')"
p55
aS"(8, u'\\\\bru24969')"
p56
aS"(15, u'\\\\b8ohdpat')"
p57
atp58
Rp59
sS'regions'
p60
g3
((lp61
tp62
Rp63
sS'year'
p64
V1997
p65
sS'species'
p66
g3
((lp67
S"(1, u'(?i)\\\\b(mice|mouse)\\\\b')"
p68
aS"(2, u'(?i)\\\\b(females|female)\\\\b')"
p69
aS"(5, u'(?i)\\\\b(mices|mice)\\\\b')"
p70
aS"(3, u'(?i)\\\\b(males|male)\\\\b')"
p71
atp72
Rp73
sb.