(ifile_types
ParseObject
p0
(dp1
S'methods'
p2
c__builtin__
set
p3
((lp4
S'Method.ANTAGONIST'
p5
aS'Method.AGONIST'
p6
atp7
Rp8
sS'topics'
p9
g3
((lp10
S"(8, u'\\\\banxi')"
p11
aS"(7, u'\\\\bdepressi')"
p12
aS"(26, u'\\\\bbehav')"
p13
aS"(30, u'\\\\bpain')"
p14
atp15
Rp16
sS'receptors'
p17
g3
((lp18
(S'5ht2c'
p19
I1150
I1158
tp20
a(S'5ht2'
p21
I1746
I1751
tp22
a(S'5ht2b'
p23
I61
I67
tp24
a(S'5ht2'
p25
I1870
I1875
tp26
a(S'5ht2'
p27
I1781
I1786
tp28
a(S'5ht2'
p29
I949
I954
tp30
a(S'5ht2b'
p31
I1150
I1156
tp32
a(S'5ht2'
p33
I1702
I1707
tp34
atp35
Rp36
sS'raw_text_methods'
p37
g3
((lp38
S"(13, u'\\\\bagonist')"
p39
aS"(23, u'\\\\bmdl')"
p40
aS"(12, u'\\\\bantagonist')"
p41
atp42
Rp43
sS'regions'
p44
g3
((lp45
S"(8, u'(?i)\\\\b(centrals|central)(-|\\\\s+)?(nervouses|nervous)(-|\\\\s+)?(systems|system)\\\\b')"
p46
atp47
Rp48
sS'year'
p49
V2019
p50
sS'species'
p51
g3
((lp52
S"(4, u'(?i)\\\\b(rats|rat)\\\\b')"
p53
atp54
Rp55
sb.