(ifile_types
ParseObject
p0
(dp1
S'methods'
p2
c__builtin__
set
p3
((lp4
S'Method.ANTAGONIST'
p5
atp6
Rp7
sS'topics'
p8
g3
((lp9
S"(23, u'\\\\bantipsychotic')"
p10
aS"(3, u'\\\\bclinical')"
p11
atp12
Rp13
sS'receptors'
p14
g3
((lp15
(S'5ht2a'
p16
I77
I88
tp17
a(S'5ht2a'
p18
I1529
I1535
tp19
a(S'5ht2'
p20
I1433
I1438
tp21
a(S'5ht2a'
p22
I1694
I1700
tp23
a(S'5ht2a'
p24
I222
I228
tp25
a(S'5ht2a'
p26
I979
I985
tp27
a(S'5ht2'
p28
I1067
I1072
tp29
a(S'5ht2a'
p30
I860
I866
tp31
a(S'5ht5'
p32
I190
I200
tp33
a(S'5ht2a'
p34
I1291
I1297
tp35
a(S'5ht2a'
p36
I559
I565
tp37
atp38
Rp39
sS'raw_text_methods'
p40
g3
((lp41
S"(2, u'\\\\blabeling')"
p42
aS"(12, u'\\\\bantagonist')"
p43
atp44
Rp45
sS'regions'
p46
g3
((lp47
S"(4, u'(?i)\\\\b(presynaptics|presynaptic)\\\\b')"
p48
aS"(3, u'(?i)\\\\b(postsynaptics|postsynaptic)\\\\b')"
p49
atp50
Rp51
sS'year'
p52
V2000
p53
sS'species'
p54
g3
((lp55
S"(4, u'(?i)\\\\b(rats|rat)\\\\b')"
p56
atp57
Rp58
sb.