(ifile_types
ParseObject
p0
(dp1
S'methods'
p2
c__builtin__
set
p3
((lp4
tp5
Rp6
sS'topics'
p7
g3
((lp8
tp9
Rp10
sS'receptors'
p11
g3
((lp12
(S'5ht1b'
p13
I3197
I3203
tp14
a(S'5ht1b'
p15
I3284
I3290
tp16
a(S'5ht1b'
p17
I3072
I3078
tp18
atp19
Rp20
sS'raw_text_methods'
p21
g3
((lp22
tp23
Rp24
sS'regions'
p25
g3
((lp26
S"(23, u'(?i)\\\\b(forebrains|forebrain)\\\\b')"
p27
atp28
Rp29
sS'year'
p30
V1997
p31
sS'species'
p32
g3
((lp33
S"(6, u'(?i)\\\\b(rodents|rodent)\\\\b')"
p34
aS"(4, u'(?i)\\\\b(rats|rat)\\\\b')"
p35
atp36
Rp37
sb.