(ifile_types
ParseObject
p0
(dp1
S'methods'
p2
c__builtin__
set
p3
((lp4
S'Method.ANTAGONIST'
p5
aS'Method.AGONIST'
p6
atp7
Rp8
sS'topics'
p9
g3
((lp10
S"(14, u'\\\\bcogniti')"
p11
aS"(17, u'\\\\balzheimer')"
p12
aS"(19, u'\\\\bpsychosis')"
p13
aS"(2, u'\\\\bdisorder')"
p14
aS"(34, u'\\\\bparkinson')"
p15
aS"(23, u'\\\\bantipsychotic')"
p16
aS"(1, u'\\\\bpatient')"
p17
aS"(4, u'\\\\btreatment')"
p18
atp19
Rp20
sS'receptors'
p21
g3
((lp22
(S'5ht2a'
p23
I427
I433
tp24
atp25
Rp26
sS'raw_text_methods'
p27
g3
((lp28
S"(13, u'\\\\bagonist')"
p29
atp30
Rp31
sS'regions'
p32
g3
((lp33
tp34
Rp35
sS'year'
p36
V2018
p37
sS'species'
p38
g3
((lp39
tp40
Rp41
sb.