(ifile_types
ParseObject
p0
(dp1
S'antagonists'
p2
c__builtin__
set
p3
((lp4
tp5
Rp6
sS'methods'
p7
g3
((lp8
tp9
Rp10
sS'topics'
p11
g3
((lp12
S"(35, u'\\\\bstress')"
p13
aS"(10, u'\\\\banxiety')"
p14
atp15
Rp16
sS'receptors'
p17
g3
((lp18
S'5ht1a'
p19
aS'5ht5'
p20
aS'5ht2'
p21
aS'5ht2a'
p22
atp23
Rp24
sS'regions'
p25
g3
((lp26
S"(362, u'(?i)(brains|brain)(-|\\\\s+)?(stems|stem)')"
p27
aS"(118, u'(?i)(diencephalons|diencephalon)')"
p28
aS"(209, u'(?i)(amygdalas|amygdala)')"
p29
aS"(195, u'(?i)(telencephalons|telencephalon)')"
p30
aS"(34, u'(?i)(pon|pons)')"
p31
atp32
Rp33
sS'year'
p34
V2016
p35
sS'agonists'
p36
g3
((lp37
tp38
Rp39
sS'species'
p40
g3
((lp41
S"(5626, u'(?i)(posters|poster)')"
p42
aS"(6753, u'(?i)(da|das)')"
p43
aS"(2621, u'(?i)(vertebrates|vertebrate)')"
p44
aS"(5958, u'(?i)(rats|rat)')"
p45
aS"(5156, u'(?i)(invertebrates|invertebrate)')"
p46
aS"(3051, u'(?i)(pigs|pig)')"
p47
aS"(6682, u'(?i)(tera|teras)')"
p48
aS"(3062, u'(?i)(guineas|guinea)')"
p49
aS"(1055, u'(?i)(men|man)')"
p50
aS"(4979, u'(?i)(cats|cat)')"
p51
aS"(3550, u'(?i)(anis|ani)')"
p52
aS"(1057, u'(?i)(humans|human)')"
p53
aS"(6391, u'(?i)(asses|ass)')"
p54
aS"(6356, u'(?i)(ais|ai)')"
p55
aS"(3196, u'(?i)(human|humans)')"
p56
aS"(4480, u'(?i)(guineas|guinea)(-|\\\\s+)?(pigs|pig)')"
p57
aS"(2809, u'(?i)(toms|tom)')"
p58
atp59
Rp60
sb.