(ifile_types
ParseObject
p0
(dp1
S'antagonists'
p2
c__builtin__
set
p3
((lp4
S"(110, u'\\\\bclozapine')"
p5
aS"(58, u'\\\\bhaloperidol')"
p6
aS"(111, u'\\\\bolanzapine')"
p7
aS"(52, u'\\\\bmdl ?100907')"
p8
atp9
Rp10
sS'methods'
p11
g3
((lp12
tp13
Rp14
sS'topics'
p15
g3
((lp16
tp17
Rp18
sS'receptors'
p19
g3
((lp20
S'5ht2a'
p21
atp22
Rp23
sS'regions'
p24
g3
((lp25
tp26
Rp27
sS'year'
p28
V2005
p29
sS'agonists'
p30
g3
((lp31
S"(57, u'\\\\bolanzapine')"
p32
aS"(23, u'\\\\bclozapine')"
p33
aS"(43, u'\\\\bhaloperidol')"
p34
atp35
Rp36
sS'species'
p37
g3
((lp38
S"(5958, u'(?i)\\\\b(rats|rat)\\\\b')"
p39
atp40
Rp41
sb.