(ifile_types
ParseObject
p0
(dp1
S'antagonists'
p2
c__builtin__
set
p3
((lp4
tp5
Rp6
sS'methods'
p7
g3
((lp8
S'Method.AGONIST'
p9
atp10
Rp11
sS'topics'
p12
g3
((lp13
S"(9, u'\\\\bdepress')"
p14
aS"(3, u'\\\\bsleep')"
p15
aS"(11, u'\\\\banxiolyt')"
p16
aS"(10, u'\\\\banxiety')"
p17
aS"(16, u'\\\\bfeed')"
p18
atp19
Rp20
sS'receptors'
p21
g3
((lp22
S'5ht1a'
p23
aS'5ht1'
p24
atp25
Rp26
sS'regions'
p27
g3
((lp28
S"(254, u'(?i)\\\\b(prefrontals|prefrontal)(-|\\\\s+)?(cortexes|cortex)\\\\b')"
p29
aS"(255, u'(?i)\\\\b(pres|pre)(-|\\\\s+)?(frontals|frontal)(-|\\\\s+)?(cortexes|cortex)\\\\b')"
p30
atp31
Rp32
sS'year'
p33
V2009
p34
sS'agonists'
p35
g3
((lp36
S"(85, u'\\\\b8 ?oh ?dpat')"
p37
aS"(80, u'\\\\bvilazodone')"
p38
atp39
Rp40
sS'species'
p41
g3
((lp42
S"(1055, u'(?i)\\\\b(men|man)\\\\b')"
p43
aS"(5958, u'(?i)\\\\b(rats|rat)\\\\b')"
p44
atp45
Rp46
sb.