(ifile_types
ParseObject
p0
(dp1
S'antagonists'
p2
c__builtin__
set
p3
((lp4
S"(54, u'\\\\britanserin')"
p5
aS"(130, u'\\\\britanserin')"
p6
aS"(135, u'\\\\bondansetron')"
p7
aS"(136, u'\\\\btropisetron')"
p8
atp9
Rp10
sS'methods'
p11
g3
((lp12
S'Method.ANTAGONIST'
p13
atp14
Rp15
sS'topics'
p16
g3
((lp17
S"(11, u'\\\\banxiolyt')"
p18
atp19
Rp20
sS'receptors'
p21
g3
((lp22
S'5ht1a'
p23
aS'5ht4'
p24
aS'5ht3'
p25
aS'5ht2'
p26
aS'5ht1'
p27
aS'5ht5'
p28
atp29
Rp30
sS'regions'
p31
g3
((lp32
S"(34, u'(?i)(pon|pons)')"
p33
atp34
Rp35
sS'year'
p36
V1993
p37
sS'agonists'
p38
g3
((lp39
S"(92, u'\\\\b8 ?oh ?dpat')"
p40
atp41
Rp42
sS'species'
p43
g3
((lp44
S"(2323, u'(?i)(bees|bee)')"
p45
aS"(5799, u'(?i)(rodents|rodent)')"
p46
aS"(5958, u'(?i)(rats|rat)')"
p47
aS"(6753, u'(?i)(da|das)')"
p48
aS"(163, u'(?i)(mice|mouse)')"
p49
aS"(5743, u'(?i)(bots|bot)')"
p50
aS"(6682, u'(?i)(tera|teras)')"
p51
aS"(3051, u'(?i)(pigs|pig)')"
p52
aS"(468, u'(?i)(oxen|ox)')"
p53
aS"(1055, u'(?i)(men|man)')"
p54
aS"(7094, u'(?i)(curs|cur)')"
p55
aS"(3062, u'(?i)(guineas|guinea)')"
p56
aS"(4964, u'(?i)(serins|serin)')"
p57
aS"(6249, u'(?i)(ants|ant)')"
p58
aS"(6356, u'(?i)(ais|ai)')"
p59
aS"(6391, u'(?i)(asses|ass)')"
p60
aS"(1225, u'(?i)(larks|lark)')"
p61
aS"(4480, u'(?i)(guineas|guinea)(-|\\\\s+)?(pigs|pig)')"
p62
aS"(4979, u'(?i)(cats|cat)')"
p63
aS"(7552, u'(?i)(bats|bat)')"
p64
atp65
Rp66
sb.