(ifile_types
ParseObject
p0
(dp1
S'methods'
p2
c__builtin__
set
p3
((lp4
S'Method.PET'
p5
atp6
Rp7
sS'topics'
p8
g3
((lp9
tp10
Rp11
sS'receptors'
p12
g3
((lp13
(S'5ht2a'
p14
I700
I706
tp15
a(S'5ht2a'
p16
I328
I339
tp17
a(S'5ht2a'
p18
I930
I936
tp19
atp20
Rp21
sS'raw_text_methods'
p22
g3
((lp23
S"(17, u'\\\\bpet')"
p24
aS"(19, u'\\\\bpositron emission tomography')"
p25
aS"(18, u'\\\\bimaging')"
p26
atp27
Rp28
sS'regions'
p29
g3
((lp30
tp31
Rp32
sS'year'
p33
V2007
p34
sS'species'
p35
g3
((lp36
tp37
Rp38
sb.