(ifile_types
ParseObject
p0
(dp1
S'antagonists'
p2
c__builtin__
set
p3
((lp4
S"(128, u'\\\\bmetoclopramide')"
p5
aS"(124, u'\\\\bondansetron')"
p6
atp7
Rp8
sS'methods'
p9
g3
((lp10
S'Method.ANTAGONIST'
p11
atp12
Rp13
sS'topics'
p14
g3
((lp15
S"(32, u'\\\\bnausea')"
p16
aS"(28, u'\\\\bemesis')"
p17
atp18
Rp19
sS'receptors'
p20
g3
((lp21
S'5ht3'
p22
atp23
Rp24
sS'regions'
p25
g3
((lp26
S"(27, u'(?i)\\\\b(areas|area)(-|\\\\s+)?(postremas|postrema)\\\\b')"
p27
atp28
Rp29
sS'year'
p30
V1991
p31
sS'agonists'
p32
g3
((lp33
S"(209, u'\\\\bmetoclopramide')"
p34
aS"(176, u'\\\\bdom')"
p35
atp36
Rp37
sS'species'
p38
g3
((lp39
S"(3015, u'(?i)\\\\b(ferrets|ferret)\\\\b')"
p40
aS"(4074, u'(?i)\\\\b(bulls|bull)\\\\b')"
p41
atp42
Rp43
sb.