(ifile_types
ParseObject
p0
(dp1
S'methods'
p2
c__builtin__
set
p3
((lp4
S'Method.ANTAGONIST'
p5
atp6
Rp7
sS'topics'
p8
g3
((lp9
S"(8, u'\\\\banxi')"
p10
aS"(5, u'\\\\btherap')"
p11
aS"(7, u'\\\\bdepressi')"
p12
aS"(2, u'\\\\bdisorder')"
p13
atp14
Rp15
sS'receptors'
p16
g3
((lp17
(S'5ht1a'
p18
I513
I519
tp19
a(S'5ht1'
p20
I52
I58
tp21
a(S'5ht1b'
p22
I945
I951
tp23
a(S'5ht1b'
p24
I1480
I1486
tp25
a(S'5ht1a'
p26
I794
I800
tp27
a(S'5ht1a'
p28
I1384
I1390
tp29
a(S'5ht1b'
p30
I526
I532
tp31
a(S'5ht1a'
p32
I1759
I1765
tp33
a(S'5ht1b'
p34
I72
I78
tp35
a(S'5ht1a'
p36
I52
I58
tp37
a(S'5ht1b'
p38
I1273
I1279
tp39
a(S'5ht1a'
p40
I1527
I1533
tp41
atp42
Rp43
sS'raw_text_methods'
p44
g3
((lp45
S"(30, u'\\\\b2methyl')"
p46
aS"(39, u'\\\\bselective serotonin reuptake inhibitor')"
p47
aS"(12, u'\\\\bantagonist')"
p48
atp49
Rp50
sS'regions'
p51
g3
((lp52
tp53
Rp54
sS'year'
p55
V2000
p56
sS'species'
p57
g3
((lp58
S"(4, u'(?i)\\\\b(rats|rat)\\\\b')"
p59
atp60
Rp61
sb.