(ifile_types
ParseObject
p0
(dp1
S'antagonists'
p2
c__builtin__
set
p3
((lp4
S"(32, u'\\\\bway ?100635')"
p5
atp6
Rp7
sS'methods'
p8
g3
((lp9
S'Method.KNOCKOUT'
p10
aS'Method.ANTAGONIST'
p11
aS'Method.AGONIST'
p12
atp13
Rp14
sS'topics'
p15
g3
((lp16
S"(29, u'\\\\bsex')"
p17
atp18
Rp19
sS'receptors'
p20
g3
((lp21
S'5ht7'
p22
aS'5ht5'
p23
aS'5ht1a'
p24
atp25
Rp26
sS'regions'
p27
g3
((lp28
tp29
Rp30
sS'year'
p31
V2011
p32
sS'agonists'
p33
g3
((lp34
S"(92, u'\\\\b8 ?oh ?dpat')"
p35
atp36
Rp37
sS'species'
p38
g3
((lp39
S"(5967, u'(?i)(males|male)')"
p40
aS"(5958, u'(?i)(rats|rat)')"
p41
aS"(81, u'(?i)(asps|asp)')"
p42
aS"(6682, u'(?i)(tera|teras)')"
p43
aS"(1055, u'(?i)(men|man)')"
p44
aS"(6249, u'(?i)(ants|ant)')"
p45
aS"(5743, u'(?i)(bots|bot)')"
p46
aS"(3550, u'(?i)(anis|ani)')"
p47
aS"(1961, u'(?i)(pens|pen)')"
p48
aS"(3812, u'(?i)(studs|stud)')"
p49
aS"(1795, u'(?i)(mounts|mount)')"
p50
aS"(6356, u'(?i)(ais|ai)')"
p51
atp52
Rp53
sb.