(ifile_types
ParseObject
p0
(dp1
S'antagonists'
p2
c__builtin__
set
p3
((lp4
S"(1, u'\\\\balprenolol')"
p5
aS"(33, u'\\\\byohimbine')"
p6
atp7
Rp8
sS'methods'
p9
g3
((lp10
S'Method.ANTAGONIST'
p11
atp12
Rp13
sS'topics'
p14
g3
((lp15
tp16
Rp17
sS'receptors'
p18
g3
((lp19
S'5ht1a'
p20
aS'5ht3a'
p21
aS'5ht2'
p22
aS'5ht1'
p23
atp24
Rp25
sS'regions'
p26
g3
((lp27
tp28
Rp29
sS'year'
p30
V1991
p31
sS'agonists'
p32
g3
((lp33
S"(175, u'\\\\bdoi')"
p34
aS"(82, u'\\\\byohimbine')"
p35
atp36
Rp37
sS'species'
p38
g3
((lp39
S"(2054, u'(?i)\\\\b(heads|head)\\\\b')"
p40
aS"(163, u'(?i)\\\\b(mice|mouse)\\\\b')"
p41
atp42
Rp43
sb.