(ifile_types
ParseObject
p0
(dp1
S'antagonists'
p2
c__builtin__
set
p3
((lp4
S"(206, u'\\\\bbromocriptine')"
p5
aS"(58, u'\\\\bhaloperidol')"
p6
atp7
Rp8
sS'methods'
p9
g3
((lp10
S'Method.ANTAGONIST'
p11
aS'Method.AGONIST'
p12
atp13
Rp14
sS'topics'
p15
g3
((lp16
tp17
Rp18
sS'receptors'
p19
g3
((lp20
S'5ht1a'
p21
atp22
Rp23
sS'regions'
p24
g3
((lp25
tp26
Rp27
sS'year'
p28
V2008
p29
sS'agonists'
p30
g3
((lp31
S"(43, u'\\\\bhaloperidol')"
p32
atp33
Rp34
sS'species'
p35
g3
((lp36
tp37
Rp38
sb.