(ifile_types
ParseObject
p0
(dp1
S'antagonists'
p2
c__builtin__
set
p3
((lp4
S"(67, u'\\\\bhaloperidol')"
p5
aS"(120, u'\\\\bfluphenazine')"
p6
atp7
Rp8
sS'methods'
p9
g3
((lp10
S'Method.ANTAGONIST'
p11
atp12
Rp13
sS'topics'
p14
g3
((lp15
S"(4, u'\\\\blocomot')"
p16
atp17
Rp18
sS'receptors'
p19
g3
((lp20
S'5ht3'
p21
atp22
Rp23
sS'regions'
p24
g3
((lp25
S"(157, u'(?i)(limbics|limbic)(-|\\\\s+)?(systems|system)')"
p26
aS"(226, u'(?i)(nuclei|nucleus)(-|\\\\s+)?(accumben|accumbens)')"
p27
aS"(209, u'(?i)(amygdalas|amygdala)')"
p28
aS"(34, u'(?i)(pon|pons)')"
p29
atp30
Rp31
sS'year'
p32
V1987
p33
sS'agonists'
p34
g3
((lp35
S"(181, u'\\\\bdom')"
p36
aS"(48, u'\\\\bhaloperidol')"
p37
aS"(14, u'\\\\bamphetamine')"
p38
aS"(214, u'\\\\bsulpiride')"
p39
atp40
Rp41
sS'species'
p42
g3
((lp43
S"(4624, u'(?i)(apes|ape)')"
p44
aS"(2568, u'(?i)(hens|hen)')"
p45
aS"(3601, u'(?i)(efts|eft)')"
p46
aS"(6753, u'(?i)(da|das)')"
p47
aS"(6682, u'(?i)(tera|teras)')"
p48
aS"(1349, u'(?i)(rams|ram)')"
p49
aS"(6249, u'(?i)(ants|ant)')"
p50
aS"(1055, u'(?i)(men|man)')"
p51
aS"(853, u'(?i)(minas|mina)')"
p52
aS"(5958, u'(?i)(rats|rat)')"
p53
aS"(7094, u'(?i)(curs|cur)')"
p54
aS"(3812, u'(?i)(studs|stud)')"
p55
aS"(6356, u'(?i)(ais|ai)')"
p56
aS"(675, u'(?i)(marmosets|marmoset)')"
p57
atp58
Rp59
sb.