(ifile_types
ParseObject
p0
(dp1
S'antagonists'
p2
c__builtin__
set
p3
((lp4
tp5
Rp6
sS'methods'
p7
g3
((lp8
tp9
Rp10
sS'topics'
p11
g3
((lp12
tp13
Rp14
sS'receptors'
p15
g3
((lp16
S'5ht1b'
p17
atp18
Rp19
sS'regions'
p20
g3
((lp21
S"(362, u'(?i)\\\\b(brains|brain)(-|\\\\s+)?(stems|stem)\\\\b')"
p22
aS"(374, u'(?i)\\\\b(duras|dura)(-|\\\\s+)?(maters|mater)\\\\b')"
p23
aS"(27, u'(?i)\\\\b(areas|area)(-|\\\\s+)?(postremas|postrema)\\\\b')"
p24
aS"(313, u'(?i)\\\\b(solitaries|solitary)(-|\\\\s+)?(tracts|tract)\\\\b')"
p25
atp26
Rp27
sS'year'
p28
V1995
p29
sS'agonists'
p30
g3
((lp31
S"(25, u'\\\\bdihydroergotamine')"
p32
aS"(96, u'\\\\bsumatriptan')"
p33
aS"(100, u'\\\\bcp ?93129')"
p34
aS"(102, u'\\\\bcp ?122288')"
p35
atp36
Rp37
sS'species'
p38
g3
((lp39
S"(3051, u'(?i)\\\\b(pigs|pig)\\\\b')"
p40
aS"(4480, u'(?i)\\\\b(guineas|guinea)(-|\\\\s+)?(pigs|pig)\\\\b')"
p41
aS"(3062, u'(?i)\\\\b(guineas|guinea)\\\\b')"
p42
atp43
Rp44
sb.