(ifile_types
ParseObject
p0
(dp1
S'antagonists'
p2
c__builtin__
set
p3
((lp4
S"(61, u'\\\\bmdl ?100907')"
p5
atp6
Rp7
sS'methods'
p8
g3
((lp9
S'Method.ANTAGONIST'
p10
aS'Method.AGONIST'
p11
atp12
Rp13
sS'topics'
p14
g3
((lp15
S"(9, u'\\\\bdepress')"
p16
aS"(20, u'\\\\baggressi')"
p17
atp18
Rp19
sS'receptors'
p20
g3
((lp21
S'5ht5'
p22
aS'5ht2c'
p23
aS'5ht2a'
p24
atp25
Rp26
sS'regions'
p27
g3
((lp28
S"(34, u'(?i)(pon|pons)')"
p29
atp30
Rp31
sS'year'
p32
V2014
p33
sS'agonists'
p34
g3
((lp35
S"(172, u'\\\\bmk ?212')"
p36
atp37
Rp38
sS'species'
p39
g3
((lp40
S"(6249, u'(?i)(ants|ant)')"
p41
aS"(2568, u'(?i)(hens|hen)')"
p42
aS"(6125, u'(?i)(females|female)')"
p43
aS"(7609, u'(?i)(erns|ern)')"
p44
aS"(5958, u'(?i)(rats|rat)')"
p45
aS"(6753, u'(?i)(da|das)')"
p46
aS"(6682, u'(?i)(tera|teras)')"
p47
aS"(5967, u'(?i)(males|male)')"
p48
aS"(468, u'(?i)(oxen|ox)')"
p49
aS"(1055, u'(?i)(men|man)')"
p50
aS"(3726, u'(?i)(mates|mate)')"
p51
aS"(2942, u'(?i)(daws|daw)')"
p52
aS"(3550, u'(?i)(anis|ani)')"
p53
aS"(3812, u'(?i)(studs|stud)')"
p54
aS"(6981, u'(?i)(moths|moth)')"
p55
aS"(1961, u'(?i)(pens|pen)')"
p56
aS"(3722, u'(?i)(pups|pup)')"
p57
aS"(6391, u'(?i)(asses|ass)')"
p58
aS"(6356, u'(?i)(ais|ai)')"
p59
aS"(1683, u'(?i)(terns|tern)')"
p60
atp61
Rp62
sb.