(ifile_types
ParseObject
p0
(dp1
S'antagonists'
p2
c__builtin__
set
p3
((lp4
tp5
Rp6
sS'methods'
p7
g3
((lp8
tp9
Rp10
sS'topics'
p11
g3
((lp12
tp13
Rp14
sS'receptors'
p15
g3
((lp16
S'5ht1a'
p17
atp18
Rp19
sS'regions'
p20
g3
((lp21
S"(203, u'(?i)\\\\b(dentates|dentate)(-|\\\\s+)?(gyruses|gyrus)\\\\b')"
p22
atp23
Rp24
sS'year'
p25
V2002
p26
sS'agonists'
p27
g3
((lp28
S"(85, u'\\\\b8 ?oh ?dpat')"
p29
atp30
Rp31
sS'species'
p32
g3
((lp33
S"(5958, u'(?i)\\\\b(rats|rat)\\\\b')"
p34
atp35
Rp36
sb.