(ifile_types
ParseObject
p0
(dp1
S'methods'
p2
c__builtin__
set
p3
((lp4
S'Method.ANTAGONIST'
p5
aS'Method.AGONIST'
p6
atp7
Rp8
sS'topics'
p9
g3
((lp10
tp11
Rp12
sS'receptors'
p13
g3
((lp14
(S'5ht3'
p15
I2892
I2897
tp16
atp17
Rp18
sS'raw_text_methods'
p19
g3
((lp20
S"(13, u'\\\\bagonist')"
p21
aS"(41, u'\\\\bhaloperidol')"
p22
aS"(20, u'\\\\bondansetron')"
p23
aS"(12, u'\\\\bantagonist')"
p24
atp25
Rp26
sS'regions'
p27
g3
((lp28
S"(11, u'(?i)\\\\b(cerebrals|cerebral)\\\\b')"
p29
aS"(19, u'(?i)\\\\b(cortexes|cortex)\\\\b')"
p30
atp31
Rp32
sS'year'
p33
V1996
p34
sS'species'
p35
g3
((lp36
S"(4, u'(?i)\\\\b(rats|rat)\\\\b')"
p37
atp38
Rp39
sb.