(ifile_types
ParseObject
p0
(dp1
S'antagonists'
p2
c__builtin__
set
p3
((lp4
S"(110, u'\\\\bclozapine')"
p5
aS"(58, u'\\\\bhaloperidol')"
p6
atp7
Rp8
sS'methods'
p9
g3
((lp10
S'Method.ANTAGONIST'
p11
aS'Method.AGONIST'
p12
atp13
Rp14
sS'topics'
p15
g3
((lp16
S"(11, u'\\\\banxiolyt')"
p17
aS"(4, u'\\\\blocomot')"
p18
atp19
Rp20
sS'receptors'
p21
g3
((lp22
S'5ht1a'
p23
atp24
Rp25
sS'regions'
p26
g3
((lp27
tp28
Rp29
sS'year'
p30
V2000
p31
sS'agonists'
p32
g3
((lp33
S"(23, u'\\\\bclozapine')"
p34
aS"(11, u'\\\\bamphetamine')"
p35
aS"(43, u'\\\\bhaloperidol')"
p36
atp37
Rp38
sS'species'
p39
g3
((lp40
S"(5799, u'(?i)\\\\b(rodents|rodent)\\\\b')"
p41
aS"(163, u'(?i)\\\\b(mice|mouse)\\\\b')"
p42
aS"(2401, u'(?i)\\\\b(primates|primate)\\\\b')"
p43
aS"(6753, u'(?i)\\\\b(da|das)\\\\b')"
p44
aS"(2418, u'(?i)\\\\b(squirrels|squirrel)(-|\\\\s+)?(monkeys|monkey)\\\\b')"
p45
aS"(2341, u'(?i)\\\\b(monkeys|monkey)\\\\b')"
p46
aS"(6771, u'(?i)\\\\b(squirrels|squirrel)\\\\b')"
p47
aS"(5958, u'(?i)\\\\b(rats|rat)\\\\b')"
p48
atp49
Rp50
sb.