(ifile_types
ParseObject
p0
(dp1
S'antagonists'
p2
c__builtin__
set
p3
((lp4
tp5
Rp6
sS'methods'
p7
g3
((lp8
S'Method.ANTAGONIST'
p9
aS'Method.AGONIST'
p10
atp11
Rp12
sS'topics'
p13
g3
((lp14
S"(35, u'\\\\bstress')"
p15
aS"(20, u'\\\\baggressi')"
p16
atp17
Rp18
sS'receptors'
p19
g3
((lp20
S'5ht3'
p21
aS'5ht1a'
p22
aS'5ht3a'
p23
aS'5ht2'
p24
aS'5ht2a'
p25
atp26
Rp27
sS'regions'
p28
g3
((lp29
tp30
Rp31
sS'year'
p32
V1998
p33
sS'agonists'
p34
g3
((lp35
S"(192, u'\\\\bquipazine')"
p36
aS"(85, u'\\\\b8 ?oh ?dpat')"
p37
atp38
Rp39
sS'species'
p40
g3
((lp41
S"(3953, u'(?i)\\\\b(anoli|anolis)(-|\\\\s+)?(carolinenses|carolinensis)\\\\b')"
p42
aS"(3952, u'(?i)\\\\b(anoles|anole)\\\\b')"
p43
aS"(4091, u'(?i)\\\\b(adults|adult)\\\\b')"
p44
aS"(4599, u'(?i)\\\\b(chameleons|chameleon)\\\\b')"
p45
aS"(5967, u'(?i)\\\\b(males|male)\\\\b')"
p46
aS"(3951, u'(?i)\\\\b(americans|american)(-|\\\\s+)?(chameleons|chameleon)\\\\b')"
p47
aS"(5333, u'(?i)\\\\b(reptiles|reptile)\\\\b')"
p48
atp49
Rp50
sb.