(ifile_types
ParseObject
p0
(dp1
S'antagonists'
p2
c__builtin__
set
p3
((lp4
tp5
Rp6
sS'methods'
p7
g3
((lp8
S'Method.ANTAGONIST'
p9
aS'Method.AGONIST'
p10
atp11
Rp12
sS'topics'
p13
g3
((lp14
S"(4, u'\\\\blocomot')"
p15
atp16
Rp17
sS'receptors'
p18
g3
((lp19
S'5ht5'
p20
aS'5ht1a'
p21
atp22
Rp23
sS'regions'
p24
g3
((lp25
S"(96, u'(?i)(ventrals|ventral)(-|\\\\s+)?(tegmentals|tegmental)(-|\\\\s+)?(areas|area)')"
p26
aS"(34, u'(?i)(pon|pons)')"
p27
atp28
Rp29
sS'year'
p30
V1995
p31
sS'agonists'
p32
g3
((lp33
S"(92, u'\\\\b8 ?oh ?dpat')"
p34
aS"(214, u'\\\\bsulpiride')"
p35
atp36
Rp37
sS'species'
p38
g3
((lp39
S"(6753, u'(?i)(da|das)')"
p40
aS"(2568, u'(?i)(hens|hen)')"
p41
aS"(5958, u'(?i)(rats|rat)')"
p42
aS"(5743, u'(?i)(bots|bot)')"
p43
aS"(6682, u'(?i)(tera|teras)')"
p44
aS"(468, u'(?i)(oxen|ox)')"
p45
aS"(1055, u'(?i)(men|man)')"
p46
aS"(6249, u'(?i)(ants|ant)')"
p47
aS"(1349, u'(?i)(rams|ram)')"
p48
aS"(2334, u'(?i)(eels|eel)')"
p49
aS"(5176, u'(?i)(tegs|teg)')"
p50
aS"(3550, u'(?i)(anis|ani)')"
p51
aS"(3522, u'(?i)(tetras|tetra)')"
p52
aS"(7127, u'(?i)(monitors|monitor)')"
p53
aS"(6356, u'(?i)(ais|ai)')"
p54
aS"(5949, u'(?i)(dogs|dog)')"
p55
atp56
Rp57
sb.