(ifile_types
ParseObject
p0
(dp1
S'methods'
p2
c__builtin__
set
p3
((lp4
S'Method.ANTAGONIST'
p5
atp6
Rp7
sS'topics'
p8
g3
((lp9
S"(22, u'\\\\bschizophreni')"
p10
aS"(23, u'\\\\bantipsychotic')"
p11
atp12
Rp13
sS'receptors'
p14
g3
((lp15
(S'5ht2'
p16
I1635
I1641
tp17
a(S'5ht2a'
p18
I1318
I1324
tp19
a(S'5ht2a'
p20
I1635
I1641
tp21
a(S'5ht2a'
p22
I401
I407
tp23
atp24
Rp25
sS'raw_text_methods'
p26
g3
((lp27
S"(16, u'\\\\bdiazepam')"
p28
aS"(41, u'\\\\bhaloperidol')"
p29
aS"(40, u'\\\\bclozapine')"
p30
aS"(50, u'\\\\bm100907')"
p31
aS"(12, u'\\\\bantagonist')"
p32
atp33
Rp34
sS'regions'
p35
g3
((lp36
S"(20, u'(?i)\\\\b(prefrontals|prefrontal)\\\\b')"
p37
aS"(21, u'(?i)\\\\b(mpfcs|mpfc)\\\\b')"
p38
aS"(19, u'(?i)\\\\b(cortexes|cortex)\\\\b')"
p39
atp40
Rp41
sS'year'
p42
V2007
p43
sS'species'
p44
g3
((lp45
S"(4, u'(?i)\\\\b(rats|rat)\\\\b')"
p46
atp47
Rp48
sb.