(ifile_types
ParseObject
p0
(dp1
S'methods'
p2
c__builtin__
set
p3
((lp4
S'Method.ANTAGONIST'
p5
atp6
Rp7
sS'topics'
p8
g3
((lp9
S"(7, u'\\\\bdepressi')"
p10
aS"(26, u'\\\\bbehav')"
p11
aS"(4, u'\\\\btreatment')"
p12
atp13
Rp14
sS'receptors'
p15
g3
((lp16
(S'5ht5'
p17
I262
I272
tp18
a(S'5ht1'
p19
I1849
I1854
tp20
a(S'5ht1a'
p21
I358
I364
tp22
a(S'5ht2'
p23
I1788
I1793
tp24
a(S'5ht1a'
p25
I1602
I1608
tp26
a(S'5ht1a'
p27
I2368
I2374
tp28
atp29
Rp30
sS'raw_text_methods'
p31
g3
((lp32
S"(53, u'\\\\bketanserin')"
p33
aS"(7, u'\\\\bpropranolol')"
p34
aS"(41, u'\\\\bhaloperidol')"
p35
aS"(11, u'\\\\bfluoxetine')"
p36
aS"(46, u'\\\\bspiperone')"
p37
aS"(12, u'\\\\bantagonist')"
p38
atp39
Rp40
sS'regions'
p41
g3
((lp42
S"(16, u'(?i)\\\\b(drns|drn)\\\\b')"
p43
atp44
Rp45
sS'year'
p46
V1990
p47
sS'species'
p48
g3
((lp49
S"(4, u'(?i)\\\\b(rats|rat)\\\\b')"
p50
atp51
Rp52
sb.