(ifile_types
ParseObject
p0
(dp1
S'antagonists'
p2
c__builtin__
set
p3
((lp4
tp5
Rp6
sS'methods'
p7
g3
((lp8
S'Method.PET'
p9
aS'Method.ANTAGONIST'
p10
atp11
Rp12
sS'topics'
p13
g3
((lp14
S"(18, u'\\\\bpsychostim')"
p15
atp16
Rp17
sS'receptors'
p18
g3
((lp19
S'5ht5'
p20
aS'5ht1a'
p21
aS'5ht5a'
p22
atp23
Rp24
sS'regions'
p25
g3
((lp26
S"(96, u'(?i)(ventrals|ventral)(-|\\\\s+)?(tegmentals|tegmental)(-|\\\\s+)?(areas|area)')"
p27
aS"(226, u'(?i)(nuclei|nucleus)(-|\\\\s+)?(accumben|accumbens)')"
p28
aS"(34, u'(?i)(pon|pons)')"
p29
atp30
Rp31
sS'year'
p32
V2002
p33
sS'agonists'
p34
g3
((lp35
S"(14, u'\\\\bamphetamine')"
p36
atp37
Rp38
sS'species'
p39
g3
((lp40
S"(1070, u'(?i)(pets|pet)')"
p41
aS"(2323, u'(?i)(bees|bee)')"
p42
aS"(6753, u'(?i)(da|das)')"
p43
aS"(5958, u'(?i)(rats|rat)')"
p44
aS"(5176, u'(?i)(tegs|teg)')"
p45
aS"(6682, u'(?i)(tera|teras)')"
p46
aS"(1055, u'(?i)(men|man)')"
p47
aS"(6249, u'(?i)(ants|ant)')"
p48
aS"(853, u'(?i)(minas|mina)')"
p49
aS"(7094, u'(?i)(curs|cur)')"
p50
aS"(3550, u'(?i)(anis|ani)')"
p51
aS"(1488, u'(?i)(yaks|yak)')"
p52
aS"(5229, u'(?i)(moles|mole)')"
p53
aS"(6391, u'(?i)(asses|ass)')"
p54
aS"(3812, u'(?i)(studs|stud)')"
p55
aS"(3048, u'(?i)(hogs|hog)')"
p56
aS"(4624, u'(?i)(apes|ape)')"
p57
aS"(6356, u'(?i)(ais|ai)')"
p58
atp59
Rp60
sb.