(ifile_types
ParseObject
p0
(dp1
S'antagonists'
p2
c__builtin__
set
p3
((lp4
tp5
Rp6
sS'methods'
p7
g3
((lp8
S'Method.ANTAGONIST'
p9
aS'Method.AGONIST'
p10
atp11
Rp12
sS'topics'
p13
g3
((lp14
S"(15, u'\\\\bschizophreni')"
p15
atp16
Rp17
sS'receptors'
p18
g3
((lp19
S'5ht2a'
p20
atp21
Rp22
sS'regions'
p23
g3
((lp24
tp25
Rp26
sS'year'
p27
V2007
p28
sS'agonists'
p29
g3
((lp30
tp31
Rp32
sS'species'
p33
g3
((lp34
S"(2323, u'(?i)(bees|bee)')"
p35
aS"(4624, u'(?i)(apes|ape)')"
p36
aS"(5958, u'(?i)(rats|rat)')"
p37
aS"(6753, u'(?i)(da|das)')"
p38
aS"(6682, u'(?i)(tera|teras)')"
p39
aS"(5176, u'(?i)(tegs|teg)')"
p40
aS"(6249, u'(?i)(ants|ant)')"
p41
aS"(3812, u'(?i)(studs|stud)')"
p42
aS"(6391, u'(?i)(asses|ass)')"
p43
atp44
Rp45
sb.