(ifile_types
ParseObject
p0
(dp1
S'methods'
p2
c__builtin__
set
p3
((lp4
S'Method.KNOCKOUT'
p5
atp6
Rp7
sS'topics'
p8
g3
((lp9
tp10
Rp11
sS'receptors'
p12
g3
((lp13
(S'5ht2a'
p14
I788
I794
tp15
a(S'5ht2a'
p16
I53
I59
tp17
a(S'5ht2'
p18
I1602
I1607
tp19
a(S'5ht2'
p20
I1439
I1444
tp21
a(S'5ht2'
p22
I971
I976
tp23
a(S'5ht2'
p24
I1167
I1172
tp25
a(S'5ht2a'
p26
I283
I289
tp27
a(S'5ht2'
p28
I805
I810
tp29
atp30
Rp31
sS'raw_text_methods'
p32
g3
((lp33
S"(18, u'\\\\bimaging')"
p34
atp35
Rp36
sS'regions'
p37
g3
((lp38
tp39
Rp40
sS'year'
p41
V2015
p42
sS'species'
p43
g3
((lp44
S"(4, u'(?i)\\\\b(rats|rat)\\\\b')"
p45
atp46
Rp47
sb.