(ifile_types
ParseObject
p0
(dp1
S'methods'
p2
c__builtin__
set
p3
((lp4
S'Method.ANTAGONIST'
p5
aS'Method.AGONIST'
p6
atp7
Rp8
sS'topics'
p9
g3
((lp10
S"(6, u'\\\\baggressi')"
p11
aS"(26, u'\\\\bbehav')"
p12
aS"(4, u'\\\\btreatment')"
p13
atp14
Rp15
sS'receptors'
p16
g3
((lp17
(S'5ht1a'
p18
I605
I611
tp19
a(S'5ht1a'
p20
I703
I709
tp21
a(S'5ht1a'
p22
I70
I76
tp23
atp24
Rp25
sS'raw_text_methods'
p26
g3
((lp27
S"(15, u'\\\\b8ohdpat')"
p28
aS"(13, u'\\\\bagonist')"
p29
aS"(11, u'\\\\bfluoxetine')"
p30
aS"(51, u'\\\\bway100635')"
p31
aS"(39, u'\\\\bselective serotonin reuptake inhibitor')"
p32
aS"(12, u'\\\\bantagonist')"
p33
atp34
Rp35
sS'regions'
p36
g3
((lp37
tp38
Rp39
sS'year'
p40
V2007
p41
sS'species'
p42
g3
((lp43
tp44
Rp45
sb.