(ifile_types
ParseObject
p0
(dp1
S'antagonists'
p2
c__builtin__
set
p3
((lp4
tp5
Rp6
sS'methods'
p7
g3
((lp8
S'Method.AGONIST'
p9
aS'Method.IMMUNOHISTOCHEMISTRY'
p10
atp11
Rp12
sS'topics'
p13
g3
((lp14
S"(9, u'\\\\bdepress')"
p15
atp16
Rp17
sS'receptors'
p18
g3
((lp19
S'5ht3'
p20
atp21
Rp22
sS'regions'
p23
g3
((lp24
S"(55, u'(?i)\\\\b(laterals|lateral)(-|\\\\s+)?(parabrachials|parabrachial)(-|\\\\s+)?(nuclei|nucleus)\\\\b')"
p25
aS"(27, u'(?i)\\\\b(areas|area)(-|\\\\s+)?(postremas|postrema)\\\\b')"
p26
aS"(209, u'(?i)\\\\b(amygdalas|amygdala)\\\\b')"
p27
aS"(159, u'(?i)\\\\b(paraventriculars|paraventricular)(-|\\\\s+)?(nuclei|nucleus)\\\\b')"
p28
aS"(91, u'(?i)\\\\b(periaqueductals|periaqueductal)(-|\\\\s+)?(grays|gray)\\\\b')"
p29
aS"(313, u'(?i)\\\\b(solitaries|solitary)(-|\\\\s+)?(tracts|tract)\\\\b')"
p30
atp31
Rp32
sS'year'
p33
V2005
p34
sS'agonists'
p35
g3
((lp36
S"(191, u'\\\\bphenylbiguanide')"
p37
atp38
Rp39
sS'species'
p40
g3
((lp41
S"(163, u'(?i)\\\\b(mice|mouse)\\\\b')"
p42
aS"(4177, u'(?i)\\\\b(grays|gray)\\\\b')"
p43
atp44
Rp45
sb.