(ifile_types
ParseObject
p0
(dp1
S'methods'
p2
c__builtin__
set
p3
((lp4
tp5
Rp6
sS'topics'
p7
g3
((lp8
S"(24, u'\\\\banxiolytic')"
p9
aS"(14, u'\\\\bcogniti')"
p10
aS"(13, u'\\\\bantidepress')"
p11
aS"(7, u'\\\\bdepressi')"
p12
aS"(5, u'\\\\btherap')"
p13
aS"(26, u'\\\\bbehav')"
p14
aS"(8, u'\\\\banxi')"
p15
aS"(4, u'\\\\btreatment')"
p16
aS"(3, u'\\\\bclinical')"
p17
atp18
Rp19
sS'receptors'
p20
g3
((lp21
(S'5ht3'
p22
I578
I583
tp23
a(S'5ht1a'
p24
I617
I623
tp25
a(S'5ht2'
p26
I568
I573
tp27
a(S'5ht3'
p28
I301
I306
tp29
a(S'5ht1c'
p30
I560
I566
tp31
a(S'5ht1a'
p32
I552
I558
tp33
a(S'5ht3'
p34
I758
I763
tp35
a(S'5ht2'
p36
I628
I633
tp37
a(S'5ht1'
p38
I284
I289
tp39
a(S'5ht2'
p40
I291
I296
tp41
atp42
Rp43
sS'raw_text_methods'
p44
g3
((lp45
tp46
Rp47
sS'regions'
p48
g3
((lp49
tp50
Rp51
sS'year'
p52
V1991
p53
sS'species'
p54
g3
((lp55
tp56
Rp57
sb.