(ifile_types
ParseObject
p0
(dp1
S'antagonists'
p2
c__builtin__
set
p3
((lp4
S"(1, u'\\\\balprenolol')"
p5
aS"(34, u'\\\\byohimbine')"
p6
atp7
Rp8
sS'methods'
p9
g3
((lp10
tp11
Rp12
sS'topics'
p13
g3
((lp14
tp15
Rp16
sS'receptors'
p17
g3
((lp18
S'5ht1a'
p19
aS'5ht2'
p20
atp21
Rp22
sS'regions'
p23
g3
((lp24
S"(34, u'(?i)(pon|pons)')"
p25
atp26
Rp27
sS'year'
p28
V1993
p29
sS'agonists'
p30
g3
((lp31
S"(89, u'\\\\byohimbine')"
p32
aS"(33, u'\\\\bdoi')"
p33
atp34
Rp35
sS'species'
p36
g3
((lp37
S"(2054, u'(?i)(heads|head)')"
p38
aS"(6753, u'(?i)(da|das)')"
p39
aS"(2568, u'(?i)(hens|hen)')"
p40
aS"(5958, u'(?i)(rats|rat)')"
p41
aS"(163, u'(?i)(mice|mouse)')"
p42
aS"(4163, u'(?i)(ermines|ermine)')"
p43
aS"(6249, u'(?i)(ants|ant)')"
p44
aS"(468, u'(?i)(oxen|ox)')"
p45
aS"(1055, u'(?i)(men|man)')"
p46
aS"(3726, u'(?i)(mates|mate)')"
p47
aS"(5743, u'(?i)(bots|bot)')"
p48
aS"(3550, u'(?i)(anis|ani)')"
p49
aS"(1961, u'(?i)(pens|pen)')"
p50
aS"(3812, u'(?i)(studs|stud)')"
p51
aS"(6356, u'(?i)(ais|ai)')"
p52
atp53
Rp54
sb.