(ifile_types
ParseObject
p0
(dp1
S'antagonists'
p2
c__builtin__
set
p3
((lp4
S"(60, u'\\\\basenapine')"
p5
atp6
Rp7
sS'methods'
p8
g3
((lp9
S'Method.ANTAGONIST'
p10
aS'Method.AGONIST'
p11
atp12
Rp13
sS'topics'
p14
g3
((lp15
S"(14, u'\\\\bpsychosis')"
p16
aS"(9, u'\\\\bdepress')"
p17
aS"(3, u'\\\\bsleep')"
p18
aS"(1, u'\\\\bmood')"
p19
atp20
Rp21
sS'receptors'
p22
g3
((lp23
S'5ht7'
p24
aS'5ht1a'
p25
atp26
Rp27
sS'regions'
p28
g3
((lp29
S"(318, u'(?i)(raphes|raphe)(-|\\\\s+)?(nuclei|nucleus)')"
p30
aS"(94, u'(?i)(dorsals|dorsal)(-|\\\\s+)?(raphes|raphe)(-|\\\\s+)?(nuclei|nucleus)')"
p31
aS"(34, u'(?i)(pon|pons)')"
p32
atp33
Rp34
sS'year'
p35
V2017
p36
sS'agonists'
p37
g3
((lp38
S"(231, u'\\\\blp ?44')"
p39
aS"(92, u'\\\\b8 ?oh ?dpat')"
p40
aS"(17, u'\\\\basenapine')"
p41
atp42
Rp43
sS'species'
p44
g3
((lp45
S"(5958, u'(?i)(rats|rat)')"
p46
aS"(6682, u'(?i)(tera|teras)')"
p47
aS"(1055, u'(?i)(men|man)')"
p48
aS"(6249, u'(?i)(ants|ant)')"
p49
aS"(6356, u'(?i)(ais|ai)')"
p50
aS"(3550, u'(?i)(anis|ani)')"
p51
aS"(3812, u'(?i)(studs|stud)')"
p52
aS"(6391, u'(?i)(asses|ass)')"
p53
atp54
Rp55
sb.