(ifile_types
ParseObject
p0
(dp1
S'antagonists'
p2
c__builtin__
set
p3
((lp4
tp5
Rp6
sS'methods'
p7
g3
((lp8
S'Method.AGONIST'
p9
atp10
Rp11
sS'topics'
p12
g3
((lp13
S"(25, u'\\\\bvasoconstrict')"
p14
aS"(26, u'\\\\bcardiovascular')"
p15
atp16
Rp17
sS'receptors'
p18
g3
((lp19
S'5ht2b'
p20
aS'5ht2a'
p21
atp22
Rp23
sS'regions'
p24
g3
((lp25
tp26
Rp27
sS'year'
p28
V2012
p29
sS'agonists'
p30
g3
((lp31
S"(56, u'\\\\blsd')"
p32
aS"(14, u'\\\\bamphetamine')"
p33
aS"(153, u'\\\\bmdma')"
p34
atp35
Rp36
sS'species'
p37
g3
((lp38
S"(6249, u'(?i)(ants|ant)')"
p39
aS"(6753, u'(?i)(da|das)')"
p40
aS"(468, u'(?i)(oxen|ox)')"
p41
aS"(1055, u'(?i)(men|man)')"
p42
aS"(2942, u'(?i)(daws|daw)')"
p43
aS"(6391, u'(?i)(asses|ass)')"
p44
aS"(6356, u'(?i)(ais|ai)')"
p45
aS"(3048, u'(?i)(hogs|hog)')"
p46
atp47
Rp48
sb.