(ifile_types
ParseObject
p0
(dp1
S'antagonists'
p2
c__builtin__
set
p3
((lp4
S"(155, u'\\\\bgr ?125487')"
p5
aS"(153, u'\\\\bgr ?113808')"
p6
atp7
Rp8
sS'methods'
p9
g3
((lp10
S'Method.ANTAGONIST'
p11
aS'Method.AGONIST'
p12
atp13
Rp14
sS'topics'
p15
g3
((lp16
S"(7, u'\\\\bmemory')"
p17
atp18
Rp19
sS'receptors'
p20
g3
((lp21
S'5ht4'
p22
atp23
Rp24
sS'regions'
p25
g3
((lp26
S"(220, u'(?i)(striatums|striatum)')"
p27
atp28
Rp29
sS'year'
p30
V1994
p31
sS'agonists'
p32
g3
((lp33
S"(155, u'\\\\bmem')"
p34
aS"(201, u'\\\\bbimu ?8')"
p35
atp36
Rp37
sS'species'
p38
g3
((lp39
S"(5537, u'(?i)(hippos|hippo)')"
p40
aS"(6215, u'(?i)(racers|racer)')"
p41
aS"(6249, u'(?i)(ants|ant)')"
p42
aS"(2334, u'(?i)(eels|eel)')"
p43
aS"(5743, u'(?i)(bots|bot)')"
p44
aS"(5958, u'(?i)(rats|rat)')"
p45
aS"(6356, u'(?i)(ais|ai)')"
p46
atp47
Rp48
sb.