(ifile_types
ParseObject
p0
(dp1
S'antagonists'
p2
c__builtin__
set
p3
((lp4
S"(35, u'\\\\baripiprazole')"
p5
aS"(110, u'\\\\bclozapine')"
p6
aS"(114, u'\\\\bziprasidone')"
p7
aS"(31, u'\\\\bway ?100635')"
p8
aS"(58, u'\\\\bhaloperidol')"
p9
atp10
Rp11
sS'methods'
p12
g3
((lp13
S'Method.STAINING'
p14
aS'Method.AGONIST'
p15
aS'Method.ANTAGONIST'
p16
atp17
Rp18
sS'topics'
p19
g3
((lp20
S"(15, u'\\\\bschizophreni')"
p21
atp22
Rp23
sS'receptors'
p24
g3
((lp25
S'5ht1a'
p26
atp27
Rp28
sS'regions'
p29
g3
((lp30
S"(220, u'(?i)\\\\b(striatums|striatum)\\\\b')"
p31
atp32
Rp33
sS'year'
p34
V2005
p35
sS'agonists'
p36
g3
((lp37
S"(37, u'\\\\bf ?13714')"
p38
aS"(23, u'\\\\bclozapine')"
p39
aS"(223, u'\\\\baripiprazole')"
p40
aS"(84, u'\\\\bziprasidone')"
p41
aS"(43, u'\\\\bhaloperidol')"
p42
atp43
Rp44
sS'species'
p45
g3
((lp46
S"(163, u'(?i)\\\\b(mice|mouse)\\\\b')"
p47
atp48
Rp49
sb.