(ifile_types
ParseObject
p0
(dp1
S'antagonists'
p2
c__builtin__
set
p3
((lp4
tp5
Rp6
sS'methods'
p7
g3
((lp8
S'Method.ANTAGONIST'
p9
atp10
Rp11
sS'topics'
p12
g3
((lp13
S"(11, u'\\\\banxiolyt')"
p14
aS"(10, u'\\\\banxiety')"
p15
aS"(4, u'\\\\blocomot')"
p16
atp17
Rp18
sS'receptors'
p19
g3
((lp20
S'5ht1b'
p21
atp22
Rp23
sS'regions'
p24
g3
((lp25
tp26
Rp27
sS'year'
p28
V2004
p29
sS'agonists'
p30
g3
((lp31
tp32
Rp33
sS'species'
p34
g3
((lp35
S"(4624, u'(?i)(apes|ape)')"
p36
aS"(5958, u'(?i)(rats|rat)')"
p37
aS"(163, u'(?i)(mice|mouse)')"
p38
aS"(5967, u'(?i)(males|male)')"
p39
aS"(6356, u'(?i)(ais|ai)')"
p40
aS"(6249, u'(?i)(ants|ant)')"
p41
aS"(3522, u'(?i)(tetras|tetra)')"
p42
aS"(3812, u'(?i)(studs|stud)')"
p43
aS"(5949, u'(?i)(dogs|dog)')"
p44
atp45
Rp46
sb.