(ifile_types
ParseObject
p0
(dp1
S'methods'
p2
c__builtin__
set
p3
((lp4
S'Method.PET'
p5
atp6
Rp7
sS'topics'
p8
g3
((lp9
S"(26, u'\\\\bbehav')"
p10
aS"(2, u'\\\\bdisorder')"
p11
aS"(7, u'\\\\bdepressi')"
p12
aS"(20, u'\\\\bmood')"
p13
aS"(8, u'\\\\banxi')"
p14
aS"(4, u'\\\\btreatment')"
p15
atp16
Rp17
sS'receptors'
p18
g3
((lp19
(S'5ht1a'
p20
I105
I111
tp21
a(S'5ht1a'
p22
I1633
I1639
tp23
a(S'5ht1a'
p24
I1603
I1609
tp25
a(S'5ht1'
p26
I544
I549
tp27
a(S'5ht1a'
p28
I346
I352
tp29
a(S'5ht1a'
p30
I468
I474
tp31
a(S'5ht1a'
p32
I198
I204
tp33
a(S'5ht1a'
p34
I1242
I1248
tp35
a(S'5ht1a'
p36
I1113
I1119
tp37
a(S'5ht1a'
p38
I756
I762
tp39
a(S'5ht1a'
p40
I829
I835
tp41
a(S'5ht1a'
p42
I1151
I1157
tp43
atp44
Rp45
sS'raw_text_methods'
p46
g3
((lp47
S"(17, u'\\\\bpet')"
p48
aS"(19, u'\\\\bpositron emission tomography')"
p49
atp50
Rp51
sS'regions'
p52
g3
((lp53
tp54
Rp55
sS'year'
p56
V2005
p57
sS'species'
p58
g3
((lp59
tp60
Rp61
sb.