(ifile_types
ParseObject
p0
(dp1
S'methods'
p2
c__builtin__
set
p3
((lp4
S'Method.IMMUNOHISTOCHEMISTRY'
p5
atp6
Rp7
sS'topics'
p8
g3
((lp9
S"(22, u'\\\\bschizophreni')"
p10
aS"(14, u'\\\\bcogniti')"
p11
aS"(26, u'\\\\bbehav')"
p12
aS"(25, u'\\\\bsocial')"
p13
aS"(33, u'\\\\blocomot')"
p14
aS"(18, u'\\\\bavoidan')"
p15
atp16
Rp17
sS'receptors'
p18
g3
((lp19
(S'5ht2a'
p20
I790
I795
tp21
a(S'5ht2'
p22
I790
I795
tp23
atp24
Rp25
sS'raw_text_methods'
p26
g3
((lp27
S"(3, u'\\\\bimmunoreactiv')"
p28
atp29
Rp30
sS'regions'
p31
g3
((lp32
S"(19, u'(?i)\\\\b(cortexes|cortex)\\\\b')"
p33
aS"(20, u'(?i)\\\\b(prefrontals|prefrontal)\\\\b')"
p34
aS"(13, u'(?i)\\\\b(septums|septum)\\\\b')"
p35
atp36
Rp37
sS'year'
p38
V2016
p39
sS'species'
p40
g3
((lp41
S"(4, u'(?i)\\\\b(rats|rat)\\\\b')"
p42
atp43
Rp44
sb.