(ifile_types
ParseObject
p0
(dp1
S'methods'
p2
c__builtin__
set
p3
((lp4
S'Method.ANTAGONIST'
p5
atp6
Rp7
sS'topics'
p8
g3
((lp9
tp10
Rp11
sS'receptors'
p12
g3
((lp13
(S'5ht7'
p14
I395
I400
tp15
a(S'5ht7'
p16
I1265
I1270
tp17
a(S'5ht7'
p18
I934
I939
tp19
a(S'5ht7'
p20
I1698
I1703
tp21
a(S'5ht4'
p22
I1049
I1054
tp23
a(S'5ht6'
p24
I1094
I1099
tp25
a(S'5ht1b'
p26
I520
I526
tp27
a(S'5ht1a'
p28
I509
I515
tp29
a(S'5ht7'
p30
I1454
I1459
tp31
atp32
Rp33
sS'raw_text_methods'
p34
g3
((lp35
S"(9, u'\\\\britanserin')"
p36
aS"(34, u'\\\\b5ct')"
p37
aS"(45, u'\\\\bmetergoline')"
p38
aS"(12, u'\\\\bantagonist')"
p39
atp40
Rp41
sS'regions'
p42
g3
((lp43
tp44
Rp45
sS'year'
p46
V1999
p47
sS'species'
p48
g3
((lp49
S"(4, u'(?i)\\\\b(rats|rat)\\\\b')"
p50
atp51
Rp52
sb.