(ifile_types
ParseObject
p0
(dp1
S'antagonists'
p2
c__builtin__
set
p3
((lp4
tp5
Rp6
sS'methods'
p7
g3
((lp8
S'Method.ANTAGONIST'
p9
atp10
Rp11
sS'topics'
p12
g3
((lp13
tp14
Rp15
sS'receptors'
p16
g3
((lp17
S'5ht2d'
p18
aS'5ht1a'
p19
aS'5ht2c'
p20
aS'5ht5'
p21
aS'5ht2a'
p22
atp23
Rp24
sS'regions'
p25
g3
((lp26
tp27
Rp28
sS'year'
p29
V2004
p30
sS'agonists'
p31
g3
((lp32
S"(181, u'\\\\bdom')"
p33
atp34
Rp35
sS'species'
p36
g3
((lp37
S"(5958, u'(?i)(rats|rat)')"
p38
aS"(6753, u'(?i)(da|das)')"
p39
aS"(468, u'(?i)(oxen|ox)')"
p40
aS"(853, u'(?i)(minas|mina)')"
p41
aS"(6249, u'(?i)(ants|ant)')"
p42
aS"(6391, u'(?i)(asses|ass)')"
p43
aS"(3812, u'(?i)(studs|stud)')"
p44
aS"(5686, u'(?i)(foxes|fox)')"
p45
atp46
Rp47
sb.