(ifile_types
ParseObject
p0
(dp1
S'antagonists'
p2
c__builtin__
set
p3
((lp4
tp5
Rp6
sS'methods'
p7
g3
((lp8
S'Method.ANTAGONIST'
p9
atp10
Rp11
sS'topics'
p12
g3
((lp13
S"(8, u'\\\\blearning')"
p14
aS"(11, u'\\\\banxiolyt')"
p15
aS"(10, u'\\\\banxiety')"
p16
aS"(7, u'\\\\bmemory')"
p17
atp18
Rp19
sS'receptors'
p20
g3
((lp21
S'5ht3'
p22
aS'5ht3a'
p23
atp24
Rp25
sS'regions'
p26
g3
((lp27
S"(215, u'(?i)\\\\b(basolaterals|basolateral)(-|\\\\s+)?(amygdalas|amygdala)\\\\b')"
p28
aS"(209, u'(?i)\\\\b(amygdalas|amygdala)\\\\b')"
p29
atp30
Rp31
sS'year'
p32
V1993
p33
sS'agonists'
p34
g3
((lp35
S"(149, u'\\\\bmem')"
p36
atp37
Rp38
sS'species'
p39
g3
((lp40
S"(7058, u'(?i)\\\\b(does|doe)\\\\b')"
p41
aS"(5958, u'(?i)\\\\b(rats|rat)\\\\b')"
p42
atp43
Rp44
sb.