(ifile_types
ParseObject
p0
(dp1
S'methods'
p2
c__builtin__
set
p3
((lp4
S'Method.PET'
p5
aS'Method.ANTAGONIST'
p6
atp7
Rp8
sS'topics'
p9
g3
((lp10
S"(1, u'\\\\bpatient')"
p11
atp12
Rp13
sS'receptors'
p14
g3
((lp15
(S'5ht1a'
p16
I380
I386
tp17
a(S'5ht1a'
p18
I174
I180
tp19
a(S'5ht1a'
p20
I627
I633
tp21
a(S'5ht1a'
p22
I1474
I1479
tp23
a(S'5ht1a'
p24
I52
I58
tp25
atp26
Rp27
sS'raw_text_methods'
p28
g3
((lp29
S"(17, u'\\\\bpet')"
p30
aS"(19, u'\\\\bpositron emission tomography')"
p31
aS"(12, u'\\\\bantagonist')"
p32
atp33
Rp34
sS'regions'
p35
g3
((lp36
S"(19, u'(?i)\\\\b(cortexes|cortex)\\\\b')"
p37
atp38
Rp39
sS'year'
p40
V2011
p41
sS'species'
p42
g3
((lp43
tp44
Rp45
sb.