(ifile_types
ParseObject
p0
(dp1
S'methods'
p2
c__builtin__
set
p3
((lp4
S'Method.ANTAGONIST'
p5
aS'Method.AGONIST'
p6
atp7
Rp8
sS'topics'
p9
g3
((lp10
S"(27, u'\\\\bdyskinesia')"
p11
aS"(5, u'\\\\btherap')"
p12
aS"(26, u'\\\\bbehav')"
p13
aS"(34, u'\\\\bparkinson')"
p14
aS"(4, u'\\\\btreatment')"
p15
atp16
Rp17
sS'receptors'
p18
g3
((lp19
(S'5ht1a'
p20
I41
I47
tp21
a(S'5ht1'
p22
I2040
I2045
tp23
a(S'5ht1'
p24
I1496
I1501
tp25
a(S'5ht1'
p26
I1056
I1061
tp27
a(S'5ht1a'
p28
I245
I251
tp29
a(S'5ht1'
p30
I262
I267
tp31
a(S'5ht1'
p32
I678
I683
tp33
a(S'5ht1'
p34
I375
I380
tp35
a(S'5ht1'
p36
I1350
I1355
tp37
a(S'5ht1'
p38
I1709
I1714
tp39
atp40
Rp41
sS'raw_text_methods'
p42
g3
((lp43
S"(13, u'\\\\bagonist')"
p44
aS"(15, u'\\\\b8ohdpat')"
p45
aS"(51, u'\\\\bway100635')"
p46
aS"(12, u'\\\\bantagonist')"
p47
atp48
Rp49
sS'regions'
p50
g3
((lp51
S"(4, u'(?i)\\\\b(presynaptics|presynaptic)\\\\b')"
p52
aS"(3, u'(?i)\\\\b(postsynaptics|postsynaptic)\\\\b')"
p53
atp54
Rp55
sS'year'
p56
V2013
p57
sS'species'
p58
g3
((lp59
S"(4, u'(?i)\\\\b(rats|rat)\\\\b')"
p60
atp61
Rp62
sb.