(ifile_types
ParseObject
p0
(dp1
S'methods'
p2
c__builtin__
set
p3
((lp4
tp5
Rp6
sS'topics'
p7
g3
((lp8
S"(5, u'\\\\btherap')"
p9
aS"(7, u'\\\\bdepressi')"
p10
aS"(13, u'\\\\bantidepress')"
p11
aS"(4, u'\\\\btreatment')"
p12
atp13
Rp14
sS'receptors'
p15
g3
((lp16
(S'5ht4'
p17
I367
I372
tp18
atp19
Rp20
sS'raw_text_methods'
p21
g3
((lp22
tp23
Rp24
sS'regions'
p25
g3
((lp26
tp27
Rp28
sS'year'
p29
V2007
p30
sS'species'
p31
g3
((lp32
tp33
Rp34
sb.