(ifile_types
ParseObject
p0
(dp1
S'methods'
p2
c__builtin__
set
p3
((lp4
S'Method.ANTAGONIST'
p5
aS'Method.AGONIST'
p6
atp7
Rp8
sS'topics'
p9
g3
((lp10
tp11
Rp12
sS'receptors'
p13
g3
((lp14
(S'5ht7'
p15
I524
I529
tp16
a(S'5ht7'
p17
I667
I672
tp18
a(S'5ht5a'
p19
I574
I580
tp20
a(S'5ht1a'
p21
I921
I927
tp22
a(S'5ht5a'
p23
I1535
I1543
tp24
a(S'5ht7'
p25
I860
I865
tp26
a(S'5ht5a'
p27
I1193
I1201
tp28
a(S'5ht1a'
p29
I1024
I1030
tp30
a(S'5ht1a'
p31
I1914
I1920
tp32
a(S'5ht7'
p33
I1535
I1544
tp34
a(S'5ht1a'
p35
I1535
I1541
tp36
a(S'5ht5a'
p37
I1904
I1910
tp38
a(S'5ht7'
p39
I1193
I1202
tp40
a(S'5ht7'
p41
I1886
I1891
tp42
a(S'5ht5a'
p43
I911
I917
tp44
a(S'5ht1a'
p45
I1193
I1199
tp46
a(S'5ht7'
p47
I254
I259
tp48
atp49
Rp50
sS'raw_text_methods'
p51
g3
((lp52
S"(13, u'\\\\bagonist')"
p53
aS"(51, u'\\\\bway100635')"
p54
aS"(12, u'\\\\bantagonist')"
p55
atp56
Rp57
sS'regions'
p58
g3
((lp59
tp60
Rp61
sS'year'
p62
V2005
p63
sS'species'
p64
g3
((lp65
tp66
Rp67
sb.