(ifile_types
ParseObject
p0
(dp1
S'antagonists'
p2
c__builtin__
set
p3
((lp4
S"(134, u'\\\\bgranisetron')"
p5
aS"(141, u'\\\\bzacopride')"
p6
atp7
Rp8
sS'methods'
p9
g3
((lp10
S'Method.ANTAGONIST'
p11
atp12
Rp13
sS'topics'
p14
g3
((lp15
tp16
Rp17
sS'receptors'
p18
g3
((lp19
S'5ht3'
p20
atp21
Rp22
sS'regions'
p23
g3
((lp24
tp25
Rp26
sS'year'
p27
V1990
p28
sS'agonists'
p29
g3
((lp30
S"(212, u'\\\\bzacopride')"
p31
atp32
Rp33
sS'species'
p34
g3
((lp35
S"(6249, u'(?i)(ants|ant)')"
p36
aS"(6391, u'(?i)(asses|ass)')"
p37
aS"(3550, u'(?i)(anis|ani)')"
p38
aS"(5958, u'(?i)(rats|rat)')"
p39
aS"(6753, u'(?i)(da|das)')"
p40
atp41
Rp42
sb.