(ifile_types
ParseObject
p0
(dp1
S'methods'
p2
c__builtin__
set
p3
((lp4
tp5
Rp6
sS'topics'
p7
g3
((lp8
S"(3, u'\\\\bclinical')"
p9
atp10
Rp11
sS'receptors'
p12
g3
((lp13
(S'5ht2a'
p14
I868
I874
tp15
a(S'5ht2a'
p16
I1157
I1163
tp17
a(S'5ht2c'
p18
I1019
I1025
tp19
a(S'5ht2a'
p20
I858
I864
tp21
a(S'5ht2a'
p22
I986
I992
tp23
a(S'5ht2'
p24
I1019
I1025
tp25
a(S'5ht2c'
p26
I880
I886
tp27
a(S'5ht2'
p28
I986
I992
tp29
atp30
Rp31
sS'raw_text_methods'
p32
g3
((lp33
tp34
Rp35
sS'regions'
p36
g3
((lp37
S"(8, u'(?i)\\\\b(centrals|central)(-|\\\\s+)?(nervouses|nervous)(-|\\\\s+)?(systems|system)\\\\b')"
p38
atp39
Rp40
sS'year'
p41
V2017
p42
sS'species'
p43
g3
((lp44
S"(4, u'(?i)\\\\b(rats|rat)\\\\b')"
p45
atp46
Rp47
sb.