(ifile_types
ParseObject
p0
(dp1
S'antagonists'
p2
c__builtin__
set
p3
((lp4
S"(133, u'\\\\bmianserin')"
p5
aS"(121, u'\\\\bsb ?243213')"
p6
atp7
Rp8
sS'methods'
p9
g3
((lp10
S'Method.ANTAGONIST'
p11
atp12
Rp13
sS'topics'
p14
g3
((lp15
tp16
Rp17
sS'receptors'
p18
g3
((lp19
S'5ht2b'
p20
aS'5ht2c'
p21
atp22
Rp23
sS'regions'
p24
g3
((lp25
S"(105, u'(?i)\\\\b(par|pars)(-|\\\\s+)?(reticulatas|reticulata)\\\\b')"
p26
aS"(219, u'(?i)\\\\b(basals|basal)(-|\\\\s+)?(ganglias|ganglia)\\\\b')"
p27
aS"(220, u'(?i)\\\\b(striatums|striatum)\\\\b')"
p28
aS"(103, u'(?i)\\\\b(substantias|substantia)(-|\\\\s+)?(nigras|nigra)\\\\b')"
p29
aS"(189, u'(?i)\\\\b(subthalamics|subthalamic)(-|\\\\s+)?(nuclei|nucleus)\\\\b')"
p30
atp31
Rp32
sS'year'
p33
V2010
p34
sS'agonists'
p35
g3
((lp36
tp37
Rp38
sS'species'
p39
g3
((lp40
S"(2401, u'(?i)\\\\b(primates|primate)\\\\b')"
p41
aS"(5958, u'(?i)\\\\b(rats|rat)\\\\b')"
p42
atp43
Rp44
sb.