(ifile_types
ParseObject
p0
(dp1
S'antagonists'
p2
c__builtin__
set
p3
((lp4
S"(32, u'\\\\bway ?100635')"
p5
aS"(27, u'\\\\bspiperone')"
p6
aS"(21, u'\\\\bpindolol')"
p7
atp8
Rp9
sS'methods'
p10
g3
((lp11
S'Method.ANTAGONIST'
p12
aS'Method.AGONIST'
p13
atp14
Rp15
sS'topics'
p16
g3
((lp17
tp18
Rp19
sS'receptors'
p20
g3
((lp21
S'5ht1a'
p22
atp23
Rp24
sS'regions'
p25
g3
((lp26
tp27
Rp28
sS'year'
p29
V2009
p30
sS'agonists'
p31
g3
((lp32
S"(44, u'\\\\bflesinoxan')"
p33
aS"(105, u'\\\\b5 ?carboxamidotryptamine')"
p34
aS"(24, u'\\\\bbuspirone')"
p35
aS"(121, u'\\\\bl ?694247')"
p36
aS"(92, u'\\\\b8 ?oh ?dpat')"
p37
aS"(42, u'\\\\bf ?13714')"
p38
atp39
Rp40
sS'species'
p41
g3
((lp42
S"(4624, u'(?i)(apes|ape)')"
p43
aS"(3550, u'(?i)(anis|ani)')"
p44
aS"(2568, u'(?i)(hens|hen)')"
p45
aS"(5958, u'(?i)(rats|rat)')"
p46
aS"(479, u'(?i)(lings|ling)')"
p47
aS"(81, u'(?i)(asps|asp)')"
p48
aS"(468, u'(?i)(oxen|ox)')"
p49
aS"(1055, u'(?i)(men|man)')"
p50
aS"(5944, u'(?i)(soles|sole)')"
p51
aS"(1349, u'(?i)(rams|ram)')"
p52
aS"(4099, u'(?i)(hamsters|hamster)')"
p53
aS"(2395, u'(?i)(mutants|mutant)')"
p54
aS"(3522, u'(?i)(tetras|tetra)')"
p55
aS"(7094, u'(?i)(curs|cur)')"
p56
aS"(5917, u'(?i)(roaches|roach)')"
p57
aS"(4371, u'(?i)(lizas|liza)')"
p58
aS"(6356, u'(?i)(ais|ai)')"
p59
aS"(6391, u'(?i)(asses|ass)')"
p60
aS"(6878, u'(?i)(guans|guan)')"
p61
aS"(5685, u'(?i)(xenopuses|xenopus)(-|\\\\s+)?(laevi|laevis)')"
p62
aS"(6249, u'(?i)(ants|ant)')"
p63
atp64
Rp65
sb.