(ifile_types
ParseObject
p0
(dp1
S'antagonists'
p2
c__builtin__
set
p3
((lp4
tp5
Rp6
sS'methods'
p7
g3
((lp8
tp9
Rp10
sS'topics'
p11
g3
((lp12
S"(1, u'\\\\bmood')"
p13
atp14
Rp15
sS'receptors'
p16
g3
((lp17
S'5ht2a'
p18
atp19
Rp20
sS'regions'
p21
g3
((lp22
tp23
Rp24
sS'year'
p25
V2004
p26
sS'agonists'
p27
g3
((lp28
S"(175, u'\\\\bdoi')"
p29
atp30
Rp31
sS'species'
p32
g3
((lp33
S"(5967, u'(?i)\\\\b(males|male)\\\\b')"
p34
aS"(3248, u'(?i)\\\\b(offspring|offspring)\\\\b')"
p35
aS"(4091, u'(?i)\\\\b(adults|adult)\\\\b')"
p36
aS"(5958, u'(?i)\\\\b(rats|rat)\\\\b')"
p37
atp38
Rp39
sb.