(ifile_types
ParseObject
p0
(dp1
S'antagonists'
p2
c__builtin__
set
p3
((lp4
tp5
Rp6
sS'methods'
p7
g3
((lp8
tp9
Rp10
sS'topics'
p11
g3
((lp12
S"(31, u'\\\\bobesity')"
p13
atp14
Rp15
sS'receptors'
p16
g3
((lp17
S'5ht2a'
p18
atp19
Rp20
sS'regions'
p21
g3
((lp22
S"(34, u'(?i)(pon|pons)')"
p23
atp24
Rp25
sS'year'
p26
V1995
p27
sS'agonists'
p28
g3
((lp29
S"(33, u'\\\\bdoi')"
p30
atp31
Rp32
sS'species'
p33
g3
((lp34
S"(2054, u'(?i)(heads|head)')"
p35
aS"(2568, u'(?i)(hens|hen)')"
p36
aS"(702, u'(?i)(genets|genet)')"
p37
aS"(4979, u'(?i)(cats|cat)')"
p38
aS"(6682, u'(?i)(tera|teras)')"
p39
aS"(468, u'(?i)(oxen|ox)')"
p40
aS"(4964, u'(?i)(serins|serin)')"
p41
aS"(5958, u'(?i)(rats|rat)')"
p42
aS"(3812, u'(?i)(studs|stud)')"
p43
aS"(5568, u'(?i)(hakes|hake)')"
p44
aS"(6356, u'(?i)(ais|ai)')"
p45
atp46
Rp47
sb.