(ifile_types
ParseObject
p0
(dp1
S'methods'
p2
c__builtin__
set
p3
((lp4
S'Method.PET'
p5
atp6
Rp7
sS'topics'
p8
g3
((lp9
S"(14, u'\\\\bcogniti')"
p10
aS"(1, u'\\\\bpatient')"
p11
aS"(15, u'\\\\bmemory')"
p12
aS"(17, u'\\\\balzheimer')"
p13
aS"(2, u'\\\\bdisorder')"
p14
atp15
Rp16
sS'receptors'
p17
g3
((lp18
(S'5ht6'
p19
I216
I221
tp20
a(S'5ht6'
p21
I605
I610
tp22
a(S'5ht6'
p23
I1460
I1465
tp24
a(S'5ht6'
p25
I1731
I1736
tp26
a(S'5ht6'
p27
I54
I59
tp28
a(S'5ht6'
p29
I572
I577
tp30
a(S'5ht6'
p31
I1821
I1826
tp32
atp33
Rp34
sS'raw_text_methods'
p35
g3
((lp36
S"(17, u'\\\\bpet')"
p37
aS"(54, u'\\\\bautoradiography')"
p38
atp39
Rp40
sS'regions'
p41
g3
((lp42
S"(8, u'(?i)\\\\b(centrals|central)(-|\\\\s+)?(nervouses|nervous)(-|\\\\s+)?(systems|system)\\\\b')"
p43
aS"(17, u'(?i)\\\\b(caudates|caudate)\\\\b')"
p44
atp45
Rp46
sS'year'
p47
V2020
p48
sS'species'
p49
g3
((lp50
tp51
Rp52
sb.