(ifile_types
ParseObject
p0
(dp1
S'antagonists'
p2
c__builtin__
set
p3
((lp4
S"(102, u'\\\\bfluoxetine')"
p5
atp6
Rp7
sS'methods'
p8
g3
((lp9
S'Method.AGONIST'
p10
atp11
Rp12
sS'topics'
p13
g3
((lp14
S"(9, u'\\\\bdepress')"
p15
aS"(3, u'\\\\bsleep')"
p16
aS"(11, u'\\\\banxiolyt')"
p17
atp18
Rp19
sS'receptors'
p20
g3
((lp21
S'5ht1a'
p22
atp23
Rp24
sS'regions'
p25
g3
((lp26
tp27
Rp28
sS'year'
p29
V2007
p30
sS'agonists'
p31
g3
((lp32
S"(87, u'\\\\bvilazodone')"
p33
atp34
Rp35
sS'species'
p36
g3
((lp37
S"(4624, u'(?i)(apes|ape)')"
p38
aS"(5958, u'(?i)(rats|rat)')"
p39
aS"(702, u'(?i)(genets|genet)')"
p40
aS"(1961, u'(?i)(pens|pen)')"
p41
aS"(468, u'(?i)(oxen|ox)')"
p42
aS"(1055, u'(?i)(men|man)')"
p43
aS"(7094, u'(?i)(curs|cur)')"
p44
aS"(6753, u'(?i)(da|das)')"
p45
aS"(6249, u'(?i)(ants|ant)')"
p46
aS"(4371, u'(?i)(lizas|liza)')"
p47
aS"(3812, u'(?i)(studs|stud)')"
p48
aS"(6391, u'(?i)(asses|ass)')"
p49
atp50
Rp51
sb.