(ifile_types
ParseObject
p0
(dp1
S'antagonists'
p2
c__builtin__
set
p3
((lp4
tp5
Rp6
sS'methods'
p7
g3
((lp8
S'Method.AGONIST'
p9
atp10
Rp11
sS'topics'
p12
g3
((lp13
S"(6, u'\\\\bcognit')"
p14
aS"(14, u'\\\\bpsychosis')"
p15
aS"(7, u'\\\\bmemory')"
p16
atp17
Rp18
sS'receptors'
p19
g3
((lp20
S'5ht1a'
p21
aS'5ht2c'
p22
aS'5ht2a'
p23
atp24
Rp25
sS'regions'
p26
g3
((lp27
S"(254, u'(?i)\\\\b(prefrontals|prefrontal)(-|\\\\s+)?(cortexes|cortex)\\\\b')"
p28
aS"(255, u'(?i)\\\\b(pres|pre)(-|\\\\s+)?(frontals|frontal)(-|\\\\s+)?(cortexes|cortex)\\\\b')"
p29
atp30
Rp31
sS'year'
p32
V2014
p33
sS'agonists'
p34
g3
((lp35
S"(149, u'\\\\bmem')"
p36
aS"(175, u'\\\\bdoi')"
p37
atp38
Rp39
sS'species'
p40
g3
((lp41
S"(5967, u'(?i)\\\\b(males|male)\\\\b')"
p42
aS"(2054, u'(?i)\\\\b(heads|head)\\\\b')"
p43
aS"(163, u'(?i)\\\\b(mice|mouse)\\\\b')"
p44
atp45
Rp46
sb.