(ifile_types
ParseObject
p0
(dp1
S'methods'
p2
c__builtin__
set
p3
((lp4
S'Method.ANTAGONIST'
p5
atp6
Rp7
sS'topics'
p8
g3
((lp9
S"(2, u'\\\\bdisorder')"
p10
aS"(7, u'\\\\bdepressi')"
p11
aS"(15, u'\\\\bmemory')"
p12
aS"(12, u'\\\\bsleep')"
p13
aS"(1, u'\\\\bpatient')"
p14
aS"(3, u'\\\\bclinical')"
p15
atp16
Rp17
sS'receptors'
p18
g3
((lp19
(S'5ht2c'
p20
I920
I926
tp21
atp22
Rp23
sS'raw_text_methods'
p24
g3
((lp25
S"(36, u'\\\\bbenzodiazepine')"
p26
aS"(31, u'\\\\bbenzodiazepines')"
p27
aS"(12, u'\\\\bantagonist')"
p28
atp29
Rp30
sS'regions'
p31
g3
((lp32
tp33
Rp34
sS'year'
p35
V2010
p36
sS'species'
p37
g3
((lp38
tp39
Rp40
sb.