(ifile_types
ParseObject
p0
(dp1
S'antagonists'
p2
c__builtin__
set
p3
((lp4
S"(194, u'\\\\bmethysergide')"
p5
atp6
Rp7
sS'methods'
p8
g3
((lp9
S'Method.AGONIST'
p10
atp11
Rp12
sS'topics'
p13
g3
((lp14
tp15
Rp16
sS'receptors'
p17
g3
((lp18
S'5ht1b'
p19
aS'5ht1a'
p20
aS'5ht3'
p21
aS'5ht2'
p22
aS'5ht2a'
p23
atp24
Rp25
sS'regions'
p26
g3
((lp27
tp28
Rp29
sS'year'
p30
V1991
p31
sS'agonists'
p32
g3
((lp33
S"(20, u'\\\\bbuspirone')"
p34
aS"(53, u'\\\\bmethysergide')"
p35
aS"(149, u'\\\\bmem')"
p36
aS"(42, u'\\\\bgepirone')"
p37
aS"(67, u'\\\\bru ?24969')"
p38
aS"(45, u'\\\\bipsapirone')"
p39
aS"(85, u'\\\\b8 ?oh ?dpat')"
p40
atp41
Rp42
sS'species'
p43
g3
((lp44
S"(5958, u'(?i)\\\\b(rats|rat)\\\\b')"
p45
aS"(4091, u'(?i)\\\\b(adults|adult)\\\\b')"
p46
aS"(3051, u'(?i)\\\\b(pigs|pig)\\\\b')"
p47
aS"(4480, u'(?i)\\\\b(guineas|guinea)(-|\\\\s+)?(pigs|pig)\\\\b')"
p48
aS"(3062, u'(?i)\\\\b(guineas|guinea)\\\\b')"
p49
atp50
Rp51
sb.