(ifile_types
ParseObject
p0
(dp1
S'antagonists'
p2
c__builtin__
set
p3
((lp4
tp5
Rp6
sS'methods'
p7
g3
((lp8
S'Method.AGONIST'
p9
atp10
Rp11
sS'topics'
p12
g3
((lp13
S"(20, u'\\\\baggressi')"
p14
aS"(4, u'\\\\blocomot')"
p15
atp16
Rp17
sS'receptors'
p18
g3
((lp19
S'5ht2c'
p20
aS'5ht2a'
p21
atp22
Rp23
sS'regions'
p24
g3
((lp25
S"(165, u'(?i)(preoptics|preoptic)(-|\\\\s+)?(areas|area)')"
p26
aS"(166, u'(?i)(medians|median)(-|\\\\s+)?(preoptics|preoptic)(-|\\\\s+)?(nuclei|nucleus)')"
p27
aS"(91, u'(?i)(periaqueductals|periaqueductal)(-|\\\\s+)?(grays|gray)')"
p28
atp29
Rp30
sS'year'
p31
V2006
p32
sS'agonists'
p33
g3
((lp34
tp35
Rp36
sS'species'
p37
g3
((lp38
S"(6249, u'(?i)(ants|ant)')"
p39
aS"(2568, u'(?i)(hens|hen)')"
p40
aS"(6125, u'(?i)(females|female)')"
p41
aS"(6753, u'(?i)(da|das)')"
p42
aS"(479, u'(?i)(lings|ling)')"
p43
aS"(5967, u'(?i)(males|male)')"
p44
aS"(468, u'(?i)(oxen|ox)')"
p45
aS"(1055, u'(?i)(men|man)')"
p46
aS"(3726, u'(?i)(mates|mate)')"
p47
aS"(2665, u'(?i)(rays|ray)')"
p48
aS"(6356, u'(?i)(ais|ai)')"
p49
aS"(5958, u'(?i)(rats|rat)')"
p50
aS"(6682, u'(?i)(tera|teras)')"
p51
aS"(7094, u'(?i)(curs|cur)')"
p52
aS"(4176, u'(?i)(greys|grey)')"
p53
aS"(3812, u'(?i)(studs|stud)')"
p54
aS"(7609, u'(?i)(erns|ern)')"
p55
aS"(4177, u'(?i)(grays|gray)')"
p56
aS"(1683, u'(?i)(terns|tern)')"
p57
atp58
Rp59
sb.