(ifile_types
ParseObject
p0
(dp1
S'antagonists'
p2
c__builtin__
set
p3
((lp4
S"(32, u'\\\\bway ?100635')"
p5
aS"(54, u'\\\\britanserin')"
p6
aS"(21, u'\\\\bpindolol')"
p7
aS"(130, u'\\\\britanserin')"
p8
aS"(155, u'\\\\bgr ?125487')"
p9
atp10
Rp11
sS'methods'
p12
g3
((lp13
S'Method.ANTAGONIST'
p14
aS'Method.AGONIST'
p15
atp16
Rp17
sS'topics'
p18
g3
((lp19
tp20
Rp21
sS'receptors'
p22
g3
((lp23
S'5ht1b'
p24
aS'5ht5'
p25
aS'5ht4'
p26
aS'5ht2c'
p27
aS'5ht2a'
p28
aS'5ht1a'
p29
atp30
Rp31
sS'regions'
p32
g3
((lp33
tp34
Rp35
sS'year'
p36
V1996
p37
sS'agonists'
p38
g3
((lp39
S"(107, u'\\\\bcp ?93129')"
p40
atp41
Rp42
sS'species'
p43
g3
((lp44
S"(6753, u'(?i)(da|das)')"
p45
aS"(5958, u'(?i)(rats|rat)')"
p46
aS"(4979, u'(?i)(cats|cat)')"
p47
aS"(468, u'(?i)(oxen|ox)')"
p48
aS"(1055, u'(?i)(men|man)')"
p49
aS"(1349, u'(?i)(rams|ram)')"
p50
aS"(2334, u'(?i)(eels|eel)')"
p51
aS"(4964, u'(?i)(serins|serin)')"
p52
aS"(6249, u'(?i)(ants|ant)')"
p53
aS"(7058, u'(?i)(does|doe)')"
p54
aS"(1961, u'(?i)(pens|pen)')"
p55
aS"(1414, u'(?i)(chars|char)')"
p56
aS"(6356, u'(?i)(ais|ai)')"
p57
aS"(5949, u'(?i)(dogs|dog)')"
p58
atp59
Rp60
sb.