(ifile_types
ParseObject
p0
(dp1
S'antagonists'
p2
c__builtin__
set
p3
((lp4
S"(120, u'\\\\bs ?32212')"
p5
atp6
Rp7
sS'methods'
p8
g3
((lp9
S'Method.ANTAGONIST'
p10
aS'Method.AGONIST'
p11
atp12
Rp13
sS'topics'
p14
g3
((lp15
S"(3, u'\\\\bsleep')"
p16
aS"(1, u'\\\\bmood')"
p17
aS"(29, u'\\\\bsex')"
p18
aS"(35, u'\\\\bstress')"
p19
aS"(11, u'\\\\banxiolyt')"
p20
aS"(20, u'\\\\baggressi')"
p21
aS"(6, u'\\\\bcognit')"
p22
atp23
Rp24
sS'receptors'
p25
g3
((lp26
S'5ht2c'
p27
aS'5ht2a'
p28
atp29
Rp30
sS'regions'
p31
g3
((lp32
S"(49, u'(?i)\\\\b(loci|locus)(-|\\\\s+)?(coeruleuses|coeruleus)\\\\b')"
p33
aS"(209, u'(?i)\\\\b(amygdalas|amygdala)\\\\b')"
p34
atp35
Rp36
sS'year'
p37
V2012
p38
sS'agonists'
p39
g3
((lp40
tp41
Rp42
sS'species'
p43
g3
((lp44
S"(5967, u'(?i)\\\\b(males|male)\\\\b')"
p45
aS"(163, u'(?i)\\\\b(mice|mouse)\\\\b')"
p46
aS"(5958, u'(?i)\\\\b(rats|rat)\\\\b')"
p47
atp48
Rp49
sb.