(ifile_types
ParseObject
p0
(dp1
S'methods'
p2
c__builtin__
set
p3
((lp4
S'Method.ANTAGONIST'
p5
aS'Method.AGONIST'
p6
atp7
Rp8
sS'topics'
p9
g3
((lp10
S"(5, u'\\\\btherap')"
p11
atp12
Rp13
sS'receptors'
p14
g3
((lp15
(S'5ht3'
p16
I1153
I1158
tp17
a(S'5ht2c'
p18
I1226
I1234
tp19
a(S'5ht3'
p20
I1774
I1779
tp21
a(S'5ht3'
p22
I1548
I1553
tp23
a(S'5ht2a'
p24
I1226
I1232
tp25
a(S'5ht3'
p26
I1283
I1288
tp27
a(S'5ht3'
p28
I200
I205
tp29
atp30
Rp31
sS'raw_text_methods'
p32
g3
((lp33
S"(13, u'\\\\bagonist')"
p34
aS"(12, u'\\\\bantagonist')"
p35
atp36
Rp37
sS'regions'
p38
g3
((lp39
S"(19, u'(?i)\\\\b(cortexes|cortex)\\\\b')"
p40
atp41
Rp42
sS'year'
p43
V2009
p44
sS'species'
p45
g3
((lp46
S"(4, u'(?i)\\\\b(rats|rat)\\\\b')"
p47
atp48
Rp49
sb.