(ifile_types
ParseObject
p0
(dp1
S'methods'
p2
c__builtin__
set
p3
((lp4
tp5
Rp6
sS'topics'
p7
g3
((lp8
S"(26, u'\\\\bbehav')"
p9
atp10
Rp11
sS'receptors'
p12
g3
((lp13
(S'5ht1'
p14
I683
I688
tp15
a(S'5ht2b'
p16
I260
I266
tp17
a(S'5ht2b'
p18
I36
I42
tp19
a(S'5ht2'
p20
I362
I367
tp21
a(S'5ht2b'
p22
I1635
I1641
tp23
a(S'5ht2'
p24
I311
I316
tp25
a(S'5ht2b'
p26
I583
I589
tp27
a(S'5ht2b'
p28
I389
I395
tp29
atp30
Rp31
sS'raw_text_methods'
p32
g3
((lp33
tp34
Rp35
sS'regions'
p36
g3
((lp37
tp38
Rp39
sS'year'
p40
V1996
p41
sS'species'
p42
g3
((lp43
S"(4, u'(?i)\\\\b(rats|rat)\\\\b')"
p44
atp45
Rp46
sb.