(ifile_types
ParseObject
p0
(dp1
S'antagonists'
p2
c__builtin__
set
p3
((lp4
tp5
Rp6
sS'methods'
p7
g3
((lp8
S'Method.ANTAGONIST'
p9
atp10
Rp11
sS'topics'
p12
g3
((lp13
S"(3, u'\\\\bsleep')"
p14
aS"(4, u'\\\\blocomot')"
p15
aS"(9, u'\\\\bdepress')"
p16
aS"(35, u'\\\\bstress')"
p17
aS"(11, u'\\\\banxiolyt')"
p18
aS"(10, u'\\\\banxiety')"
p19
atp20
Rp21
sS'receptors'
p22
g3
((lp23
S'5ht1a'
p24
aS'5ht2b'
p25
atp26
Rp27
sS'regions'
p28
g3
((lp29
S"(270, u'(?i)(v1s|v1)')"
p30
aS"(34, u'(?i)(pon|pons)')"
p31
atp32
Rp33
sS'year'
p34
V2005
p35
sS'agonists'
p36
g3
((lp37
tp38
Rp39
sS'species'
p40
g3
((lp41
S"(1961, u'(?i)(pens|pen)')"
p42
aS"(7094, u'(?i)(curs|cur)')"
p43
aS"(3812, u'(?i)(studs|stud)')"
p44
aS"(6249, u'(?i)(ants|ant)')"
p45
aS"(6356, u'(?i)(ais|ai)')"
p46
aS"(6391, u'(?i)(asses|ass)')"
p47
aS"(1070, u'(?i)(pets|pet)')"
p48
aS"(1688, u'(?i)(ounces|ounce)')"
p49
aS"(468, u'(?i)(oxen|ox)')"
p50
aS"(3404, u'(?i)(titis|titi)')"
p51
aS"(3550, u'(?i)(anis|ani)')"
p52
aS"(5958, u'(?i)(rats|rat)')"
p53
aS"(7609, u'(?i)(erns|ern)')"
p54
aS"(867, u'(?i)(tits|tit)')"
p55
aS"(6682, u'(?i)(tera|teras)')"
p56
aS"(1055, u'(?i)(men|man)')"
p57
aS"(6753, u'(?i)(da|das)')"
p58
aS"(4371, u'(?i)(lizas|liza)')"
p59
aS"(2323, u'(?i)(bees|bee)')"
p60
aS"(4979, u'(?i)(cats|cat)')"
p61
aS"(3726, u'(?i)(mates|mate)')"
p62
aS"(1683, u'(?i)(terns|tern)')"
p63
atp64
Rp65
sb.