(ifile_types
ParseObject
p0
(dp1
S'antagonists'
p2
c__builtin__
set
p3
((lp4
S"(117, u'\\\\bketanserin')"
p5
aS"(31, u'\\\\bway ?100635')"
p6
atp7
Rp8
sS'methods'
p9
g3
((lp10
S'Method.ANTAGONIST'
p11
aS'Method.AGONIST'
p12
atp13
Rp14
sS'topics'
p15
g3
((lp16
tp17
Rp18
sS'receptors'
p19
g3
((lp20
S'5ht1a'
p21
aS'5ht2c'
p22
aS'5ht2'
p23
aS'5ht2a'
p24
atp25
Rp26
sS'regions'
p27
g3
((lp28
tp29
Rp30
sS'year'
p31
V2008
p32
sS'agonists'
p33
g3
((lp34
S"(85, u'\\\\b8 ?oh ?dpat')"
p35
atp36
Rp37
sS'species'
p38
g3
((lp39
S"(7540, u'(?i)\\\\b(mammalians|mammalian)\\\\b')"
p40
aS"(4657, u'(?i)\\\\b(fish|fish)\\\\b')"
p41
atp42
Rp43
sb.