(ifile_types
ParseObject
p0
(dp1
S'methods'
p2
c__builtin__
set
p3
((lp4
S'Method.ANTAGONIST'
p5
aS'Method.AGONIST'
p6
atp7
Rp8
sS'topics'
p9
g3
((lp10
S"(13, u'\\\\bantidepress')"
p11
atp12
Rp13
sS'receptors'
p14
g3
((lp15
(S'5ht2c'
p16
I1302
I1308
tp17
a(S'5ht2c'
p18
I397
I403
tp19
a(S'5ht2c'
p20
I164
I175
tp21
a(S'5ht2c'
p22
I1143
I1149
tp23
a(S'5ht2c'
p24
I1456
I1462
tp25
a(S'5ht2c'
p26
I451
I457
tp27
atp28
Rp29
sS'raw_text_methods'
p30
g3
((lp31
S"(13, u'\\\\bagonist')"
p32
aS"(12, u'\\\\bantagonist')"
p33
atp34
Rp35
sS'regions'
p36
g3
((lp37
tp38
Rp39
sS'year'
p40
V2000
p41
sS'species'
p42
g3
((lp43
S"(4, u'(?i)\\\\b(rats|rat)\\\\b')"
p44
atp45
Rp46
sb.