(ifile_types
ParseObject
p0
(dp1
S'antagonists'
p2
c__builtin__
set
p3
((lp4
S"(32, u'\\\\bway ?100635')"
p5
atp6
Rp7
sS'methods'
p8
g3
((lp9
S'Method.ANTAGONIST'
p10
atp11
Rp12
sS'topics'
p13
g3
((lp14
S"(21, u'\\\\bpain')"
p15
aS"(9, u'\\\\bdepress')"
p16
atp17
Rp18
sS'receptors'
p19
g3
((lp20
S'5ht1a'
p21
atp22
Rp23
sS'regions'
p24
g3
((lp25
S"(362, u'(?i)(brains|brain)(-|\\\\s+)?(stems|stem)')"
p26
aS"(70, u'(?i)(fourths|fourth)(-|\\\\s+)?(ventricles|ventricle)')"
p27
aS"(34, u'(?i)(pon|pons)')"
p28
atp29
Rp30
sS'year'
p31
V2000
p32
sS'agonists'
p33
g3
((lp34
tp35
Rp36
sS'species'
p37
g3
((lp38
S"(5958, u'(?i)(rats|rat)')"
p39
aS"(7609, u'(?i)(erns|ern)')"
p40
aS"(6753, u'(?i)(da|das)')"
p41
aS"(473, u'(?i)(rabbits|rabbit)')"
p42
aS"(1055, u'(?i)(men|man)')"
p43
aS"(3592, u'(?i)(ravens|raven)')"
p44
aS"(6356, u'(?i)(ais|ai)')"
p45
aS"(6249, u'(?i)(ants|ant)')"
p46
aS"(7058, u'(?i)(does|doe)')"
p47
aS"(3812, u'(?i)(studs|stud)')"
p48
aS"(6391, u'(?i)(asses|ass)')"
p49
aS"(1225, u'(?i)(larks|lark)')"
p50
aS"(5212, u'(?i)(parrs|parr)')"
p51
aS"(1683, u'(?i)(terns|tern)')"
p52
atp53
Rp54
sb.