(ifile_types
ParseObject
p0
(dp1
S'antagonists'
p2
c__builtin__
set
p3
((lp4
tp5
Rp6
sS'methods'
p7
g3
((lp8
tp9
Rp10
sS'topics'
p11
g3
((lp12
tp13
Rp14
sS'receptors'
p15
g3
((lp16
S'5ht5'
p17
aS'5ht2c'
p18
aS'5ht2a'
p19
atp20
Rp21
sS'regions'
p22
g3
((lp23
S"(159, u'(?i)\\\\b(paraventriculars|paraventricular)(-|\\\\s+)?(nuclei|nucleus)\\\\b')"
p24
atp25
Rp26
sS'year'
p27
V2010
p28
sS'agonists'
p29
g3
((lp30
S"(175, u'\\\\bdoi')"
p31
atp32
Rp33
sS'species'
p34
g3
((lp35
S"(5958, u'(?i)\\\\b(rats|rat)\\\\b')"
p36
atp37
Rp38
sb.