(ifile_types
ParseObject
p0
(dp1
S'antagonists'
p2
c__builtin__
set
p3
((lp4
tp5
Rp6
sS'methods'
p7
g3
((lp8
S'Method.AGONIST'
p9
atp10
Rp11
sS'topics'
p12
g3
((lp13
S"(6, u'\\\\bcognit')"
p14
aS"(7, u'\\\\bmemory')"
p15
aS"(10, u'\\\\banxiety')"
p16
aS"(1, u'\\\\bmood')"
p17
atp18
Rp19
sS'receptors'
p20
g3
((lp21
S'5ht7'
p22
atp23
Rp24
sS'regions'
p25
g3
((lp26
S"(34, u'(?i)(pon|pons)')"
p27
atp28
Rp29
sS'year'
p30
V2014
p31
sS'agonists'
p32
g3
((lp33
S"(233, u'\\\\blp ?211')"
p34
aS"(155, u'\\\\bmem')"
p35
atp36
Rp37
sS'species'
p38
g3
((lp39
S"(4624, u'(?i)(apes|ape)')"
p40
aS"(3550, u'(?i)(anis|ani)')"
p41
aS"(6753, u'(?i)(da|das)')"
p42
aS"(5958, u'(?i)(rats|rat)')"
p43
aS"(5917, u'(?i)(roaches|roach)')"
p44
aS"(163, u'(?i)(mice|mouse)')"
p45
aS"(5967, u'(?i)(males|male)')"
p46
aS"(1055, u'(?i)(men|man)')"
p47
aS"(6249, u'(?i)(ants|ant)')"
p48
aS"(4979, u'(?i)(cats|cat)')"
p49
aS"(2395, u'(?i)(mutants|mutant)')"
p50
aS"(7094, u'(?i)(curs|cur)')"
p51
aS"(5229, u'(?i)(moles|mole)')"
p52
aS"(1961, u'(?i)(pens|pen)')"
p53
aS"(1414, u'(?i)(chars|char)')"
p54
aS"(6391, u'(?i)(asses|ass)')"
p55
aS"(2809, u'(?i)(toms|tom)')"
p56
aS"(5537, u'(?i)(hippos|hippo)')"
p57
aS"(6356, u'(?i)(ais|ai)')"
p58
atp59
Rp60
sb.