(ifile_types
ParseObject
p0
(dp1
S'methods'
p2
c__builtin__
set
p3
((lp4
S'Method.KNOCKOUT'
p5
aS'Method.AGONIST'
p6
atp7
Rp8
sS'topics'
p9
g3
((lp10
S"(22, u'\\\\bschizophreni')"
p11
aS"(1, u'\\\\bpatient')"
p12
atp13
Rp14
sS'receptors'
p15
g3
((lp16
(S'5ht1b'
p17
I595
I601
tp18
a(S'5ht1a'
p19
I951
I957
tp20
a(S'5ht1a'
p21
I565
I571
tp22
a(S'5ht1b'
p23
I837
I843
tp24
a(S'5ht1b'
p25
I476
I482
tp26
a(S'5ht1a'
p27
I630
I636
tp28
a(S'5ht1b'
p29
I630
I638
tp30
a(S'5ht1a'
p31
I463
I469
tp32
a(S'5ht1b'
p33
I1064
I1070
tp34
a(S'5ht1a'
p35
I71
I82
tp36
a(S'5ht1a'
p37
I733
I739
tp38
a(S'5ht1a'
p39
I1128
I1134
tp40
atp41
Rp42
sS'raw_text_methods'
p43
g3
((lp44
S"(13, u'\\\\bagonist')"
p45
aS"(8, u'\\\\bru24969')"
p46
aS"(15, u'\\\\b8ohdpat')"
p47
atp48
Rp49
sS'regions'
p50
g3
((lp51
tp52
Rp53
sS'year'
p54
V2000
p55
sS'species'
p56
g3
((lp57
S"(1, u'(?i)\\\\b(mice|mouse)\\\\b')"
p58
aS"(5, u'(?i)\\\\b(mices|mice)\\\\b')"
p59
atp60
Rp61
sb.