(ifile_types
ParseObject
p0
(dp1
S'antagonists'
p2
c__builtin__
set
p3
((lp4
S"(117, u'\\\\bmianserin')"
p5
atp6
Rp7
sS'methods'
p8
g3
((lp9
S'Method.AGONIST'
p10
atp11
Rp12
sS'topics'
p13
g3
((lp14
tp15
Rp16
sS'receptors'
p17
g3
((lp18
S'5ht2c'
p19
atp20
Rp21
sS'regions'
p22
g3
((lp23
S"(220, u'(?i)(striatums|striatum)')"
p24
aS"(222, u'(?i)(neostriatums|neostriatum)')"
p25
aS"(34, u'(?i)(pon|pons)')"
p26
atp27
Rp28
sS'year'
p29
V1999
p30
sS'agonists'
p31
g3
((lp32
S"(161, u'\\\\bmcpp')"
p33
atp34
Rp35
sS'species'
p36
g3
((lp37
S"(4624, u'(?i)(apes|ape)')"
p38
aS"(2054, u'(?i)(heads|head)')"
p39
aS"(6753, u'(?i)(da|das)')"
p40
aS"(2568, u'(?i)(hens|hen)')"
p41
aS"(7609, u'(?i)(erns|ern)')"
p42
aS"(5958, u'(?i)(rats|rat)')"
p43
aS"(5743, u'(?i)(bots|bot)')"
p44
aS"(6682, u'(?i)(tera|teras)')"
p45
aS"(4091, u'(?i)(adults|adult)')"
p46
aS"(468, u'(?i)(oxen|ox)')"
p47
aS"(1055, u'(?i)(men|man)')"
p48
aS"(6249, u'(?i)(ants|ant)')"
p49
aS"(1349, u'(?i)(rams|ram)')"
p50
aS"(4964, u'(?i)(serins|serin)')"
p51
aS"(3550, u'(?i)(anis|ani)')"
p52
aS"(3592, u'(?i)(ravens|raven)')"
p53
aS"(6391, u'(?i)(asses|ass)')"
p54
aS"(1683, u'(?i)(terns|tern)')"
p55
atp56
Rp57
sb.