(ifile_types
ParseObject
p0
(dp1
S'antagonists'
p2
c__builtin__
set
p3
((lp4
S"(38, u'\\\\bsb ?224289')"
p5
atp6
Rp7
sS'methods'
p8
g3
((lp9
S'Method.ANTAGONIST'
p10
aS'Method.AGONIST'
p11
atp12
Rp13
sS'topics'
p14
g3
((lp15
S"(17, u'\\\\bgroom')"
p16
aS"(19, u'\\\\bimpulsiv')"
p17
aS"(20, u'\\\\baggressi')"
p18
atp19
Rp20
sS'receptors'
p21
g3
((lp22
S'5ht1b'
p23
aS'5ht1a'
p24
atp25
Rp26
sS'regions'
p27
g3
((lp28
S"(94, u'(?i)\\\\b(dorsals|dorsal)(-|\\\\s+)?(raphes|raphe)(-|\\\\s+)?(nuclei|nucleus)\\\\b')"
p29
aS"(254, u'(?i)\\\\b(prefrontals|prefrontal)(-|\\\\s+)?(cortexes|cortex)\\\\b')"
p30
aS"(255, u'(?i)\\\\b(pres|pre)(-|\\\\s+)?(frontals|frontal)(-|\\\\s+)?(cortexes|cortex)\\\\b')"
p31
aS"(318, u'(?i)\\\\b(raphes|raphe)(-|\\\\s+)?(nuclei|nucleus)\\\\b')"
p32
atp33
Rp34
sS'year'
p35
V2011
p36
sS'agonists'
p37
g3
((lp38
S"(100, u'\\\\bcp ?93129')"
p39
aS"(85, u'\\\\b8 ?oh ?dpat')"
p40
atp41
Rp42
sS'species'
p43
g3
((lp44
S"(5967, u'(?i)\\\\b(males|male)\\\\b')"
p45
aS"(6753, u'(?i)\\\\b(da|das)\\\\b')"
p46
aS"(5958, u'(?i)\\\\b(rats|rat)\\\\b')"
p47
aS"(6125, u'(?i)\\\\b(females|female)\\\\b')"
p48
atp49
Rp50
sb.