(ifile_types
ParseObject
p0
(dp1
S'methods'
p2
c__builtin__
set
p3
((lp4
S'Method.ANTAGONIST'
p5
aS'Method.AGONIST'
p6
atp7
Rp8
sS'topics'
p9
g3
((lp10
S"(14, u'\\\\bcogniti')"
p11
aS"(13, u'\\\\bantidepress')"
p12
aS"(2, u'\\\\bdisorder')"
p13
aS"(7, u'\\\\bdepressi')"
p14
aS"(15, u'\\\\bmemory')"
p15
aS"(16, u'\\\\blearning')"
p16
aS"(1, u'\\\\bpatient')"
p17
aS"(3, u'\\\\bclinical')"
p18
atp19
Rp20
sS'receptors'
p21
g3
((lp22
(S'5ht3'
p23
I969
I974
tp24
a(S'5ht1a'
p25
I345
I351
tp26
a(S'5ht1b'
p27
I310
I316
tp28
a(S'5ht3'
p29
I260
I265
tp30
a(S'5ht1d'
p31
I280
I286
tp32
a(S'5ht7'
p33
I270
I275
tp34
atp35
Rp36
sS'raw_text_methods'
p37
g3
((lp38
S"(13, u'\\\\bagonist')"
p39
aS"(12, u'\\\\bantagonist')"
p40
atp41
Rp42
sS'regions'
p43
g3
((lp44
S"(19, u'(?i)\\\\b(cortexes|cortex)\\\\b')"
p45
atp46
Rp47
sS'year'
p48
V2014
p49
sS'species'
p50
g3
((lp51
S"(4, u'(?i)\\\\b(rats|rat)\\\\b')"
p52
atp53
Rp54
sb.