(ifile_types
ParseObject
p0
(dp1
S'methods'
p2
c__builtin__
set
p3
((lp4
S'Method.ANTAGONIST'
p5
aS'Method.AGONIST'
p6
atp7
Rp8
sS'topics'
p9
g3
((lp10
tp11
Rp12
sS'receptors'
p13
g3
((lp14
(S'5ht1a'
p15
I137
I143
tp16
a(S'5ht1a'
p17
I1116
I1122
tp18
a(S'5ht1a'
p19
I392
I398
tp20
a(S'5ht1a'
p21
I1007
I1013
tp22
a(S'5ht1a'
p23
I507
I513
tp24
a(S'5ht1a'
p25
I738
I744
tp26
a(S'5ht1a'
p27
I207
I213
tp28
atp29
Rp30
sS'raw_text_methods'
p31
g3
((lp32
S"(13, u'\\\\bagonist')"
p33
aS"(51, u'\\\\bway100635')"
p34
aS"(12, u'\\\\bantagonist')"
p35
atp36
Rp37
sS'regions'
p38
g3
((lp39
S"(20, u'(?i)\\\\b(prefrontals|prefrontal)\\\\b')"
p40
aS"(21, u'(?i)\\\\b(mpfcs|mpfc)\\\\b')"
p41
aS"(19, u'(?i)\\\\b(cortexes|cortex)\\\\b')"
p42
atp43
Rp44
sS'year'
p45
V2006
p46
sS'species'
p47
g3
((lp48
S"(4, u'(?i)\\\\b(rats|rat)\\\\b')"
p49
atp50
Rp51
sb.