(ifile_types
ParseObject
p0
(dp1
S'methods'
p2
c__builtin__
set
p3
((lp4
S'Method.ANTAGONIST'
p5
atp6
Rp7
sS'topics'
p8
g3
((lp9
tp10
Rp11
sS'receptors'
p12
g3
((lp13
(S'5ht2'
p14
I1433
I1437
tp15
a(S'5ht2'
p16
I1741
I1746
tp17
a(S'5ht2a'
p18
I939
I945
tp19
a(S'5ht2'
p20
I921
I926
tp21
atp22
Rp23
sS'raw_text_methods'
p24
g3
((lp25
S"(53, u'\\\\bketanserin')"
p26
aS"(3, u'\\\\bimmunoreactiv')"
p27
aS"(48, u'\\\\bmdma')"
p28
aS"(12, u'\\\\bantagonist')"
p29
atp30
Rp31
sS'regions'
p32
g3
((lp33
tp34
Rp35
sS'year'
p36
V2008
p37
sS'species'
p38
g3
((lp39
S"(4, u'(?i)\\\\b(rats|rat)\\\\b')"
p40
atp41
Rp42
sb.