(ifile_types
ParseObject
p0
(dp1
S'antagonists'
p2
c__builtin__
set
p3
((lp4
tp5
Rp6
sS'methods'
p7
g3
((lp8
S'Method.ANTAGONIST'
p9
aS'Method.AGONIST'
p10
atp11
Rp12
sS'topics'
p13
g3
((lp14
tp15
Rp16
sS'receptors'
p17
g3
((lp18
S'5ht1b'
p19
aS'5ht5'
p20
aS'5ht2b'
p21
aS'5ht2'
p22
aS'5ht1'
p23
aS'5ht2a'
p24
aS'5ht1a'
p25
aS'5ht3a'
p26
atp27
Rp28
sS'regions'
p29
g3
((lp30
S"(34, u'(?i)(pon|pons)')"
p31
atp32
Rp33
sS'year'
p34
V1988
p35
sS'agonists'
p36
g3
((lp37
S"(196, u'\\\\bquipazine')"
p38
aS"(190, u'\\\\b2 ?methyl ?5 ?ht')"
p39
aS"(172, u'\\\\bmk ?212')"
p40
atp41
Rp42
sS'species'
p43
g3
((lp44
S"(2323, u'(?i)(bees|bee)')"
p45
aS"(5537, u'(?i)(hippos|hippo)')"
p46
aS"(2568, u'(?i)(hens|hen)')"
p47
aS"(6356, u'(?i)(ais|ai)')"
p48
aS"(6753, u'(?i)(da|das)')"
p49
aS"(4091, u'(?i)(adults|adult)')"
p50
aS"(468, u'(?i)(oxen|ox)')"
p51
aS"(6249, u'(?i)(ants|ant)')"
p52
aS"(4979, u'(?i)(cats|cat)')"
p53
aS"(5838, u'(?i)(cubs|cub)')"
p54
aS"(5958, u'(?i)(rats|rat)')"
p55
aS"(3522, u'(?i)(tetras|tetra)')"
p56
aS"(1414, u'(?i)(chars|char)')"
p57
aS"(821, u'(?i)(lice|louse)')"
p58
aS"(7552, u'(?i)(bats|bat)')"
p59
atp60
Rp61
sb.