(ifile_types
ParseObject
p0
(dp1
S'methods'
p2
c__builtin__
set
p3
((lp4
S'Method.ANTAGONIST'
p5
aS'Method.AGONIST'
p6
atp7
Rp8
sS'topics'
p9
g3
((lp10
S"(29, u'\\\\bhyperactiv')"
p11
aS"(4, u'\\\\btreatment')"
p12
atp13
Rp14
sS'receptors'
p15
g3
((lp16
(S'5ht2a'
p17
I2060
I2066
tp18
a(S'5ht1'
p19
I459
I464
tp20
a(S'5ht1b'
p21
I451
I457
tp22
a(S'5ht2c'
p23
I1550
I1556
tp24
a(S'5ht2a'
p25
I1437
I1443
tp26
a(S'5ht2'
p27
I474
I479
tp28
a(S'5ht5'
p29
I323
I333
tp30
a(S'5ht2a'
p31
I1530
I1536
tp32
a(S'5ht2c'
p33
I991
I999
tp34
a(S'5ht2a'
p35
I1996
I2002
tp36
a(S'5ht2c'
p37
I928
I936
tp38
a(S'5ht1b'
p39
I928
I934
tp40
a(S'5ht1b'
p41
I1427
I1433
tp42
a(S'5ht1b'
p43
I1522
I1528
tp44
a(S'5ht2a'
p45
I991
I997
tp46
atp47
Rp48
sS'raw_text_methods'
p49
g3
((lp50
S"(13, u'\\\\bagonist')"
p51
aS"(49, u'\\\\bdoi')"
p52
aS"(33, u'\\\\bmcpp')"
p53
aS"(12, u'\\\\bantagonist')"
p54
atp55
Rp56
sS'regions'
p57
g3
((lp58
S"(14, u'(?i)\\\\b(caudals|caudal)\\\\b')"
p59
atp60
Rp61
sS'year'
p62
V1994
p63
sS'species'
p64
g3
((lp65
S"(4, u'(?i)\\\\b(rats|rat)\\\\b')"
p66
atp67
Rp68
sb.