(ifile_types
ParseObject
p0
(dp1
S'antagonists'
p2
c__builtin__
set
p3
((lp4
tp5
Rp6
sS'methods'
p7
g3
((lp8
S'Method.ANTAGONIST'
p9
aS'Method.AGONIST'
p10
atp11
Rp12
sS'topics'
p13
g3
((lp14
S"(35, u'\\\\bstress')"
p15
atp16
Rp17
sS'receptors'
p18
g3
((lp19
S'5ht5'
p20
aS'5ht4'
p21
aS'5ht4a'
p22
aS'5ht4b'
p23
aS'5ht4e'
p24
aS'5ht4f'
p25
atp26
Rp27
sS'regions'
p28
g3
((lp29
S"(195, u'(?i)\\\\b(telencephalons|telencephalon)\\\\b')"
p30
aS"(362, u'(?i)\\\\b(brains|brain)(-|\\\\s+)?(stems|stem)\\\\b')"
p31
atp32
Rp33
sS'year'
p34
V2012
p35
sS'agonists'
p36
g3
((lp37
tp38
Rp39
sS'species'
p40
g3
((lp41
S"(163, u'(?i)\\\\b(mice|mouse)\\\\b')"
p42
atp43
Rp44
sb.