(ifile_types
ParseObject
p0
(dp1
S'methods'
p2
c__builtin__
set
p3
((lp4
S'Method.ANTAGONIST'
p5
atp6
Rp7
sS'topics'
p8
g3
((lp9
tp10
Rp11
sS'receptors'
p12
g3
((lp13
(S'5ht1a'
p14
I1241
I1247
tp15
a(S'5ht1a'
p16
I983
I989
tp17
a(S'5ht2'
p18
I490
I495
tp19
a(S'5ht2'
p20
I1602
I1607
tp21
a(S'5ht1a'
p22
I478
I484
tp23
a(S'5ht2'
p24
I44
I49
tp25
a(S'5ht2'
p26
I1029
I1034
tp27
atp28
Rp29
sS'raw_text_methods'
p30
g3
((lp31
S"(11, u'\\\\bfluoxetine')"
p32
aS"(38, u'\\\\bssri')"
p33
aS"(39, u'\\\\bselective serotonin reuptake inhibitor')"
p34
aS"(12, u'\\\\bantagonist')"
p35
atp36
Rp37
sS'regions'
p38
g3
((lp39
tp40
Rp41
sS'year'
p42
V2008
p43
sS'species'
p44
g3
((lp45
S"(4, u'(?i)\\\\b(rats|rat)\\\\b')"
p46
atp47
Rp48
sb.