(ifile_types
ParseObject
p0
(dp1
S'antagonists'
p2
c__builtin__
set
p3
((lp4
tp5
Rp6
sS'methods'
p7
g3
((lp8
S'Method.AGONIST'
p9
atp10
Rp11
sS'topics'
p12
g3
((lp13
S"(10, u'\\\\banxiety')"
p14
atp15
Rp16
sS'receptors'
p17
g3
((lp18
S'5ht1a'
p19
atp20
Rp21
sS'regions'
p22
g3
((lp23
S"(209, u'(?i)\\\\b(amygdalas|amygdala)\\\\b')"
p24
aS"(318, u'(?i)\\\\b(raphes|raphe)(-|\\\\s+)?(nuclei|nucleus)\\\\b')"
p25
aS"(217, u'(?i)\\\\b(beds|bed)(-|\\\\s+)?(nuclei|nucleus)(-|\\\\s+)?(ofs|of)(-|\\\\s+)?(thes|the)(-|\\\\s+)?(strias|stria)(-|\\\\s+)?(terminali|terminalis)\\\\b')"
p26
aS"(159, u'(?i)\\\\b(paraventriculars|paraventricular)(-|\\\\s+)?(nuclei|nucleus)\\\\b')"
p27
aS"(216, u'(?i)\\\\b(strias|stria)(-|\\\\s+)?(terminali|terminalis)\\\\b')"
p28
aS"(94, u'(?i)\\\\b(dorsals|dorsal)(-|\\\\s+)?(raphes|raphe)(-|\\\\s+)?(nuclei|nucleus)\\\\b')"
p29
atp30
Rp31
sS'year'
p32
V1996
p33
sS'agonists'
p34
g3
((lp35
S"(39, u'\\\\bflesinoxan')"
p36
atp37
Rp38
sS'species'
p39
g3
((lp40
S"(7058, u'(?i)\\\\b(does|doe)\\\\b')"
p41
aS"(5958, u'(?i)\\\\b(rats|rat)\\\\b')"
p42
atp43
Rp44
sb.