(ifile_types
ParseObject
p0
(dp1
S'methods'
p2
c__builtin__
set
p3
((lp4
S'Method.ANTAGONIST'
p5
aS'Method.AGONIST'
p6
atp7
Rp8
sS'topics'
p9
g3
((lp10
S"(23, u'\\\\bantipsychotic')"
p11
aS"(3, u'\\\\bclinical')"
p12
atp13
Rp14
sS'receptors'
p15
g3
((lp16
(S'5ht1a'
p17
I85
I91
tp18
a(S'5ht1a'
p19
I403
I409
tp20
a(S'5ht1a'
p21
I681
I687
tp22
atp23
Rp24
sS'raw_text_methods'
p25
g3
((lp26
S"(13, u'\\\\bagonist')"
p27
aS"(40, u'\\\\bclozapine')"
p28
aS"(12, u'\\\\bantagonist')"
p29
atp30
Rp31
sS'regions'
p32
g3
((lp33
tp34
Rp35
sS'year'
p36
V1999
p37
sS'species'
p38
g3
((lp39
tp40
Rp41
sb.