(ifile_types
ParseObject
p0
(dp1
S'methods'
p2
c__builtin__
set
p3
((lp4
S'Method.AGONIST'
p5
atp6
Rp7
sS'topics'
p8
g3
((lp9
S"(26, u'\\\\bbehav')"
p10
atp11
Rp12
sS'receptors'
p13
g3
((lp14
(S'5ht1a'
p15
I1878
I1884
tp16
a(S'5ht5'
p17
I201
I211
tp18
a(S'5ht1a'
p19
I635
I641
tp20
atp21
Rp22
sS'raw_text_methods'
p23
g3
((lp24
S"(13, u'\\\\bagonist')"
p25
aS"(15, u'\\\\b8ohdpat')"
p26
aS"(11, u'\\\\bfluoxetine')"
p27
aS"(39, u'\\\\bselective serotonin reuptake inhibitor')"
p28
atp29
Rp30
sS'regions'
p31
g3
((lp32
S"(8, u'(?i)\\\\b(centrals|central)(-|\\\\s+)?(nervouses|nervous)(-|\\\\s+)?(systems|system)\\\\b')"
p33
aS"(23, u'(?i)\\\\b(forebrains|forebrain)\\\\b')"
p34
atp35
Rp36
sS'year'
p37
V2004
p38
sS'species'
p39
g3
((lp40
S"(2, u'(?i)\\\\b(females|female)\\\\b')"
p41
aS"(3, u'(?i)\\\\b(males|male)\\\\b')"
p42
aS"(4, u'(?i)\\\\b(rats|rat)\\\\b')"
p43
atp44
Rp45
sb.