(ifile_types
ParseObject
p0
(dp1
S'methods'
p2
c__builtin__
set
p3
((lp4
S'Method.ANTAGONIST'
p5
atp6
Rp7
sS'topics'
p8
g3
((lp9
tp10
Rp11
sS'receptors'
p12
g3
((lp13
(S'5ht1'
p14
I711
I716
tp15
a(S'5ht1'
p16
I858
I863
tp17
a(S'5ht1e'
p18
I817
I823
tp19
a(S'5ht1'
p20
I552
I557
tp21
a(S'5ht2'
p22
I1068
I1073
tp23
atp24
Rp25
sS'raw_text_methods'
p26
g3
((lp27
S"(12, u'\\\\bantagonist')"
p28
atp29
Rp30
sS'regions'
p31
g3
((lp32
tp33
Rp34
sS'year'
p35
V1989
p36
sS'species'
p37
g3
((lp38
tp39
Rp40
sb.