(ifile_types
ParseObject
p0
(dp1
S'antagonists'
p2
c__builtin__
set
p3
((lp4
S"(135, u'\\\\bondansetron')"
p5
atp6
Rp7
sS'methods'
p8
g3
((lp9
S'Method.ANTAGONIST'
p10
atp11
Rp12
sS'topics'
p13
g3
((lp14
tp15
Rp16
sS'receptors'
p17
g3
((lp18
S'5ht3a'
p19
aS'5ht3'
p20
atp21
Rp22
sS'regions'
p23
g3
((lp24
S"(209, u'(?i)(amygdalas|amygdala)')"
p25
aS"(91, u'(?i)(periaqueductals|periaqueductal)(-|\\\\s+)?(grays|gray)')"
p26
aS"(34, u'(?i)(pon|pons)')"
p27
atp28
Rp29
sS'year'
p30
V2009
p31
sS'agonists'
p32
g3
((lp33
tp34
Rp35
sS'species'
p36
g3
((lp37
S"(2323, u'(?i)(bees|bee)')"
p38
aS"(6753, u'(?i)(da|das)')"
p39
aS"(5958, u'(?i)(rats|rat)')"
p40
aS"(702, u'(?i)(genets|genet)')"
p41
aS"(163, u'(?i)(mice|mouse)')"
p42
aS"(6391, u'(?i)(asses|ass)')"
p43
aS"(479, u'(?i)(lings|ling)')"
p44
aS"(4177, u'(?i)(grays|gray)')"
p45
aS"(468, u'(?i)(oxen|ox)')"
p46
aS"(1055, u'(?i)(men|man)')"
p47
aS"(6249, u'(?i)(ants|ant)')"
p48
aS"(2665, u'(?i)(rays|ray)')"
p49
aS"(4979, u'(?i)(cats|cat)')"
p50
aS"(3550, u'(?i)(anis|ani)')"
p51
aS"(1057, u'(?i)(humans|human)')"
p52
aS"(5917, u'(?i)(roaches|roach)')"
p53
aS"(1961, u'(?i)(pens|pen)')"
p54
aS"(3812, u'(?i)(studs|stud)')"
p55
aS"(3196, u'(?i)(human|humans)')"
p56
aS"(2809, u'(?i)(toms|tom)')"
p57
aS"(6356, u'(?i)(ais|ai)')"
p58
atp59
Rp60
sb.