(ifile_types
ParseObject
p0
(dp1
S'methods'
p2
c__builtin__
set
p3
((lp4
S'Method.ANTAGONIST'
p5
aS'Method.AGONIST'
p6
atp7
Rp8
sS'topics'
p9
g3
((lp10
S"(30, u'\\\\bpain')"
p11
atp12
Rp13
sS'receptors'
p14
g3
((lp15
(S'5ht3'
p16
I2041
I2046
tp17
a(S'5ht1a'
p18
I1031
I1037
tp19
a(S'5ht1'
p20
I2024
I2029
tp21
a(S'5ht2'
p22
I538
I543
tp23
a(S'5ht1b'
p24
I1070
I1076
tp25
a(S'5ht2'
p26
I73
I78
tp27
a(S'5ht3'
p28
I548
I553
tp29
a(S'5ht1'
p30
I66
I71
tp31
a(S'5ht1'
p32
I531
I536
tp33
a(S'5ht3'
p34
I83
I88
tp35
a(S'5ht5'
p36
I313
I323
tp37
a(S'5ht2'
p38
I2031
I2036
tp39
a(S'5ht3'
p40
I1174
I1179
tp41
a(S'5ht2'
p42
I1108
I1113
tp43
atp44
Rp45
sS'raw_text_methods'
p46
g3
((lp47
S"(53, u'\\\\bketanserin')"
p48
aS"(23, u'\\\\bmdl')"
p49
aS"(26, u'\\\\bmdl72222')"
p50
aS"(52, u'\\\\bmk212')"
p51
aS"(15, u'\\\\b8ohdpat')"
p52
aS"(13, u'\\\\bagonist')"
p53
aS"(8, u'\\\\bru24969')"
p54
aS"(30, u'\\\\b2methyl')"
p55
aS"(49, u'\\\\bdoi')"
p56
aS"(12, u'\\\\bantagonist')"
p57
atp58
Rp59
sS'regions'
p60
g3
((lp61
tp62
Rp63
sS'year'
p64
V1991
p65
sS'species'
p66
g3
((lp67
S"(4, u'(?i)\\\\b(rats|rat)\\\\b')"
p68
atp69
Rp70
sb.