(ifile_types
ParseObject
p0
(dp1
S'methods'
p2
c__builtin__
set
p3
((lp4
S'Method.ANTAGONIST'
p5
atp6
Rp7
sS'topics'
p8
g3
((lp9
tp10
Rp11
sS'receptors'
p12
g3
((lp13
(S'5ht2a'
p14
I331
I337
tp15
atp16
Rp17
sS'raw_text_methods'
p18
g3
((lp19
S"(12, u'\\\\bantagonist')"
p20
atp21
Rp22
sS'regions'
p23
g3
((lp24
S"(4, u'(?i)\\\\b(presynaptics|presynaptic)\\\\b')"
p25
aS"(3, u'(?i)\\\\b(postsynaptics|postsynaptic)\\\\b')"
p26
atp27
Rp28
sS'year'
p29
V1996
p30
sS'species'
p31
g3
((lp32
S"(1, u'(?i)\\\\b(mice|mouse)\\\\b')"
p33
aS"(5, u'(?i)\\\\b(mices|mice)\\\\b')"
p34
atp35
Rp36
sb.