(ifile_types
ParseObject
p0
(dp1
S'methods'
p2
c__builtin__
set
p3
((lp4
S'Method.ANTAGONIST'
p5
atp6
Rp7
sS'topics'
p8
g3
((lp9
tp10
Rp11
sS'receptors'
p12
g3
((lp13
(S'5ht1a'
p14
I857
I863
tp15
a(S'5ht1a'
p16
I240
I246
tp17
a(S'5ht1a'
p18
I387
I393
tp19
a(S'5ht1a'
p20
I630
I636
tp21
a(S'5ht1a'
p22
I82
I88
tp23
atp24
Rp25
sS'raw_text_methods'
p26
g3
((lp27
S"(15, u'\\\\b8ohdpat')"
p28
aS"(34, u'\\\\b5ct')"
p29
aS"(12, u'\\\\bantagonist')"
p30
atp31
Rp32
sS'regions'
p33
g3
((lp34
S"(16, u'(?i)\\\\b(drns|drn)\\\\b')"
p35
atp36
Rp37
sS'year'
p38
V1996
p39
sS'species'
p40
g3
((lp41
tp42
Rp43
sb.