(ifile_types
ParseObject
p0
(dp1
S'methods'
p2
c__builtin__
set
p3
((lp4
S'Method.ANTAGONIST'
p5
aS'Method.AGONIST'
p6
atp7
Rp8
sS'topics'
p9
g3
((lp10
S"(24, u'\\\\banxiolytic')"
p11
aS"(13, u'\\\\bantidepress')"
p12
aS"(25, u'\\\\bsocial')"
p13
aS"(7, u'\\\\bdepressi')"
p14
aS"(9, u'\\\\bstress')"
p15
aS"(20, u'\\\\bmood')"
p16
aS"(6, u'\\\\baggressi')"
p17
aS"(26, u'\\\\bbehav')"
p18
aS"(8, u'\\\\banxi')"
p19
atp20
Rp21
sS'receptors'
p22
g3
((lp23
(S'5ht2c'
p24
I1561
I1567
tp25
a(S'5ht2b'
p26
I684
I690
tp27
a(S'5ht2c'
p28
I1190
I1196
tp29
a(S'5ht2c'
p30
I45
I51
tp31
a(S'5ht2b'
p32
I1014
I1020
tp33
a(S'5ht2a'
p34
I803
I809
tp35
a(S'5ht2c'
p36
I223
I229
tp37
a(S'5ht2c'
p38
I670
I676
tp39
a(S'5ht2c'
p40
I965
I971
tp41
a(S'5ht2c'
p42
I2062
I2068
tp43
atp44
Rp45
sS'raw_text_methods'
p46
g3
((lp47
S"(13, u'\\\\bagonist')"
p48
aS"(12, u'\\\\bantagonist')"
p49
atp50
Rp51
sS'regions'
p52
g3
((lp53
S"(19, u'(?i)\\\\b(cortexes|cortex)\\\\b')"
p54
atp55
Rp56
sS'year'
p57
V2008
p58
sS'species'
p59
g3
((lp60
S"(1, u'(?i)\\\\b(mice|mouse)\\\\b')"
p61
aS"(6, u'(?i)\\\\b(rodents|rodent)\\\\b')"
p62
aS"(5, u'(?i)\\\\b(mices|mice)\\\\b')"
p63
aS"(4, u'(?i)\\\\b(rats|rat)\\\\b')"
p64
atp65
Rp66
sb.