(ifile_types
ParseObject
p0
(dp1
S'methods'
p2
c__builtin__
set
p3
((lp4
S'Method.ANTAGONIST'
p5
aS'Method.AGONIST'
p6
atp7
Rp8
sS'topics'
p9
g3
((lp10
tp11
Rp12
sS'receptors'
p13
g3
((lp14
(S'5ht3'
p15
I890
I895
tp16
a(S'5ht4'
p17
I429
I434
tp18
a(S'5ht4'
p19
I1743
I1748
tp20
a(S'5ht3'
p21
I1425
I1430
tp22
a(S'5ht4'
p23
I285
I290
tp24
a(S'5ht4'
p25
I1143
I1148
tp26
a(S'5ht4'
p27
I615
I620
tp28
a(S'5ht3'
p29
I275
I280
tp30
a(S'5ht4'
p31
I90
I95
tp32
a(S'5ht4'
p33
I1435
I1440
tp34
a(S'5ht3'
p35
I80
I85
tp36
a(S'5ht3'
p37
I1537
I1542
tp38
atp39
Rp40
sS'raw_text_methods'
p41
g3
((lp42
S"(13, u'\\\\bagonist')"
p43
aS"(12, u'\\\\bantagonist')"
p44
atp45
Rp46
sS'regions'
p47
g3
((lp48
tp49
Rp50
sS'year'
p51
V1993
p52
sS'species'
p53
g3
((lp54
S"(7, u'(?i)\\\\b(guineas|guinea)(-|\\\\s+)?(pigs|pig)\\\\b')"
p55
aS"(4, u'(?i)\\\\b(rats|rat)\\\\b')"
p56
atp57
Rp58
sb.