(ifile_types
ParseObject
p0
(dp1
S'methods'
p2
c__builtin__
set
p3
((lp4
S'Method.ANTAGONIST'
p5
aS'Method.AGONIST'
p6
atp7
Rp8
sS'topics'
p9
g3
((lp10
S"(29, u'\\\\bhyperactiv')"
p11
aS"(13, u'\\\\bantidepress')"
p12
aS"(26, u'\\\\bbehav')"
p13
aS"(4, u'\\\\btreatment')"
p14
aS"(3, u'\\\\bclinical')"
p15
atp16
Rp17
sS'receptors'
p18
g3
((lp19
(S'5ht1a'
p20
I449
I455
tp21
a(S'5ht1a'
p22
I58
I64
tp23
a(S'5ht1a'
p24
I2092
I2098
tp25
a(S'5ht1a'
p26
I856
I862
tp27
a(S'5ht1a'
p28
I939
I945
tp29
a(S'5ht1a'
p30
I242
I248
tp31
a(S'5ht1a'
p32
I1776
I1782
tp33
atp34
Rp35
sS'raw_text_methods'
p36
g3
((lp37
S"(15, u'\\\\b8ohdpat')"
p38
aS"(13, u'\\\\bagonist')"
p39
aS"(51, u'\\\\bway100635')"
p40
aS"(38, u'\\\\bssri')"
p41
aS"(39, u'\\\\bselective serotonin reuptake inhibitor')"
p42
aS"(12, u'\\\\bantagonist')"
p43
atp44
Rp45
sS'regions'
p46
g3
((lp47
tp48
Rp49
sS'year'
p50
V1999
p51
sS'species'
p52
g3
((lp53
S"(4, u'(?i)\\\\b(rats|rat)\\\\b')"
p54
atp55
Rp56
sb.