(ifile_types
ParseObject
p0
(dp1
S'methods'
p2
c__builtin__
set
p3
((lp4
S'Method.PET'
p5
aS'Method.ANTAGONIST'
p6
atp7
Rp8
sS'topics'
p9
g3
((lp10
tp11
Rp12
sS'receptors'
p13
g3
((lp14
(S'5ht2a'
p15
I1264
I1270
tp16
a(S'5ht2a'
p17
I390
I396
tp18
a(S'5ht2a'
p19
I246
I252
tp20
a(S'5ht2a'
p21
I1919
I1925
tp22
a(S'5ht2a'
p23
I101
I107
tp24
atp25
Rp26
sS'raw_text_methods'
p27
g3
((lp28
S"(17, u'\\\\bpet')"
p29
aS"(23, u'\\\\bmdl')"
p30
aS"(2, u'\\\\blabeling')"
p31
aS"(54, u'\\\\bautoradiography')"
p32
aS"(18, u'\\\\bimaging')"
p33
aS"(12, u'\\\\bantagonist')"
p34
atp35
Rp36
sS'regions'
p37
g3
((lp38
S"(19, u'(?i)\\\\b(cortexes|cortex)\\\\b')"
p39
aS"(9, u'(?i)\\\\b(cerebellums|cerebellum)\\\\b')"
p40
atp41
Rp42
sS'year'
p43
V2010
p44
sS'species'
p45
g3
((lp46
S"(4, u'(?i)\\\\b(rats|rat)\\\\b')"
p47
atp48
Rp49
sb.