(ifile_types
ParseObject
p0
(dp1
S'methods'
p2
c__builtin__
set
p3
((lp4
tp5
Rp6
sS'topics'
p7
g3
((lp8
S"(31, u'\\\\brespiratory')"
p9
aS"(26, u'\\\\bbehav')"
p10
atp11
Rp12
sS'receptors'
p13
g3
((lp14
(S'5ht5'
p15
I880
I885
tp16
a(S'5ht2c'
p17
I1435
I1443
tp18
a(S'5ht2a'
p19
I1435
I1441
tp20
atp21
Rp22
sS'raw_text_methods'
p23
g3
((lp24
S"(49, u'\\\\bdoi')"
p25
atp26
Rp27
sS'regions'
p28
g3
((lp29
tp30
Rp31
sS'year'
p32
V2010
p33
sS'species'
p34
g3
((lp35
S"(4, u'(?i)\\\\b(rats|rat)\\\\b')"
p36
atp37
Rp38
sb.