(ifile_types
ParseObject
p0
(dp1
S'antagonists'
p2
c__builtin__
set
p3
((lp4
tp5
Rp6
sS'methods'
p7
g3
((lp8
S'Method.PET'
p9
atp10
Rp11
sS'topics'
p12
g3
((lp13
S"(18, u'\\\\bpsychostim')"
p14
aS"(6, u'\\\\bcognit')"
p15
atp16
Rp17
sS'receptors'
p18
g3
((lp19
S'5ht5'
p20
aS'5ht1a'
p21
atp22
Rp23
sS'regions'
p24
g3
((lp25
S"(318, u'(?i)(raphes|raphe)(-|\\\\s+)?(nuclei|nucleus)')"
p26
aS"(84, u'(?i)(mesencephalons|mesencephalon)')"
p27
aS"(118, u'(?i)(diencephalons|diencephalon)')"
p28
aS"(94, u'(?i)(dorsals|dorsal)(-|\\\\s+)?(raphes|raphe)(-|\\\\s+)?(nuclei|nucleus)')"
p29
atp30
Rp31
sS'year'
p32
V2007
p33
sS'agonists'
p34
g3
((lp35
S"(153, u'\\\\bmdma')"
p36
aS"(155, u'\\\\bmem')"
p37
atp38
Rp39
sS'species'
p40
g3
((lp41
S"(1070, u'(?i)(pets|pet)')"
p42
aS"(2323, u'(?i)(bees|bee)')"
p43
aS"(5799, u'(?i)(rodents|rodent)')"
p44
aS"(5958, u'(?i)(rats|rat)')"
p45
aS"(7609, u'(?i)(erns|ern)')"
p46
aS"(2401, u'(?i)(primates|primate)')"
p47
aS"(6753, u'(?i)(da|das)')"
p48
aS"(6682, u'(?i)(tera|teras)')"
p49
aS"(3051, u'(?i)(pigs|pig)')"
p50
aS"(468, u'(?i)(oxen|ox)')"
p51
aS"(1055, u'(?i)(men|man)')"
p52
aS"(3726, u'(?i)(mates|mate)')"
p53
aS"(6356, u'(?i)(ais|ai)')"
p54
aS"(3550, u'(?i)(anis|ani)')"
p55
aS"(1057, u'(?i)(humans|human)')"
p56
aS"(6391, u'(?i)(asses|ass)')"
p57
aS"(3812, u'(?i)(studs|stud)')"
p58
aS"(3196, u'(?i)(human|humans)')"
p59
aS"(2809, u'(?i)(toms|tom)')"
p60
aS"(1683, u'(?i)(terns|tern)')"
p61
aS"(6249, u'(?i)(ants|ant)')"
p62
atp63
Rp64
sb.