(ifile_types
ParseObject
p0
(dp1
S'methods'
p2
c__builtin__
set
p3
((lp4
S'Method.ANTAGONIST'
p5
atp6
Rp7
sS'topics'
p8
g3
((lp9
S"(13, u'\\\\bantidepress')"
p10
aS"(7, u'\\\\bdepressi')"
p11
aS"(12, u'\\\\bsleep')"
p12
aS"(8, u'\\\\banxi')"
p13
aS"(1, u'\\\\bpatient')"
p14
aS"(4, u'\\\\btreatment')"
p15
aS"(3, u'\\\\bclinical')"
p16
atp17
Rp18
sS'receptors'
p19
g3
((lp20
(S'5ht1'
p21
I486
I491
tp22
a(S'5ht5'
p23
I297
I307
tp24
a(S'5ht2'
p25
I388
I393
tp26
atp27
Rp28
sS'raw_text_methods'
p29
g3
((lp30
S"(12, u'\\\\bantagonist')"
p31
atp32
Rp33
sS'regions'
p34
g3
((lp35
tp36
Rp37
sS'year'
p38
V1995
p39
sS'species'
p40
g3
((lp41
tp42
Rp43
sb.