(ifile_types
ParseObject
p0
(dp1
S'methods'
p2
c__builtin__
set
p3
((lp4
S'Method.ANTAGONIST'
p5
aS'Method.AGONIST'
p6
atp7
Rp8
sS'topics'
p9
g3
((lp10
tp11
Rp12
sS'receptors'
p13
g3
((lp14
(S'5ht2'
p15
I32
I36
tp16
a(S'5ht2'
p17
I546
I550
tp18
a(S'5ht2b'
p19
I1103
I1108
tp20
a(S'5ht2'
p21
I648
I652
tp22
a(S'5ht2'
p23
I803
I807
tp24
a(S'5ht2c'
p25
I1103
I1109
tp26
a(S'5ht2b'
p27
I1205
I1210
tp28
a(S'5ht2b'
p29
I1093
I1098
tp30
a(S'5ht2c'
p31
I1205
I1211
tp32
a(S'5ht2'
p33
I1757
I1761
tp34
a(S'5ht2'
p35
I391
I395
tp36
atp37
Rp38
sS'raw_text_methods'
p39
g3
((lp40
S"(13, u'\\\\bagonist')"
p41
aS"(33, u'\\\\bmcpp')"
p42
aS"(12, u'\\\\bantagonist')"
p43
atp44
Rp45
sS'regions'
p46
g3
((lp47
S"(3, u'(?i)\\\\b(postsynaptics|postsynaptic)\\\\b')"
p48
atp49
Rp50
sS'year'
p51
V2008
p52
sS'species'
p53
g3
((lp54
tp55
Rp56
sb.