(ifile_types
ParseObject
p0
(dp1
S'antagonists'
p2
c__builtin__
set
p3
((lp4
S"(135, u'\\\\bondansetron')"
p5
aS"(139, u'\\\\bmetoclopramide')"
p6
atp7
Rp8
sS'methods'
p9
g3
((lp10
S'Method.ANTAGONIST'
p11
atp12
Rp13
sS'topics'
p14
g3
((lp15
S"(32, u'\\\\bnausea')"
p16
aS"(28, u'\\\\bemesis')"
p17
atp18
Rp19
sS'receptors'
p20
g3
((lp21
S'5ht5'
p22
aS'5ht3'
p23
atp24
Rp25
sS'regions'
p26
g3
((lp27
S"(34, u'(?i)(pon|pons)')"
p28
aS"(27, u'(?i)(areas|area)(-|\\\\s+)?(postremas|postrema)')"
p29
atp30
Rp31
sS'year'
p32
V1991
p33
sS'agonists'
p34
g3
((lp35
S"(181, u'\\\\bdom')"
p36
aS"(213, u'\\\\bmetoclopramide')"
p37
atp38
Rp39
sS'species'
p40
g3
((lp41
S"(2323, u'(?i)(bees|bee)')"
p42
aS"(2054, u'(?i)(heads|head)')"
p43
aS"(6753, u'(?i)(da|das)')"
p44
aS"(3015, u'(?i)(ferrets|ferret)')"
p45
aS"(4201, u'(?i)(kines|kine)')"
p46
aS"(468, u'(?i)(oxen|ox)')"
p47
aS"(1055, u'(?i)(men|man)')"
p48
aS"(6249, u'(?i)(ants|ant)')"
p49
aS"(1349, u'(?i)(rams|ram)')"
p50
aS"(853, u'(?i)(minas|mina)')"
p51
aS"(5958, u'(?i)(rats|rat)')"
p52
aS"(6981, u'(?i)(moths|moth)')"
p53
aS"(4371, u'(?i)(lizas|liza)')"
p54
aS"(3812, u'(?i)(studs|stud)')"
p55
aS"(2809, u'(?i)(toms|tom)')"
p56
aS"(4074, u'(?i)(bulls|bull)')"
p57
aS"(6356, u'(?i)(ais|ai)')"
p58
atp59
Rp60
sb.