(ifile_types
ParseObject
p0
(dp1
S'antagonists'
p2
c__builtin__
set
p3
((lp4
S"(42, u'\\\\bvortioxetine')"
p5
atp6
Rp7
sS'methods'
p8
g3
((lp9
S'Method.STIMULATION'
p10
aS'Method.ANTAGONIST'
p11
aS'Method.AGONIST'
p12
atp13
Rp14
sS'topics'
p15
g3
((lp16
S"(9, u'\\\\bdepress')"
p17
aS"(1, u'\\\\bmood')"
p18
atp19
Rp20
sS'receptors'
p21
g3
((lp22
S'5ht7'
p23
aS'5ht1b'
p24
aS'5ht1a'
p25
aS'5ht3a'
p26
aS'5ht1d'
p27
aS'5ht3'
p28
atp29
Rp30
sS'regions'
p31
g3
((lp32
S"(236, u'(?i)\\\\b(septals|septal)(-|\\\\s+)?(nuclei|nucleus)\\\\b')"
p33
aS"(226, u'(?i)\\\\b(nuclei|nucleus)(-|\\\\s+)?(accumben|accumbens)\\\\b')"
p34
aS"(254, u'(?i)\\\\b(prefrontals|prefrontal)(-|\\\\s+)?(cortexes|cortex)\\\\b')"
p35
aS"(291, u'(?i)\\\\b(cingulates|cingulate)(-|\\\\s+)?(cortexes|cortex)\\\\b')"
p36
aS"(292, u'(?i)\\\\b(anteriors|anterior)(-|\\\\s+)?(cingulates|cingulate)\\\\b')"
p37
aS"(255, u'(?i)\\\\b(pres|pre)(-|\\\\s+)?(frontals|frontal)(-|\\\\s+)?(cortexes|cortex)\\\\b')"
p38
atp39
Rp40
sS'year'
p41
V2017
p42
sS'agonists'
p43
g3
((lp44
S"(94, u'\\\\bvortioxetine')"
p45
atp46
Rp47
sS'species'
p48
g3
((lp49
S"(5958, u'(?i)\\\\b(rats|rat)\\\\b')"
p50
atp51
Rp52
sb.