(ifile_types
ParseObject
p0
(dp1
S'methods'
p2
c__builtin__
set
p3
((lp4
S'Method.STIMULATION'
p5
aS'Method.AGONIST'
p6
atp7
Rp8
sS'topics'
p9
g3
((lp10
tp11
Rp12
sS'receptors'
p13
g3
((lp14
(S'5ht1a'
p15
I117
I128
tp16
a(S'5ht1a'
p17
I349
I355
tp18
a(S'5ht1a'
p19
I904
I910
tp20
atp21
Rp22
sS'raw_text_methods'
p23
g3
((lp24
S"(13, u'\\\\bagonist')"
p25
aS"(15, u'\\\\b8ohdpat')"
p26
atp27
Rp28
sS'regions'
p29
g3
((lp30
S"(11, u'(?i)\\\\b(cerebrals|cerebral)\\\\b')"
p31
atp32
Rp33
sS'year'
p34
V1996
p35
sS'species'
p36
g3
((lp37
S"(2, u'(?i)\\\\b(females|female)\\\\b')"
p38
aS"(3, u'(?i)\\\\b(males|male)\\\\b')"
p39
aS"(4, u'(?i)\\\\b(rats|rat)\\\\b')"
p40
atp41
Rp42
sb.