(ifile_types
ParseObject
p0
(dp1
S'antagonists'
p2
c__builtin__
set
p3
((lp4
S"(48, u'\\\\btrazodone')"
p5
aS"(49, u'\\\\bnefazodone')"
p6
aS"(91, u'\\\\bfluoxetine')"
p7
aS"(106, u'\\\\bdoxepin')"
p8
aS"(90, u'\\\\betoperidone')"
p9
atp10
Rp11
sS'methods'
p12
g3
((lp13
tp14
Rp15
sS'topics'
p16
g3
((lp17
tp18
Rp19
sS'receptors'
p20
g3
((lp21
S'5ht1a'
p22
atp23
Rp24
sS'regions'
p25
g3
((lp26
tp27
Rp28
sS'year'
p29
V1994
p30
sS'agonists'
p31
g3
((lp32
S"(34, u'\\\\betoperidone')"
p33
aS"(75, u'\\\\btrazodone')"
p34
aS"(56, u'\\\\bnefazodone')"
p35
atp36
Rp37
sS'species'
p38
g3
((lp39
S"(1057, u'(?i)\\\\b(humans|human)\\\\b')"
p40
aS"(3196, u'(?i)\\\\b(human|humans)\\\\b')"
p41
atp42
Rp43
sb.