(ifile_types
ParseObject
p0
(dp1
S'antagonists'
p2
c__builtin__
set
p3
((lp4
tp5
Rp6
sS'methods'
p7
g3
((lp8
S'Method.ANTAGONIST'
p9
atp10
Rp11
sS'topics'
p12
g3
((lp13
S"(9, u'\\\\bdepress')"
p14
atp15
Rp16
sS'receptors'
p17
g3
((lp18
S'5ht2c'
p19
atp20
Rp21
sS'regions'
p22
g3
((lp23
tp24
Rp25
sS'year'
p26
V2007
p27
sS'agonists'
p28
g3
((lp29
tp30
Rp31
sS'species'
p32
g3
((lp33
S"(2323, u'(?i)(bees|bee)')"
p34
aS"(4624, u'(?i)(apes|ape)')"
p35
aS"(2568, u'(?i)(hens|hen)')"
p36
aS"(5958, u'(?i)(rats|rat)')"
p37
aS"(5743, u'(?i)(bots|bot)')"
p38
aS"(6682, u'(?i)(tera|teras)')"
p39
aS"(6249, u'(?i)(ants|ant)')"
p40
aS"(4163, u'(?i)(ermines|ermine)')"
p41
aS"(1055, u'(?i)(men|man)')"
p42
aS"(3726, u'(?i)(mates|mate)')"
p43
aS"(1349, u'(?i)(rams|ram)')"
p44
aS"(4979, u'(?i)(cats|cat)')"
p45
aS"(3550, u'(?i)(anis|ani)')"
p46
aS"(7094, u'(?i)(curs|cur)')"
p47
aS"(5917, u'(?i)(roaches|roach)')"
p48
aS"(3812, u'(?i)(studs|stud)')"
p49
aS"(5537, u'(?i)(hippos|hippo)')"
p50
aS"(6356, u'(?i)(ais|ai)')"
p51
atp52
Rp53
sb.