(ifile_types
ParseObject
p0
(dp1
S'antagonists'
p2
c__builtin__
set
p3
((lp4
S"(123, u'\\\\bclozapine')"
p5
aS"(56, u'\\\\bclozapine')"
p6
atp7
Rp8
sS'methods'
p9
g3
((lp10
S'Method.KNOCKOUT'
p11
aS'Method.AGONIST'
p12
atp13
Rp14
sS'topics'
p15
g3
((lp16
S"(15, u'\\\\bschizophreni')"
p17
aS"(14, u'\\\\bpsychosis')"
p18
atp19
Rp20
sS'receptors'
p21
g3
((lp22
S'5ht5'
p23
aS'5ht2a'
p24
atp25
Rp26
sS'regions'
p27
g3
((lp28
S"(34, u'(?i)(pon|pons)')"
p29
atp30
Rp31
sS'year'
p32
V2019
p33
sS'agonists'
p34
g3
((lp35
S"(27, u'\\\\bclozapine')"
p36
atp37
Rp38
sS'species'
p39
g3
((lp40
S"(4624, u'(?i)(apes|ape)')"
p41
aS"(7094, u'(?i)(curs|cur)')"
p42
aS"(6356, u'(?i)(ais|ai)')"
p43
aS"(6249, u'(?i)(ants|ant)')"
p44
aS"(5229, u'(?i)(moles|mole)')"
p45
aS"(3812, u'(?i)(studs|stud)')"
p46
aS"(6391, u'(?i)(asses|ass)')"
p47
aS"(702, u'(?i)(genets|genet)')"
p48
aS"(5743, u'(?i)(bots|bot)')"
p49
aS"(3550, u'(?i)(anis|ani)')"
p50
aS"(5958, u'(?i)(rats|rat)')"
p51
aS"(7609, u'(?i)(erns|ern)')"
p52
aS"(163, u'(?i)(mice|mouse)')"
p53
aS"(6682, u'(?i)(tera|teras)')"
p54
aS"(1055, u'(?i)(men|man)')"
p55
aS"(4604, u'(?i)(mites|mite)')"
p56
aS"(6753, u'(?i)(da|das)')"
p57
aS"(1961, u'(?i)(pens|pen)')"
p58
aS"(5799, u'(?i)(rodents|rodent)')"
p59
aS"(4979, u'(?i)(cats|cat)')"
p60
aS"(3051, u'(?i)(pigs|pig)')"
p61
aS"(3726, u'(?i)(mates|mate)')"
p62
aS"(5917, u'(?i)(roaches|roach)')"
p63
atp64
Rp65
sb.