(ifile_types
ParseObject
p0
(dp1
S'antagonists'
p2
c__builtin__
set
p3
((lp4
S"(32, u'\\\\bway ?100635')"
p5
atp6
Rp7
sS'methods'
p8
g3
((lp9
S'Method.ANTAGONIST'
p10
atp11
Rp12
sS'topics'
p13
g3
((lp14
tp15
Rp16
sS'receptors'
p17
g3
((lp18
S'5ht1a'
p19
atp20
Rp21
sS'regions'
p22
g3
((lp23
S"(318, u'(?i)(raphes|raphe)(-|\\\\s+)?(nuclei|nucleus)')"
p24
aS"(94, u'(?i)(dorsals|dorsal)(-|\\\\s+)?(raphes|raphe)(-|\\\\s+)?(nuclei|nucleus)')"
p25
aS"(34, u'(?i)(pon|pons)')"
p26
atp27
Rp28
sS'year'
p29
V1996
p30
sS'agonists'
p31
g3
((lp32
S"(96, u'\\\\blesopitron')"
p33
aS"(92, u'\\\\b8 ?oh ?dpat')"
p34
aS"(5, u'\\\\b5 ?ct')"
p35
atp36
Rp37
sS'species'
p38
g3
((lp39
S"(1070, u'(?i)(pets|pet)')"
p40
aS"(2323, u'(?i)(bees|bee)')"
p41
aS"(2568, u'(?i)(hens|hen)')"
p42
aS"(867, u'(?i)(tits|tit)')"
p43
aS"(468, u'(?i)(oxen|ox)')"
p44
aS"(1349, u'(?i)(rams|ram)')"
p45
aS"(3404, u'(?i)(titis|titi)')"
p46
aS"(6753, u'(?i)(da|das)')"
p47
aS"(6249, u'(?i)(ants|ant)')"
p48
aS"(5537, u'(?i)(hippos|hippo)')"
p49
atp50
Rp51
sb.