(ifile_types
ParseObject
p0
(dp1
S'methods'
p2
c__builtin__
set
p3
((lp4
S'Method.ANTAGONIST'
p5
atp6
Rp7
sS'topics'
p8
g3
((lp9
S"(13, u'\\\\bantidepress')"
p10
aS"(4, u'\\\\btreatment')"
p11
aS"(3, u'\\\\bclinical')"
p12
atp13
Rp14
sS'receptors'
p15
g3
((lp16
(S'5ht1a'
p17
I345
I351
tp18
a(S'5ht1a'
p19
I803
I809
tp20
a(S'5ht1a'
p21
I1881
I1887
tp22
a(S'5ht1a'
p23
I949
I955
tp24
a(S'5ht1a'
p25
I1214
I1220
tp26
a(S'5ht1b'
p27
I345
I353
tp28
a(S'5ht1a'
p29
I1483
I1489
tp30
a(S'5ht1a'
p31
I2006
I2012
tp32
a(S'5ht1a'
p33
I502
I508
tp34
a(S'5ht1a'
p35
I2247
I2253
tp36
atp37
Rp38
sS'raw_text_methods'
p39
g3
((lp40
S"(15, u'\\\\b8ohdpat')"
p41
aS"(11, u'\\\\bfluoxetine')"
p42
aS"(51, u'\\\\bway100635')"
p43
aS"(38, u'\\\\bssri')"
p44
aS"(39, u'\\\\bselective serotonin reuptake inhibitor')"
p45
aS"(12, u'\\\\bantagonist')"
p46
atp47
Rp48
sS'regions'
p49
g3
((lp50
S"(19, u'(?i)\\\\b(cortexes|cortex)\\\\b')"
p51
aS"(23, u'(?i)\\\\b(forebrains|forebrain)\\\\b')"
p52
atp53
Rp54
sS'year'
p55
V2002
p56
sS'species'
p57
g3
((lp58
tp59
Rp60
sb.