(ifile_types
ParseObject
p0
(dp1
S'antagonists'
p2
c__builtin__
set
p3
((lp4
S"(32, u'\\\\bway ?100635')"
p5
aS"(100, u'\\\\beltoprazine')"
p6
aS"(45, u'\\\\bgr ?127935')"
p7
atp8
Rp9
sS'methods'
p10
g3
((lp11
S'Method.ANTAGONIST'
p12
aS'Method.AGONIST'
p13
atp14
Rp15
sS'topics'
p16
g3
((lp17
S"(17, u'\\\\bgroom')"
p18
aS"(20, u'\\\\baggressi')"
p19
atp20
Rp21
sS'receptors'
p22
g3
((lp23
S'5ht1b'
p24
aS'5ht1a'
p25
aS'5ht5'
p26
aS'5ht1'
p27
atp28
Rp29
sS'regions'
p30
g3
((lp31
S"(34, u'(?i)(pon|pons)')"
p32
atp33
Rp34
sS'year'
p35
V2005
p36
sS'agonists'
p37
g3
((lp38
S"(181, u'\\\\bdom')"
p39
aS"(75, u'\\\\bs ?15535')"
p40
aS"(93, u'\\\\balnespirone')"
p41
aS"(107, u'\\\\bcp ?93129')"
p42
aS"(24, u'\\\\bbuspirone')"
p43
aS"(99, u'\\\\brepinotan')"
p44
aS"(36, u'\\\\beltoprazine')"
p45
aS"(92, u'\\\\b8 ?oh ?dpat')"
p46
aS"(50, u'\\\\bipsapirone')"
p47
atp48
Rp49
sS'species'
p50
g3
((lp51
S"(7094, u'(?i)(curs|cur)')"
p52
aS"(6356, u'(?i)(ais|ai)')"
p53
aS"(6249, u'(?i)(ants|ant)')"
p54
aS"(3196, u'(?i)(human|humans)')"
p55
aS"(3812, u'(?i)(studs|stud)')"
p56
aS"(6391, u'(?i)(asses|ass)')"
p57
aS"(4133, u'(?i)(pikes|pike)')"
p58
aS"(931, u'(?i)(divers|diver)')"
p59
aS"(468, u'(?i)(oxen|ox)')"
p60
aS"(5743, u'(?i)(bots|bot)')"
p61
aS"(3550, u'(?i)(anis|ani)')"
p62
aS"(853, u'(?i)(minas|mina)')"
p63
aS"(6753, u'(?i)(da|das)')"
p64
aS"(5958, u'(?i)(rats|rat)')"
p65
aS"(6682, u'(?i)(tera|teras)')"
p66
aS"(1055, u'(?i)(men|man)')"
p67
aS"(5176, u'(?i)(tegs|teg)')"
p68
aS"(1057, u'(?i)(humans|human)')"
p69
aS"(3601, u'(?i)(efts|eft)')"
p70
aS"(5949, u'(?i)(dogs|dog)')"
p71
aS"(2323, u'(?i)(bees|bee)')"
p72
aS"(2568, u'(?i)(hens|hen)')"
p73
aS"(4979, u'(?i)(cats|cat)')"
p74
aS"(7552, u'(?i)(bats|bat)')"
p75
atp76
Rp77
sb.