(ifile_types
ParseObject
p0
(dp1
S'methods'
p2
c__builtin__
set
p3
((lp4
S'Method.ANTAGONIST'
p5
atp6
Rp7
sS'topics'
p8
g3
((lp9
tp10
Rp11
sS'receptors'
p12
g3
((lp13
(S'5ht7'
p14
I1452
I1457
tp15
a(S'5ht7'
p16
I1136
I1141
tp17
a(S'5ht7'
p18
I1836
I1841
tp19
a(S'5ht7'
p20
I1050
I1055
tp21
a(S'5ht1d'
p22
I1125
I1131
tp23
a(S'5ht1d'
p24
I839
I845
tp25
a(S'5ht2a'
p26
I1441
I1447
tp27
a(S'5ht1f'
p28
I1227
I1233
tp29
a(S'5ht1d'
p30
I1031
I1037
tp31
a(S'5ht1f'
p32
I847
I853
tp33
a(S'5ht1b'
p34
I1601
I1607
tp35
a(S'5ht1b'
p36
I830
I836
tp37
a(S'5ht1'
p38
I830
I836
tp39
a(S'5ht1d'
p40
I1601
I1609
tp41
a(S'5ht2a'
p42
I855
I861
tp43
a(S'5ht1b'
p44
I1195
I1201
tp45
a(S'5ht2a'
p46
I1238
I1244
tp47
atp48
Rp49
sS'raw_text_methods'
p50
g3
((lp51
S"(53, u'\\\\bketanserin')"
p52
aS"(6, u'\\\\bgr127935')"
p53
aS"(47, u'\\\\bsumatriptan')"
p54
aS"(12, u'\\\\bantagonist')"
p55
atp56
Rp57
sS'regions'
p58
g3
((lp59
S"(11, u'(?i)\\\\b(cerebrals|cerebral)\\\\b')"
p60
atp61
Rp62
sS'year'
p63
V1999
p64
sS'species'
p65
g3
((lp66
tp67
Rp68
sb.