(ifile_types
ParseObject
p0
(dp1
S'antagonists'
p2
c__builtin__
set
p3
((lp4
tp5
Rp6
sS'methods'
p7
g3
((lp8
S'Method.AGONIST'
p9
atp10
Rp11
sS'topics'
p12
g3
((lp13
S"(9, u'\\\\bdepress')"
p14
aS"(3, u'\\\\bsleep')"
p15
aS"(1, u'\\\\bmood')"
p16
atp17
Rp18
sS'receptors'
p19
g3
((lp20
S'5ht7'
p21
aS'5ht1a'
p22
atp23
Rp24
sS'regions'
p25
g3
((lp26
S"(158, u'(?i)\\\\b(suprachiasmatics|suprachiasmatic)(-|\\\\s+)?(nuclei|nucleus)\\\\b')"
p27
atp28
Rp29
sS'year'
p30
V2002
p31
sS'agonists'
p32
g3
((lp33
S"(147, u'\\\\bmdma')"
p34
aS"(85, u'\\\\b8 ?oh ?dpat')"
p35
atp36
Rp37
sS'species'
p38
g3
((lp39
S"(1057, u'(?i)\\\\b(humans|human)\\\\b')"
p40
aS"(4099, u'(?i)\\\\b(hamsters|hamster)\\\\b')"
p41
aS"(5217, u'(?i)\\\\b(syrians|syrian)(-|\\\\s+)?(hamsters|hamster)\\\\b')"
p42
aS"(3196, u'(?i)\\\\b(human|humans)\\\\b')"
p43
atp44
Rp45
sb.