(ifile_types
ParseObject
p0
(dp1
S'methods'
p2
c__builtin__
set
p3
((lp4
S'Method.AGONIST'
p5
atp6
Rp7
sS'topics'
p8
g3
((lp9
S"(26, u'\\\\bbehav')"
p10
aS"(2, u'\\\\bdisorder')"
p11
aS"(9, u'\\\\bstress')"
p12
aS"(33, u'\\\\blocomot')"
p13
aS"(1, u'\\\\bpatient')"
p14
aS"(3, u'\\\\bclinical')"
p15
atp16
Rp17
sS'receptors'
p18
g3
((lp19
(S'5ht2a'
p20
I917
I923
tp21
a(S'5ht2a'
p22
I1576
I1582
tp23
a(S'5ht2a'
p24
I581
I592
tp25
a(S'5ht2a'
p26
I595
I601
tp27
a(S'5ht2a'
p28
I75
I81
tp29
atp30
Rp31
sS'raw_text_methods'
p32
g3
((lp33
S"(13, u'\\\\bagonist')"
p34
aS"(49, u'\\\\bdoi')"
p35
atp36
Rp37
sS'regions'
p38
g3
((lp39
tp40
Rp41
sS'year'
p42
V2007
p43
sS'species'
p44
g3
((lp45
S"(4, u'(?i)\\\\b(rats|rat)\\\\b')"
p46
atp47
Rp48
sb.