(ifile_types
ParseObject
p0
(dp1
S'methods'
p2
c__builtin__
set
p3
((lp4
tp5
Rp6
sS'topics'
p7
g3
((lp8
S"(18, u'\\\\bavoidan')"
p9
aS"(5, u'\\\\btherap')"
p10
aS"(26, u'\\\\bbehav')"
p11
aS"(29, u'\\\\bhyperactiv')"
p12
aS"(23, u'\\\\bantipsychotic')"
p13
atp14
Rp15
sS'receptors'
p16
g3
((lp17
(S'5ht2'
p18
I350
I356
tp19
a(S'5ht2a'
p20
I330
I336
tp21
a(S'5ht2c'
p22
I350
I356
tp23
a(S'5ht2'
p24
I330
I336
tp25
atp26
Rp27
sS'raw_text_methods'
p28
g3
((lp29
S"(49, u'\\\\bdoi')"
p30
atp31
Rp32
sS'regions'
p33
g3
((lp34
tp35
Rp36
sS'year'
p37
V2009
p38
sS'species'
p39
g3
((lp40
S"(1, u'(?i)\\\\b(mice|mouse)\\\\b')"
p41
aS"(5, u'(?i)\\\\b(mices|mice)\\\\b')"
p42
aS"(4, u'(?i)\\\\b(rats|rat)\\\\b')"
p43
atp44
Rp45
sb.