(ifile_types
ParseObject
p0
(dp1
S'methods'
p2
c__builtin__
set
p3
((lp4
S'Method.AGONIST'
p5
aS'Method.IMMUNOHISTOCHEMISTRY'
p6
aS'Method.ANTAGONIST'
p7
atp8
Rp9
sS'topics'
p10
g3
((lp11
tp12
Rp13
sS'receptors'
p14
g3
((lp15
(S'5ht2c'
p16
I666
I674
tp17
a(S'5ht2a'
p18
I730
I736
tp19
a(S'5ht2a'
p20
I666
I672
tp21
atp22
Rp23
sS'raw_text_methods'
p24
g3
((lp25
S"(13, u'\\\\bagonist')"
p26
aS"(2, u'\\\\blabeling')"
p27
aS"(12, u'\\\\bantagonist')"
p28
atp29
Rp30
sS'regions'
p31
g3
((lp32
S"(11, u'(?i)\\\\b(cerebrals|cerebral)\\\\b')"
p33
aS"(19, u'(?i)\\\\b(cortexes|cortex)\\\\b')"
p34
atp35
Rp36
sS'year'
p37
V1997
p38
sS'species'
p39
g3
((lp40
S"(4, u'(?i)\\\\b(rats|rat)\\\\b')"
p41
atp42
Rp43
sb.