(ifile_types
ParseObject
p0
(dp1
S'methods'
p2
c__builtin__
set
p3
((lp4
S'Method.PET'
p5
atp6
Rp7
sS'topics'
p8
g3
((lp9
S"(6, u'\\\\baggressi')"
p10
aS"(4, u'\\\\btreatment')"
p11
atp12
Rp13
sS'receptors'
p14
g3
((lp15
(S'5ht1b'
p16
I35
I46
tp17
a(S'5ht1'
p18
I879
I884
tp19
a(S'5ht1'
p20
I1520
I1525
tp21
a(S'5ht1'
p22
I574
I579
tp23
a(S'5ht1'
p24
I1182
I1187
tp25
a(S'5ht1b'
p26
I550
I561
tp27
a(S'5ht1'
p28
I1414
I1419
tp29
a(S'5ht1'
p30
I1562
I1567
tp31
a(S'5ht1'
p32
I1071
I1076
tp33
atp34
Rp35
sS'raw_text_methods'
p36
g3
((lp37
S"(19, u'\\\\bpositron emission tomography')"
p38
atp39
Rp40
sS'regions'
p41
g3
((lp42
S"(22, u'(?i)\\\\b(anteriors|anterior)(-|\\\\s+)?(cingulates|cingulate)\\\\b')"
p43
aS"(11, u'(?i)\\\\b(cerebrals|cerebral)\\\\b')"
p44
aS"(19, u'(?i)\\\\b(cortexes|cortex)\\\\b')"
p45
aS"(20, u'(?i)\\\\b(prefrontals|prefrontal)\\\\b')"
p46
atp47
Rp48
sS'year'
p49
V2017
p50
sS'species'
p51
g3
((lp52
tp53
Rp54
sb.