(ifile_types
ParseObject
p0
(dp1
S'antagonists'
p2
c__builtin__
set
p3
((lp4
tp5
Rp6
sS'methods'
p7
g3
((lp8
tp9
Rp10
sS'topics'
p11
g3
((lp12
S"(16, u'\\\\bfeed')"
p13
atp14
Rp15
sS'receptors'
p16
g3
((lp17
S'5ht1a'
p18
aS'5ht5'
p19
aS'5ht2c'
p20
atp21
Rp22
sS'regions'
p23
g3
((lp24
S"(126, u'(?i)(thalamuses|thalamus)')"
p25
aS"(171, u'(?i)(arcuates|arcuate)(-|\\\\s+)?(nuclei|nucleus)')"
p26
aS"(170, u'(?i)(ventromedials|ventromedial)(-|\\\\s+)?(nuclei|nucleus)')"
p27
atp28
Rp29
sS'year'
p30
V2002
p31
sS'agonists'
p32
g3
((lp33
S"(14, u'\\\\bamphetamine')"
p34
atp35
Rp36
sS'species'
p37
g3
((lp38
S"(5958, u'(?i)(rats|rat)')"
p39
aS"(4979, u'(?i)(cats|cat)')"
p40
aS"(6682, u'(?i)(tera|teras)')"
p41
aS"(468, u'(?i)(oxen|ox)')"
p42
aS"(3592, u'(?i)(ravens|raven)')"
p43
aS"(6249, u'(?i)(ants|ant)')"
p44
aS"(5743, u'(?i)(bots|bot)')"
p45
aS"(3550, u'(?i)(anis|ani)')"
p46
aS"(6356, u'(?i)(ais|ai)')"
p47
aS"(4520, u'(?i)(agoutis|agouti)')"
p48
atp49
Rp50
sb.