(ifile_types
ParseObject
p0
(dp1
S'methods'
p2
c__builtin__
set
p3
((lp4
S'Method.ANTAGONIST'
p5
atp6
Rp7
sS'topics'
p8
g3
((lp9
S"(26, u'\\\\bbehav')"
p10
atp11
Rp12
sS'receptors'
p13
g3
((lp14
(S'5ht1a'
p15
I739
I745
tp16
a(S'5ht1a'
p17
I74
I80
tp18
a(S'5ht1a'
p19
I836
I842
tp20
a(S'5ht1a'
p21
I1133
I1139
tp22
a(S'5ht1'
p23
I807
I812
tp24
a(S'5ht1a'
p25
I216
I222
tp26
a(S'5ht1'
p27
I434
I439
tp28
a(S'5ht1a'
p29
I1615
I1621
tp30
a(S'5ht1a'
p31
I594
I600
tp32
a(S'5ht1a'
p33
I333
I339
tp34
a(S'5ht1a'
p35
I1763
I1769
tp36
atp37
Rp38
sS'raw_text_methods'
p39
g3
((lp40
S"(51, u'\\\\bway100635')"
p41
aS"(18, u'\\\\bimaging')"
p42
aS"(12, u'\\\\bantagonist')"
p43
atp44
Rp45
sS'regions'
p46
g3
((lp47
S"(14, u'(?i)\\\\b(caudals|caudal)\\\\b')"
p48
atp49
Rp50
sS'year'
p51
V2008
p52
sS'species'
p53
g3
((lp54
S"(4, u'(?i)\\\\b(rats|rat)\\\\b')"
p55
atp56
Rp57
sb.