(ifile_types
ParseObject
p0
(dp1
S'antagonists'
p2
c__builtin__
set
p3
((lp4
S"(31, u'\\\\bway ?100635')"
p5
atp6
Rp7
sS'methods'
p8
g3
((lp9
S'Method.ANTAGONIST'
p10
aS'Method.AGONIST'
p11
atp12
Rp13
sS'topics'
p14
g3
((lp15
tp16
Rp17
sS'receptors'
p18
g3
((lp19
S'5ht7'
p20
aS'5ht7a'
p21
aS'5ht1a'
p22
aS'5ht2'
p23
atp24
Rp25
sS'regions'
p26
g3
((lp27
S"(30, u'(?i)\\\\b(nuclei|nucleus)(-|\\\\s+)?(ambiguuses|ambiguus)\\\\b')"
p28
atp29
Rp30
sS'year'
p31
V2012
p32
sS'agonists'
p33
g3
((lp34
S"(85, u'\\\\b8 ?oh ?dpat')"
p35
aS"(175, u'\\\\bdoi')"
p36
atp37
Rp38
sS'species'
p39
g3
((lp40
S"(5958, u'(?i)\\\\b(rats|rat)\\\\b')"
p41
atp42
Rp43
sb.