(ifile_types
ParseObject
p0
(dp1
S'antagonists'
p2
c__builtin__
set
p3
((lp4
S"(39, u'\\\\bsb ?224289')"
p5
atp6
Rp7
sS'methods'
p8
g3
((lp9
S'Method.ANTAGONIST'
p10
aS'Method.AGONIST'
p11
atp12
Rp13
sS'topics'
p14
g3
((lp15
S"(17, u'\\\\bgroom')"
p16
aS"(19, u'\\\\bimpulsiv')"
p17
aS"(20, u'\\\\baggressi')"
p18
atp19
Rp20
sS'receptors'
p21
g3
((lp22
S'5ht1b'
p23
aS'5ht1a'
p24
atp25
Rp26
sS'regions'
p27
g3
((lp28
S"(254, u'(?i)(prefrontals|prefrontal)(-|\\\\s+)?(cortexes|cortex)')"
p29
aS"(318, u'(?i)(raphes|raphe)(-|\\\\s+)?(nuclei|nucleus)')"
p30
aS"(255, u'(?i)(pres|pre)(-|\\\\s+)?(frontals|frontal)(-|\\\\s+)?(cortexes|cortex)')"
p31
aS"(94, u'(?i)(dorsals|dorsal)(-|\\\\s+)?(raphes|raphe)(-|\\\\s+)?(nuclei|nucleus)')"
p32
atp33
Rp34
sS'year'
p35
V2011
p36
sS'agonists'
p37
g3
((lp38
S"(92, u'\\\\b8 ?oh ?dpat')"
p39
aS"(107, u'\\\\bcp ?93129')"
p40
atp41
Rp42
sS'species'
p43
g3
((lp44
S"(2323, u'(?i)(bees|bee)')"
p45
aS"(2568, u'(?i)(hens|hen)')"
p46
aS"(6125, u'(?i)(females|female)')"
p47
aS"(7609, u'(?i)(erns|ern)')"
p48
aS"(6753, u'(?i)(da|das)')"
p49
aS"(5967, u'(?i)(males|male)')"
p50
aS"(6682, u'(?i)(tera|teras)')"
p51
aS"(1055, u'(?i)(men|man)')"
p52
aS"(3726, u'(?i)(mates|mate)')"
p53
aS"(6857, u'(?i)(ormers|ormer)')"
p54
aS"(853, u'(?i)(minas|mina)')"
p55
aS"(5958, u'(?i)(rats|rat)')"
p56
aS"(3812, u'(?i)(studs|stud)')"
p57
aS"(6391, u'(?i)(asses|ass)')"
p58
aS"(1683, u'(?i)(terns|tern)')"
p59
aS"(6249, u'(?i)(ants|ant)')"
p60
atp61
Rp62
sb.