(ifile_types
ParseObject
p0
(dp1
S'antagonists'
p2
c__builtin__
set
p3
((lp4
S"(67, u'\\\\bhaloperidol')"
p5
atp6
Rp7
sS'methods'
p8
g3
((lp9
S'Method.AGONIST'
p10
atp11
Rp12
sS'topics'
p13
g3
((lp14
S"(15, u'\\\\bschizophreni')"
p15
aS"(6, u'\\\\bcognit')"
p16
aS"(7, u'\\\\bmemory')"
p17
atp18
Rp19
sS'receptors'
p20
g3
((lp21
S'5ht2b'
p22
aS'5ht2c'
p23
aS'5ht2a'
p24
atp25
Rp26
sS'regions'
p27
g3
((lp28
tp29
Rp30
sS'year'
p31
V2016
p32
sS'agonists'
p33
g3
((lp34
S"(48, u'\\\\bhaloperidol')"
p35
aS"(155, u'\\\\bmem')"
p36
atp37
Rp38
sS'species'
p39
g3
((lp40
S"(2323, u'(?i)(bees|bee)')"
p41
aS"(2568, u'(?i)(hens|hen)')"
p42
aS"(867, u'(?i)(tits|tit)')"
p43
aS"(6753, u'(?i)(da|das)')"
p44
aS"(1055, u'(?i)(men|man)')"
p45
aS"(4979, u'(?i)(cats|cat)')"
p46
aS"(3550, u'(?i)(anis|ani)')"
p47
aS"(7604, u'(?i)(cyclop|cyclops)')"
p48
aS"(5958, u'(?i)(rats|rat)')"
p49
aS"(1961, u'(?i)(pens|pen)')"
p50
aS"(6356, u'(?i)(ais|ai)')"
p51
aS"(6391, u'(?i)(asses|ass)')"
p52
atp53
Rp54
sb.