(ifile_types
ParseObject
p0
(dp1
S'antagonists'
p2
c__builtin__
set
p3
((lp4
tp5
Rp6
sS'methods'
p7
g3
((lp8
S'Method.ANTAGONIST'
p9
aS'Method.AGONIST'
p10
atp11
Rp12
sS'topics'
p13
g3
((lp14
tp15
Rp16
sS'receptors'
p17
g3
((lp18
S'5ht2c'
p19
aS'5ht2a'
p20
atp21
Rp22
sS'regions'
p23
g3
((lp24
S"(270, u'(?i)(v1s|v1)')"
p25
aS"(34, u'(?i)(pon|pons)')"
p26
atp27
Rp28
sS'year'
p29
V2010
p30
sS'agonists'
p31
g3
((lp32
tp33
Rp34
sS'species'
p35
g3
((lp36
S"(1070, u'(?i)(pets|pet)')"
p37
aS"(6753, u'(?i)(da|das)')"
p38
aS"(2568, u'(?i)(hens|hen)')"
p39
aS"(6356, u'(?i)(ais|ai)')"
p40
aS"(867, u'(?i)(tits|tit)')"
p41
aS"(4979, u'(?i)(cats|cat)')"
p42
aS"(479, u'(?i)(lings|ling)')"
p43
aS"(6249, u'(?i)(ants|ant)')"
p44
aS"(5551, u'(?i)(owls|owl)')"
p45
aS"(1349, u'(?i)(rams|ram)')"
p46
aS"(3726, u'(?i)(mates|mate)')"
p47
aS"(3152, u'(?i)(layers|layer)')"
p48
aS"(853, u'(?i)(minas|mina)')"
p49
aS"(5958, u'(?i)(rats|rat)')"
p50
aS"(7094, u'(?i)(curs|cur)')"
p51
aS"(3812, u'(?i)(studs|stud)')"
p52
aS"(821, u'(?i)(lice|louse)')"
p53
atp54
Rp55
sb.