(ifile_types
ParseObject
p0
(dp1
S'methods'
p2
c__builtin__
set
p3
((lp4
S'Method.STIMULATION'
p5
aS'Method.ANTAGONIST'
p6
aS'Method.AGONIST'
p7
atp8
Rp9
sS'topics'
p10
g3
((lp11
S"(18, u'\\\\bavoidan')"
p12
aS"(8, u'\\\\banxi')"
p13
aS"(26, u'\\\\bbehav')"
p14
aS"(33, u'\\\\blocomot')"
p15
aS"(2, u'\\\\bdisorder')"
p16
atp17
Rp18
sS'receptors'
p19
g3
((lp20
(S'5ht1a'
p21
I1417
I1423
tp22
a(S'5ht1a'
p23
I32
I38
tp24
a(S'5ht1a'
p25
I286
I292
tp26
a(S'5ht7'
p27
I552
I559
tp28
a(S'5ht1a'
p29
I683
I689
tp30
a(S'5ht1a'
p31
I552
I558
tp32
atp33
Rp34
sS'raw_text_methods'
p35
g3
((lp36
S"(13, u'\\\\bagonist')"
p37
aS"(15, u'\\\\b8ohdpat')"
p38
aS"(51, u'\\\\bway100635')"
p39
aS"(12, u'\\\\bantagonist')"
p40
atp41
Rp42
sS'regions'
p43
g3
((lp44
tp45
Rp46
sS'year'
p47
V2008
p48
sS'species'
p49
g3
((lp50
S"(4, u'(?i)\\\\b(rats|rat)\\\\b')"
p51
atp52
Rp53
sb.