(ifile_types
ParseObject
p0
(dp1
S'antagonists'
p2
c__builtin__
set
p3
((lp4
S"(31, u'\\\\bway ?100635')"
p5
atp6
Rp7
sS'methods'
p8
g3
((lp9
S'Method.PET'
p10
atp11
Rp12
sS'topics'
p13
g3
((lp14
S"(36, u'\\\\bcompulsiv')"
p15
aS"(9, u'\\\\bdepress')"
p16
aS"(14, u'\\\\bpsychosis')"
p17
aS"(1, u'\\\\bmood')"
p18
atp19
Rp20
sS'receptors'
p21
g3
((lp22
S'5ht1a'
p23
atp24
Rp25
sS'regions'
p26
g3
((lp27
tp28
Rp29
sS'year'
p30
V2001
p31
sS'agonists'
p32
g3
((lp33
tp34
Rp35
sS'species'
p36
g3
((lp37
tp38
Rp39
sb.