(ifile_types
ParseObject
p0
(dp1
S'methods'
p2
c__builtin__
set
p3
((lp4
tp5
Rp6
sS'topics'
p7
g3
((lp8
S"(7, u'\\\\bdepressi')"
p9
aS"(4, u'\\\\btreatment')"
p10
atp11
Rp12
sS'receptors'
p13
g3
((lp14
(S'5ht1a'
p15
I1739
I1745
tp16
a(S'5ht1a'
p17
I1086
I1092
tp18
atp19
Rp20
sS'raw_text_methods'
p21
g3
((lp22
S"(27, u'\\\\blsd')"
p23
atp24
Rp25
sS'regions'
p26
g3
((lp27
S"(16, u'(?i)\\\\b(drns|drn)\\\\b')"
p28
atp29
Rp30
sS'year'
p31
V2008
p32
sS'species'
p33
g3
((lp34
S"(4, u'(?i)\\\\b(rats|rat)\\\\b')"
p35
atp36
Rp37
sb.