(ifile_types
ParseObject
p0
(dp1
S'methods'
p2
c__builtin__
set
p3
((lp4
S'Method.ANTAGONIST'
p5
aS'Method.AGONIST'
p6
atp7
Rp8
sS'topics'
p9
g3
((lp10
S"(24, u'\\\\banxiolytic')"
p11
aS"(14, u'\\\\bcogniti')"
p12
aS"(26, u'\\\\bbehav')"
p13
aS"(25, u'\\\\bsocial')"
p14
aS"(13, u'\\\\bantidepress')"
p15
aS"(9, u'\\\\bstress')"
p16
aS"(20, u'\\\\bmood')"
p17
aS"(6, u'\\\\baggressi')"
p18
aS"(5, u'\\\\btherap')"
p19
aS"(12, u'\\\\bsleep')"
p20
aS"(8, u'\\\\banxi')"
p21
atp22
Rp23
sS'receptors'
p24
g3
((lp25
(S'5ht2c'
p26
I487
I493
tp27
a(S'5ht2a'
p28
I579
I585
tp29
atp30
Rp31
sS'raw_text_methods'
p32
g3
((lp33
S"(13, u'\\\\bagonist')"
p34
aS"(12, u'\\\\bantagonist')"
p35
atp36
Rp37
sS'regions'
p38
g3
((lp39
S"(19, u'(?i)\\\\b(cortexes|cortex)\\\\b')"
p40
aS"(12, u'(?i)\\\\b(amygdalas|amygdala)\\\\b')"
p41
atp42
Rp43
sS'year'
p44
V2012
p45
sS'species'
p46
g3
((lp47
S"(1, u'(?i)\\\\b(mice|mouse)\\\\b')"
p48
aS"(5, u'(?i)\\\\b(mices|mice)\\\\b')"
p49
aS"(3, u'(?i)\\\\b(males|male)\\\\b')"
p50
aS"(4, u'(?i)\\\\b(rats|rat)\\\\b')"
p51
atp52
Rp53
sb.