(ifile_types
ParseObject
p0
(dp1
S'antagonists'
p2
c__builtin__
set
p3
((lp4
S"(53, u'\\\\bketanserin')"
p5
aS"(128, u'\\\\bketanserin')"
p6
aS"(117, u'\\\\bmianserin')"
p7
atp8
Rp9
sS'methods'
p10
g3
((lp11
S'Method.ANTAGONIST'
p12
aS'Method.AGONIST'
p13
atp14
Rp15
sS'topics'
p16
g3
((lp17
S"(2, u'\\\\bappetite')"
p18
atp19
Rp20
sS'receptors'
p21
g3
((lp22
S'5ht2b'
p23
aS'5ht3'
p24
aS'5ht2c'
p25
aS'5ht2a'
p26
atp27
Rp28
sS'regions'
p29
g3
((lp30
S"(55, u'(?i)(laterals|lateral)(-|\\\\s+)?(parabrachials|parabrachial)(-|\\\\s+)?(nuclei|nucleus)')"
p31
atp32
Rp33
sS'year'
p34
V2007
p35
sS'agonists'
p36
g3
((lp37
S"(161, u'\\\\bmcpp')"
p38
aS"(146, u'\\\\bbw ?723c86')"
p39
atp40
Rp41
sS'species'
p42
g3
((lp43
S"(1070, u'(?i)(pets|pet)')"
p44
aS"(2670, u'(?i)(arabs|arab)')"
p45
aS"(6753, u'(?i)(da|das)')"
p46
aS"(2568, u'(?i)(hens|hen)')"
p47
aS"(3137, u'(?i)(iguanids|iguanid)')"
p48
aS"(867, u'(?i)(tits|tit)')"
p49
aS"(4979, u'(?i)(cats|cat)')"
p50
aS"(6682, u'(?i)(tera|teras)')"
p51
aS"(5967, u'(?i)(males|male)')"
p52
aS"(468, u'(?i)(oxen|ox)')"
p53
aS"(1055, u'(?i)(men|man)')"
p54
aS"(6249, u'(?i)(ants|ant)')"
p55
aS"(4964, u'(?i)(serins|serin)')"
p56
aS"(3550, u'(?i)(anis|ani)')"
p57
aS"(5958, u'(?i)(rats|rat)')"
p58
aS"(3812, u'(?i)(studs|stud)')"
p59
aS"(7609, u'(?i)(erns|ern)')"
p60
aS"(6878, u'(?i)(guans|guan)')"
p61
atp62
Rp63
sb.