(ifile_types
ParseObject
p0
(dp1
S'antagonists'
p2
c__builtin__
set
p3
((lp4
tp5
Rp6
sS'methods'
p7
g3
((lp8
S'Method.ANTAGONIST'
p9
atp10
Rp11
sS'topics'
p12
g3
((lp13
S"(35, u'\\\\bstress')"
p14
aS"(11, u'\\\\banxiolyt')"
p15
aS"(10, u'\\\\banxiety')"
p16
atp17
Rp18
sS'receptors'
p19
g3
((lp20
S'5ht1a'
p21
atp22
Rp23
sS'regions'
p24
g3
((lp25
S"(220, u'(?i)(striatums|striatum)')"
p26
aS"(126, u'(?i)(thalamuses|thalamus)')"
p27
aS"(34, u'(?i)(pon|pons)')"
p28
atp29
Rp30
sS'year'
p31
V1991
p32
sS'agonists'
p33
g3
((lp34
S"(80, u'\\\\btandospirone')"
p35
atp36
Rp37
sS'species'
p38
g3
((lp39
S"(5537, u'(?i)(hippos|hippo)')"
p40
aS"(6249, u'(?i)(ants|ant)')"
p41
aS"(6753, u'(?i)(da|das)')"
p42
aS"(1961, u'(?i)(pens|pen)')"
p43
aS"(6356, u'(?i)(ais|ai)')"
p44
aS"(5958, u'(?i)(rats|rat)')"
p45
aS"(4371, u'(?i)(lizas|liza)')"
p46
aS"(3812, u'(?i)(studs|stud)')"
p47
atp48
Rp49
sb.