(ifile_types
ParseObject
p0
(dp1
S'methods'
p2
c__builtin__
set
p3
((lp4
S'Method.ANTAGONIST'
p5
atp6
Rp7
sS'topics'
p8
g3
((lp9
tp10
Rp11
sS'receptors'
p12
g3
((lp13
(S'5ht4'
p14
I385
I390
tp15
a(S'5ht4'
p16
I1094
I1099
tp17
a(S'5ht4'
p18
I102
I107
tp19
a(S'5ht4'
p20
I848
I853
tp21
a(S'5ht4'
p22
I1392
I1397
tp23
a(S'5ht4'
p24
I368
I373
tp25
a(S'5ht4'
p26
I554
I559
tp27
atp28
Rp29
sS'raw_text_methods'
p30
g3
((lp31
S"(18, u'\\\\bimaging')"
p32
aS"(12, u'\\\\bantagonist')"
p33
atp34
Rp35
sS'regions'
p36
g3
((lp37
tp38
Rp39
sS'year'
p40
V2012
p41
sS'species'
p42
g3
((lp43
tp44
Rp45
sb.