(ifile_types
ParseObject
p0
(dp1
S'methods'
p2
c__builtin__
set
p3
((lp4
S'Method.PET'
p5
atp6
Rp7
sS'topics'
p8
g3
((lp9
S"(13, u'\\\\bantidepress')"
p10
aS"(19, u'\\\\bpsychosis')"
p11
aS"(2, u'\\\\bdisorder')"
p12
aS"(7, u'\\\\bdepressi')"
p13
aS"(20, u'\\\\bmood')"
p14
aS"(5, u'\\\\btherap')"
p15
aS"(1, u'\\\\bpatient')"
p16
aS"(4, u'\\\\btreatment')"
p17
atp18
Rp19
sS'receptors'
p20
g3
((lp21
(S'5ht1a'
p22
I2216
I2221
tp23
atp24
Rp25
sS'raw_text_methods'
p26
g3
((lp27
S"(51, u'\\\\bway100635')"
p28
aS"(19, u'\\\\bpositron emission tomography')"
p29
aS"(18, u'\\\\bimaging')"
p30
atp31
Rp32
sS'regions'
p33
g3
((lp34
tp35
Rp36
sS'year'
p37
V2001
p38
sS'species'
p39
g3
((lp40
tp41
Rp42
sb.