(ifile_types
ParseObject
p0
(dp1
S'methods'
p2
c__builtin__
set
p3
((lp4
tp5
Rp6
sS'topics'
p7
g3
((lp8
tp9
Rp10
sS'receptors'
p11
g3
((lp12
(S'5ht2a'
p13
I540
I546
tp14
a(S'5ht2a'
p15
I710
I716
tp16
a(S'5ht2a'
p17
I438
I444
tp18
a(S'5ht2a'
p19
I911
I917
tp20
a(S'5ht2a'
p21
I90
I101
tp22
atp23
Rp24
sS'raw_text_methods'
p25
g3
((lp26
S"(27, u'\\\\blsd')"
p27
aS"(29, u'\\\\bdiethylamide')"
p28
atp29
Rp30
sS'regions'
p31
g3
((lp32
S"(19, u'(?i)\\\\b(cortexes|cortex)\\\\b')"
p33
atp34
Rp35
sS'year'
p36
V2017
p37
sS'species'
p38
g3
((lp39
S"(1, u'(?i)\\\\b(mice|mouse)\\\\b')"
p40
aS"(4, u'(?i)\\\\b(rats|rat)\\\\b')"
p41
atp42
Rp43
sb.