(ifile_types
ParseObject
p0
(dp1
S'antagonists'
p2
c__builtin__
set
p3
((lp4
S"(102, u'\\\\bfluoxetine')"
p5
atp6
Rp7
sS'methods'
p8
g3
((lp9
S'Method.ANTAGONIST'
p10
aS'Method.AGONIST'
p11
atp12
Rp13
sS'topics'
p14
g3
((lp15
S"(8, u'\\\\blearning')"
p16
aS"(7, u'\\\\bmemory')"
p17
aS"(3, u'\\\\bsleep')"
p18
aS"(9, u'\\\\bdepress')"
p19
aS"(1, u'\\\\bmood')"
p20
atp21
Rp22
sS'receptors'
p23
g3
((lp24
S'5ht5'
p25
aS'5ht1a'
p26
aS'5ht1'
p27
atp28
Rp29
sS'regions'
p30
g3
((lp31
S"(362, u'(?i)(brains|brain)(-|\\\\s+)?(stems|stem)')"
p32
aS"(241, u'(?i)(olfactories|olfactory)(-|\\\\s+)?(bulbs|bulb)')"
p33
aS"(77, u'(?i)(cerebellars|cerebellar)(-|\\\\s+)?(nuclei|nucleus)')"
p34
aS"(195, u'(?i)(telencephalons|telencephalon)')"
p35
aS"(118, u'(?i)(diencephalons|diencephalon)')"
p36
aS"(203, u'(?i)(dentates|dentate)(-|\\\\s+)?(gyruses|gyrus)')"
p37
atp38
Rp39
sS'year'
p40
V2006
p41
sS'agonists'
p42
g3
((lp43
S"(224, u'\\\\b5 ?methoxytryptamine')"
p44
aS"(155, u'\\\\bmem')"
p45
atp46
Rp47
sS'species'
p48
g3
((lp49
S"(1266, u'(?i)(embryos|embryo)')"
p50
aS"(4371, u'(?i)(lizas|liza)')"
p51
aS"(7094, u'(?i)(curs|cur)')"
p52
aS"(6356, u'(?i)(ais|ai)')"
p53
aS"(6249, u'(?i)(ants|ant)')"
p54
aS"(5229, u'(?i)(moles|mole)')"
p55
aS"(6391, u'(?i)(asses|ass)')"
p56
aS"(3812, u'(?i)(studs|stud)')"
p57
aS"(3196, u'(?i)(human|humans)')"
p58
aS"(479, u'(?i)(lings|ling)')"
p59
aS"(4091, u'(?i)(adults|adult)')"
p60
aS"(468, u'(?i)(oxen|ox)')"
p61
aS"(107, u'(?i)(stags|stag)')"
p62
aS"(5743, u'(?i)(bots|bot)')"
p63
aS"(3550, u'(?i)(anis|ani)')"
p64
aS"(5944, u'(?i)(soles|sole)')"
p65
aS"(391, u'(?i)(alli|allis)')"
p66
aS"(5537, u'(?i)(hippos|hippo)')"
p67
aS"(5958, u'(?i)(rats|rat)')"
p68
aS"(867, u'(?i)(tits|tit)')"
p69
aS"(1055, u'(?i)(men|man)')"
p70
aS"(4604, u'(?i)(mites|mite)')"
p71
aS"(2334, u'(?i)(eels|eel)')"
p72
aS"(853, u'(?i)(minas|mina)')"
p73
aS"(1057, u'(?i)(humans|human)')"
p74
aS"(1961, u'(?i)(pens|pen)')"
p75
aS"(1414, u'(?i)(chars|char)')"
p76
aS"(7058, u'(?i)(does|doe)')"
p77
aS"(2323, u'(?i)(bees|bee)')"
p78
aS"(5799, u'(?i)(rodents|rodent)')"
p79
aS"(2568, u'(?i)(hens|hen)')"
p80
aS"(6753, u'(?i)(da|das)')"
p81
aS"(5864, u'(?i)(fetuses|fetus)')"
p82
aS"(5917, u'(?i)(roaches|roach)')"
p83
atp84
Rp85
sb.