(ifile_types
ParseObject
p0
(dp1
S'antagonists'
p2
c__builtin__
set
p3
((lp4
S"(102, u'\\\\bfluoxetine')"
p5
aS"(106, u'\\\\bnorfluoxetine')"
p6
atp7
Rp8
sS'methods'
p9
g3
((lp10
S'Method.AGONIST'
p11
atp12
Rp13
sS'topics'
p14
g3
((lp15
tp16
Rp17
sS'receptors'
p18
g3
((lp19
S'5ht1a'
p20
atp21
Rp22
sS'regions'
p23
g3
((lp24
S"(318, u'(?i)(raphes|raphe)(-|\\\\s+)?(nuclei|nucleus)')"
p25
aS"(94, u'(?i)(dorsals|dorsal)(-|\\\\s+)?(raphes|raphe)(-|\\\\s+)?(nuclei|nucleus)')"
p26
aS"(389, u'(?i)(cerebrospinals|cerebrospinal)(-|\\\\s+)?(fluids|fluid)')"
p27
aS"(34, u'(?i)(pon|pons)')"
p28
atp29
Rp30
sS'year'
p31
V2000
p32
sS'agonists'
p33
g3
((lp34
S"(92, u'\\\\b8 ?oh ?dpat')"
p35
atp36
Rp37
sS'species'
p38
g3
((lp39
S"(2323, u'(?i)(bees|bee)')"
p40
aS"(4624, u'(?i)(apes|ape)')"
p41
aS"(5958, u'(?i)(rats|rat)')"
p42
aS"(6753, u'(?i)(da|das)')"
p43
aS"(5967, u'(?i)(males|male)')"
p44
aS"(468, u'(?i)(oxen|ox)')"
p45
aS"(1055, u'(?i)(men|man)')"
p46
aS"(7094, u'(?i)(curs|cur)')"
p47
aS"(4979, u'(?i)(cats|cat)')"
p48
aS"(6249, u'(?i)(ants|ant)')"
p49
aS"(3812, u'(?i)(studs|stud)')"
p50
aS"(7058, u'(?i)(does|doe)')"
p51
atp52
Rp53
sb.