(ifile_types
ParseObject
p0
(dp1
S'methods'
p2
c__builtin__
set
p3
((lp4
S'Method.PET'
p5
atp6
Rp7
sS'topics'
p8
g3
((lp9
S"(7, u'\\\\bdepressi')"
p10
aS"(20, u'\\\\bmood')"
p11
aS"(2, u'\\\\bdisorder')"
p12
atp13
Rp14
sS'receptors'
p15
g3
((lp16
(S'5ht1a'
p17
I165
I171
tp18
a(S'5ht1a'
p19
I790
I796
tp20
a(S'5ht1a'
p21
I971
I977
tp22
a(S'5ht1a'
p23
I851
I857
tp24
a(S'5ht1a'
p25
I476
I482
tp26
atp27
Rp28
sS'raw_text_methods'
p29
g3
((lp30
S"(19, u'\\\\bpositron emission tomography')"
p31
aS"(18, u'\\\\bimaging')"
p32
atp33
Rp34
sS'regions'
p35
g3
((lp36
S"(19, u'(?i)\\\\b(cortexes|cortex)\\\\b')"
p37
atp38
Rp39
sS'year'
p40
V2000
p41
sS'species'
p42
g3
((lp43
tp44
Rp45
sb.