(ifile_types
ParseObject
p0
(dp1
S'antagonists'
p2
c__builtin__
set
p3
((lp4
tp5
Rp6
sS'methods'
p7
g3
((lp8
S'Method.STAINING'
p9
atp10
Rp11
sS'topics'
p12
g3
((lp13
tp14
Rp15
sS'receptors'
p16
g3
((lp17
S'5ht1b'
p18
aS'5ht5'
p19
aS'5ht3'
p20
aS'5ht2c'
p21
aS'5ht1d'
p22
aS'5ht2a'
p23
aS'5ht1a'
p24
aS'5ht3a'
p25
atp26
Rp27
sS'regions'
p28
g3
((lp29
S"(219, u'(?i)(basals|basal)(-|\\\\s+)?(ganglias|ganglia)')"
p30
aS"(220, u'(?i)(striatums|striatum)')"
p31
atp32
Rp33
sS'year'
p34
V2000
p35
sS'agonists'
p36
g3
((lp37
tp38
Rp39
sS'species'
p40
g3
((lp41
S"(4163, u'(?i)(ermines|ermine)')"
p42
aS"(7094, u'(?i)(curs|cur)')"
p43
aS"(6356, u'(?i)(ais|ai)')"
p44
aS"(2103, u'(?i)(nesters|nester)')"
p45
aS"(7539, u'(?i)(mammals|mammal)')"
p46
aS"(468, u'(?i)(oxen|ox)')"
p47
aS"(5743, u'(?i)(bots|bot)')"
p48
aS"(3550, u'(?i)(anis|ani)')"
p49
aS"(5049, u'(?i)(lizards|lizard)')"
p50
aS"(6249, u'(?i)(ants|ant)')"
p51
aS"(6682, u'(?i)(tera|teras)')"
p52
aS"(1055, u'(?i)(men|man)')"
p53
aS"(7540, u'(?i)(mammalians|mammalian)')"
p54
aS"(4979, u'(?i)(cats|cat)')"
p55
aS"(4371, u'(?i)(lizas|liza)')"
p56
aS"(6857, u'(?i)(ormers|ormer)')"
p57
aS"(6517, u'(?i)(birds|bird)')"
p58
aS"(1350, u'(?i)(tups|tup)')"
p59
aS"(1861, u'(?i)(amniotes|amniote)')"
p60
aS"(1225, u'(?i)(larks|lark)')"
p61
aS"(3953, u'(?i)(anoli|anolis)(-|\\\\s+)?(carolinenses|carolinensis)')"
p62
aS"(3952, u'(?i)(anoles|anole)')"
p63
atp64
Rp65
sb.