(ifile_types
ParseObject
p0
(dp1
S'methods'
p2
c__builtin__
set
p3
((lp4
S'Method.OPTOGENETICS'
p5
atp6
Rp7
sS'topics'
p8
g3
((lp9
S"(5, u'\\\\btherap')"
p10
atp11
Rp12
sS'receptors'
p13
g3
((lp14
tp15
Rp16
sS'raw_text_methods'
p17
g3
((lp18
S"(2, u'\\\\blabeling')"
p19
atp20
Rp21
sS'regions'
p22
g3
((lp23
tp24
Rp25
sS'year'
p26
V2014
p27
sS'species'
p28
g3
((lp29
tp30
Rp31
sb.