(ifile_types
ParseObject
p0
(dp1
S'methods'
p2
c__builtin__
set
p3
((lp4
S'Method.AGONIST'
p5
atp6
Rp7
sS'topics'
p8
g3
((lp9
S"(26, u'\\\\bbehav')"
p10
aS"(7, u'\\\\bdepressi')"
p11
aS"(13, u'\\\\bantidepress')"
p12
atp13
Rp14
sS'receptors'
p15
g3
((lp16
(S'5ht1a'
p17
I233
I239
tp18
a(S'5ht1a'
p19
I727
I733
tp20
a(S'5ht1a'
p21
I1072
I1078
tp22
a(S'5ht1a'
p23
I562
I568
tp24
a(S'5ht1a'
p25
I45
I51
tp26
a(S'5ht1a'
p27
I1543
I1549
tp28
atp29
Rp30
sS'raw_text_methods'
p31
g3
((lp32
S"(13, u'\\\\bagonist')"
p33
aS"(38, u'\\\\bssri')"
p34
aS"(39, u'\\\\bselective serotonin reuptake inhibitor')"
p35
atp36
Rp37
sS'regions'
p38
g3
((lp39
S"(20, u'(?i)\\\\b(prefrontals|prefrontal)\\\\b')"
p40
aS"(19, u'(?i)\\\\b(cortexes|cortex)\\\\b')"
p41
atp42
Rp43
sS'year'
p44
V2008
p45
sS'species'
p46
g3
((lp47
S"(4, u'(?i)\\\\b(rats|rat)\\\\b')"
p48
atp49
Rp50
sb.