(ifile_types
ParseObject
p0
(dp1
S'antagonists'
p2
c__builtin__
set
p3
((lp4
S"(34, u'\\\\byohimbine')"
p5
atp6
Rp7
sS'methods'
p8
g3
((lp9
S'Method.ANTAGONIST'
p10
aS'Method.AGONIST'
p11
atp12
Rp13
sS'topics'
p14
g3
((lp15
S"(12, u'\\\\banxiogen')"
p16
aS"(11, u'\\\\banxiolyt')"
p17
aS"(10, u'\\\\banxiety')"
p18
atp19
Rp20
sS'receptors'
p21
g3
((lp22
S'5ht1a'
p23
atp24
Rp25
sS'regions'
p26
g3
((lp27
S"(34, u'(?i)(pon|pons)')"
p28
atp29
Rp30
sS'year'
p31
V1992
p32
sS'agonists'
p33
g3
((lp34
S"(89, u'\\\\byohimbine')"
p35
aS"(74, u'\\\\bru ?24969')"
p36
aS"(19, u'\\\\bbay r 1531')"
p37
aS"(47, u'\\\\bgepirone')"
p38
aS"(24, u'\\\\bbuspirone')"
p39
aS"(92, u'\\\\b8 ?oh ?dpat')"
p40
aS"(50, u'\\\\bipsapirone')"
p41
atp42
Rp43
sS'species'
p44
g3
((lp45
S"(2323, u'(?i)(bees|bee)')"
p46
aS"(2568, u'(?i)(hens|hen)')"
p47
aS"(5510, u'(?i)(bays|bay)')"
p48
aS"(5958, u'(?i)(rats|rat)')"
p49
aS"(6682, u'(?i)(tera|teras)')"
p50
aS"(6249, u'(?i)(ants|ant)')"
p51
aS"(468, u'(?i)(oxen|ox)')"
p52
aS"(1055, u'(?i)(men|man)')"
p53
aS"(4604, u'(?i)(mites|mite)')"
p54
aS"(853, u'(?i)(minas|mina)')"
p55
aS"(3550, u'(?i)(anis|ani)')"
p56
aS"(1961, u'(?i)(pens|pen)')"
p57
aS"(3812, u'(?i)(studs|stud)')"
p58
aS"(6356, u'(?i)(ais|ai)')"
p59
atp60
Rp61
sb.