(ifile_types
ParseObject
p0
(dp1
S'methods'
p2
c__builtin__
set
p3
((lp4
S'Method.AGONIST'
p5
atp6
Rp7
sS'topics'
p8
g3
((lp9
tp10
Rp11
sS'receptors'
p12
g3
((lp13
(S'5ht1a'
p14
I739
I745
tp15
a(S'5ht1a'
p16
I244
I250
tp17
a(S'5ht1a'
p18
I378
I384
tp19
a(S'5ht1a'
p20
I48
I54
tp21
atp22
Rp23
sS'raw_text_methods'
p24
g3
((lp25
S"(13, u'\\\\bagonist')"
p26
aS"(15, u'\\\\b8ohdpat')"
p27
atp28
Rp29
sS'regions'
p30
g3
((lp31
S"(19, u'(?i)\\\\b(cortexes|cortex)\\\\b')"
p32
atp33
Rp34
sS'year'
p35
V1999
p36
sS'species'
p37
g3
((lp38
S"(4, u'(?i)\\\\b(rats|rat)\\\\b')"
p39
atp40
Rp41
sb.