(ifile_types
ParseObject
p0
(dp1
S'methods'
p2
c__builtin__
set
p3
((lp4
S'Method.PET'
p5
atp6
Rp7
sS'topics'
p8
g3
((lp9
tp10
Rp11
sS'receptors'
p12
g3
((lp13
(S'5ht1a'
p14
I1767
I1773
tp15
a(S'5ht1a'
p16
I1374
I1379
tp17
a(S'5ht1a'
p18
I416
I422
tp19
atp20
Rp21
sS'raw_text_methods'
p22
g3
((lp23
S"(17, u'\\\\bpet')"
p24
aS"(19, u'\\\\bpositron emission tomography')"
p25
aS"(18, u'\\\\bimaging')"
p26
atp27
Rp28
sS'regions'
p29
g3
((lp30
S"(11, u'(?i)\\\\b(cerebrals|cerebral)\\\\b')"
p31
atp32
Rp33
sS'year'
p34
V2002
p35
sS'species'
p36
g3
((lp37
S"(3, u'(?i)\\\\b(males|male)\\\\b')"
p38
atp39
Rp40
sb.