(ifile_types
ParseObject
p0
(dp1
S'methods'
p2
c__builtin__
set
p3
((lp4
S'Method.AGONIST'
p5
atp6
Rp7
sS'topics'
p8
g3
((lp9
S"(6, u'\\\\baggressi')"
p10
atp11
Rp12
sS'receptors'
p13
g3
((lp14
(S'5ht1'
p15
I1544
I1550
tp16
a(S'5ht1a'
p17
I1544
I1550
tp18
a(S'5ht1'
p19
I1560
I1566
tp20
a(S'5ht1b'
p21
I1560
I1566
tp22
a(S'5ht1a'
p23
I1454
I1460
tp24
atp25
Rp26
sS'raw_text_methods'
p27
g3
((lp28
S"(13, u'\\\\bagonist')"
p29
atp30
Rp31
sS'regions'
p32
g3
((lp33
S"(19, u'(?i)\\\\b(cortexes|cortex)\\\\b')"
p34
aS"(13, u'(?i)\\\\b(septums|septum)\\\\b')"
p35
aS"(12, u'(?i)\\\\b(amygdalas|amygdala)\\\\b')"
p36
aS"(23, u'(?i)\\\\b(forebrains|forebrain)\\\\b')"
p37
atp38
Rp39
sS'year'
p40
V2011
p41
sS'species'
p42
g3
((lp43
S"(2, u'(?i)\\\\b(females|female)\\\\b')"
p44
aS"(3, u'(?i)\\\\b(males|male)\\\\b')"
p45
aS"(4, u'(?i)\\\\b(rats|rat)\\\\b')"
p46
atp47
Rp48
sb.