(ifile_types
ParseObject
p0
(dp1
S'antagonists'
p2
c__builtin__
set
p3
((lp4
S"(31, u'\\\\bway ?100135')"
p5
aS"(32, u'\\\\bway ?100635')"
p6
aS"(45, u'\\\\bgr ?127935')"
p7
aS"(11, u'\\\\bisamoltane')"
p8
atp9
Rp10
sS'methods'
p11
g3
((lp12
S'Method.STIMULATION'
p13
aS'Method.ANTAGONIST'
p14
aS'Method.AGONIST'
p15
atp16
Rp17
sS'topics'
p18
g3
((lp19
tp20
Rp21
sS'receptors'
p22
g3
((lp23
S'5ht1b'
p24
aS'5ht1a'
p25
aS'5ht5'
p26
aS'5ht1d'
p27
atp28
Rp29
sS'regions'
p30
g3
((lp31
S"(318, u'(?i)(raphes|raphe)(-|\\\\s+)?(nuclei|nucleus)')"
p32
aS"(94, u'(?i)(dorsals|dorsal)(-|\\\\s+)?(raphes|raphe)(-|\\\\s+)?(nuclei|nucleus)')"
p33
atp34
Rp35
sS'year'
p36
V1995
p37
sS'agonists'
p38
g3
((lp39
S"(103, u'\\\\bsumatriptan')"
p40
aS"(92, u'\\\\b8 ?oh ?dpat')"
p41
aS"(107, u'\\\\bcp ?93129')"
p42
atp43
Rp44
sS'species'
p45
g3
((lp46
S"(1070, u'(?i)(pets|pet)')"
p47
aS"(5958, u'(?i)(rats|rat)')"
p48
aS"(867, u'(?i)(tits|tit)')"
p49
aS"(468, u'(?i)(oxen|ox)')"
p50
aS"(3404, u'(?i)(titis|titi)')"
p51
aS"(6753, u'(?i)(da|das)')"
p52
aS"(6249, u'(?i)(ants|ant)')"
p53
aS"(7127, u'(?i)(monitors|monitor)')"
p54
aS"(821, u'(?i)(lice|louse)')"
p55
aS"(5949, u'(?i)(dogs|dog)')"
p56
atp57
Rp58
sb.