(ifile_types
ParseObject
p0
(dp1
S'antagonists'
p2
c__builtin__
set
p3
((lp4
S"(54, u'\\\\britanserin')"
p5
aS"(130, u'\\\\britanserin')"
p6
aS"(95, u'\\\\bsb ?206553')"
p7
atp8
Rp9
sS'methods'
p10
g3
((lp11
S'Method.STIMULATION'
p12
aS'Method.ANTAGONIST'
p13
atp14
Rp15
sS'topics'
p16
g3
((lp17
tp18
Rp19
sS'receptors'
p20
g3
((lp21
S'5ht2b'
p22
aS'5ht2c'
p23
aS'5ht2a'
p24
atp25
Rp26
sS'regions'
p27
g3
((lp28
S"(318, u'(?i)(raphes|raphe)(-|\\\\s+)?(nuclei|nucleus)')"
p29
aS"(220, u'(?i)(striatums|striatum)')"
p30
aS"(94, u'(?i)(dorsals|dorsal)(-|\\\\s+)?(raphes|raphe)(-|\\\\s+)?(nuclei|nucleus)')"
p31
aS"(226, u'(?i)(nuclei|nucleus)(-|\\\\s+)?(accumben|accumbens)')"
p32
aS"(34, u'(?i)(pon|pons)')"
p33
atp34
Rp35
sS'year'
p36
V1999
p37
sS'agonists'
p38
g3
((lp39
tp40
Rp41
sS'species'
p42
g3
((lp43
S"(6753, u'(?i)(da|das)')"
p44
aS"(2568, u'(?i)(hens|hen)')"
p45
aS"(4979, u'(?i)(cats|cat)')"
p46
aS"(468, u'(?i)(oxen|ox)')"
p47
aS"(1055, u'(?i)(men|man)')"
p48
aS"(6249, u'(?i)(ants|ant)')"
p49
aS"(4964, u'(?i)(serins|serin)')"
p50
aS"(5958, u'(?i)(rats|rat)')"
p51
aS"(7127, u'(?i)(monitors|monitor)')"
p52
aS"(3812, u'(?i)(studs|stud)')"
p53
aS"(5743, u'(?i)(bots|bot)')"
p54
aS"(6356, u'(?i)(ais|ai)')"
p55
aS"(5949, u'(?i)(dogs|dog)')"
p56
atp57
Rp58
sb.