(ifile_types
ParseObject
p0
(dp1
S'antagonists'
p2
c__builtin__
set
p3
((lp4
S"(78, u'\\\\bpimavanserin')"
p5
atp6
Rp7
sS'methods'
p8
g3
((lp9
S'Method.ANTAGONIST'
p10
aS'Method.AGONIST'
p11
atp12
Rp13
sS'topics'
p14
g3
((lp15
S"(33, u'\\\\balzheimers')"
p16
aS"(6, u'\\\\bcognit')"
p17
aS"(30, u'\\\\bparkinsons')"
p18
aS"(34, u'\\\\bdementia')"
p19
aS"(14, u'\\\\bpsychosis')"
p20
atp21
Rp22
sS'receptors'
p23
g3
((lp24
S'5ht2a'
p25
atp26
Rp27
sS'regions'
p28
g3
((lp29
tp30
Rp31
sS'year'
p32
V2018
p33
sS'agonists'
p34
g3
((lp35
tp36
Rp37
sS'species'
p38
g3
((lp39
S"(5958, u'(?i)(rats|rat)')"
p40
aS"(7609, u'(?i)(erns|ern)')"
p41
aS"(6753, u'(?i)(da|das)')"
p42
aS"(1055, u'(?i)(men|man)')"
p43
aS"(7094, u'(?i)(curs|cur)')"
p44
aS"(4964, u'(?i)(serins|serin)')"
p45
aS"(6249, u'(?i)(ants|ant)')"
p46
aS"(3812, u'(?i)(studs|stud)')"
p47
aS"(6391, u'(?i)(asses|ass)')"
p48
aS"(2809, u'(?i)(toms|tom)')"
p49
aS"(6356, u'(?i)(ais|ai)')"
p50
atp51
Rp52
sb.