(ifile_types
ParseObject
p0
(dp1
S'methods'
p2
c__builtin__
set
p3
((lp4
S'Method.AGONIST'
p5
atp6
Rp7
sS'topics'
p8
g3
((lp9
tp10
Rp11
sS'receptors'
p12
g3
((lp13
(S'5ht2'
p14
I362
I366
tp15
a(S'5ht2'
p16
I546
I550
tp17
a(S'5ht1'
p18
I350
I355
tp19
a(S'5ht1b'
p20
I861
I866
tp21
a(S'5ht1a'
p22
I850
I855
tp23
a(S'5ht1c'
p24
I622
I627
tp25
a(S'5ht1b'
p26
I1203
I1208
tp27
a(S'5ht1c'
p28
I758
I763
tp29
a(S'5ht2'
p30
I411
I415
tp31
a(S'5ht1b'
p32
I342
I347
tp33
a(S'5ht1a'
p34
I1106
I1111
tp35
a(S'5ht1a'
p36
I334
I339
tp37
a(S'5ht1a'
p38
I1192
I1197
tp39
a(S'5ht1c'
p40
I350
I355
tp41
atp42
Rp43
sS'raw_text_methods'
p44
g3
((lp45
S"(13, u'\\\\bagonist')"
p46
atp47
Rp48
sS'regions'
p49
g3
((lp50
tp51
Rp52
sS'year'
p53
V1987
p54
sS'species'
p55
g3
((lp56
S"(4, u'(?i)\\\\b(rats|rat)\\\\b')"
p57
atp58
Rp59
sb.