(ifile_types
ParseObject
p0
(dp1
S'methods'
p2
c__builtin__
set
p3
((lp4
tp5
Rp6
sS'topics'
p7
g3
((lp8
S"(22, u'\\\\bschizophreni')"
p9
aS"(1, u'\\\\bpatient')"
p10
atp11
Rp12
sS'receptors'
p13
g3
((lp14
(S'5ht3'
p15
I898
I903
tp16
a(S'5ht1a'
p17
I201
I207
tp18
a(S'5ht3'
p19
I43
I48
tp20
a(S'5ht3'
p21
I509
I514
tp22
a(S'5ht3'
p23
I1088
I1093
tp24
a(S'5ht2'
p25
I219
I224
tp26
a(S'5ht3'
p27
I816
I821
tp28
atp29
Rp30
sS'raw_text_methods'
p31
g3
((lp32
S"(41, u'\\\\bhaloperidol')"
p33
aS"(42, u'\\\\bneuroleptics')"
p34
atp35
Rp36
sS'regions'
p37
g3
((lp38
S"(12, u'(?i)\\\\b(amygdalas|amygdala)\\\\b')"
p39
atp40
Rp41
sS'year'
p42
V1993
p43
sS'species'
p44
g3
((lp45
S"(6, u'(?i)\\\\b(rodents|rodent)\\\\b')"
p46
atp47
Rp48
sb.