(ifile_types
ParseObject
p0
(dp1
S'methods'
p2
c__builtin__
set
p3
((lp4
tp5
Rp6
sS'topics'
p7
g3
((lp8
S"(7, u'\\\\bdepressi')"
p9
atp10
Rp11
sS'receptors'
p12
g3
((lp13
(S'5ht2a'
p14
I1520
I1526
tp15
a(S'5ht5'
p16
I402
I412
tp17
a(S'5ht2a'
p18
I1693
I1699
tp19
a(S'5ht1a'
p20
I1682
I1688
tp21
atp22
Rp23
sS'raw_text_methods'
p24
g3
((lp25
tp26
Rp27
sS'regions'
p28
g3
((lp29
S"(19, u'(?i)\\\\b(cortexes|cortex)\\\\b')"
p30
aS"(4, u'(?i)\\\\b(presynaptics|presynaptic)\\\\b')"
p31
aS"(7, u'(?i)\\\\b(entorhinals|entorhinal)\\\\b')"
p32
atp33
Rp34
sS'year'
p35
V2008
p36
sS'species'
p37
g3
((lp38
S"(4, u'(?i)\\\\b(rats|rat)\\\\b')"
p39
atp40
Rp41
sb.