(ifile_types
ParseObject
p0
(dp1
S'methods'
p2
c__builtin__
set
p3
((lp4
tp5
Rp6
sS'topics'
p7
g3
((lp8
S"(7, u'\\\\bdepressi')"
p9
aS"(13, u'\\\\bantidepress')"
p10
aS"(4, u'\\\\btreatment')"
p11
atp12
Rp13
sS'receptors'
p14
g3
((lp15
(S'5ht1a'
p16
I1035
I1041
tp17
atp18
Rp19
sS'raw_text_methods'
p20
g3
((lp21
S"(15, u'\\\\b8ohdpat')"
p22
atp23
Rp24
sS'regions'
p25
g3
((lp26
tp27
Rp28
sS'year'
p29
V2009
p30
sS'species'
p31
g3
((lp32
S"(1, u'(?i)\\\\b(mice|mouse)\\\\b')"
p33
aS"(5, u'(?i)\\\\b(mices|mice)\\\\b')"
p34
atp35
Rp36
sb.