(ifile_types
ParseObject
p0
(dp1
S'antagonists'
p2
c__builtin__
set
p3
((lp4
S"(81, u'\\\\bagomelatine')"
p5
atp6
Rp7
sS'methods'
p8
g3
((lp9
S'Method.ANTAGONIST'
p10
aS'Method.AGONIST'
p11
atp12
Rp13
sS'topics'
p14
g3
((lp15
S"(9, u'\\\\bdepress')"
p16
aS"(35, u'\\\\bstress')"
p17
aS"(1, u'\\\\bmood')"
p18
atp19
Rp20
sS'receptors'
p21
g3
((lp22
S'5ht2c'
p23
atp24
Rp25
sS'regions'
p26
g3
((lp27
S"(203, u'(?i)(dentates|dentate)(-|\\\\s+)?(gyruses|gyrus)')"
p28
aS"(34, u'(?i)(pon|pons)')"
p29
atp30
Rp31
sS'year'
p32
V2010
p33
sS'agonists'
p34
g3
((lp35
tp36
Rp37
sS'species'
p38
g3
((lp39
S"(2323, u'(?i)(bees|bee)')"
p40
aS"(5537, u'(?i)(hippos|hippo)')"
p41
aS"(5958, u'(?i)(rats|rat)')"
p42
aS"(6753, u'(?i)(da|das)')"
p43
aS"(4091, u'(?i)(adults|adult)')"
p44
aS"(5967, u'(?i)(males|male)')"
p45
aS"(4163, u'(?i)(ermines|ermine)')"
p46
aS"(1055, u'(?i)(men|man)')"
p47
aS"(6249, u'(?i)(ants|ant)')"
p48
aS"(4979, u'(?i)(cats|cat)')"
p49
aS"(3550, u'(?i)(anis|ani)')"
p50
aS"(3812, u'(?i)(studs|stud)')"
p51
aS"(6391, u'(?i)(asses|ass)')"
p52
aS"(6356, u'(?i)(ais|ai)')"
p53
atp54
Rp55
sb.