(ifile_types
ParseObject
p0
(dp1
S'antagonists'
p2
c__builtin__
set
p3
((lp4
tp5
Rp6
sS'methods'
p7
g3
((lp8
S'Method.ANTAGONIST'
p9
atp10
Rp11
sS'topics'
p12
g3
((lp13
S"(4, u'\\\\blocomot')"
p14
atp15
Rp16
sS'receptors'
p17
g3
((lp18
S'5ht5'
p19
aS'5ht3'
p20
atp21
Rp22
sS'regions'
p23
g3
((lp24
S"(315, u'(?i)(mesolimbics|mesolimbic)(-|\\\\s+)?(pathways|pathway)')"
p25
aS"(34, u'(?i)(pon|pons)')"
p26
atp27
Rp28
sS'year'
p29
V2001
p30
sS'agonists'
p31
g3
((lp32
tp33
Rp34
sS'species'
p35
g3
((lp36
S"(6753, u'(?i)(da|das)')"
p37
aS"(5958, u'(?i)(rats|rat)')"
p38
aS"(163, u'(?i)(mice|mouse)')"
p39
aS"(6249, u'(?i)(ants|ant)')"
p40
aS"(6356, u'(?i)(ais|ai)')"
p41
aS"(3550, u'(?i)(anis|ani)')"
p42
aS"(3812, u'(?i)(studs|stud)')"
p43
aS"(1795, u'(?i)(mounts|mount)')"
p44
aS"(821, u'(?i)(lice|louse)')"
p45
atp46
Rp47
sb.