(ifile_types
ParseObject
p0
(dp1
S'methods'
p2
c__builtin__
set
p3
((lp4
S'Method.ANTAGONIST'
p5
aS'Method.AGONIST'
p6
atp7
Rp8
sS'topics'
p9
g3
((lp10
S"(26, u'\\\\bbehav')"
p11
aS"(27, u'\\\\bdyskinesia')"
p12
aS"(34, u'\\\\bparkinson')"
p13
aS"(1, u'\\\\bpatient')"
p14
aS"(4, u'\\\\btreatment')"
p15
aS"(3, u'\\\\bclinical')"
p16
atp17
Rp18
sS'receptors'
p19
g3
((lp20
(S'5ht1'
p21
I2030
I2035
tp22
a(S'5ht1a'
p23
I631
I637
tp24
a(S'5ht1'
p25
I273
I278
tp26
a(S'5ht1'
p27
I709
I714
tp28
a(S'5ht1a'
p29
I52
I58
tp30
a(S'5ht1a'
p31
I250
I261
tp32
atp33
Rp34
sS'raw_text_methods'
p35
g3
((lp36
S"(13, u'\\\\bagonist')"
p37
aS"(15, u'\\\\b8ohdpat')"
p38
aS"(5, u'\\\\bmk801')"
p39
aS"(12, u'\\\\bantagonist')"
p40
atp41
Rp42
sS'regions'
p43
g3
((lp44
tp45
Rp46
sS'year'
p47
V2008
p48
sS'species'
p49
g3
((lp50
S"(3, u'(?i)\\\\b(males|male)\\\\b')"
p51
aS"(4, u'(?i)\\\\b(rats|rat)\\\\b')"
p52
atp53
Rp54
sb.