(ifile_types
ParseObject
p0
(dp1
S'antagonists'
p2
c__builtin__
set
p3
((lp4
S"(54, u'\\\\britanserin')"
p5
aS"(130, u'\\\\britanserin')"
p6
atp7
Rp8
sS'methods'
p9
g3
((lp10
S'Method.ANTAGONIST'
p11
aS'Method.AGONIST'
p12
atp13
Rp14
sS'topics'
p15
g3
((lp16
S"(3, u'\\\\bsleep')"
p17
atp18
Rp19
sS'receptors'
p20
g3
((lp21
S'5ht1a'
p22
aS'5ht2c'
p23
aS'5ht2a'
p24
atp25
Rp26
sS'regions'
p27
g3
((lp28
S"(165, u'(?i)(preoptics|preoptic)(-|\\\\s+)?(areas|area)')"
p29
aS"(187, u'(?i)(mammillaries|mammillary)(-|\\\\s+)?(nuclei|nucleus)')"
p30
aS"(175, u'(?i)(mammillaries|mammillary)(-|\\\\s+)?(nuclei|nucleus)(-|\\\\s+)?(|)')"
p31
aS"(185, u'(?i)(tuberomammillaries|tuberomammillary)(-|\\\\s+)?(nuclei|nucleus)')"
p32
aS"(34, u'(?i)(pon|pons)')"
p33
aS"(318, u'(?i)(raphes|raphe)(-|\\\\s+)?(nuclei|nucleus)')"
p34
aS"(94, u'(?i)(dorsals|dorsal)(-|\\\\s+)?(raphes|raphe)(-|\\\\s+)?(nuclei|nucleus)')"
p35
atp36
Rp37
sS'year'
p38
V2011
p39
sS'agonists'
p40
g3
((lp41
S"(92, u'\\\\b8 ?oh ?dpat')"
p42
aS"(33, u'\\\\bdoi')"
p43
atp44
Rp45
sS'species'
p46
g3
((lp47
S"(2323, u'(?i)(bees|bee)')"
p48
aS"(6753, u'(?i)(da|das)')"
p49
aS"(5958, u'(?i)(rats|rat)')"
p50
aS"(4979, u'(?i)(cats|cat)')"
p51
aS"(6682, u'(?i)(tera|teras)')"
p52
aS"(1055, u'(?i)(men|man)')"
p53
aS"(4964, u'(?i)(serins|serin)')"
p54
aS"(6249, u'(?i)(ants|ant)')"
p55
aS"(1961, u'(?i)(pens|pen)')"
p56
aS"(3812, u'(?i)(studs|stud)')"
p57
aS"(5949, u'(?i)(dogs|dog)')"
p58
atp59
Rp60
sb.