(ifile_types
ParseObject
p0
(dp1
S'methods'
p2
c__builtin__
set
p3
((lp4
S'Method.ANTAGONIST'
p5
aS'Method.AGONIST'
p6
atp7
Rp8
sS'topics'
p9
g3
((lp10
S"(24, u'\\\\banxiolytic')"
p11
aS"(8, u'\\\\banxi')"
p12
aS"(26, u'\\\\bbehav')"
p13
atp14
Rp15
sS'receptors'
p16
g3
((lp17
(S'5ht1a'
p18
I312
I318
tp19
atp20
Rp21
sS'raw_text_methods'
p22
g3
((lp23
S"(13, u'\\\\bagonist')"
p24
aS"(16, u'\\\\bdiazepam')"
p25
aS"(21, u'\\\\bipsapirone')"
p26
aS"(12, u'\\\\bantagonist')"
p27
atp28
Rp29
sS'regions'
p30
g3
((lp31
tp32
Rp33
sS'year'
p34
V1998
p35
sS'species'
p36
g3
((lp37
tp38
Rp39
sb.