(ifile_types
ParseObject
p0
(dp1
S'methods'
p2
c__builtin__
set
p3
((lp4
tp5
Rp6
sS'topics'
p7
g3
((lp8
S"(13, u'\\\\bantidepress')"
p9
aS"(7, u'\\\\bdepressi')"
p10
aS"(9, u'\\\\bstress')"
p11
aS"(4, u'\\\\btreatment')"
p12
atp13
Rp14
sS'receptors'
p15
g3
((lp16
(S'5ht5'
p17
I1806
I1811
tp18
a(S'5ht1a'
p19
I1205
I1211
tp20
a(S'5ht5'
p21
I1487
I1492
tp22
a(S'5ht5'
p23
I2477
I2482
tp24
a(S'5ht1a'
p25
I1503
I1509
tp26
a(S'5ht5'
p27
I106
I111
tp28
a(S'5ht5'
p29
I1481
I1486
tp30
a(S'5ht5'
p31
I2728
I2733
tp32
a(S'5ht5'
p33
I295
I300
tp34
a(S'5ht5a'
p35
I2477
I2483
tp36
atp37
Rp38
sS'raw_text_methods'
p39
g3
((lp40
S"(11, u'\\\\bfluoxetine')"
p41
atp42
Rp43
sS'regions'
p44
g3
((lp45
S"(11, u'(?i)\\\\b(cerebrals|cerebral)\\\\b')"
p46
aS"(19, u'(?i)\\\\b(cortexes|cortex)\\\\b')"
p47
aS"(20, u'(?i)\\\\b(prefrontals|prefrontal)\\\\b')"
p48
atp49
Rp50
sS'year'
p51
V2016
p52
sS'species'
p53
g3
((lp54
S"(3, u'(?i)\\\\b(males|male)\\\\b')"
p55
aS"(4, u'(?i)\\\\b(rats|rat)\\\\b')"
p56
atp57
Rp58
sb.