(ifile_types
ParseObject
p0
(dp1
S'antagonists'
p2
c__builtin__
set
p3
((lp4
S"(4, u'\\\\bbmy ?7378')"
p5
atp6
Rp7
sS'methods'
p8
g3
((lp9
S'Method.AGONIST'
p10
atp11
Rp12
sS'topics'
p13
g3
((lp14
S"(9, u'\\\\bdepress')"
p15
atp16
Rp17
sS'receptors'
p18
g3
((lp19
S'5ht1a'
p20
atp21
Rp22
sS'regions'
p23
g3
((lp24
S"(34, u'(?i)(pon|pons)')"
p25
atp26
Rp27
sS'year'
p28
V1993
p29
sS'agonists'
p30
g3
((lp31
S"(92, u'\\\\b8 ?oh ?dpat')"
p32
aS"(50, u'\\\\bipsapirone')"
p33
atp34
Rp35
sS'species'
p36
g3
((lp37
S"(5537, u'(?i)(hippos|hippo)')"
p38
aS"(5958, u'(?i)(rats|rat)')"
p39
aS"(5743, u'(?i)(bots|bot)')"
p40
aS"(4163, u'(?i)(ermines|ermine)')"
p41
aS"(468, u'(?i)(oxen|ox)')"
p42
aS"(3592, u'(?i)(ravens|raven)')"
p43
aS"(3726, u'(?i)(mates|mate)')"
p44
aS"(1055, u'(?i)(men|man)')"
p45
aS"(4979, u'(?i)(cats|cat)')"
p46
aS"(3522, u'(?i)(tetras|tetra)')"
p47
aS"(7094, u'(?i)(curs|cur)')"
p48
aS"(3812, u'(?i)(studs|stud)')"
p49
aS"(1349, u'(?i)(rams|ram)')"
p50
atp51
Rp52
sb.