(ifile_types
ParseObject
p0
(dp1
S'methods'
p2
c__builtin__
set
p3
((lp4
S'Method.ANTAGONIST'
p5
atp6
Rp7
sS'topics'
p8
g3
((lp9
S"(9, u'\\\\bstress')"
p10
atp11
Rp12
sS'receptors'
p13
g3
((lp14
(S'5ht1b'
p15
I1315
I1321
tp16
a(S'5ht1b'
p17
I131
I137
tp18
a(S'5ht1b'
p19
I1600
I1606
tp20
atp21
Rp22
sS'raw_text_methods'
p23
g3
((lp24
S"(48, u'\\\\bmdma')"
p25
aS"(6, u'\\\\bgr127935')"
p26
aS"(12, u'\\\\bantagonist')"
p27
atp28
Rp29
sS'regions'
p30
g3
((lp31
tp32
Rp33
sS'year'
p34
V2007
p35
sS'species'
p36
g3
((lp37
S"(4, u'(?i)\\\\b(rats|rat)\\\\b')"
p38
atp39
Rp40
sb.