(ifile_types
ParseObject
p0
(dp1
S'methods'
p2
c__builtin__
set
p3
((lp4
S'Method.ANTAGONIST'
p5
atp6
Rp7
sS'topics'
p8
g3
((lp9
S"(26, u'\\\\bbehav')"
p10
atp11
Rp12
sS'receptors'
p13
g3
((lp14
(S'5ht3'
p15
I619
I624
tp16
a(S'5ht2'
p17
I264
I269
tp18
a(S'5ht1a'
p19
I166
I172
tp20
a(S'5ht2'
p21
I1103
I1108
tp22
a(S'5ht3'
p23
I1366
I1371
tp24
a(S'5ht1a'
p25
I1325
I1331
tp26
a(S'5ht2'
p27
I46
I51
tp28
a(S'5ht3'
p29
I952
I957
tp30
a(S'5ht1'
p31
I573
I578
tp32
a(S'5ht2'
p33
I435
I440
tp34
atp35
Rp36
sS'raw_text_methods'
p37
g3
((lp38
S"(49, u'\\\\bdoi')"
p39
aS"(12, u'\\\\bantagonist')"
p40
atp41
Rp42
sS'regions'
p43
g3
((lp44
tp45
Rp46
sS'year'
p47
V1991
p48
sS'species'
p49
g3
((lp50
S"(1, u'(?i)\\\\b(mice|mouse)\\\\b')"
p51
aS"(5, u'(?i)\\\\b(mices|mice)\\\\b')"
p52
atp53
Rp54
sb.