(ifile_types
ParseObject
p0
(dp1
S'antagonists'
p2
c__builtin__
set
p3
((lp4
S"(105, u'\\\\bmethysergide')"
p5
atp6
Rp7
sS'methods'
p8
g3
((lp9
S'Method.STAINING'
p10
aS'Method.AGONIST'
p11
aS'Method.ANTAGONIST'
p12
atp13
Rp14
sS'topics'
p15
g3
((lp16
S"(2, u'\\\\bappetite')"
p17
atp18
Rp19
sS'receptors'
p20
g3
((lp21
S'5ht2'
p22
aS'5ht1'
p23
atp24
Rp25
sS'regions'
p26
g3
((lp27
S"(238, u'(?i)(laminas|lamina)(-|\\\\s+)?(terminali|terminalis)')"
p28
aS"(55, u'(?i)(laterals|lateral)(-|\\\\s+)?(parabrachials|parabrachial)(-|\\\\s+)?(nuclei|nucleus)')"
p29
aS"(209, u'(?i)(amygdalas|amygdala)')"
p30
atp31
Rp32
sS'year'
p33
V2010
p34
sS'agonists'
p35
g3
((lp36
S"(60, u'\\\\bmethysergide')"
p37
atp38
Rp39
sS'species'
p40
g3
((lp41
S"(1070, u'(?i)(pets|pet)')"
p42
aS"(2323, u'(?i)(bees|bee)')"
p43
aS"(6753, u'(?i)(da|das)')"
p44
aS"(2568, u'(?i)(hens|hen)')"
p45
aS"(7609, u'(?i)(erns|ern)')"
p46
aS"(867, u'(?i)(tits|tit)')"
p47
aS"(2670, u'(?i)(arabs|arab)')"
p48
aS"(6682, u'(?i)(tera|teras)')"
p49
aS"(468, u'(?i)(oxen|ox)')"
p50
aS"(1055, u'(?i)(men|man)')"
p51
aS"(6249, u'(?i)(ants|ant)')"
p52
aS"(853, u'(?i)(minas|mina)')"
p53
aS"(3550, u'(?i)(anis|ani)')"
p54
aS"(5958, u'(?i)(rats|rat)')"
p55
aS"(6356, u'(?i)(ais|ai)')"
p56
aS"(6391, u'(?i)(asses|ass)')"
p57
atp58
Rp59
sb.