(ifile_types
ParseObject
p0
(dp1
S'methods'
p2
c__builtin__
set
p3
((lp4
S'Method.ANTAGONIST'
p5
atp6
Rp7
sS'topics'
p8
g3
((lp9
S"(4, u'\\\\btreatment')"
p10
atp11
Rp12
sS'receptors'
p13
g3
((lp14
(S'5ht2a'
p15
I961
I967
tp16
a(S'5ht2a'
p17
I874
I880
tp18
a(S'5ht2a'
p19
I1271
I1277
tp20
a(S'5ht2a'
p21
I1088
I1094
tp22
a(S'5ht2a'
p23
I208
I214
tp24
a(S'5ht2a'
p25
I642
I648
tp26
atp27
Rp28
sS'raw_text_methods'
p29
g3
((lp30
S"(12, u'\\\\bantagonist')"
p31
atp32
Rp33
sS'regions'
p34
g3
((lp35
S"(22, u'(?i)\\\\b(anteriors|anterior)(-|\\\\s+)?(cingulates|cingulate)\\\\b')"
p36
aS"(12, u'(?i)\\\\b(amygdalas|amygdala)\\\\b')"
p37
atp38
Rp39
sS'year'
p40
V2000
p41
sS'species'
p42
g3
((lp43
S"(4, u'(?i)\\\\b(rats|rat)\\\\b')"
p44
atp45
Rp46
sb.