(ifile_types
ParseObject
p0
(dp1
S'methods'
p2
c__builtin__
set
p3
((lp4
S'Method.KNOCKOUT'
p5
aS'Method.ANTAGONIST'
p6
atp7
Rp8
sS'topics'
p9
g3
((lp10
S"(7, u'\\\\bdepressi')"
p11
aS"(9, u'\\\\bstress')"
p12
aS"(2, u'\\\\bdisorder')"
p13
atp14
Rp15
sS'receptors'
p16
g3
((lp17
(S'5ht4'
p18
I93
I98
tp19
a(S'5ht1a'
p20
I1415
I1421
tp21
a(S'5ht1'
p22
I1377
I1382
tp23
a(S'5ht4'
p24
I699
I704
tp25
a(S'5ht1'
p26
I1559
I1564
tp27
a(S'5ht4'
p28
I580
I585
tp29
a(S'5ht1a'
p30
I1136
I1142
tp31
a(S'5ht4'
p32
I503
I508
tp33
a(S'5ht4'
p34
I521
I526
tp35
a(S'5ht1'
p36
I1155
I1160
tp37
a(S'5ht4'
p38
I1753
I1758
tp39
atp40
Rp41
sS'raw_text_methods'
p42
g3
((lp43
S"(51, u'\\\\bway100635')"
p44
aS"(12, u'\\\\bantagonist')"
p45
atp46
Rp47
sS'regions'
p48
g3
((lp49
S"(13, u'(?i)\\\\b(septums|septum)\\\\b')"
p50
aS"(16, u'(?i)\\\\b(drns|drn)\\\\b')"
p51
atp52
Rp53
sS'year'
p54
V2006
p55
sS'species'
p56
g3
((lp57
S"(1, u'(?i)\\\\b(mice|mouse)\\\\b')"
p58
aS"(5, u'(?i)\\\\b(mices|mice)\\\\b')"
p59
atp60
Rp61
sb.