(ifile_types
ParseObject
p0
(dp1
S'antagonists'
p2
c__builtin__
set
p3
((lp4
S"(21, u'\\\\bpindolol')"
p5
atp6
Rp7
sS'methods'
p8
g3
((lp9
S'Method.AGONIST'
p10
atp11
Rp12
sS'topics'
p13
g3
((lp14
S"(9, u'\\\\bdepress')"
p15
atp16
Rp17
sS'receptors'
p18
g3
((lp19
S'5ht1a'
p20
atp21
Rp22
sS'regions'
p23
g3
((lp24
S"(241, u'(?i)(olfactories|olfactory)(-|\\\\s+)?(bulbs|bulb)')"
p25
aS"(34, u'(?i)(pon|pons)')"
p26
atp27
Rp28
sS'year'
p29
V1998
p30
sS'agonists'
p31
g3
((lp32
S"(92, u'\\\\b8 ?oh ?dpat')"
p33
atp34
Rp35
sS'species'
p36
g3
((lp37
S"(1070, u'(?i)(pets|pet)')"
p38
aS"(5958, u'(?i)(rats|rat)')"
p39
aS"(6753, u'(?i)(da|das)')"
p40
aS"(6682, u'(?i)(tera|teras)')"
p41
aS"(81, u'(?i)(asps|asp)')"
p42
aS"(468, u'(?i)(oxen|ox)')"
p43
aS"(1055, u'(?i)(men|man)')"
p44
aS"(6249, u'(?i)(ants|ant)')"
p45
aS"(5743, u'(?i)(bots|bot)')"
p46
aS"(3550, u'(?i)(anis|ani)')"
p47
aS"(3522, u'(?i)(tetras|tetra)')"
p48
aS"(7094, u'(?i)(curs|cur)')"
p49
aS"(1961, u'(?i)(pens|pen)')"
p50
aS"(3812, u'(?i)(studs|stud)')"
p51
aS"(2809, u'(?i)(toms|tom)')"
p52
aS"(6356, u'(?i)(ais|ai)')"
p53
atp54
Rp55
sb.