(ifile_types
ParseObject
p0
(dp1
S'methods'
p2
c__builtin__
set
p3
((lp4
S'Method.ANTAGONIST'
p5
aS'Method.AGONIST'
p6
atp7
Rp8
sS'topics'
p9
g3
((lp10
tp11
Rp12
sS'receptors'
p13
g3
((lp14
(S'5ht1a'
p15
I1089
I1095
tp16
a(S'5ht2'
p17
I1494
I1504
tp18
a(S'5ht1a'
p19
I60
I66
tp20
a(S'5ht1a'
p21
I1863
I1869
tp22
a(S'5ht1a'
p23
I618
I624
tp24
a(S'5ht1a'
p25
I453
I459
tp26
a(S'5ht2'
p27
I1505
I1510
tp28
a(S'5ht1a'
p29
I1682
I1688
tp30
atp31
Rp32
sS'raw_text_methods'
p33
g3
((lp34
S"(13, u'\\\\bagonist')"
p35
aS"(15, u'\\\\b8ohdpat')"
p36
aS"(51, u'\\\\bway100635')"
p37
aS"(12, u'\\\\bantagonist')"
p38
atp39
Rp40
sS'regions'
p41
g3
((lp42
tp43
Rp44
sS'year'
p45
V2005
p46
sS'species'
p47
g3
((lp48
S"(3, u'(?i)\\\\b(males|male)\\\\b')"
p49
aS"(4, u'(?i)\\\\b(rats|rat)\\\\b')"
p50
atp51
Rp52
sb.