(ifile_types
ParseObject
p0
(dp1
S'methods'
p2
c__builtin__
set
p3
((lp4
S'Method.ANTAGONIST'
p5
atp6
Rp7
sS'topics'
p8
g3
((lp9
tp10
Rp11
sS'receptors'
p12
g3
((lp13
(S'5ht1a'
p14
I1273
I1279
tp15
a(S'5ht1b'
p16
I727
I733
tp17
a(S'5ht1b'
p18
I314
I320
tp19
a(S'5ht1a'
p20
I510
I516
tp21
a(S'5ht1b'
p22
I634
I640
tp23
a(S'5ht1a'
p24
I571
I577
tp25
a(S'5ht1a'
p26
I1064
I1070
tp27
a(S'5ht1a'
p28
I301
I307
tp29
a(S'5ht1a'
p30
I360
I366
tp31
a(S'5ht1d'
p32
I727
I735
tp33
atp34
Rp35
sS'raw_text_methods'
p36
g3
((lp37
S"(15, u'\\\\b8ohdpat')"
p38
aS"(11, u'\\\\bfluoxetine')"
p39
aS"(12, u'\\\\bantagonist')"
p40
atp41
Rp42
sS'regions'
p43
g3
((lp44
S"(4, u'(?i)\\\\b(presynaptics|presynaptic)\\\\b')"
p45
aS"(3, u'(?i)\\\\b(postsynaptics|postsynaptic)\\\\b')"
p46
atp47
Rp48
sS'year'
p49
V2000
p50
sS'species'
p51
g3
((lp52
S"(4, u'(?i)\\\\b(rats|rat)\\\\b')"
p53
atp54
Rp55
sb.