(ifile_types
ParseObject
p0
(dp1
S'methods'
p2
c__builtin__
set
p3
((lp4
S'Method.ANTAGONIST'
p5
aS'Method.AGONIST'
p6
atp7
Rp8
sS'topics'
p9
g3
((lp10
S"(26, u'\\\\bbehav')"
p11
atp12
Rp13
sS'receptors'
p14
g3
((lp15
(S'5ht2a'
p16
I1796
I1802
tp17
a(S'5ht2a'
p18
I786
I792
tp19
a(S'5ht2a'
p20
I1934
I1940
tp21
a(S'5ht2a'
p22
I1603
I1609
tp23
a(S'5ht2c'
p24
I786
I794
tp25
a(S'5ht2a'
p26
I399
I405
tp27
a(S'5ht2'
p28
I1247
I1252
tp29
a(S'5ht2c'
p30
I258
I266
tp31
a(S'5ht2a'
p32
I258
I264
tp33
a(S'5ht2a'
p34
I895
I901
tp35
a(S'5ht2a'
p36
I1327
I1333
tp37
atp38
Rp39
sS'raw_text_methods'
p40
g3
((lp41
S"(13, u'\\\\bagonist')"
p42
aS"(49, u'\\\\bdoi')"
p43
aS"(50, u'\\\\bm100907')"
p44
aS"(12, u'\\\\bantagonist')"
p45
atp46
Rp47
sS'regions'
p48
g3
((lp49
tp50
Rp51
sS'year'
p52
V2018
p53
sS'species'
p54
g3
((lp55
S"(1, u'(?i)\\\\b(mice|mouse)\\\\b')"
p56
aS"(5, u'(?i)\\\\b(mices|mice)\\\\b')"
p57
aS"(3, u'(?i)\\\\b(males|male)\\\\b')"
p58
aS"(4, u'(?i)\\\\b(rats|rat)\\\\b')"
p59
atp60
Rp61
sb.