(ifile_types
ParseObject
p0
(dp1
S'antagonists'
p2
c__builtin__
set
p3
((lp4
S"(34, u'\\\\bmetergoline')"
p5
aS"(17, u'\\\\bnan ?190')"
p6
aS"(119, u'\\\\britanserin')"
p7
atp8
Rp9
sS'methods'
p10
g3
((lp11
S'Method.ANTAGONIST'
p12
atp13
Rp14
sS'topics'
p15
g3
((lp16
S"(11, u'\\\\banxiolyt')"
p17
atp18
Rp19
sS'receptors'
p20
g3
((lp21
S'5ht1c'
p22
aS'5ht1b'
p23
aS'5ht1a'
p24
aS'5ht2'
p25
atp26
Rp27
sS'regions'
p28
g3
((lp29
tp30
Rp31
sS'year'
p32
V1991
p33
sS'agonists'
p34
g3
((lp35
S"(45, u'\\\\bipsapirone')"
p36
atp37
Rp38
sS'species'
p39
g3
((lp40
S"(5958, u'(?i)\\\\b(rats|rat)\\\\b')"
p41
atp42
Rp43
sb.