(ifile_types
ParseObject
p0
(dp1
S'antagonists'
p2
c__builtin__
set
p3
((lp4
S"(32, u'\\\\bway ?100635')"
p5
atp6
Rp7
sS'methods'
p8
g3
((lp9
S'Method.ANTAGONIST'
p10
aS'Method.AGONIST'
p11
atp12
Rp13
sS'topics'
p14
g3
((lp15
tp16
Rp17
sS'receptors'
p18
g3
((lp19
S'5ht7a'
p20
aS'5ht1a'
p21
aS'5ht2c'
p22
aS'5ht1d'
p23
atp24
Rp25
sS'regions'
p26
g3
((lp27
S"(318, u'(?i)(raphes|raphe)(-|\\\\s+)?(nuclei|nucleus)')"
p28
aS"(94, u'(?i)(dorsals|dorsal)(-|\\\\s+)?(raphes|raphe)(-|\\\\s+)?(nuclei|nucleus)')"
p29
atp30
Rp31
sS'year'
p32
V1998
p33
sS'agonists'
p34
g3
((lp35
S"(92, u'\\\\b8 ?oh ?dpat')"
p36
aS"(50, u'\\\\bipsapirone')"
p37
atp38
Rp39
sS'species'
p40
g3
((lp41
S"(5537, u'(?i)(hippos|hippo)')"
p42
aS"(1688, u'(?i)(ounces|ounce)')"
p43
aS"(2568, u'(?i)(hens|hen)')"
p44
aS"(6356, u'(?i)(ais|ai)')"
p45
aS"(5510, u'(?i)(bays|bay)')"
p46
aS"(5743, u'(?i)(bots|bot)')"
p47
aS"(6391, u'(?i)(asses|ass)')"
p48
aS"(1883, u'(?i)(calves|calf)')"
p49
aS"(468, u'(?i)(oxen|ox)')"
p50
aS"(1349, u'(?i)(rams|ram)')"
p51
aS"(6249, u'(?i)(ants|ant)')"
p52
aS"(1055, u'(?i)(men|man)')"
p53
aS"(853, u'(?i)(minas|mina)')"
p54
aS"(5958, u'(?i)(rats|rat)')"
p55
aS"(3522, u'(?i)(tetras|tetra)')"
p56
aS"(1057, u'(?i)(humans|human)')"
p57
aS"(4371, u'(?i)(lizas|liza)')"
p58
aS"(1414, u'(?i)(chars|char)')"
p59
aS"(3196, u'(?i)(human|humans)')"
p60
aS"(821, u'(?i)(lice|louse)')"
p61
atp62
Rp63
sb.