(ifile_types
ParseObject
p0
(dp1
S'antagonists'
p2
c__builtin__
set
p3
((lp4
S"(32, u'\\\\bway ?100635')"
p5
atp6
Rp7
sS'methods'
p8
g3
((lp9
S'Method.ANTAGONIST'
p10
aS'Method.AGONIST'
p11
atp12
Rp13
sS'topics'
p14
g3
((lp15
tp16
Rp17
sS'receptors'
p18
g3
((lp19
S'5ht1a'
p20
aS'5ht2a'
p21
atp22
Rp23
sS'regions'
p24
g3
((lp25
tp26
Rp27
sS'year'
p28
V2001
p29
sS'agonists'
p30
g3
((lp31
S"(92, u'\\\\b8 ?oh ?dpat')"
p32
atp33
Rp34
sS'species'
p35
g3
((lp36
S"(2568, u'(?i)(hens|hen)')"
p37
aS"(867, u'(?i)(tits|tit)')"
p38
aS"(163, u'(?i)(mice|mouse)')"
p39
aS"(4163, u'(?i)(ermines|ermine)')"
p40
aS"(6249, u'(?i)(ants|ant)')"
p41
aS"(4979, u'(?i)(cats|cat)')"
p42
aS"(5958, u'(?i)(rats|rat)')"
p43
aS"(3812, u'(?i)(studs|stud)')"
p44
atp45
Rp46
sb.