(ifile_types
ParseObject
p0
(dp1
S'methods'
p2
c__builtin__
set
p3
((lp4
S'Method.AGONIST'
p5
atp6
Rp7
sS'topics'
p8
g3
((lp9
S"(13, u'\\\\bantidepress')"
p10
aS"(26, u'\\\\bbehav')"
p11
atp12
Rp13
sS'receptors'
p14
g3
((lp15
(S'5ht1a'
p16
I1237
I1243
tp17
a(S'5ht1a'
p18
I875
I881
tp19
atp20
Rp21
sS'raw_text_methods'
p22
g3
((lp23
S"(15, u'\\\\b8ohdpat')"
p24
aS"(13, u'\\\\bagonist')"
p25
aS"(11, u'\\\\bfluoxetine')"
p26
aS"(38, u'\\\\bssri')"
p27
aS"(39, u'\\\\bselective serotonin reuptake inhibitor')"
p28
aS"(24, u'\\\\bgepirone')"
p29
atp30
Rp31
sS'regions'
p32
g3
((lp33
tp34
Rp35
sS'year'
p36
V1995
p37
sS'species'
p38
g3
((lp39
S"(4, u'(?i)\\\\b(rats|rat)\\\\b')"
p40
atp41
Rp42
sb.