(ifile_types
ParseObject
p0
(dp1
S'antagonists'
p2
c__builtin__
set
p3
((lp4
S"(57, u'\\\\bolanzapine')"
p5
aS"(124, u'\\\\bolanzapine')"
p6
atp7
Rp8
sS'methods'
p9
g3
((lp10
tp11
Rp12
sS'topics'
p13
g3
((lp14
S"(15, u'\\\\bschizophreni')"
p15
atp16
Rp17
sS'receptors'
p18
g3
((lp19
S'5ht2a'
p20
atp21
Rp22
sS'regions'
p23
g3
((lp24
S"(396, u'(?i)(subventriculars|subventricular)(-|\\\\s+)?(zones|zone)')"
p25
aS"(34, u'(?i)(pon|pons)')"
p26
atp27
Rp28
sS'year'
p29
V2006
p30
sS'agonists'
p31
g3
((lp32
S"(64, u'\\\\bolanzapine')"
p33
atp34
Rp35
sS'species'
p36
g3
((lp37
S"(6249, u'(?i)(ants|ant)')"
p38
aS"(5454, u'(?i)(brills|brill)')"
p39
aS"(4091, u'(?i)(adults|adult)')"
p40
aS"(468, u'(?i)(oxen|ox)')"
p41
aS"(4604, u'(?i)(mites|mite)')"
p42
aS"(5958, u'(?i)(rats|rat)')"
p43
aS"(7094, u'(?i)(curs|cur)')"
p44
aS"(6356, u'(?i)(ais|ai)')"
p45
aS"(7058, u'(?i)(does|doe)')"
p46
atp47
Rp48
sb.