(ifile_types
ParseObject
p0
(dp1
S'methods'
p2
c__builtin__
set
p3
((lp4
S'Method.ANTAGONIST'
p5
aS'Method.AGONIST'
p6
atp7
Rp8
sS'topics'
p9
g3
((lp10
tp11
Rp12
sS'receptors'
p13
g3
((lp14
(S'5ht1a'
p15
I449
I455
tp16
a(S'5ht1a'
p17
I1444
I1450
tp18
a(S'5ht1a'
p19
I176
I182
tp20
a(S'5ht1a'
p21
I347
I353
tp22
a(S'5ht1a'
p23
I518
I524
tp24
a(S'5ht1a'
p25
I1268
I1274
tp26
a(S'5ht1a'
p27
I104
I110
tp28
a(S'5ht1a'
p29
I912
I918
tp30
atp31
Rp32
sS'raw_text_methods'
p33
g3
((lp34
S"(13, u'\\\\bagonist')"
p35
aS"(15, u'\\\\b8ohdpat')"
p36
aS"(21, u'\\\\bipsapirone')"
p37
aS"(12, u'\\\\bantagonist')"
p38
atp39
Rp40
sS'regions'
p41
g3
((lp42
tp43
Rp44
sS'year'
p45
V1999
p46
sS'species'
p47
g3
((lp48
S"(6, u'(?i)\\\\b(rodents|rodent)\\\\b')"
p49
atp50
Rp51
sb.