(ifile_types
ParseObject
p0
(dp1
S'antagonists'
p2
c__builtin__
set
p3
((lp4
tp5
Rp6
sS'methods'
p7
g3
((lp8
S'Method.PET'
p9
atp10
Rp11
sS'topics'
p12
g3
((lp13
S"(20, u'\\\\baggressi')"
p14
atp15
Rp16
sS'receptors'
p17
g3
((lp18
S'5ht1b'
p19
atp20
Rp21
sS'regions'
p22
g3
((lp23
S"(209, u'(?i)(amygdalas|amygdala)')"
p24
aS"(291, u'(?i)(cingulates|cingulate)(-|\\\\s+)?(cortexes|cortex)')"
p25
aS"(270, u'(?i)(v1s|v1)')"
p26
aS"(293, u'(?i)(posteriors|posterior)(-|\\\\s+)?(cingulates|cingulate)')"
p27
aS"(174, u'(?i)(posteriors|posterior)')"
p28
aS"(34, u'(?i)(pon|pons)')"
p29
aS"(220, u'(?i)(striatums|striatum)')"
p30
atp31
Rp32
sS'year'
p33
V2018
p34
sS'agonists'
p35
g3
((lp36
tp37
Rp38
sS'species'
p39
g3
((lp40
S"(1070, u'(?i)(pets|pet)')"
p41
aS"(2323, u'(?i)(bees|bee)')"
p42
aS"(6753, u'(?i)(da|das)')"
p43
aS"(949, u'(?i)(cohoes|coho)')"
p44
aS"(5626, u'(?i)(posters|poster)')"
p45
aS"(479, u'(?i)(lings|ling)')"
p46
aS"(4091, u'(?i)(adults|adult)')"
p47
aS"(1055, u'(?i)(men|man)')"
p48
aS"(3726, u'(?i)(mates|mate)')"
p49
aS"(4979, u'(?i)(cats|cat)')"
p50
aS"(6249, u'(?i)(ants|ant)')"
p51
aS"(3426, u'(?i)(hares|hare)')"
p52
aS"(3812, u'(?i)(studs|stud)')"
p53
aS"(6391, u'(?i)(asses|ass)')"
p54
aS"(391, u'(?i)(alli|allis)')"
p55
aS"(2809, u'(?i)(toms|tom)')"
p56
aS"(5537, u'(?i)(hippos|hippo)')"
p57
aS"(6356, u'(?i)(ais|ai)')"
p58
atp59
Rp60
sb.