(ifile_types
ParseObject
p0
(dp1
S'antagonists'
p2
c__builtin__
set
p3
((lp4
S"(26, u'\\\\bspiperone')"
p5
aS"(21, u'\\\\bpindolol')"
p6
aS"(31, u'\\\\bway ?100635')"
p7
atp8
Rp9
sS'methods'
p10
g3
((lp11
S'Method.ANTAGONIST'
p12
aS'Method.AGONIST'
p13
atp14
Rp15
sS'topics'
p16
g3
((lp17
tp18
Rp19
sS'receptors'
p20
g3
((lp21
S'5ht1a'
p22
atp23
Rp24
sS'regions'
p25
g3
((lp26
tp27
Rp28
sS'year'
p29
V2009
p30
sS'agonists'
p31
g3
((lp32
S"(20, u'\\\\bbuspirone')"
p33
aS"(37, u'\\\\bf ?13714')"
p34
aS"(39, u'\\\\bflesinoxan')"
p35
aS"(114, u'\\\\bl ?694247')"
p36
aS"(98, u'\\\\b5 ?carboxamidotryptamine')"
p37
aS"(85, u'\\\\b8 ?oh ?dpat')"
p38
atp39
Rp40
sS'species'
p41
g3
((lp42
S"(5685, u'(?i)\\\\b(xenopuses|xenopus)(-|\\\\s+)?(laevi|laevis)\\\\b')"
p43
aS"(2395, u'(?i)\\\\b(mutants|mutant)\\\\b')"
p44
aS"(4099, u'(?i)\\\\b(hamsters|hamster)\\\\b')"
p45
atp46
Rp47
sb.