(ifile_types
ParseObject
p0
(dp1
S'methods'
p2
c__builtin__
set
p3
((lp4
S'Method.ANTAGONIST'
p5
aS'Method.AGONIST'
p6
atp7
Rp8
sS'topics'
p9
g3
((lp10
tp11
Rp12
sS'receptors'
p13
g3
((lp14
(S'5ht2a'
p15
I1108
I1114
tp16
a(S'5ht1a'
p17
I1415
I1421
tp18
a(S'5ht2a'
p19
I1041
I1047
tp20
a(S'5ht1a'
p21
I780
I786
tp22
a(S'5ht1a'
p23
I101
I107
tp24
a(S'5ht2'
p25
I1449
I1454
tp26
a(S'5ht2c'
p27
I1041
I1048
tp28
a(S'5ht1a'
p29
I422
I428
tp30
a(S'5ht2a'
p31
I1696
I1702
tp32
a(S'5ht1a'
p33
I1573
I1579
tp34
a(S'5ht2c'
p35
I1235
I1241
tp36
a(S'5ht1a'
p37
I349
I355
tp38
a(S'5ht2'
p39
I110
I115
tp40
a(S'5ht1a'
p41
I1828
I1834
tp42
a(S'5ht2'
p43
I374
I379
tp44
atp45
Rp46
sS'raw_text_methods'
p47
g3
((lp48
S"(13, u'\\\\bagonist')"
p49
aS"(51, u'\\\\bway100635')"
p50
aS"(49, u'\\\\bdoi')"
p51
aS"(23, u'\\\\bmdl')"
p52
aS"(12, u'\\\\bantagonist')"
p53
atp54
Rp55
sS'regions'
p56
g3
((lp57
tp58
Rp59
sS'year'
p60
V2002
p61
sS'species'
p62
g3
((lp63
tp64
Rp65
sb.