(ifile_types
ParseObject
p0
(dp1
S'methods'
p2
c__builtin__
set
p3
((lp4
S'Method.ANTAGONIST'
p5
atp6
Rp7
sS'topics'
p8
g3
((lp9
S"(5, u'\\\\btherap')"
p10
atp11
Rp12
sS'receptors'
p13
g3
((lp14
(S'5ht3'
p15
I2009
I2014
tp16
a(S'5ht3'
p17
I1299
I1304
tp18
a(S'5ht3'
p19
I1717
I1721
tp20
a(S'5ht3'
p21
I436
I441
tp22
a(S'5ht3'
p23
I151
I161
tp24
atp25
Rp26
sS'raw_text_methods'
p27
g3
((lp28
S"(12, u'\\\\bantagonist')"
p29
atp30
Rp31
sS'regions'
p32
g3
((lp33
tp34
Rp35
sS'year'
p36
V2012
p37
sS'species'
p38
g3
((lp39
S"(2, u'(?i)\\\\b(females|female)\\\\b')"
p40
aS"(4, u'(?i)\\\\b(rats|rat)\\\\b')"
p41
atp42
Rp43
sb.