(ifile_types
ParseObject
p0
(dp1
S'methods'
p2
c__builtin__
set
p3
((lp4
S'Method.ANTAGONIST'
p5
aS'Method.AGONIST'
p6
atp7
Rp8
sS'topics'
p9
g3
((lp10
S"(24, u'\\\\banxiolytic')"
p11
aS"(8, u'\\\\banxi')"
p12
atp13
Rp14
sS'receptors'
p15
g3
((lp16
(S'5ht1a'
p17
I1419
I1425
tp18
a(S'5ht1a'
p19
I67
I73
tp20
a(S'5ht1a'
p21
I200
I206
tp22
atp23
Rp24
sS'raw_text_methods'
p25
g3
((lp26
S"(21, u'\\\\bipsapirone')"
p27
aS"(22, u'\\\\bbuspirone')"
p28
aS"(15, u'\\\\b8ohdpat')"
p29
aS"(32, u'\\\\blesions')"
p30
aS"(13, u'\\\\bagonist')"
p31
aS"(4, u'\\\\bpcpa')"
p32
aS"(24, u'\\\\bgepirone')"
p33
aS"(12, u'\\\\bantagonist')"
p34
atp35
Rp36
sS'regions'
p37
g3
((lp38
S"(4, u'(?i)\\\\b(presynaptics|presynaptic)\\\\b')"
p39
atp40
Rp41
sS'year'
p42
V1992
p43
sS'species'
p44
g3
((lp45
tp46
Rp47
sb.