(ifile_types
ParseObject
p0
(dp1
S'antagonists'
p2
c__builtin__
set
p3
((lp4
tp5
Rp6
sS'methods'
p7
g3
((lp8
S'Method.AGONIST'
p9
atp10
Rp11
sS'topics'
p12
g3
((lp13
S"(6, u'\\\\bcognit')"
p14
aS"(14, u'\\\\bpsychosis')"
p15
aS"(7, u'\\\\bmemory')"
p16
atp17
Rp18
sS'receptors'
p19
g3
((lp20
S'5ht5'
p21
aS'5ht1a'
p22
aS'5ht2c'
p23
aS'5ht2a'
p24
atp25
Rp26
sS'regions'
p27
g3
((lp28
S"(254, u'(?i)(prefrontals|prefrontal)(-|\\\\s+)?(cortexes|cortex)')"
p29
aS"(255, u'(?i)(pres|pre)(-|\\\\s+)?(frontals|frontal)(-|\\\\s+)?(cortexes|cortex)')"
p30
aS"(34, u'(?i)(pon|pons)')"
p31
atp32
Rp33
sS'year'
p34
V2014
p35
sS'agonists'
p36
g3
((lp37
S"(155, u'\\\\bmem')"
p38
aS"(33, u'\\\\bdoi')"
p39
atp40
Rp41
sS'species'
p42
g3
((lp43
S"(2054, u'(?i)(heads|head)')"
p44
aS"(6753, u'(?i)(da|das)')"
p45
aS"(5958, u'(?i)(rats|rat)')"
p46
aS"(6356, u'(?i)(ais|ai)')"
p47
aS"(163, u'(?i)(mice|mouse)')"
p48
aS"(4163, u'(?i)(ermines|ermine)')"
p49
aS"(5967, u'(?i)(males|male)')"
p50
aS"(468, u'(?i)(oxen|ox)')"
p51
aS"(1055, u'(?i)(men|man)')"
p52
aS"(6580, u'(?i)(dams|dam)')"
p53
aS"(853, u'(?i)(minas|mina)')"
p54
aS"(3550, u'(?i)(anis|ani)')"
p55
aS"(6682, u'(?i)(tera|teras)')"
p56
aS"(7127, u'(?i)(monitors|monitor)')"
p57
aS"(5229, u'(?i)(moles|mole)')"
p58
aS"(3812, u'(?i)(studs|stud)')"
p59
aS"(6391, u'(?i)(asses|ass)')"
p60
aS"(4979, u'(?i)(cats|cat)')"
p61
atp62
Rp63
sb.