(ifile_types
ParseObject
p0
(dp1
S'antagonists'
p2
c__builtin__
set
p3
((lp4
S"(155, u'\\\\bgr ?125487')"
p5
aS"(14, u'\\\\bmethiothepin')"
p6
aS"(141, u'\\\\bzacopride')"
p7
atp8
Rp9
sS'methods'
p10
g3
((lp11
S'Method.ANTAGONIST'
p12
aS'Method.AGONIST'
p13
atp14
Rp15
sS'topics'
p16
g3
((lp17
tp18
Rp19
sS'receptors'
p20
g3
((lp21
S'5ht5'
p22
aS'5ht4'
p23
aS'5ht3'
p24
aS'5ht2'
p25
aS'5ht1'
p26
aS'5ht6a'
p27
aS'5ht4a'
p28
atp29
Rp30
sS'regions'
p31
g3
((lp32
S"(220, u'(?i)(striatums|striatum)')"
p33
atp34
Rp35
sS'year'
p36
V1997
p37
sS'agonists'
p38
g3
((lp39
S"(224, u'\\\\b5 ?methoxytryptamine')"
p40
aS"(225, u'\\\\b5 ?meot')"
p41
aS"(212, u'\\\\bzacopride')"
p42
aS"(201, u'\\\\bbimu ?8')"
p43
atp44
Rp45
sS'species'
p46
g3
((lp47
S"(6753, u'(?i)(da|das)')"
p48
aS"(5958, u'(?i)(rats|rat)')"
p49
aS"(4979, u'(?i)(cats|cat)')"
p50
aS"(468, u'(?i)(oxen|ox)')"
p51
aS"(1055, u'(?i)(men|man)')"
p52
aS"(853, u'(?i)(minas|mina)')"
p53
aS"(6249, u'(?i)(ants|ant)')"
p54
aS"(6356, u'(?i)(ais|ai)')"
p55
atp56
Rp57
sb.