(ifile_types
ParseObject
p0
(dp1
S'antagonists'
p2
c__builtin__
set
p3
((lp4
tp5
Rp6
sS'methods'
p7
g3
((lp8
S'Method.AGONIST'
p9
atp10
Rp11
sS'topics'
p12
g3
((lp13
S"(16, u'\\\\bfeed')"
p14
atp15
Rp16
sS'receptors'
p17
g3
((lp18
S'5ht5'
p19
aS'5ht1a'
p20
atp21
Rp22
sS'regions'
p23
g3
((lp24
S"(159, u'(?i)(paraventriculars|paraventricular)(-|\\\\s+)?(nuclei|nucleus)')"
p25
aS"(126, u'(?i)(thalamuses|thalamus)')"
p26
aS"(34, u'(?i)(pon|pons)')"
p27
atp28
Rp29
sS'year'
p30
V1992
p31
sS'agonists'
p32
g3
((lp33
S"(92, u'\\\\b8 ?oh ?dpat')"
p34
atp35
Rp36
sS'species'
p37
g3
((lp38
S"(5537, u'(?i)(hippos|hippo)')"
p39
aS"(2670, u'(?i)(arabs|arab)')"
p40
aS"(2568, u'(?i)(hens|hen)')"
p41
aS"(7609, u'(?i)(erns|ern)')"
p42
aS"(6753, u'(?i)(da|das)')"
p43
aS"(479, u'(?i)(lings|ling)')"
p44
aS"(4091, u'(?i)(adults|adult)')"
p45
aS"(5967, u'(?i)(males|male)')"
p46
aS"(468, u'(?i)(oxen|ox)')"
p47
aS"(1055, u'(?i)(men|man)')"
p48
aS"(3592, u'(?i)(ravens|raven)')"
p49
aS"(853, u'(?i)(minas|mina)')"
p50
aS"(5958, u'(?i)(rats|rat)')"
p51
aS"(3522, u'(?i)(tetras|tetra)')"
p52
aS"(7058, u'(?i)(does|doe)')"
p53
aS"(6356, u'(?i)(ais|ai)')"
p54
aS"(6391, u'(?i)(asses|ass)')"
p55
aS"(6580, u'(?i)(dams|dam)')"
p56
aS"(1683, u'(?i)(terns|tern)')"
p57
aS"(6682, u'(?i)(tera|teras)')"
p58
atp59
Rp60
sb.