(ifile_types
ParseObject
p0
(dp1
S'methods'
p2
c__builtin__
set
p3
((lp4
S'Method.ANTAGONIST'
p5
atp6
Rp7
sS'topics'
p8
g3
((lp9
S"(14, u'\\\\bcogniti')"
p10
aS"(17, u'\\\\balzheimer')"
p11
aS"(16, u'\\\\blearning')"
p12
aS"(15, u'\\\\bmemory')"
p13
aS"(4, u'\\\\btreatment')"
p14
aS"(3, u'\\\\bclinical')"
p15
atp16
Rp17
sS'receptors'
p18
g3
((lp19
(S'5ht6'
p20
I828
I833
tp21
a(S'5ht6'
p22
I953
I958
tp23
a(S'5ht6'
p24
I100
I105
tp25
a(S'5ht6'
p26
I502
I507
tp27
a(S'5ht6'
p28
I238
I243
tp29
a(S'5ht6'
p30
I673
I678
tp31
atp32
Rp33
sS'raw_text_methods'
p34
g3
((lp35
S"(12, u'\\\\bantagonist')"
p36
atp37
Rp38
sS'regions'
p39
g3
((lp40
tp41
Rp42
sS'year'
p43
V2007
p44
sS'species'
p45
g3
((lp46
tp47
Rp48
sb.