(ifile_types
ParseObject
p0
(dp1
S'methods'
p2
c__builtin__
set
p3
((lp4
S'Method.AGONIST'
p5
atp6
Rp7
sS'topics'
p8
g3
((lp9
S"(24, u'\\\\banxiolytic')"
p10
aS"(8, u'\\\\banxi')"
p11
aS"(4, u'\\\\btreatment')"
p12
atp13
Rp14
sS'receptors'
p15
g3
((lp16
(S'5ht1a'
p17
I405
I411
tp18
a(S'5ht1a'
p19
I207
I213
tp20
atp21
Rp22
sS'raw_text_methods'
p23
g3
((lp24
S"(13, u'\\\\bagonist')"
p25
aS"(15, u'\\\\b8ohdpat')"
p26
aS"(21, u'\\\\bipsapirone')"
p27
atp28
Rp29
sS'regions'
p30
g3
((lp31
S"(19, u'(?i)\\\\b(cortexes|cortex)\\\\b')"
p32
atp33
Rp34
sS'year'
p35
V1992
p36
sS'species'
p37
g3
((lp38
S"(3, u'(?i)\\\\b(males|male)\\\\b')"
p39
aS"(4, u'(?i)\\\\b(rats|rat)\\\\b')"
p40
atp41
Rp42
sb.