(ifile_types
ParseObject
p0
(dp1
S'methods'
p2
c__builtin__
set
p3
((lp4
S'Method.AGONIST'
p5
atp6
Rp7
sS'topics'
p8
g3
((lp9
S"(6, u'\\\\baggressi')"
p10
aS"(26, u'\\\\bbehav')"
p11
atp12
Rp13
sS'receptors'
p14
g3
((lp15
(S'5ht1b'
p16
I1118
I1124
tp17
a(S'5ht1b'
p18
I138
I144
tp19
a(S'5ht1b'
p20
I1873
I1879
tp21
a(S'5ht1b'
p22
I506
I512
tp23
a(S'5ht1b'
p24
I438
I444
tp25
atp26
Rp27
sS'raw_text_methods'
p28
g3
((lp29
S"(13, u'\\\\bagonist')"
p30
atp31
Rp32
sS'regions'
p33
g3
((lp34
S"(20, u'(?i)\\\\b(prefrontals|prefrontal)\\\\b')"
p35
aS"(21, u'(?i)\\\\b(mpfcs|mpfc)\\\\b')"
p36
aS"(19, u'(?i)\\\\b(cortexes|cortex)\\\\b')"
p37
aS"(16, u'(?i)\\\\b(drns|drn)\\\\b')"
p38
atp39
Rp40
sS'year'
p41
V2008
p42
sS'species'
p43
g3
((lp44
S"(1, u'(?i)\\\\b(mice|mouse)\\\\b')"
p45
aS"(5, u'(?i)\\\\b(mices|mice)\\\\b')"
p46
aS"(3, u'(?i)\\\\b(males|male)\\\\b')"
p47
atp48
Rp49
sb.