(ifile_types
ParseObject
p0
(dp1
S'methods'
p2
c__builtin__
set
p3
((lp4
S'Method.ANTAGONIST'
p5
atp6
Rp7
sS'topics'
p8
g3
((lp9
S"(4, u'\\\\btreatment')"
p10
atp11
Rp12
sS'receptors'
p13
g3
((lp14
(S'5ht7'
p15
I536
I541
tp16
a(S'5ht1a'
p17
I1267
I1273
tp18
a(S'5ht7'
p19
I789
I794
tp20
a(S'5ht1'
p21
I692
I697
tp22
a(S'5ht2'
p23
I702
I707
tp24
a(S'5ht1'
p25
I519
I524
tp26
a(S'5ht2'
p27
I526
I531
tp28
a(S'5ht1a'
p29
I744
I750
tp30
a(S'5ht7'
p31
I1278
I1283
tp32
atp33
Rp34
sS'raw_text_methods'
p35
g3
((lp36
S"(51, u'\\\\bway100635')"
p37
aS"(12, u'\\\\bantagonist')"
p38
atp39
Rp40
sS'regions'
p41
g3
((lp42
tp43
Rp44
sS'year'
p45
V2006
p46
sS'species'
p47
g3
((lp48
S"(4, u'(?i)\\\\b(rats|rat)\\\\b')"
p49
atp50
Rp51
sb.