(ifile_types
ParseObject
p0
(dp1
S'methods'
p2
c__builtin__
set
p3
((lp4
S'Method.ANTAGONIST'
p5
aS'Method.AGONIST'
p6
atp7
Rp8
sS'topics'
p9
g3
((lp10
S"(26, u'\\\\bbehav')"
p11
atp12
Rp13
sS'receptors'
p14
g3
((lp15
(S'5ht1a'
p16
I1815
I1821
tp17
a(S'5ht1a'
p18
I1354
I1360
tp19
a(S'5ht2c'
p20
I1307
I1313
tp21
a(S'5ht2'
p22
I1425
I1430
tp23
a(S'5ht2a'
p24
I503
I509
tp25
a(S'5ht2a'
p26
I1296
I1302
tp27
a(S'5ht1a'
p28
I669
I675
tp29
a(S'5ht2a'
p30
I1702
I1708
tp31
atp32
Rp33
sS'raw_text_methods'
p34
g3
((lp35
S"(29, u'\\\\bdiethylamide')"
p36
aS"(27, u'\\\\blsd')"
p37
aS"(13, u'\\\\bagonist')"
p38
aS"(50, u'\\\\bm100907')"
p39
aS"(51, u'\\\\bway100635')"
p40
aS"(12, u'\\\\bantagonist')"
p41
atp42
Rp43
sS'regions'
p44
g3
((lp45
tp46
Rp47
sS'year'
p48
V2006
p49
sS'species'
p50
g3
((lp51
S"(1, u'(?i)\\\\b(mice|mouse)\\\\b')"
p52
aS"(6, u'(?i)\\\\b(rodents|rodent)\\\\b')"
p53
aS"(5, u'(?i)\\\\b(mices|mice)\\\\b')"
p54
aS"(4, u'(?i)\\\\b(rats|rat)\\\\b')"
p55
atp56
Rp57
sb.