(ifile_types
ParseObject
p0
(dp1
S'antagonists'
p2
c__builtin__
set
p3
((lp4
S"(55, u'\\\\bnefazodone')"
p5
aS"(102, u'\\\\bfluoxetine')"
p6
atp7
Rp8
sS'methods'
p9
g3
((lp10
S'Method.AGONIST'
p11
atp12
Rp13
sS'topics'
p14
g3
((lp15
S"(6, u'\\\\bcognit')"
p16
aS"(35, u'\\\\bstress')"
p17
aS"(10, u'\\\\banxiety')"
p18
atp19
Rp20
sS'receptors'
p21
g3
((lp22
S'5ht1a'
p23
aS'5ht2'
p24
atp25
Rp26
sS'regions'
p27
g3
((lp28
S"(254, u'(?i)(prefrontals|prefrontal)(-|\\\\s+)?(cortexes|cortex)')"
p29
aS"(389, u'(?i)(cerebrospinals|cerebrospinal)(-|\\\\s+)?(fluids|fluid)')"
p30
aS"(255, u'(?i)(pres|pre)(-|\\\\s+)?(frontals|frontal)(-|\\\\s+)?(cortexes|cortex)')"
p31
aS"(209, u'(?i)(amygdalas|amygdala)')"
p32
aS"(34, u'(?i)(pon|pons)')"
p33
atp34
Rp35
sS'year'
p36
V2004
p37
sS'agonists'
p38
g3
((lp39
S"(24, u'\\\\bbuspirone')"
p40
aS"(63, u'\\\\bnefazodone')"
p41
atp42
Rp43
sS'species'
p44
g3
((lp45
S"(4624, u'(?i)(apes|ape)')"
p46
aS"(2183, u'(?i)(gars|gar)')"
p47
aS"(4462, u'(?i)(monals|monal)')"
p48
aS"(6356, u'(?i)(ais|ai)')"
p49
aS"(6249, u'(?i)(ants|ant)')"
p50
aS"(6391, u'(?i)(asses|ass)')"
p51
aS"(3812, u'(?i)(studs|stud)')"
p52
aS"(3431, u'(?i)(roans|roan)')"
p53
aS"(702, u'(?i)(genets|genet)')"
p54
aS"(81, u'(?i)(asps|asp)')"
p55
aS"(468, u'(?i)(oxen|ox)')"
p56
aS"(1349, u'(?i)(rams|ram)')"
p57
aS"(5743, u'(?i)(bots|bot)')"
p58
aS"(3550, u'(?i)(anis|ani)')"
p59
aS"(7127, u'(?i)(monitors|monitor)')"
p60
aS"(2809, u'(?i)(toms|tom)')"
p61
aS"(5537, u'(?i)(hippos|hippo)')"
p62
aS"(6753, u'(?i)(da|das)')"
p63
aS"(5958, u'(?i)(rats|rat)')"
p64
aS"(7609, u'(?i)(erns|ern)')"
p65
aS"(867, u'(?i)(tits|tit)')"
p66
aS"(6682, u'(?i)(tera|teras)')"
p67
aS"(1055, u'(?i)(men|man)')"
p68
aS"(5176, u'(?i)(tegs|teg)')"
p69
aS"(7094, u'(?i)(curs|cur)')"
p70
aS"(1961, u'(?i)(pens|pen)')"
p71
aS"(4979, u'(?i)(cats|cat)')"
p72
aS"(2323, u'(?i)(bees|bee)')"
p73
aS"(2568, u'(?i)(hens|hen)')"
p74
aS"(853, u'(?i)(minas|mina)')"
p75
aS"(4663, u'(?i)(nags|nag)')"
p76
aS"(1054, u'(?i)(homoes|homo)')"
p77
aS"(6234, u'(?i)(searchers|searcher)')"
p78
aS"(1683, u'(?i)(terns|tern)')"
p79
atp80
Rp81
sb.