(ifile_types
ParseObject
p0
(dp1
S'antagonists'
p2
c__builtin__
set
p3
((lp4
tp5
Rp6
sS'methods'
p7
g3
((lp8
S'Method.AGONIST'
p9
atp10
Rp11
sS'topics'
p12
g3
((lp13
S"(16, u'\\\\bfeed')"
p14
aS"(11, u'\\\\banxiolyt')"
p15
atp16
Rp17
sS'receptors'
p18
g3
((lp19
S'5ht1a'
p20
aS'5ht5'
p21
aS'5ht2'
p22
atp23
Rp24
sS'regions'
p25
g3
((lp26
tp27
Rp28
sS'year'
p29
V1995
p30
sS'agonists'
p31
g3
((lp32
S"(92, u'\\\\b8 ?oh ?dpat')"
p33
aS"(50, u'\\\\bipsapirone')"
p34
aS"(67, u'\\\\bpyrimidinylpiperazine')"
p35
atp36
Rp37
sS'species'
p38
g3
((lp39
S"(2323, u'(?i)(bees|bee)')"
p40
aS"(4624, u'(?i)(apes|ape)')"
p41
aS"(949, u'(?i)(cohoes|coho)')"
p42
aS"(6356, u'(?i)(ais|ai)')"
p43
aS"(7609, u'(?i)(erns|ern)')"
p44
aS"(5958, u'(?i)(rats|rat)')"
p45
aS"(6753, u'(?i)(da|das)')"
p46
aS"(479, u'(?i)(lings|ling)')"
p47
aS"(2183, u'(?i)(gars|gar)')"
p48
aS"(1055, u'(?i)(men|man)')"
p49
aS"(6249, u'(?i)(ants|ant)')"
p50
aS"(4979, u'(?i)(cats|cat)')"
p51
aS"(3550, u'(?i)(anis|ani)')"
p52
aS"(3522, u'(?i)(tetras|tetra)')"
p53
aS"(1961, u'(?i)(pens|pen)')"
p54
aS"(3812, u'(?i)(studs|stud)')"
p55
aS"(6391, u'(?i)(asses|ass)')"
p56
aS"(1683, u'(?i)(terns|tern)')"
p57
aS"(7552, u'(?i)(bats|bat)')"
p58
atp59
Rp60
sb.