(ifile_types
ParseObject
p0
(dp1
S'methods'
p2
c__builtin__
set
p3
((lp4
S'Method.ANTAGONIST'
p5
aS'Method.AGONIST'
p6
atp7
Rp8
sS'topics'
p9
g3
((lp10
S"(4, u'\\\\btreatment')"
p11
atp12
Rp13
sS'receptors'
p14
g3
((lp15
(S'5ht1a'
p16
I825
I831
tp17
a(S'5ht1a'
p18
I1795
I1801
tp19
a(S'5ht1a'
p20
I433
I439
tp21
a(S'5ht1a'
p22
I2165
I2171
tp23
a(S'5ht1a'
p24
I618
I624
tp25
a(S'5ht1a'
p26
I86
I92
tp27
a(S'5ht3'
p28
I967
I972
tp29
a(S'5ht1b'
p30
I928
I934
tp31
a(S'5ht1a'
p32
I285
I291
tp33
a(S'5ht1a'
p34
I877
I883
tp35
a(S'5ht2'
p36
I936
I941
tp37
a(S'5ht1a'
p38
I1606
I1612
tp39
a(S'5ht2'
p40
I1657
I1662
tp41
a(S'5ht1a'
p42
I1975
I1981
tp43
atp44
Rp45
sS'raw_text_methods'
p46
g3
((lp47
S"(13, u'\\\\bagonist')"
p48
aS"(15, u'\\\\b8ohdpat')"
p49
aS"(53, u'\\\\bketanserin')"
p50
aS"(12, u'\\\\bantagonist')"
p51
atp52
Rp53
sS'regions'
p54
g3
((lp55
S"(4, u'(?i)\\\\b(presynaptics|presynaptic)\\\\b')"
p56
atp57
Rp58
sS'year'
p59
V1987
p60
sS'species'
p61
g3
((lp62
S"(4, u'(?i)\\\\b(rats|rat)\\\\b')"
p63
atp64
Rp65
sb.