(ifile_types
ParseObject
p0
(dp1
S'methods'
p2
c__builtin__
set
p3
((lp4
S'Method.ANTAGONIST'
p5
aS'Method.AGONIST'
p6
atp7
Rp8
sS'topics'
p9
g3
((lp10
S"(22, u'\\\\bschizophreni')"
p11
aS"(7, u'\\\\bdepressi')"
p12
aS"(26, u'\\\\bbehav')"
p13
aS"(20, u'\\\\bmood')"
p14
aS"(2, u'\\\\bdisorder')"
p15
atp16
Rp17
sS'receptors'
p18
g3
((lp19
(S'5ht1a'
p20
I1803
I1809
tp21
atp22
Rp23
sS'raw_text_methods'
p24
g3
((lp25
S"(13, u'\\\\bagonist')"
p26
aS"(12, u'\\\\bantagonist')"
p27
atp28
Rp29
sS'regions'
p30
g3
((lp31
S"(4, u'(?i)\\\\b(presynaptics|presynaptic)\\\\b')"
p32
atp33
Rp34
sS'year'
p35
V2012
p36
sS'species'
p37
g3
((lp38
tp39
Rp40
sb.