(ifile_types
ParseObject
p0
(dp1
S'methods'
p2
c__builtin__
set
p3
((lp4
S'Method.PET'
p5
atp6
Rp7
sS'topics'
p8
g3
((lp9
S"(9, u'\\\\bstress')"
p10
aS"(20, u'\\\\bmood')"
p11
aS"(2, u'\\\\bdisorder')"
p12
atp13
Rp14
sS'receptors'
p15
g3
((lp16
(S'5ht2a'
p17
I1433
I1439
tp18
a(S'5ht2a'
p19
I585
I591
tp20
a(S'5ht2a'
p21
I1102
I1108
tp22
a(S'5ht2a'
p23
I711
I717
tp24
a(S'5ht2a'
p25
I159
I170
tp26
a(S'5ht2a'
p27
I571
I582
tp28
a(S'5ht2a'
p29
I1256
I1262
tp30
atp31
Rp32
sS'raw_text_methods'
p33
g3
((lp34
S"(19, u'\\\\bpositron emission tomography')"
p35
aS"(49, u'\\\\bdoi')"
p36
atp37
Rp38
sS'regions'
p39
g3
((lp40
tp41
Rp42
sS'year'
p43
V2010
p44
sS'species'
p45
g3
((lp46
tp47
Rp48
sb.