(ifile_types
ParseObject
p0
(dp1
S'methods'
p2
c__builtin__
set
p3
((lp4
S'Method.ANTAGONIST'
p5
atp6
Rp7
sS'topics'
p8
g3
((lp9
S"(30, u'\\\\bpain')"
p10
aS"(35, u'\\\\bnocicept')"
p11
aS"(3, u'\\\\bclinical')"
p12
atp13
Rp14
sS'receptors'
p15
g3
((lp16
(S'5ht3'
p17
I186
I191
tp18
a(S'5ht4'
p19
I59
I64
tp20
a(S'5ht4'
p21
I1029
I1034
tp22
a(S'5ht3'
p23
I670
I675
tp24
a(S'5ht3'
p25
I1654
I1659
tp26
a(S'5ht4'
p27
I246
I251
tp28
a(S'5ht4'
p29
I405
I410
tp30
a(S'5ht3'
p31
I1159
I1164
tp32
a(S'5ht4'
p33
I1210
I1215
tp34
a(S'5ht4'
p35
I1501
I1506
tp36
a(S'5ht3'
p37
I566
I571
tp38
a(S'5ht4'
p39
I1169
I1174
tp40
a(S'5ht4'
p41
I1644
I1649
tp42
atp43
Rp44
sS'raw_text_methods'
p45
g3
((lp46
S"(23, u'\\\\bmdl')"
p47
aS"(12, u'\\\\bantagonist')"
p48
atp49
Rp50
sS'regions'
p51
g3
((lp52
tp53
Rp54
sS'year'
p55
V1998
p56
sS'species'
p57
g3
((lp58
S"(1, u'(?i)\\\\b(mice|mouse)\\\\b')"
p59
aS"(5, u'(?i)\\\\b(mices|mice)\\\\b')"
p60
aS"(4, u'(?i)\\\\b(rats|rat)\\\\b')"
p61
atp62
Rp63
sb.