(ifile_types
ParseObject
p0
(dp1
S'methods'
p2
c__builtin__
set
p3
((lp4
S'Method.ANTAGONIST'
p5
aS'Method.AGONIST'
p6
atp7
Rp8
sS'topics'
p9
g3
((lp10
S"(26, u'\\\\bbehav')"
p11
atp12
Rp13
sS'receptors'
p14
g3
((lp15
(S'5ht2c'
p16
I892
I899
tp17
a(S'5ht2c'
p18
I711
I718
tp19
a(S'5ht2a'
p20
I711
I717
tp21
a(S'5ht1a'
p22
I502
I508
tp23
a(S'5ht2a'
p24
I892
I898
tp25
a(S'5ht2c'
p26
I515
I522
tp27
a(S'5ht2a'
p28
I515
I521
tp29
atp30
Rp31
sS'raw_text_methods'
p32
g3
((lp33
S"(13, u'\\\\bagonist')"
p34
aS"(15, u'\\\\b8ohdpat')"
p35
aS"(49, u'\\\\bdoi')"
p36
aS"(53, u'\\\\bketanserin')"
p37
aS"(12, u'\\\\bantagonist')"
p38
atp39
Rp40
sS'regions'
p41
g3
((lp42
S"(19, u'(?i)\\\\b(cortexes|cortex)\\\\b')"
p43
atp44
Rp45
sS'year'
p46
V2013
p47
sS'species'
p48
g3
((lp49
tp50
Rp51
sb.