(ifile_types
ParseObject
p0
(dp1
S'methods'
p2
c__builtin__
set
p3
((lp4
S'Method.AGONIST'
p5
atp6
Rp7
sS'topics'
p8
g3
((lp9
S"(26, u'\\\\bbehav')"
p10
aS"(4, u'\\\\btreatment')"
p11
atp12
Rp13
sS'receptors'
p14
g3
((lp15
(S'5ht1'
p16
I28
I32
tp17
a(S'5ht1'
p18
I206
I210
tp19
a(S'5ht1'
p20
I2520
I2524
tp21
a(S'5ht1'
p22
I2208
I2212
tp23
a(S'5ht1'
p24
I834
I838
tp25
a(S'5ht1'
p26
I505
I509
tp27
atp28
Rp29
sS'raw_text_methods'
p30
g3
((lp31
S"(13, u'\\\\bagonist')"
p32
aS"(54, u'\\\\bautoradiography')"
p33
atp34
Rp35
sS'regions'
p36
g3
((lp37
S"(19, u'(?i)\\\\b(cortexes|cortex)\\\\b')"
p38
aS"(13, u'(?i)\\\\b(septums|septum)\\\\b')"
p39
aS"(12, u'(?i)\\\\b(amygdalas|amygdala)\\\\b')"
p40
atp41
Rp42
sS'year'
p43
V1999
p44
sS'species'
p45
g3
((lp46
S"(2, u'(?i)\\\\b(females|female)\\\\b')"
p47
aS"(4, u'(?i)\\\\b(rats|rat)\\\\b')"
p48
atp49
Rp50
sb.