(ifile_types
ParseObject
p0
(dp1
S'antagonists'
p2
c__builtin__
set
p3
((lp4
S"(123, u'\\\\bclozapine')"
p5
aS"(56, u'\\\\bclozapine')"
p6
aS"(67, u'\\\\bhaloperidol')"
p7
aS"(135, u'\\\\bondansetron')"
p8
aS"(134, u'\\\\bgranisetron')"
p9
aS"(68, u'\\\\bchlorpromazine')"
p10
aS"(141, u'\\\\bzacopride')"
p11
atp12
Rp13
sS'methods'
p14
g3
((lp15
S'Method.ANTAGONIST'
p16
aS'Method.AGONIST'
p17
atp18
Rp19
sS'topics'
p20
g3
((lp21
tp22
Rp23
sS'receptors'
p24
g3
((lp25
S'5ht3a'
p26
aS'5ht3'
p27
atp28
Rp29
sS'regions'
p30
g3
((lp31
tp32
Rp33
sS'year'
p34
V1991
p35
sS'agonists'
p36
g3
((lp37
S"(48, u'\\\\bhaloperidol')"
p38
aS"(212, u'\\\\bzacopride')"
p39
aS"(27, u'\\\\bclozapine')"
p40
atp41
Rp42
sS'species'
p43
g3
((lp44
S"(2670, u'(?i)(arabs|arab)')"
p45
aS"(6249, u'(?i)(ants|ant)')"
p46
aS"(5958, u'(?i)(rats|rat)')"
p47
aS"(6753, u'(?i)(da|das)')"
p48
aS"(3550, u'(?i)(anis|ani)')"
p49
aS"(1961, u'(?i)(pens|pen)')"
p50
aS"(6356, u'(?i)(ais|ai)')"
p51
atp52
Rp53
sb.