(ifile_types
ParseObject
p0
(dp1
S'methods'
p2
c__builtin__
set
p3
((lp4
tp5
Rp6
sS'topics'
p7
g3
((lp8
tp9
Rp10
sS'receptors'
p11
g3
((lp12
(S'5ht2a'
p13
I1466
I1472
tp14
a(S'5ht1b'
p15
I1089
I1095
tp16
a(S'5ht1a'
p17
I1203
I1209
tp18
a(S'5ht2a'
p19
I453
I459
tp20
a(S'5ht1a'
p21
I437
I443
tp22
a(S'5ht1b'
p23
I445
I451
tp24
a(S'5ht1b'
p25
I773
I779
tp26
a(S'5ht2a'
p27
I1031
I1037
tp28
a(S'5ht1a'
p29
I910
I916
tp30
a(S'5ht3'
p31
I823
I828
tp32
a(S'5ht2a'
p33
I1818
I1824
tp34
a(S'5ht2a'
p35
I784
I790
tp36
a(S'5ht1a'
p37
I765
I771
tp38
a(S'5ht1a'
p39
I1608
I1614
tp40
a(S'5ht3'
p41
I464
I469
tp42
atp43
Rp44
sS'raw_text_methods'
p45
g3
((lp46
S"(46, u'\\\\bspiperone')"
p47
aS"(36, u'\\\\bbenzodiazepine')"
p48
aS"(21, u'\\\\bipsapirone')"
p49
aS"(54, u'\\\\bautoradiography')"
p50
atp51
Rp52
sS'regions'
p53
g3
((lp54
S"(19, u'(?i)\\\\b(cortexes|cortex)\\\\b')"
p55
aS"(11, u'(?i)\\\\b(cerebrals|cerebral)\\\\b')"
p56
aS"(13, u'(?i)\\\\b(septums|septum)\\\\b')"
p57
aS"(23, u'(?i)\\\\b(forebrains|forebrain)\\\\b')"
p58
atp59
Rp60
sS'year'
p61
V1994
p62
sS'species'
p63
g3
((lp64
S"(4, u'(?i)\\\\b(rats|rat)\\\\b')"
p65
atp66
Rp67
sb.