(ifile_types
ParseObject
p0
(dp1
S'antagonists'
p2
c__builtin__
set
p3
((lp4
tp5
Rp6
sS'methods'
p7
g3
((lp8
S'Method.PET'
p9
atp10
Rp11
sS'topics'
p12
g3
((lp13
tp14
Rp15
sS'receptors'
p16
g3
((lp17
S'5ht1a'
p18
atp19
Rp20
sS'regions'
p21
g3
((lp22
S"(71, u'(?i)(cerebellums|cerebellum)')"
p23
atp24
Rp25
sS'year'
p26
V2008
p27
sS'agonists'
p28
g3
((lp29
tp30
Rp31
sS'species'
p32
g3
((lp33
S"(7094, u'(?i)(curs|cur)')"
p34
aS"(6356, u'(?i)(ais|ai)')"
p35
aS"(3812, u'(?i)(studs|stud)')"
p36
aS"(6391, u'(?i)(asses|ass)')"
p37
aS"(7003, u'(?i)(murines|murine)')"
p38
aS"(1070, u'(?i)(pets|pet)')"
p39
aS"(479, u'(?i)(lings|ling)')"
p40
aS"(4201, u'(?i)(kines|kine)')"
p41
aS"(468, u'(?i)(oxen|ox)')"
p42
aS"(5743, u'(?i)(bots|bot)')"
p43
aS"(7127, u'(?i)(monitors|monitor)')"
p44
aS"(1291, u'(?i)(ratels|ratel)')"
p45
aS"(5537, u'(?i)(hippos|hippo)')"
p46
aS"(5958, u'(?i)(rats|rat)')"
p47
aS"(163, u'(?i)(mice|mouse)')"
p48
aS"(1055, u'(?i)(men|man)')"
p49
aS"(6215, u'(?i)(racers|racer)')"
p50
aS"(6753, u'(?i)(da|das)')"
p51
aS"(7058, u'(?i)(does|doe)')"
p52
aS"(2323, u'(?i)(bees|bee)')"
p53
aS"(2568, u'(?i)(hens|hen)')"
p54
aS"(4979, u'(?i)(cats|cat)')"
p55
atp56
Rp57
sb.