(ifile_types
ParseObject
p0
(dp1
S'methods'
p2
c__builtin__
set
p3
((lp4
tp5
Rp6
sS'topics'
p7
g3
((lp8
S"(33, u'\\\\blocomot')"
p9
aS"(26, u'\\\\bbehav')"
p10
aS"(9, u'\\\\bstress')"
p11
aS"(4, u'\\\\btreatment')"
p12
atp13
Rp14
sS'receptors'
p15
g3
((lp16
(S'5ht1'
p17
I1381
I1385
tp18
a(S'5ht1'
p19
I685
I689
tp20
a(S'5ht1'
p21
I552
I556
tp22
a(S'5ht1'
p23
I1087
I1091
tp24
a(S'5ht1'
p25
I1782
I1786
tp26
a(S'5ht1'
p27
I1254
I1258
tp28
a(S'5ht1'
p29
I1883
I1887
tp30
a(S'5ht1'
p31
I397
I401
tp32
a(S'5ht1'
p33
I28
I32
tp34
atp35
Rp36
sS'raw_text_methods'
p37
g3
((lp38
S"(54, u'\\\\bautoradiography')"
p39
atp40
Rp41
sS'regions'
p42
g3
((lp43
S"(19, u'(?i)\\\\b(cortexes|cortex)\\\\b')"
p44
atp45
Rp46
sS'year'
p47
V1998
p48
sS'species'
p49
g3
((lp50
S"(3, u'(?i)\\\\b(males|male)\\\\b')"
p51
atp52
Rp53
sb.