(ifile_types
ParseObject
p0
(dp1
S'antagonists'
p2
c__builtin__
set
p3
((lp4
S"(126, u'\\\\bcinanserin')"
p5
aS"(102, u'\\\\bfluoxetine')"
p6
atp7
Rp8
sS'methods'
p9
g3
((lp10
S'Method.ANTAGONIST'
p11
atp12
Rp13
sS'topics'
p14
g3
((lp15
S"(11, u'\\\\banxiolyt')"
p16
atp17
Rp18
sS'receptors'
p19
g3
((lp20
S'5ht3a'
p21
aS'5ht2'
p22
aS'5ht2a'
p23
atp24
Rp25
sS'regions'
p26
g3
((lp27
S"(220, u'(?i)(striatums|striatum)')"
p28
aS"(126, u'(?i)(thalamuses|thalamus)')"
p29
atp30
Rp31
sS'year'
p32
V2006
p33
sS'agonists'
p34
g3
((lp35
tp36
Rp37
sS'species'
p38
g3
((lp39
S"(5537, u'(?i)(hippos|hippo)')"
p40
aS"(5799, u'(?i)(rodents|rodent)')"
p41
aS"(2568, u'(?i)(hens|hen)')"
p42
aS"(163, u'(?i)(mice|mouse)')"
p43
aS"(6753, u'(?i)(da|das)')"
p44
aS"(5967, u'(?i)(males|male)')"
p45
aS"(468, u'(?i)(oxen|ox)')"
p46
aS"(1055, u'(?i)(men|man)')"
p47
aS"(6249, u'(?i)(ants|ant)')"
p48
aS"(2942, u'(?i)(daws|daw)')"
p49
aS"(5958, u'(?i)(rats|rat)')"
p50
aS"(1961, u'(?i)(pens|pen)')"
p51
aS"(3812, u'(?i)(studs|stud)')"
p52
aS"(6391, u'(?i)(asses|ass)')"
p53
aS"(6356, u'(?i)(ais|ai)')"
p54
aS"(4964, u'(?i)(serins|serin)')"
p55
atp56
Rp57
sb.