(ifile_types
ParseObject
p0
(dp1
S'methods'
p2
c__builtin__
set
p3
((lp4
S'Method.PET'
p5
atp6
Rp7
sS'topics'
p8
g3
((lp9
tp10
Rp11
sS'receptors'
p12
g3
((lp13
(S'5ht4'
p14
I496
I506
tp15
a(S'5ht4'
p16
I518
I523
tp17
atp18
Rp19
sS'raw_text_methods'
p20
g3
((lp21
S"(17, u'\\\\bpet')"
p22
aS"(11, u'\\\\bfluoxetine')"
p23
aS"(18, u'\\\\bimaging')"
p24
aS"(39, u'\\\\bselective serotonin reuptake inhibitor')"
p25
atp26
Rp27
sS'regions'
p28
g3
((lp29
S"(22, u'(?i)\\\\b(anteriors|anterior)(-|\\\\s+)?(cingulates|cingulate)\\\\b')"
p30
aS"(20, u'(?i)\\\\b(prefrontals|prefrontal)\\\\b')"
p31
aS"(19, u'(?i)\\\\b(cortexes|cortex)\\\\b')"
p32
aS"(12, u'(?i)\\\\b(amygdalas|amygdala)\\\\b')"
p33
atp34
Rp35
sS'year'
p36
V2015
p37
sS'species'
p38
g3
((lp39
S"(3, u'(?i)\\\\b(males|male)\\\\b')"
p40
atp41
Rp42
sb.