(ifile_types
ParseObject
p0
(dp1
S'antagonists'
p2
c__builtin__
set
p3
((lp4
tp5
Rp6
sS'methods'
p7
g3
((lp8
tp9
Rp10
sS'topics'
p11
g3
((lp12
tp13
Rp14
sS'receptors'
p15
g3
((lp16
S'5ht1a'
p17
aS'5ht5'
p18
aS'5ht5a'
p19
atp20
Rp21
sS'regions'
p22
g3
((lp23
tp24
Rp25
sS'year'
p26
V1997
p27
sS'agonists'
p28
g3
((lp29
S"(155, u'\\\\bmem')"
p30
atp31
Rp32
sS'species'
p33
g3
((lp34
S"(2323, u'(?i)(bees|bee)')"
p35
aS"(5537, u'(?i)(hippos|hippo)')"
p36
aS"(5958, u'(?i)(rats|rat)')"
p37
aS"(1266, u'(?i)(embryos|embryo)')"
p38
aS"(1725, u'(?i)(clams|clam)')"
p39
aS"(1055, u'(?i)(men|man)')"
p40
aS"(7094, u'(?i)(curs|cur)')"
p41
aS"(1349, u'(?i)(rams|ram)')"
p42
aS"(3364, u'(?i)(grubs|grub)')"
p43
aS"(6753, u'(?i)(da|das)')"
p44
aS"(6249, u'(?i)(ants|ant)')"
p45
aS"(3522, u'(?i)(tetras|tetra)')"
p46
aS"(6356, u'(?i)(ais|ai)')"
p47
aS"(1795, u'(?i)(mounts|mount)')"
p48
aS"(5949, u'(?i)(dogs|dog)')"
p49
atp50
Rp51
sb.