(ifile_types
ParseObject
p0
(dp1
S'antagonists'
p2
c__builtin__
set
p3
((lp4
tp5
Rp6
sS'methods'
p7
g3
((lp8
S'Method.IMMUNOHISTOCHEMISTRY'
p9
atp10
Rp11
sS'topics'
p12
g3
((lp13
S"(6, u'\\\\bcognit')"
p14
aS"(35, u'\\\\bstress')"
p15
atp16
Rp17
sS'receptors'
p18
g3
((lp19
S'5ht2a'
p20
atp21
Rp22
sS'regions'
p23
g3
((lp24
S"(71, u'(?i)(cerebellums|cerebellum)')"
p25
aS"(34, u'(?i)(pon|pons)')"
p26
atp27
Rp28
sS'year'
p29
V2010
p30
sS'agonists'
p31
g3
((lp32
tp33
Rp34
sS'species'
p35
g3
((lp36
S"(5958, u'(?i)(rats|rat)')"
p37
aS"(6753, u'(?i)(da|das)')"
p38
aS"(6682, u'(?i)(tera|teras)')"
p39
aS"(4663, u'(?i)(nags|nag)')"
p40
aS"(468, u'(?i)(oxen|ox)')"
p41
aS"(1055, u'(?i)(men|man)')"
p42
aS"(7094, u'(?i)(curs|cur)')"
p43
aS"(107, u'(?i)(stags|stag)')"
p44
aS"(6356, u'(?i)(ais|ai)')"
p45
aS"(6249, u'(?i)(ants|ant)')"
p46
aS"(5229, u'(?i)(moles|mole)')"
p47
aS"(3812, u'(?i)(studs|stud)')"
p48
atp49
Rp50
sb.