(ifile_types
ParseObject
p0
(dp1
S'antagonists'
p2
c__builtin__
set
p3
((lp4
S"(26, u'\\\\bspiperone')"
p5
aS"(17, u'\\\\bnan ?190')"
p6
aS"(4, u'\\\\bbmy ?7378')"
p7
aS"(22, u'\\\\bpropranolol')"
p8
atp9
Rp10
sS'methods'
p11
g3
((lp12
S'Method.ANTAGONIST'
p13
aS'Method.AGONIST'
p14
atp15
Rp16
sS'topics'
p17
g3
((lp18
tp19
Rp20
sS'receptors'
p21
g3
((lp22
S'5ht1a'
p23
atp24
Rp25
sS'regions'
p26
g3
((lp27
S"(94, u'(?i)\\\\b(dorsals|dorsal)(-|\\\\s+)?(raphes|raphe)(-|\\\\s+)?(nuclei|nucleus)\\\\b')"
p28
aS"(318, u'(?i)\\\\b(raphes|raphe)(-|\\\\s+)?(nuclei|nucleus)\\\\b')"
p29
atp30
Rp31
sS'year'
p32
V1994
p33
sS'agonists'
p34
g3
((lp35
S"(85, u'\\\\b8 ?oh ?dpat')"
p36
atp37
Rp38
sS'species'
p39
g3
((lp40
S"(4979, u'(?i)\\\\b(cats|cat)\\\\b')"
p41
atp42
Rp43
sb.