(ifile_types
ParseObject
p0
(dp1
S'methods'
p2
c__builtin__
set
p3
((lp4
S'Method.ANTAGONIST'
p5
aS'Method.AGONIST'
p6
atp7
Rp8
sS'topics'
p9
g3
((lp10
S"(26, u'\\\\bbehav')"
p11
atp12
Rp13
sS'receptors'
p14
g3
((lp15
(S'5ht2a'
p16
I2097
I2103
tp17
a(S'5ht2a'
p18
I25
I31
tp19
a(S'5ht2a'
p20
I1923
I1929
tp21
a(S'5ht2a'
p22
I382
I388
tp23
a(S'5ht2a'
p24
I794
I800
tp25
a(S'5ht2a'
p26
I755
I761
tp27
a(S'5ht2a'
p28
I727
I733
tp29
a(S'5ht2a'
p30
I144
I150
tp31
a(S'5ht2a'
p32
I1862
I1868
tp33
a(S'5ht2a'
p34
I1771
I1777
tp35
atp36
Rp37
sS'raw_text_methods'
p38
g3
((lp39
S"(13, u'\\\\bagonist')"
p40
aS"(41, u'\\\\bhaloperidol')"
p41
aS"(23, u'\\\\bmdl')"
p42
aS"(12, u'\\\\bantagonist')"
p43
atp44
Rp45
sS'regions'
p46
g3
((lp47
tp48
Rp49
sS'year'
p50
V2019
p51
sS'species'
p52
g3
((lp53
S"(2, u'(?i)\\\\b(females|female)\\\\b')"
p54
atp55
Rp56
sb.