(ifile_types
ParseObject
p0
(dp1
S'antagonists'
p2
c__builtin__
set
p3
((lp4
S"(111, u'\\\\bolanzapine')"
p5
aS"(110, u'\\\\bclozapine')"
p6
aS"(114, u'\\\\bziprasidone')"
p7
aS"(31, u'\\\\bway ?100635')"
p8
aS"(58, u'\\\\bhaloperidol')"
p9
atp10
Rp11
sS'methods'
p12
g3
((lp13
S'Method.ANTAGONIST'
p14
aS'Method.AGONIST'
p15
atp16
Rp17
sS'topics'
p18
g3
((lp19
S"(6, u'\\\\bcognit')"
p20
atp21
Rp22
sS'receptors'
p23
g3
((lp24
S'5ht1a'
p25
atp26
Rp27
sS'regions'
p28
g3
((lp29
S"(96, u'(?i)\\\\b(ventrals|ventral)(-|\\\\s+)?(tegmentals|tegmental)(-|\\\\s+)?(areas|area)\\\\b')"
p30
aS"(254, u'(?i)\\\\b(prefrontals|prefrontal)(-|\\\\s+)?(cortexes|cortex)\\\\b')"
p31
aS"(255, u'(?i)\\\\b(pres|pre)(-|\\\\s+)?(frontals|frontal)(-|\\\\s+)?(cortexes|cortex)\\\\b')"
p32
atp33
Rp34
sS'year'
p35
V2005
p36
sS'agonists'
p37
g3
((lp38
S"(57, u'\\\\bolanzapine')"
p39
aS"(23, u'\\\\bclozapine')"
p40
aS"(84, u'\\\\bziprasidone')"
p41
aS"(43, u'\\\\bhaloperidol')"
p42
atp43
Rp44
sS'species'
p45
g3
((lp46
S"(6753, u'(?i)\\\\b(da|das)\\\\b')"
p47
aS"(5510, u'(?i)\\\\b(bays|bay)\\\\b')"
p48
aS"(163, u'(?i)\\\\b(mice|mouse)\\\\b')"
p49
aS"(5958, u'(?i)\\\\b(rats|rat)\\\\b')"
p50
atp51
Rp52
sb.