(ifile_types
ParseObject
p0
(dp1
S'antagonists'
p2
c__builtin__
set
p3
((lp4
tp5
Rp6
sS'methods'
p7
g3
((lp8
S'Method.STIMULATION'
p9
aS'Method.ANTAGONIST'
p10
aS'Method.AGONIST'
p11
atp12
Rp13
sS'topics'
p14
g3
((lp15
S"(9, u'\\\\bdepress')"
p16
atp17
Rp18
sS'receptors'
p19
g3
((lp20
S'5ht3a'
p21
aS'5ht1a'
p22
aS'5ht3'
p23
aS'5ht2'
p24
atp25
Rp26
sS'regions'
p27
g3
((lp28
S"(318, u'(?i)(raphes|raphe)(-|\\\\s+)?(nuclei|nucleus)')"
p29
aS"(34, u'(?i)(pon|pons)')"
p30
atp31
Rp32
sS'year'
p33
V2005
p34
sS'agonists'
p35
g3
((lp36
S"(155, u'\\\\bmem')"
p37
atp38
Rp39
sS'species'
p40
g3
((lp41
S"(2568, u'(?i)(hens|hen)')"
p42
aS"(4952, u'(?i)(felines|feline)')"
p43
aS"(867, u'(?i)(tits|tit)')"
p44
aS"(5743, u'(?i)(bots|bot)')"
p45
aS"(6682, u'(?i)(tera|teras)')"
p46
aS"(468, u'(?i)(oxen|ox)')"
p47
aS"(1055, u'(?i)(men|man)')"
p48
aS"(6249, u'(?i)(ants|ant)')"
p49
aS"(4979, u'(?i)(cats|cat)')"
p50
aS"(5958, u'(?i)(rats|rat)')"
p51
aS"(3522, u'(?i)(tetras|tetra)')"
p52
aS"(3812, u'(?i)(studs|stud)')"
p53
aS"(7609, u'(?i)(erns|ern)')"
p54
aS"(6356, u'(?i)(ais|ai)')"
p55
aS"(7610, u'(?i)(ernes|erne)')"
p56
aS"(1683, u'(?i)(terns|tern)')"
p57
atp58
Rp59
sb.