(ifile_types
ParseObject
p0
(dp1
S'antagonists'
p2
c__builtin__
set
p3
((lp4
S"(53, u'\\\\bketanserin')"
p5
aS"(123, u'\\\\bclozapine')"
p6
aS"(56, u'\\\\bclozapine')"
p7
aS"(128, u'\\\\bketanserin')"
p8
aS"(57, u'\\\\bolanzapine')"
p9
aS"(142, u'\\\\bm1')"
p10
aS"(124, u'\\\\bolanzapine')"
p11
aS"(125, u'\\\\bquetiapine')"
p12
aS"(68, u'\\\\bchlorpromazine')"
p13
aS"(67, u'\\\\bhaloperidol')"
p14
aS"(58, u'\\\\bquetiapine')"
p15
atp16
Rp17
sS'methods'
p18
g3
((lp19
S'Method.ANTAGONIST'
p20
aS'Method.AGONIST'
p21
atp22
Rp23
sS'topics'
p24
g3
((lp25
S"(15, u'\\\\bschizophreni')"
p26
atp27
Rp28
sS'receptors'
p29
g3
((lp30
S'5ht2a'
p31
atp32
Rp33
sS'regions'
p34
g3
((lp35
S"(34, u'(?i)(pon|pons)')"
p36
atp37
Rp38
sS'year'
p39
V2017
p40
sS'agonists'
p41
g3
((lp42
S"(71, u'\\\\bquetiapine')"
p43
aS"(64, u'\\\\bolanzapine')"
p44
aS"(48, u'\\\\bhaloperidol')"
p45
aS"(214, u'\\\\bsulpiride')"
p46
aS"(27, u'\\\\bclozapine')"
p47
atp48
Rp49
sS'species'
p50
g3
((lp51
S"(5958, u'(?i)(rats|rat)')"
p52
aS"(6356, u'(?i)(ais|ai)')"
p53
aS"(5743, u'(?i)(bots|bot)')"
p54
aS"(7488, u'(?i)(molas|mola)')"
p55
aS"(6249, u'(?i)(ants|ant)')"
p56
aS"(4964, u'(?i)(serins|serin)')"
p57
aS"(3550, u'(?i)(anis|ani)')"
p58
aS"(3812, u'(?i)(studs|stud)')"
p59
aS"(1795, u'(?i)(mounts|mount)')"
p60
aS"(4979, u'(?i)(cats|cat)')"
p61
atp62
Rp63
sb.