(ifile_types
ParseObject
p0
(dp1
S'antagonists'
p2
c__builtin__
set
p3
((lp4
tp5
Rp6
sS'methods'
p7
g3
((lp8
S'Method.PET'
p9
aS'Method.AGONIST'
p10
atp11
Rp12
sS'topics'
p13
g3
((lp14
tp15
Rp16
sS'receptors'
p17
g3
((lp18
S'5ht2a'
p19
atp20
Rp21
sS'regions'
p22
g3
((lp23
S"(34, u'(?i)(pon|pons)')"
p24
atp25
Rp26
sS'year'
p27
V2013
p28
sS'agonists'
p29
g3
((lp30
S"(137, u'\\\\bcimbi ?36')"
p31
atp32
Rp33
sS'species'
p34
g3
((lp35
S"(1070, u'(?i)(pets|pet)')"
p36
aS"(2054, u'(?i)(heads|head)')"
p37
aS"(6753, u'(?i)(da|das)')"
p38
aS"(3051, u'(?i)(pigs|pig)')"
p39
aS"(7609, u'(?i)(erns|ern)')"
p40
aS"(5958, u'(?i)(rats|rat)')"
p41
aS"(163, u'(?i)(mice|mouse)')"
p42
aS"(81, u'(?i)(asps|asp)')"
p43
aS"(1055, u'(?i)(men|man)')"
p44
aS"(3726, u'(?i)(mates|mate)')"
p45
aS"(6215, u'(?i)(racers|racer)')"
p46
aS"(5743, u'(?i)(bots|bot)')"
p47
aS"(3550, u'(?i)(anis|ani)')"
p48
aS"(1057, u'(?i)(humans|human)')"
p49
aS"(6391, u'(?i)(asses|ass)')"
p50
aS"(6356, u'(?i)(ais|ai)')"
p51
aS"(3196, u'(?i)(human|humans)')"
p52
aS"(2809, u'(?i)(toms|tom)')"
p53
aS"(7058, u'(?i)(does|doe)')"
p54
aS"(1683, u'(?i)(terns|tern)')"
p55
aS"(6249, u'(?i)(ants|ant)')"
p56
atp57
Rp58
sb.