(ifile_types
ParseObject
p0
(dp1
S'antagonists'
p2
c__builtin__
set
p3
((lp4
tp5
Rp6
sS'methods'
p7
g3
((lp8
S'Method.AGONIST'
p9
atp10
Rp11
sS'topics'
p12
g3
((lp13
tp14
Rp15
sS'receptors'
p16
g3
((lp17
S'5ht1b'
p18
aS'5ht1a'
p19
aS'5ht2c'
p20
aS'5ht1'
p21
atp22
Rp23
sS'regions'
p24
g3
((lp25
tp26
Rp27
sS'year'
p28
V1996
p29
sS'agonists'
p30
g3
((lp31
S"(161, u'\\\\bmcpp')"
p32
aS"(44, u'\\\\bflesinoxan')"
p33
atp34
Rp35
sS'species'
p36
g3
((lp37
S"(2670, u'(?i)(arabs|arab)')"
p38
aS"(5958, u'(?i)(rats|rat)')"
p39
aS"(6753, u'(?i)(da|das)')"
p40
aS"(468, u'(?i)(oxen|ox)')"
p41
aS"(4163, u'(?i)(ermines|ermine)')"
p42
aS"(1055, u'(?i)(men|man)')"
p43
aS"(5131, u'(?i)(hags|hag)')"
p44
aS"(5743, u'(?i)(bots|bot)')"
p45
aS"(6682, u'(?i)(tera|teras)')"
p46
aS"(3812, u'(?i)(studs|stud)')"
p47
aS"(6391, u'(?i)(asses|ass)')"
p48
aS"(6356, u'(?i)(ais|ai)')"
p49
atp50
Rp51
sb.