(ifile_types
ParseObject
p0
(dp1
S'methods'
p2
c__builtin__
set
p3
((lp4
S'Method.ANTAGONIST'
p5
atp6
Rp7
sS'topics'
p8
g3
((lp9
S"(26, u'\\\\bbehav')"
p10
aS"(33, u'\\\\blocomot')"
p11
atp12
Rp13
sS'receptors'
p14
g3
((lp15
(S'5ht2c'
p16
I105
I111
tp17
a(S'5ht2c'
p18
I393
I399
tp19
a(S'5ht2c'
p20
I618
I624
tp21
a(S'5ht2a'
p22
I61
I67
tp23
a(S'5ht2a'
p24
I1884
I1890
tp25
a(S'5ht2c'
p26
I1907
I1913
tp27
a(S'5ht2'
p28
I382
I388
tp29
a(S'5ht2a'
p30
I480
I486
tp31
a(S'5ht2a'
p32
I374
I380
tp33
a(S'5ht2b'
p34
I382
I388
tp35
a(S'5ht2b'
p36
I748
I754
tp37
atp38
Rp39
sS'raw_text_methods'
p40
g3
((lp41
S"(50, u'\\\\bm100907')"
p42
aS"(12, u'\\\\bantagonist')"
p43
atp44
Rp45
sS'regions'
p46
g3
((lp47
tp48
Rp49
sS'year'
p50
V2002
p51
sS'species'
p52
g3
((lp53
S"(4, u'(?i)\\\\b(rats|rat)\\\\b')"
p54
atp55
Rp56
sb.