(ifile_types
ParseObject
p0
(dp1
S'antagonists'
p2
c__builtin__
set
p3
((lp4
tp5
Rp6
sS'methods'
p7
g3
((lp8
S'Method.AGONIST'
p9
atp10
Rp11
sS'topics'
p12
g3
((lp13
tp14
Rp15
sS'receptors'
p16
g3
((lp17
S'5ht1a'
p18
aS'5ht2'
p19
aS'5ht1'
p20
aS'5ht2a'
p21
atp22
Rp23
sS'regions'
p24
g3
((lp25
S"(318, u'(?i)(raphes|raphe)(-|\\\\s+)?(nuclei|nucleus)')"
p26
aS"(94, u'(?i)(dorsals|dorsal)(-|\\\\s+)?(raphes|raphe)(-|\\\\s+)?(nuclei|nucleus)')"
p27
aS"(34, u'(?i)(pon|pons)')"
p28
atp29
Rp30
sS'year'
p31
V2014
p32
sS'agonists'
p33
g3
((lp34
S"(92, u'\\\\b8 ?oh ?dpat')"
p35
atp36
Rp37
sS'species'
p38
g3
((lp39
S"(2568, u'(?i)(hens|hen)')"
p40
aS"(6356, u'(?i)(ais|ai)')"
p41
aS"(7610, u'(?i)(ernes|erne)')"
p42
aS"(6682, u'(?i)(tera|teras)')"
p43
aS"(3051, u'(?i)(pigs|pig)')"
p44
aS"(468, u'(?i)(oxen|ox)')"
p45
aS"(3062, u'(?i)(guineas|guinea)')"
p46
aS"(6249, u'(?i)(ants|ant)')"
p47
aS"(1055, u'(?i)(men|man)')"
p48
aS"(4979, u'(?i)(cats|cat)')"
p49
aS"(5958, u'(?i)(rats|rat)')"
p50
aS"(4371, u'(?i)(lizas|liza)')"
p51
aS"(3812, u'(?i)(studs|stud)')"
p52
aS"(7609, u'(?i)(erns|ern)')"
p53
aS"(4480, u'(?i)(guineas|guinea)(-|\\\\s+)?(pigs|pig)')"
p54
aS"(4074, u'(?i)(bulls|bull)')"
p55
aS"(1683, u'(?i)(terns|tern)')"
p56
atp57
Rp58
sb.