(ifile_types
ParseObject
p0
(dp1
S'methods'
p2
c__builtin__
set
p3
((lp4
S'Method.ANTAGONIST'
p5
aS'Method.OPTOGENETICS'
p6
atp7
Rp8
sS'topics'
p9
g3
((lp10
S"(24, u'\\\\banxiolytic')"
p11
aS"(8, u'\\\\banxi')"
p12
aS"(26, u'\\\\bbehav')"
p13
atp14
Rp15
sS'receptors'
p16
g3
((lp17
(S'5ht1a'
p18
I1057
I1063
tp19
a(S'5ht1a'
p20
I1119
I1125
tp21
a(S'5ht1a'
p22
I1347
I1353
tp23
a(S'5ht1a'
p24
I96
I102
tp25
atp26
Rp27
sS'raw_text_methods'
p28
g3
((lp29
S"(12, u'\\\\bantagonist')"
p30
atp31
Rp32
sS'regions'
p33
g3
((lp34
S"(12, u'(?i)\\\\b(amygdalas|amygdala)\\\\b')"
p35
atp36
Rp37
sS'year'
p38
V2018
p39
sS'species'
p40
g3
((lp41
S"(6, u'(?i)\\\\b(rodents|rodent)\\\\b')"
p42
atp43
Rp44
sb.