(ifile_types
ParseObject
p0
(dp1
S'methods'
p2
c__builtin__
set
p3
((lp4
S'Method.ANTAGONIST'
p5
aS'Method.AGONIST'
p6
atp7
Rp8
sS'topics'
p9
g3
((lp10
S"(24, u'\\\\banxiolytic')"
p11
aS"(8, u'\\\\banxi')"
p12
aS"(26, u'\\\\bbehav')"
p13
aS"(7, u'\\\\bdepressi')"
p14
aS"(13, u'\\\\bantidepress')"
p15
atp16
Rp17
sS'receptors'
p18
g3
((lp19
(S'5ht2c'
p20
I278
I286
tp21
a(S'5ht2a'
p22
I278
I284
tp23
a(S'5ht2c'
p24
I217
I225
tp25
a(S'5ht2b'
p26
I217
I223
tp27
atp28
Rp29
sS'raw_text_methods'
p30
g3
((lp31
S"(13, u'\\\\bagonist')"
p32
aS"(53, u'\\\\bketanserin')"
p33
aS"(33, u'\\\\bmcpp')"
p34
aS"(12, u'\\\\bantagonist')"
p35
atp36
Rp37
sS'regions'
p38
g3
((lp39
tp40
Rp41
sS'year'
p42
V2010
p43
sS'species'
p44
g3
((lp45
S"(2, u'(?i)\\\\b(females|female)\\\\b')"
p46
aS"(4, u'(?i)\\\\b(rats|rat)\\\\b')"
p47
atp48
Rp49
sb.