(ifile_types
ParseObject
p0
(dp1
S'antagonists'
p2
c__builtin__
set
p3
((lp4
S"(31, u'\\\\bway ?100635')"
p5
atp6
Rp7
sS'methods'
p8
g3
((lp9
S'Method.PET'
p10
atp11
Rp12
sS'topics'
p13
g3
((lp14
S"(15, u'\\\\bschizophreni')"
p15
atp16
Rp17
sS'receptors'
p18
g3
((lp19
S'5ht1a'
p20
atp21
Rp22
sS'regions'
p23
g3
((lp24
S"(254, u'(?i)\\\\b(prefrontals|prefrontal)(-|\\\\s+)?(cortexes|cortex)\\\\b')"
p25
aS"(209, u'(?i)\\\\b(amygdalas|amygdala)\\\\b')"
p26
aS"(255, u'(?i)\\\\b(pres|pre)(-|\\\\s+)?(frontals|frontal)(-|\\\\s+)?(cortexes|cortex)\\\\b')"
p27
aS"(277, u'(?i)\\\\b(temporals|temporal)(-|\\\\s+)?(lobes|lobe)\\\\b')"
p28
atp29
Rp30
sS'year'
p31
V2006
p32
sS'agonists'
p33
g3
((lp34
tp35
Rp36
sS'species'
p37
g3
((lp38
S"(1070, u'(?i)\\\\b(pets|pet)\\\\b')"
p39
atp40
Rp41
sb.