(ifile_types
ParseObject
p0
(dp1
S'antagonists'
p2
c__builtin__
set
p3
((lp4
S"(53, u'\\\\bketanserin')"
p5
aS"(128, u'\\\\bketanserin')"
p6
aS"(135, u'\\\\bondansetron')"
p7
atp8
Rp9
sS'methods'
p10
g3
((lp11
S'Method.ANTAGONIST'
p12
atp13
Rp14
sS'topics'
p15
g3
((lp16
tp17
Rp18
sS'receptors'
p19
g3
((lp20
S'5ht3'
p21
aS'5ht2'
p22
atp23
Rp24
sS'regions'
p25
g3
((lp26
S"(34, u'(?i)(pon|pons)')"
p27
aS"(30, u'(?i)(nuclei|nucleus)(-|\\\\s+)?(ambiguuses|ambiguus)')"
p28
atp29
Rp30
sS'year'
p31
V2009
p32
sS'agonists'
p33
g3
((lp34
tp35
Rp36
sS'species'
p37
g3
((lp38
S"(6753, u'(?i)(da|das)')"
p39
aS"(2568, u'(?i)(hens|hen)')"
p40
aS"(4964, u'(?i)(serins|serin)')"
p41
aS"(479, u'(?i)(lings|ling)')"
p42
aS"(468, u'(?i)(oxen|ox)')"
p43
aS"(1055, u'(?i)(men|man)')"
p44
aS"(6249, u'(?i)(ants|ant)')"
p45
aS"(853, u'(?i)(minas|mina)')"
p46
aS"(7094, u'(?i)(curs|cur)')"
p47
aS"(5958, u'(?i)(rats|rat)')"
p48
aS"(4979, u'(?i)(cats|cat)')"
p49
aS"(6356, u'(?i)(ais|ai)')"
p50
aS"(821, u'(?i)(lice|louse)')"
p51
atp52
Rp53
sb.