(ifile_types
ParseObject
p0
(dp1
S'antagonists'
p2
c__builtin__
set
p3
((lp4
S"(32, u'\\\\bway ?100635')"
p5
aS"(142, u'\\\\bm1')"
p6
atp7
Rp8
sS'methods'
p9
g3
((lp10
S'Method.ANTAGONIST'
p11
aS'Method.AGONIST'
p12
atp13
Rp14
sS'topics'
p15
g3
((lp16
tp17
Rp18
sS'receptors'
p19
g3
((lp20
S'5ht5'
p21
aS'5ht1a'
p22
aS'5ht2a'
p23
atp24
Rp25
sS'regions'
p26
g3
((lp27
S"(34, u'(?i)(pon|pons)')"
p28
atp29
Rp30
sS'year'
p31
V2008
p32
sS'agonists'
p33
g3
((lp34
S"(34, u'\\\\bdpt')"
p35
aS"(56, u'\\\\blsd')"
p36
aS"(55, u'\\\\blysergic acid diethylamide')"
p37
aS"(70, u'\\\\bpsilocybin')"
p38
aS"(153, u'\\\\bmdma')"
p39
atp40
Rp41
sS'species'
p42
g3
((lp43
S"(4624, u'(?i)(apes|ape)')"
p44
aS"(7094, u'(?i)(curs|cur)')"
p45
aS"(3812, u'(?i)(studs|stud)')"
p46
aS"(5958, u'(?i)(rats|rat)')"
p47
aS"(3196, u'(?i)(human|humans)')"
p48
aS"(6356, u'(?i)(ais|ai)')"
p49
aS"(6391, u'(?i)(asses|ass)')"
p50
aS"(1795, u'(?i)(mounts|mount)')"
p51
aS"(468, u'(?i)(oxen|ox)')"
p52
aS"(6249, u'(?i)(ants|ant)')"
p53
aS"(867, u'(?i)(tits|tit)')"
p54
aS"(163, u'(?i)(mice|mouse)')"
p55
aS"(1055, u'(?i)(men|man)')"
p56
aS"(5176, u'(?i)(tegs|teg)')"
p57
aS"(1057, u'(?i)(humans|human)')"
p58
aS"(1961, u'(?i)(pens|pen)')"
p59
aS"(4979, u'(?i)(cats|cat)')"
p60
aS"(2323, u'(?i)(bees|bee)')"
p61
aS"(2054, u'(?i)(heads|head)')"
p62
aS"(5799, u'(?i)(rodents|rodent)')"
p63
aS"(2568, u'(?i)(hens|hen)')"
p64
aS"(853, u'(?i)(minas|mina)')"
p65
atp66
Rp67
sb.