(ifile_types
ParseObject
p0
(dp1
S'antagonists'
p2
c__builtin__
set
p3
((lp4
tp5
Rp6
sS'methods'
p7
g3
((lp8
S'Method.ANTAGONIST'
p9
aS'Method.AGONIST'
p10
atp11
Rp12
sS'topics'
p13
g3
((lp14
S"(24, u'\\\\banalgesi')"
p15
atp16
Rp17
sS'receptors'
p18
g3
((lp19
S'5ht5'
p20
aS'5ht3'
p21
atp22
Rp23
sS'regions'
p24
g3
((lp25
S"(34, u'(?i)(pon|pons)')"
p26
atp27
Rp28
sS'year'
p29
V1995
p30
sS'agonists'
p31
g3
((lp32
S"(155, u'\\\\bmem')"
p33
atp34
Rp35
sS'species'
p36
g3
((lp37
S"(1070, u'(?i)(pets|pet)')"
p38
aS"(5958, u'(?i)(rats|rat)')"
p39
aS"(6878, u'(?i)(guans|guan)')"
p40
aS"(867, u'(?i)(tits|tit)')"
p41
aS"(5551, u'(?i)(owls|owl)')"
p42
aS"(3404, u'(?i)(titis|titi)')"
p43
aS"(6249, u'(?i)(ants|ant)')"
p44
aS"(1055, u'(?i)(men|man)')"
p45
aS"(6753, u'(?i)(da|das)')"
p46
aS"(3550, u'(?i)(anis|ani)')"
p47
aS"(7094, u'(?i)(curs|cur)')"
p48
aS"(1961, u'(?i)(pens|pen)')"
p49
aS"(6642, u'(?i)(lions|lion)')"
p50
aS"(6580, u'(?i)(dams|dam)')"
p51
atp52
Rp53
sb.