(ifile_types
ParseObject
p0
(dp1
S'methods'
p2
c__builtin__
set
p3
((lp4
S'Method.ANTAGONIST'
p5
aS'Method.AGONIST'
p6
atp7
Rp8
sS'topics'
p9
g3
((lp10
tp11
Rp12
sS'receptors'
p13
g3
((lp14
(S'5ht2a'
p15
I1124
I1130
tp16
a(S'5ht2a'
p17
I744
I750
tp18
a(S'5ht2a'
p19
I1585
I1591
tp20
a(S'5ht2a'
p21
I1341
I1347
tp22
a(S'5ht2'
p23
I292
I302
tp24
a(S'5ht2'
p25
I306
I311
tp26
a(S'5ht2a'
p27
I842
I848
tp28
a(S'5ht2a'
p29
I446
I452
tp30
a(S'5ht2a'
p31
I1379
I1385
tp32
a(S'5ht2a'
p33
I1500
I1506
tp34
a(S'5ht2a'
p35
I680
I686
tp36
a(S'5ht2a'
p37
I1680
I1686
tp38
a(S'5ht2'
p39
I351
I356
tp40
a(S'5ht2a'
p41
I40
I46
tp42
a(S'5ht2a'
p43
I1226
I1232
tp44
a(S'5ht2a'
p45
I923
I929
tp46
atp47
Rp48
sS'raw_text_methods'
p49
g3
((lp50
S"(13, u'\\\\bagonist')"
p51
aS"(49, u'\\\\bdoi')"
p52
aS"(12, u'\\\\bantagonist')"
p53
atp54
Rp55
sS'regions'
p56
g3
((lp57
S"(19, u'(?i)\\\\b(cortexes|cortex)\\\\b')"
p58
atp59
Rp60
sS'year'
p61
V2000
p62
sS'species'
p63
g3
((lp64
S"(4, u'(?i)\\\\b(rats|rat)\\\\b')"
p65
atp66
Rp67
sb.