(ifile_types
ParseObject
p0
(dp1
S'methods'
p2
c__builtin__
set
p3
((lp4
S'Method.ANTAGONIST'
p5
aS'Method.AGONIST'
p6
atp7
Rp8
sS'topics'
p9
g3
((lp10
tp11
Rp12
sS'receptors'
p13
g3
((lp14
(S'5ht2a'
p15
I904
I909
tp16
a(S'5ht2a'
p17
I1833
I1838
tp18
a(S'5ht2a'
p19
I623
I628
tp20
a(S'5ht2a'
p21
I1505
I1510
tp22
a(S'5ht2a'
p23
I1325
I1330
tp24
atp25
Rp26
sS'raw_text_methods'
p27
g3
((lp28
S"(23, u'\\\\bmdl')"
p29
aS"(29, u'\\\\bdiethylamide')"
p30
aS"(27, u'\\\\blsd')"
p31
aS"(13, u'\\\\bagonist')"
p32
aS"(49, u'\\\\bdoi')"
p33
aS"(12, u'\\\\bantagonist')"
p34
atp35
Rp36
sS'regions'
p37
g3
((lp38
tp39
Rp40
sS'year'
p41
V2013
p42
sS'species'
p43
g3
((lp44
S"(4, u'(?i)\\\\b(rats|rat)\\\\b')"
p45
atp46
Rp47
sb.