(ifile_types
ParseObject
p0
(dp1
S'methods'
p2
c__builtin__
set
p3
((lp4
S'Method.ANTAGONIST'
p5
aS'Method.AGONIST'
p6
atp7
Rp8
sS'topics'
p9
g3
((lp10
S"(26, u'\\\\bbehav')"
p11
aS"(2, u'\\\\bdisorder')"
p12
atp13
Rp14
sS'receptors'
p15
g3
((lp16
(S'5ht2'
p17
I1407
I1412
tp18
a(S'5ht2'
p19
I456
I461
tp20
a(S'5ht2'
p21
I1297
I1302
tp22
a(S'5ht2'
p23
I1658
I1663
tp24
a(S'5ht2'
p25
I1841
I1846
tp26
a(S'5ht2a'
p27
I119
I125
tp28
a(S'5ht2'
p29
I477
I482
tp30
a(S'5ht2'
p31
I1881
I1886
tp32
a(S'5ht2'
p33
I1562
I1567
tp34
a(S'5ht2'
p35
I847
I852
tp36
a(S'5ht2'
p37
I2029
I2034
tp38
a(S'5ht2'
p39
I1731
I1736
tp40
a(S'5ht2'
p41
I438
I443
tp42
atp43
Rp44
sS'raw_text_methods'
p45
g3
((lp46
S"(13, u'\\\\bagonist')"
p47
aS"(49, u'\\\\bdoi')"
p48
aS"(50, u'\\\\bm100907')"
p49
aS"(12, u'\\\\bantagonist')"
p50
atp51
Rp52
sS'regions'
p53
g3
((lp54
S"(20, u'(?i)\\\\b(prefrontals|prefrontal)\\\\b')"
p55
aS"(21, u'(?i)\\\\b(mpfcs|mpfc)\\\\b')"
p56
aS"(19, u'(?i)\\\\b(cortexes|cortex)\\\\b')"
p57
aS"(3, u'(?i)\\\\b(postsynaptics|postsynaptic)\\\\b')"
p58
atp59
Rp60
sS'year'
p61
V2015
p62
sS'species'
p63
g3
((lp64
S"(6, u'(?i)\\\\b(rodents|rodent)\\\\b')"
p65
aS"(4, u'(?i)\\\\b(rats|rat)\\\\b')"
p66
atp67
Rp68
sb.