(ifile_types
ParseObject
p0
(dp1
S'methods'
p2
c__builtin__
set
p3
((lp4
S'Method.ANTAGONIST'
p5
aS'Method.AGONIST'
p6
atp7
Rp8
sS'topics'
p9
g3
((lp10
tp11
Rp12
sS'receptors'
p13
g3
((lp14
(S'5ht1b'
p15
I944
I950
tp16
a(S'5ht1a'
p17
I698
I704
tp18
atp19
Rp20
sS'raw_text_methods'
p21
g3
((lp22
S"(13, u'\\\\bagonist')"
p23
aS"(15, u'\\\\b8ohdpat')"
p24
aS"(32, u'\\\\blesions')"
p25
aS"(12, u'\\\\bantagonist')"
p26
atp27
Rp28
sS'regions'
p29
g3
((lp30
S"(12, u'(?i)\\\\b(amygdalas|amygdala)\\\\b')"
p31
atp32
Rp33
sS'year'
p34
V2000
p35
sS'species'
p36
g3
((lp37
S"(3, u'(?i)\\\\b(males|male)\\\\b')"
p38
aS"(4, u'(?i)\\\\b(rats|rat)\\\\b')"
p39
atp40
Rp41
sb.