(ifile_types
ParseObject
p0
(dp1
S'methods'
p2
c__builtin__
set
p3
((lp4
S'Method.ANTAGONIST'
p5
atp6
Rp7
sS'topics'
p8
g3
((lp9
S"(24, u'\\\\banxiolytic')"
p10
aS"(26, u'\\\\bbehav')"
p11
aS"(2, u'\\\\bdisorder')"
p12
aS"(16, u'\\\\blearning')"
p13
aS"(15, u'\\\\bmemory')"
p14
aS"(18, u'\\\\bavoidan')"
p15
aS"(8, u'\\\\banxi')"
p16
aS"(4, u'\\\\btreatment')"
p17
atp18
Rp19
sS'receptors'
p20
g3
((lp21
(S'5ht3'
p22
I225
I230
tp23
a(S'5ht3'
p24
I1355
I1360
tp25
a(S'5ht3'
p26
I107
I112
tp27
atp28
Rp29
sS'raw_text_methods'
p30
g3
((lp31
S"(12, u'\\\\bantagonist')"
p32
atp33
Rp34
sS'regions'
p35
g3
((lp36
S"(12, u'(?i)\\\\b(amygdalas|amygdala)\\\\b')"
p37
atp38
Rp39
sS'year'
p40
V1996
p41
sS'species'
p42
g3
((lp43
tp44
Rp45
sb.