(ifile_types
ParseObject
p0
(dp1
S'antagonists'
p2
c__builtin__
set
p3
((lp4
S"(32, u'\\\\bway ?100635')"
p5
aS"(102, u'\\\\bfluoxetine')"
p6
atp7
Rp8
sS'methods'
p9
g3
((lp10
S'Method.ANTAGONIST'
p11
aS'Method.AGONIST'
p12
atp13
Rp14
sS'topics'
p15
g3
((lp16
S"(6, u'\\\\bcognit')"
p17
aS"(4, u'\\\\blocomot')"
p18
atp19
Rp20
sS'receptors'
p21
g3
((lp22
S'5ht5'
p23
aS'5ht1a'
p24
atp25
Rp26
sS'regions'
p27
g3
((lp28
tp29
Rp30
sS'year'
p31
V2018
p32
sS'agonists'
p33
g3
((lp34
tp35
Rp36
sS'species'
p37
g3
((lp38
S"(2670, u'(?i)(arabs|arab)')"
p39
aS"(5799, u'(?i)(rodents|rodent)')"
p40
aS"(5958, u'(?i)(rats|rat)')"
p41
aS"(163, u'(?i)(mice|mouse)')"
p42
aS"(6391, u'(?i)(asses|ass)')"
p43
aS"(479, u'(?i)(lings|ling)')"
p44
aS"(468, u'(?i)(oxen|ox)')"
p45
aS"(1055, u'(?i)(men|man)')"
p46
aS"(3726, u'(?i)(mates|mate)')"
p47
aS"(3812, u'(?i)(studs|stud)')"
p48
aS"(6249, u'(?i)(ants|ant)')"
p49
aS"(1057, u'(?i)(humans|human)')"
p50
aS"(1961, u'(?i)(pens|pen)')"
p51
aS"(1414, u'(?i)(chars|char)')"
p52
aS"(3196, u'(?i)(human|humans)')"
p53
aS"(2621, u'(?i)(vertebrates|vertebrate)')"
p54
aS"(4979, u'(?i)(cats|cat)')"
p55
atp56
Rp57
sb.