(ifile_types
ParseObject
p0
(dp1
S'methods'
p2
c__builtin__
set
p3
((lp4
S'Method.AGONIST'
p5
atp6
Rp7
sS'topics'
p8
g3
((lp9
tp10
Rp11
sS'receptors'
p12
g3
((lp13
(S'5ht1a'
p14
I796
I802
tp15
a(S'5ht1a'
p16
I447
I453
tp17
a(S'5ht1a'
p18
I46
I52
tp19
atp20
Rp21
sS'raw_text_methods'
p22
g3
((lp23
S"(13, u'\\\\bagonist')"
p24
aS"(24, u'\\\\bgepirone')"
p25
aS"(21, u'\\\\bipsapirone')"
p26
aS"(22, u'\\\\bbuspirone')"
p27
aS"(54, u'\\\\bautoradiography')"
p28
atp29
Rp30
sS'regions'
p31
g3
((lp32
S"(11, u'(?i)\\\\b(cerebrals|cerebral)\\\\b')"
p33
atp34
Rp35
sS'year'
p36
V1992
p37
sS'species'
p38
g3
((lp39
S"(4, u'(?i)\\\\b(rats|rat)\\\\b')"
p40
atp41
Rp42
sb.