(ifile_types
ParseObject
p0
(dp1
S'methods'
p2
c__builtin__
set
p3
((lp4
S'Method.ANTAGONIST'
p5
aS'Method.AGONIST'
p6
atp7
Rp8
sS'topics'
p9
g3
((lp10
S"(26, u'\\\\bbehav')"
p11
atp12
Rp13
sS'receptors'
p14
g3
((lp15
(S'5ht1b'
p16
I27
I38
tp17
a(S'5ht1b'
p18
I1400
I1406
tp19
a(S'5ht1b'
p20
I1879
I1885
tp21
a(S'5ht1b'
p22
I1536
I1542
tp23
a(S'5ht1b'
p24
I1344
I1350
tp25
a(S'5ht1b'
p26
I589
I595
tp27
a(S'5ht1b'
p28
I1012
I1018
tp29
atp30
Rp31
sS'raw_text_methods'
p32
g3
((lp33
S"(13, u'\\\\bagonist')"
p34
aS"(12, u'\\\\bantagonist')"
p35
atp36
Rp37
sS'regions'
p38
g3
((lp39
tp40
Rp41
sS'year'
p42
V2001
p43
sS'species'
p44
g3
((lp45
S"(6, u'(?i)\\\\b(rodents|rodent)\\\\b')"
p46
aS"(3, u'(?i)\\\\b(males|male)\\\\b')"
p47
aS"(4, u'(?i)\\\\b(rats|rat)\\\\b')"
p48
atp49
Rp50
sb.