(ifile_types
ParseObject
p0
(dp1
S'methods'
p2
c__builtin__
set
p3
((lp4
S'Method.ANTAGONIST'
p5
atp6
Rp7
sS'topics'
p8
g3
((lp9
S"(22, u'\\\\bschizophreni')"
p10
aS"(16, u'\\\\blearning')"
p11
aS"(26, u'\\\\bbehav')"
p12
aS"(15, u'\\\\bmemory')"
p13
atp14
Rp15
sS'receptors'
p16
g3
((lp17
(S'5ht5a'
p18
I1802
I1808
tp19
a(S'5ht5a'
p20
I46
I52
tp21
a(S'5ht5a'
p22
I206
I212
tp23
atp24
Rp25
sS'raw_text_methods'
p26
g3
((lp27
S"(12, u'\\\\bantagonist')"
p28
atp29
Rp30
sS'regions'
p31
g3
((lp32
tp33
Rp34
sS'year'
p35
V2019
p36
sS'species'
p37
g3
((lp38
tp39
Rp40
sb.