(ifile_types
ParseObject
p0
(dp1
S'antagonists'
p2
c__builtin__
set
p3
((lp4
S"(21, u'\\\\bpindolol')"
p5
aS"(17, u'\\\\bnan ?190')"
p6
aS"(194, u'\\\\bmethysergide')"
p7
atp8
Rp9
sS'methods'
p10
g3
((lp11
S'Method.ANTAGONIST'
p12
aS'Method.AGONIST'
p13
atp14
Rp15
sS'topics'
p16
g3
((lp17
tp18
Rp19
sS'receptors'
p20
g3
((lp21
S'5ht1a'
p22
atp23
Rp24
sS'regions'
p25
g3
((lp26
S"(220, u'(?i)\\\\b(striatums|striatum)\\\\b')"
p27
atp28
Rp29
sS'year'
p30
V1993
p31
sS'agonists'
p32
g3
((lp33
S"(53, u'\\\\bmethysergide')"
p34
aS"(85, u'\\\\b8 ?oh ?dpat')"
p35
atp36
Rp37
sS'species'
p38
g3
((lp39
S"(2054, u'(?i)\\\\b(heads|head)\\\\b')"
p40
aS"(5958, u'(?i)\\\\b(rats|rat)\\\\b')"
p41
aS"(736, u'(?i)\\\\b(fawns|fawn)\\\\b')"
p42
atp43
Rp44
sb.