(ifile_types
ParseObject
p0
(dp1
S'methods'
p2
c__builtin__
set
p3
((lp4
S'Method.ANTAGONIST'
p5
aS'Method.AGONIST'
p6
atp7
Rp8
sS'topics'
p9
g3
((lp10
S"(5, u'\\\\btherap')"
p11
atp12
Rp13
sS'receptors'
p14
g3
((lp15
(S'5ht3'
p16
I945
I950
tp17
a(S'5ht2'
p18
I1740
I1747
tp19
a(S'5ht3'
p20
I860
I865
tp21
a(S'5ht1'
p22
I1331
I1341
tp23
a(S'5ht1c'
p24
I1740
I1746
tp25
a(S'5ht3'
p26
I1672
I1677
tp27
atp28
Rp29
sS'raw_text_methods'
p30
g3
((lp31
S"(13, u'\\\\bagonist')"
p32
aS"(9, u'\\\\britanserin')"
p33
aS"(30, u'\\\\b2methyl')"
p34
aS"(12, u'\\\\bantagonist')"
p35
atp36
Rp37
sS'regions'
p38
g3
((lp39
tp40
Rp41
sS'year'
p42
V1993
p43
sS'species'
p44
g3
((lp45
S"(3, u'(?i)\\\\b(males|male)\\\\b')"
p46
aS"(4, u'(?i)\\\\b(rats|rat)\\\\b')"
p47
atp48
Rp49
sb.