(ifile_types
ParseObject
p0
(dp1
S'methods'
p2
c__builtin__
set
p3
((lp4
S'Method.AGONIST'
p5
atp6
Rp7
sS'topics'
p8
g3
((lp9
S"(5, u'\\\\btherap')"
p10
aS"(13, u'\\\\bantidepress')"
p11
aS"(4, u'\\\\btreatment')"
p12
atp13
Rp14
sS'receptors'
p15
g3
((lp16
(S'5ht5'
p17
I1033
I1038
tp18
a(S'5ht1a'
p19
I986
I992
tp20
atp21
Rp22
sS'raw_text_methods'
p23
g3
((lp24
S"(13, u'\\\\bagonist')"
p25
aS"(15, u'\\\\b8ohdpat')"
p26
aS"(11, u'\\\\bfluoxetine')"
p27
atp28
Rp29
sS'regions'
p30
g3
((lp31
S"(8, u'(?i)\\\\b(centrals|central)(-|\\\\s+)?(nervouses|nervous)(-|\\\\s+)?(systems|system)\\\\b')"
p32
atp33
Rp34
sS'year'
p35
V2007
p36
sS'species'
p37
g3
((lp38
S"(4, u'(?i)\\\\b(rats|rat)\\\\b')"
p39
atp40
Rp41
sb.