(ifile_types
ParseObject
p0
(dp1
S'antagonists'
p2
c__builtin__
set
p3
((lp4
tp5
Rp6
sS'methods'
p7
g3
((lp8
S'Method.ANTAGONIST'
p9
atp10
Rp11
sS'topics'
p12
g3
((lp13
S"(9, u'\\\\bdepress')"
p14
aS"(10, u'\\\\banxiety')"
p15
atp16
Rp17
sS'receptors'
p18
g3
((lp19
S'5ht5'
p20
aS'5ht1a'
p21
aS'5ht1'
p22
atp23
Rp24
sS'regions'
p25
g3
((lp26
tp27
Rp28
sS'year'
p29
V2005
p30
sS'agonists'
p31
g3
((lp32
S"(181, u'\\\\bdom')"
p33
atp34
Rp35
sS'species'
p36
g3
((lp37
S"(5537, u'(?i)(hippos|hippo)')"
p38
aS"(6753, u'(?i)(da|das)')"
p39
aS"(5958, u'(?i)(rats|rat)')"
p40
aS"(4979, u'(?i)(cats|cat)')"
p41
aS"(468, u'(?i)(oxen|ox)')"
p42
aS"(1055, u'(?i)(men|man)')"
p43
aS"(6249, u'(?i)(ants|ant)')"
p44
aS"(853, u'(?i)(minas|mina)')"
p45
aS"(3550, u'(?i)(anis|ani)')"
p46
aS"(5229, u'(?i)(moles|mole)')"
p47
aS"(3812, u'(?i)(studs|stud)')"
p48
aS"(6356, u'(?i)(ais|ai)')"
p49
aS"(5949, u'(?i)(dogs|dog)')"
p50
atp51
Rp52
sb.