(ifile_types
ParseObject
p0
(dp1
S'antagonists'
p2
c__builtin__
set
p3
((lp4
tp5
Rp6
sS'methods'
p7
g3
((lp8
S'Method.ANTAGONIST'
p9
aS'Method.AGONIST'
p10
atp11
Rp12
sS'topics'
p13
g3
((lp14
S"(9, u'\\\\bdepress')"
p15
aS"(30, u'\\\\bparkinsons')"
p16
aS"(10, u'\\\\banxiety')"
p17
atp18
Rp19
sS'receptors'
p20
g3
((lp21
S'5ht2c'
p22
atp23
Rp24
sS'regions'
p25
g3
((lp26
S"(105, u'(?i)(par|pars)(-|\\\\s+)?(reticulatas|reticulata)')"
p27
aS"(103, u'(?i)(substantias|substantia)(-|\\\\s+)?(nigras|nigra)')"
p28
aS"(219, u'(?i)(basals|basal)(-|\\\\s+)?(ganglias|ganglia)')"
p29
aS"(34, u'(?i)(pon|pons)')"
p30
atp31
Rp32
sS'year'
p33
V1999
p34
sS'agonists'
p35
g3
((lp36
tp37
Rp38
sS'species'
p39
g3
((lp40
S"(2323, u'(?i)(bees|bee)')"
p41
aS"(5958, u'(?i)(rats|rat)')"
p42
aS"(7609, u'(?i)(erns|ern)')"
p43
aS"(479, u'(?i)(lings|ling)')"
p44
aS"(468, u'(?i)(oxen|ox)')"
p45
aS"(1055, u'(?i)(men|man)')"
p46
aS"(6249, u'(?i)(ants|ant)')"
p47
aS"(4979, u'(?i)(cats|cat)')"
p48
aS"(3550, u'(?i)(anis|ani)')"
p49
aS"(7094, u'(?i)(curs|cur)')"
p50
aS"(5917, u'(?i)(roaches|roach)')"
p51
aS"(6468, u'(?i)(tuna|tuna)')"
p52
aS"(6356, u'(?i)(ais|ai)')"
p53
aS"(5686, u'(?i)(foxes|fox)')"
p54
aS"(391, u'(?i)(alli|allis)')"
p55
aS"(2809, u'(?i)(toms|tom)')"
p56
aS"(1683, u'(?i)(terns|tern)')"
p57
atp58
Rp59
sb.