(ifile_types
ParseObject
p0
(dp1
S'methods'
p2
c__builtin__
set
p3
((lp4
S'Method.PET'
p5
aS'Method.ANTAGONIST'
p6
aS'Method.AGONIST'
p7
atp8
Rp9
sS'topics'
p10
g3
((lp11
S"(4, u'\\\\btreatment')"
p12
aS"(3, u'\\\\bclinical')"
p13
atp14
Rp15
sS'receptors'
p16
g3
((lp17
(S'5ht2a'
p18
I1460
I1466
tp19
a(S'5ht2a'
p20
I1988
I1994
tp21
a(S'5ht2a'
p22
I241
I247
tp23
a(S'5ht2a'
p24
I681
I687
tp25
a(S'5ht2a'
p26
I1179
I1185
tp27
a(S'5ht2a'
p28
I2116
I2122
tp29
a(S'5ht2a'
p30
I442
I448
tp31
a(S'5ht2a'
p32
I887
I893
tp33
a(S'5ht2a'
p34
I1611
I1617
tp35
a(S'5ht2a'
p36
I1788
I1794
tp37
a(S'5ht2a'
p38
I200
I211
tp39
a(S'5ht2a'
p40
I79
I85
tp41
a(S'5ht2a'
p42
I2376
I2382
tp43
a(S'5ht2a'
p44
I415
I421
tp45
atp46
Rp47
sS'raw_text_methods'
p48
g3
((lp49
S"(13, u'\\\\bagonist')"
p50
aS"(53, u'\\\\bketanserin')"
p51
aS"(17, u'\\\\bpet')"
p52
aS"(18, u'\\\\bimaging')"
p53
aS"(12, u'\\\\bantagonist')"
p54
atp55
Rp56
sS'regions'
p57
g3
((lp58
S"(19, u'(?i)\\\\b(cortexes|cortex)\\\\b')"
p59
aS"(11, u'(?i)\\\\b(cerebrals|cerebral)\\\\b')"
p60
aS"(9, u'(?i)\\\\b(cerebellums|cerebellum)\\\\b')"
p61
atp62
Rp63
sS'year'
p64
V2010
p65
sS'species'
p66
g3
((lp67
S"(4, u'(?i)\\\\b(rats|rat)\\\\b')"
p68
atp69
Rp70
sb.