(ifile_types
ParseObject
p0
(dp1
S'methods'
p2
c__builtin__
set
p3
((lp4
tp5
Rp6
sS'topics'
p7
g3
((lp8
S"(26, u'\\\\bbehav')"
p9
aS"(3, u'\\\\bclinical')"
p10
atp11
Rp12
sS'receptors'
p13
g3
((lp14
(S'5ht1'
p15
I977
I982
tp16
atp17
Rp18
sS'raw_text_methods'
p19
g3
((lp20
S"(11, u'\\\\bfluoxetine')"
p21
atp22
Rp23
sS'regions'
p24
g3
((lp25
S"(8, u'(?i)\\\\b(centrals|central)(-|\\\\s+)?(nervouses|nervous)(-|\\\\s+)?(systems|system)\\\\b')"
p26
atp27
Rp28
sS'year'
p29
V1992
p30
sS'species'
p31
g3
((lp32
S"(4, u'(?i)\\\\b(rats|rat)\\\\b')"
p33
atp34
Rp35
sb.