(ifile_types
ParseObject
p0
(dp1
S'antagonists'
p2
c__builtin__
set
p3
((lp4
tp5
Rp6
sS'methods'
p7
g3
((lp8
S'Method.AGONIST'
p9
atp10
Rp11
sS'topics'
p12
g3
((lp13
S"(25, u'\\\\bvasoconstrict')"
p14
atp15
Rp16
sS'receptors'
p17
g3
((lp18
S'5ht1'
p19
aS'5ht1d'
p20
atp21
Rp22
sS'regions'
p23
g3
((lp24
S"(362, u'(?i)(brains|brain)(-|\\\\s+)?(stems|stem)')"
p25
aS"(374, u'(?i)(duras|dura)(-|\\\\s+)?(maters|mater)')"
p26
atp27
Rp28
sS'year'
p29
V1995
p30
sS'agonists'
p31
g3
((lp32
S"(103, u'\\\\bsumatriptan')"
p33
aS"(13, u'\\\\baet')"
p34
atp35
Rp36
sS'species'
p37
g3
((lp38
S"(7094, u'(?i)(curs|cur)')"
p39
aS"(6249, u'(?i)(ants|ant)')"
p40
aS"(6356, u'(?i)(ais|ai)')"
p41
aS"(6391, u'(?i)(asses|ass)')"
p42
aS"(702, u'(?i)(genets|genet)')"
p43
aS"(468, u'(?i)(oxen|ox)')"
p44
aS"(3550, u'(?i)(anis|ani)')"
p45
aS"(3426, u'(?i)(hares|hare)')"
p46
aS"(2809, u'(?i)(toms|tom)')"
p47
aS"(5958, u'(?i)(rats|rat)')"
p48
aS"(4201, u'(?i)(kines|kine)')"
p49
aS"(280, u'(?i)(gators|gator)')"
p50
aS"(1055, u'(?i)(men|man)')"
p51
aS"(2334, u'(?i)(eels|eel)')"
p52
aS"(6753, u'(?i)(da|das)')"
p53
aS"(1961, u'(?i)(pens|pen)')"
p54
aS"(3569, u'(?i)(constrictors|constrictor)')"
p55
aS"(2323, u'(?i)(bees|bee)')"
p56
aS"(2054, u'(?i)(heads|head)')"
p57
aS"(853, u'(?i)(minas|mina)')"
p58
aS"(3726, u'(?i)(mates|mate)')"
p59
aS"(5674, u'(?i)(ewes|ewe)')"
p60
atp61
Rp62
sb.