(ifile_types
ParseObject
p0
(dp1
S'antagonists'
p2
c__builtin__
set
p3
((lp4
tp5
Rp6
sS'methods'
p7
g3
((lp8
S'Method.AGONIST'
p9
atp10
Rp11
sS'topics'
p12
g3
((lp13
tp14
Rp15
sS'receptors'
p16
g3
((lp17
S'5ht1a'
p18
atp19
Rp20
sS'regions'
p21
g3
((lp22
tp23
Rp24
sS'year'
p25
V2002
p26
sS'agonists'
p27
g3
((lp28
S"(24, u'\\\\bbuspirone')"
p29
aS"(50, u'\\\\bipsapirone')"
p30
aS"(193, u'\\\\bethanol')"
p31
atp32
Rp33
sS'species'
p34
g3
((lp35
S"(3248, u'(?i)(offspring|offspring)')"
p36
aS"(6356, u'(?i)(ais|ai)')"
p37
aS"(7609, u'(?i)(erns|ern)')"
p38
aS"(6753, u'(?i)(da|das)')"
p39
aS"(6249, u'(?i)(ants|ant)')"
p40
aS"(468, u'(?i)(oxen|ox)')"
p41
aS"(1055, u'(?i)(men|man)')"
p42
aS"(3726, u'(?i)(mates|mate)')"
p43
aS"(6580, u'(?i)(dams|dam)')"
p44
aS"(5743, u'(?i)(bots|bot)')"
p45
aS"(5958, u'(?i)(rats|rat)')"
p46
aS"(3812, u'(?i)(studs|stud)')"
p47
aS"(6391, u'(?i)(asses|ass)')"
p48
aS"(1683, u'(?i)(terns|tern)')"
p49
atp50
Rp51
sb.