(ifile_types
ParseObject
p0
(dp1
S'antagonists'
p2
c__builtin__
set
p3
((lp4
S"(53, u'\\\\bketanserin')"
p5
aS"(128, u'\\\\bketanserin')"
p6
aS"(210, u'\\\\btrifluoperazine')"
p7
atp8
Rp9
sS'methods'
p10
g3
((lp11
S'Method.ANTAGONIST'
p12
aS'Method.AGONIST'
p13
atp14
Rp15
sS'topics'
p16
g3
((lp17
S"(4, u'\\\\blocomot')"
p18
atp19
Rp20
sS'receptors'
p21
g3
((lp22
S'5ht5'
p23
aS'5ht2'
p24
aS'5ht2a'
p25
atp26
Rp27
sS'regions'
p28
g3
((lp29
S"(34, u'(?i)(pon|pons)')"
p30
atp31
Rp32
sS'year'
p33
V2018
p34
sS'agonists'
p35
g3
((lp36
tp37
Rp38
sS'species'
p39
g3
((lp40
S"(2323, u'(?i)(bees|bee)')"
p41
aS"(4624, u'(?i)(apes|ape)')"
p42
aS"(5958, u'(?i)(rats|rat)')"
p43
aS"(6356, u'(?i)(ais|ai)')"
p44
aS"(163, u'(?i)(mice|mouse)')"
p45
aS"(6682, u'(?i)(tera|teras)')"
p46
aS"(468, u'(?i)(oxen|ox)')"
p47
aS"(1055, u'(?i)(men|man)')"
p48
aS"(6249, u'(?i)(ants|ant)')"
p49
aS"(4964, u'(?i)(serins|serin)')"
p50
aS"(3550, u'(?i)(anis|ani)')"
p51
aS"(1057, u'(?i)(humans|human)')"
p52
aS"(3812, u'(?i)(studs|stud)')"
p53
aS"(3196, u'(?i)(human|humans)')"
p54
aS"(4979, u'(?i)(cats|cat)')"
p55
atp56
Rp57
sb.