(ifile_types
ParseObject
p0
(dp1
S'antagonists'
p2
c__builtin__
set
p3
((lp4
tp5
Rp6
sS'methods'
p7
g3
((lp8
S'Method.STAINING'
p9
atp10
Rp11
sS'topics'
p12
g3
((lp13
tp14
Rp15
sS'receptors'
p16
g3
((lp17
S'5ht1a'
p18
atp19
Rp20
sS'regions'
p21
g3
((lp22
S"(362, u'(?i)(brains|brain)(-|\\\\s+)?(stems|stem)')"
p23
aS"(318, u'(?i)(raphes|raphe)(-|\\\\s+)?(nuclei|nucleus)')"
p24
aS"(126, u'(?i)(thalamuses|thalamus)')"
p25
aS"(224, u'(?i)(caudates|caudate)(-|\\\\s+)?(nuclei|nucleus)')"
p26
aS"(223, u'(?i)(putamens|putamen)')"
p27
atp28
Rp29
sS'year'
p30
V1999
p31
sS'agonists'
p32
g3
((lp33
S"(181, u'\\\\bdom')"
p34
atp35
Rp36
sS'species'
p37
g3
((lp38
S"(4624, u'(?i)(apes|ape)')"
p39
aS"(5537, u'(?i)(hippos|hippo)')"
p40
aS"(5721, u'(?i)(opossums|opossum)')"
p41
aS"(7609, u'(?i)(erns|ern)')"
p42
aS"(6753, u'(?i)(da|das)')"
p43
aS"(7539, u'(?i)(mammals|mammal)')"
p44
aS"(479, u'(?i)(lings|ling)')"
p45
aS"(1055, u'(?i)(men|man)')"
p46
aS"(6249, u'(?i)(ants|ant)')"
p47
aS"(3152, u'(?i)(layers|layer)')"
p48
aS"(5722, u'(?i)(possums|possum)')"
p49
aS"(6356, u'(?i)(ais|ai)')"
p50
aS"(5958, u'(?i)(rats|rat)')"
p51
aS"(7540, u'(?i)(mammalians|mammalian)')"
p52
aS"(4371, u'(?i)(lizas|liza)')"
p53
aS"(6325, u'(?i)(caudates|caudate)')"
p54
aS"(2341, u'(?i)(monkeys|monkey)')"
p55
aS"(1683, u'(?i)(terns|tern)')"
p56
aS"(5147, u'(?i)(eutherians|eutherian)')"
p57
atp58
Rp59
sb.