(ifile_types
ParseObject
p0
(dp1
S'methods'
p2
c__builtin__
set
p3
((lp4
S'Method.AGONIST'
p5
atp6
Rp7
sS'topics'
p8
g3
((lp9
tp10
Rp11
sS'receptors'
p12
g3
((lp13
(S'5ht2'
p14
I476
I481
tp15
a(S'5ht1a'
p16
I244
I250
tp17
a(S'5ht1a'
p18
I410
I416
tp19
a(S'5ht1a'
p20
I427
I433
tp21
a(S'5ht1a'
p22
I108
I114
tp23
atp24
Rp25
sS'raw_text_methods'
p26
g3
((lp27
S"(13, u'\\\\bagonist')"
p28
atp29
Rp30
sS'regions'
p31
g3
((lp32
tp33
Rp34
sS'year'
p35
V2000
p36
sS'species'
p37
g3
((lp38
tp39
Rp40
sb.