(ifile_types
ParseObject
p0
(dp1
S'antagonists'
p2
c__builtin__
set
p3
((lp4
S"(14, u'\\\\bmethiothepin')"
p5
atp6
Rp7
sS'methods'
p8
g3
((lp9
S'Method.ANTAGONIST'
p10
atp11
Rp12
sS'topics'
p13
g3
((lp14
S"(21, u'\\\\bpain')"
p15
atp16
Rp17
sS'receptors'
p18
g3
((lp19
S'5ht7'
p20
aS'5ht1b'
p21
aS'5ht1a'
p22
aS'5ht6'
p23
aS'5ht6a'
p24
aS'5ht5'
p25
atp26
Rp27
sS'regions'
p28
g3
((lp29
S"(318, u'(?i)(raphes|raphe)(-|\\\\s+)?(nuclei|nucleus)')"
p30
aS"(94, u'(?i)(dorsals|dorsal)(-|\\\\s+)?(raphes|raphe)(-|\\\\s+)?(nuclei|nucleus)')"
p31
atp32
Rp33
sS'year'
p34
V2009
p35
sS'agonists'
p36
g3
((lp37
tp38
Rp39
sS'species'
p40
g3
((lp41
S"(2323, u'(?i)(bees|bee)')"
p42
aS"(2568, u'(?i)(hens|hen)')"
p43
aS"(6753, u'(?i)(da|das)')"
p44
aS"(468, u'(?i)(oxen|ox)')"
p45
aS"(1055, u'(?i)(men|man)')"
p46
aS"(6249, u'(?i)(ants|ant)')"
p47
aS"(3812, u'(?i)(studs|stud)')"
p48
aS"(3550, u'(?i)(anis|ani)')"
p49
aS"(3522, u'(?i)(tetras|tetra)')"
p50
aS"(1961, u'(?i)(pens|pen)')"
p51
aS"(1414, u'(?i)(chars|char)')"
p52
aS"(6356, u'(?i)(ais|ai)')"
p53
aS"(5949, u'(?i)(dogs|dog)')"
p54
atp55
Rp56
sb.