(ifile_types
ParseObject
p0
(dp1
S'antagonists'
p2
c__builtin__
set
p3
((lp4
S"(91, u'\\\\bfluoxetine')"
p5
atp6
Rp7
sS'methods'
p8
g3
((lp9
S'Method.PET'
p10
atp11
Rp12
sS'topics'
p13
g3
((lp14
tp15
Rp16
sS'receptors'
p17
g3
((lp18
S'5ht4b'
p19
aS'5ht4'
p20
atp21
Rp22
sS'regions'
p23
g3
((lp24
S"(292, u'(?i)\\\\b(anteriors|anterior)(-|\\\\s+)?(cingulates|cingulate)\\\\b')"
p25
aS"(209, u'(?i)\\\\b(amygdalas|amygdala)\\\\b')"
p26
aS"(291, u'(?i)\\\\b(cingulates|cingulate)(-|\\\\s+)?(cortexes|cortex)\\\\b')"
p27
atp28
Rp29
sS'year'
p30
V2015
p31
sS'agonists'
p32
g3
((lp33
tp34
Rp35
sS'species'
p36
g3
((lp37
S"(5967, u'(?i)\\\\b(males|male)\\\\b')"
p38
aS"(1057, u'(?i)\\\\b(humans|human)\\\\b')"
p39
aS"(3503, u'(?i)\\\\b(fishers|fisher)\\\\b')"
p40
aS"(1070, u'(?i)\\\\b(pets|pet)\\\\b')"
p41
aS"(3196, u'(?i)\\\\b(human|humans)\\\\b')"
p42
atp43
Rp44
sb.