(ifile_types
ParseObject
p0
(dp1
S'methods'
p2
c__builtin__
set
p3
((lp4
S'Method.ANTAGONIST'
p5
atp6
Rp7
sS'topics'
p8
g3
((lp9
tp10
Rp11
sS'receptors'
p12
g3
((lp13
(S'5ht3'
p14
I137
I142
tp15
a(S'5ht3'
p16
I458
I463
tp17
a(S'5ht3'
p18
I504
I509
tp19
a(S'5ht3'
p20
I48
I53
tp21
a(S'5ht3'
p22
I1017
I1022
tp23
atp24
Rp25
sS'raw_text_methods'
p26
g3
((lp27
S"(54, u'\\\\bautoradiography')"
p28
aS"(12, u'\\\\bantagonist')"
p29
atp30
Rp31
sS'regions'
p32
g3
((lp33
S"(11, u'(?i)\\\\b(cerebrals|cerebral)\\\\b')"
p34
aS"(19, u'(?i)\\\\b(cortexes|cortex)\\\\b')"
p35
aS"(12, u'(?i)\\\\b(amygdalas|amygdala)\\\\b')"
p36
atp37
Rp38
sS'year'
p39
V1991
p40
sS'species'
p41
g3
((lp42
S"(4, u'(?i)\\\\b(rats|rat)\\\\b')"
p43
atp44
Rp45
sb.