(ifile_types
ParseObject
p0
(dp1
S'antagonists'
p2
c__builtin__
set
p3
((lp4
S"(31, u'\\\\bway ?100135')"
p5
atp6
Rp7
sS'methods'
p8
g3
((lp9
S'Method.ANTAGONIST'
p10
aS'Method.AGONIST'
p11
atp12
Rp13
sS'topics'
p14
g3
((lp15
S"(6, u'\\\\bcognit')"
p16
atp17
Rp18
sS'receptors'
p19
g3
((lp20
S'5ht1a'
p21
atp22
Rp23
sS'regions'
p24
g3
((lp25
S"(307, u'(?i)(fornixes|fornix)')"
p26
aS"(34, u'(?i)(pon|pons)')"
p27
atp28
Rp29
sS'year'
p30
V1997
p31
sS'agonists'
p32
g3
((lp33
tp34
Rp35
sS'species'
p36
g3
((lp37
S"(2323, u'(?i)(bees|bee)')"
p38
aS"(5537, u'(?i)(hippos|hippo)')"
p39
aS"(5958, u'(?i)(rats|rat)')"
p40
aS"(6125, u'(?i)(females|female)')"
p41
aS"(6753, u'(?i)(da|das)')"
p42
aS"(468, u'(?i)(oxen|ox)')"
p43
aS"(81, u'(?i)(asps|asp)')"
p44
aS"(2183, u'(?i)(gars|gar)')"
p45
aS"(1055, u'(?i)(men|man)')"
p46
aS"(1349, u'(?i)(rams|ram)')"
p47
aS"(4979, u'(?i)(cats|cat)')"
p48
aS"(6249, u'(?i)(ants|ant)')"
p49
aS"(3522, u'(?i)(tetras|tetra)')"
p50
aS"(5967, u'(?i)(males|male)')"
p51
aS"(1961, u'(?i)(pens|pen)')"
p52
aS"(6391, u'(?i)(asses|ass)')"
p53
aS"(6682, u'(?i)(tera|teras)')"
p54
atp55
Rp56
sb.