(ifile_types
ParseObject
p0
(dp1
S'methods'
p2
c__builtin__
set
p3
((lp4
S'Method.ANTAGONIST'
p5
atp6
Rp7
sS'topics'
p8
g3
((lp9
S"(5, u'\\\\btherap')"
p10
aS"(23, u'\\\\bantipsychotic')"
p11
aS"(4, u'\\\\btreatment')"
p12
aS"(3, u'\\\\bclinical')"
p13
atp14
Rp15
sS'receptors'
p16
g3
((lp17
(S'5ht2a'
p18
I1067
I1072
tp19
a(S'5ht2a'
p20
I1950
I1955
tp21
a(S'5ht2a'
p22
I1653
I1658
tp23
a(S'5ht2'
p24
I139
I143
tp25
a(S'5ht2a'
p26
I1190
I1195
tp27
a(S'5ht2a'
p28
I1231
I1236
tp29
atp30
Rp31
sS'raw_text_methods'
p32
g3
((lp33
S"(12, u'\\\\bantagonist')"
p34
atp35
Rp36
sS'regions'
p37
g3
((lp38
S"(11, u'(?i)\\\\b(cerebrals|cerebral)\\\\b')"
p39
aS"(21, u'(?i)\\\\b(mpfcs|mpfc)\\\\b')"
p40
aS"(19, u'(?i)\\\\b(cortexes|cortex)\\\\b')"
p41
aS"(20, u'(?i)\\\\b(prefrontals|prefrontal)\\\\b')"
p42
atp43
Rp44
sS'year'
p45
V2003
p46
sS'species'
p47
g3
((lp48
S"(4, u'(?i)\\\\b(rats|rat)\\\\b')"
p49
atp50
Rp51
sb.