(ifile_types
ParseObject
p0
(dp1
S'antagonists'
p2
c__builtin__
set
p3
((lp4
S"(60, u'\\\\basenapine')"
p5
aS"(142, u'\\\\bm1')"
p6
atp7
Rp8
sS'methods'
p9
g3
((lp10
S'Method.ANTAGONIST'
p11
aS'Method.AGONIST'
p12
atp13
Rp14
sS'topics'
p15
g3
((lp16
S"(15, u'\\\\bschizophreni')"
p17
atp18
Rp19
sS'receptors'
p20
g3
((lp21
S'5ht2c'
p22
aS'5ht2a'
p23
atp24
Rp25
sS'regions'
p26
g3
((lp27
S"(254, u'(?i)(prefrontals|prefrontal)(-|\\\\s+)?(cortexes|cortex)')"
p28
aS"(255, u'(?i)(pres|pre)(-|\\\\s+)?(frontals|frontal)(-|\\\\s+)?(cortexes|cortex)')"
p29
atp30
Rp31
sS'year'
p32
V2012
p33
sS'agonists'
p34
g3
((lp35
S"(33, u'\\\\bdoi')"
p36
aS"(17, u'\\\\basenapine')"
p37
atp38
Rp39
sS'species'
p40
g3
((lp41
S"(2323, u'(?i)(bees|bee)')"
p42
aS"(1688, u'(?i)(ounces|ounce)')"
p43
aS"(6753, u'(?i)(da|das)')"
p44
aS"(2568, u'(?i)(hens|hen)')"
p45
aS"(5958, u'(?i)(rats|rat)')"
p46
aS"(5743, u'(?i)(bots|bot)')"
p47
aS"(468, u'(?i)(oxen|ox)')"
p48
aS"(1055, u'(?i)(men|man)')"
p49
aS"(6249, u'(?i)(ants|ant)')"
p50
aS"(2334, u'(?i)(eels|eel)')"
p51
aS"(4979, u'(?i)(cats|cat)')"
p52
aS"(3550, u'(?i)(anis|ani)')"
p53
aS"(1961, u'(?i)(pens|pen)')"
p54
aS"(6391, u'(?i)(asses|ass)')"
p55
atp56
Rp57
sb.