(ifile_types
ParseObject
p0
(dp1
S'methods'
p2
c__builtin__
set
p3
((lp4
S'Method.ANTAGONIST'
p5
aS'Method.AGONIST'
p6
atp7
Rp8
sS'topics'
p9
g3
((lp10
S"(18, u'\\\\bavoidan')"
p11
aS"(5, u'\\\\btherap')"
p12
aS"(15, u'\\\\bmemory')"
p13
aS"(16, u'\\\\blearning')"
p14
aS"(2, u'\\\\bdisorder')"
p15
atp16
Rp17
sS'receptors'
p18
g3
((lp19
(S'5ht1b'
p20
I1633
I1639
tp21
a(S'5ht1b'
p22
I1877
I1883
tp23
a(S'5ht1b'
p24
I693
I699
tp25
a(S'5ht1b'
p26
I1468
I1474
tp27
a(S'5ht1b'
p28
I401
I407
tp29
a(S'5ht1b'
p30
I45
I51
tp31
a(S'5ht1b'
p32
I548
I554
tp33
atp34
Rp35
sS'raw_text_methods'
p36
g3
((lp37
S"(13, u'\\\\bagonist')"
p38
aS"(5, u'\\\\bmk801')"
p39
aS"(12, u'\\\\bantagonist')"
p40
atp41
Rp42
sS'regions'
p43
g3
((lp44
tp45
Rp46
sS'year'
p47
V2008
p48
sS'species'
p49
g3
((lp50
S"(1, u'(?i)\\\\b(mice|mouse)\\\\b')"
p51
aS"(5, u'(?i)\\\\b(mices|mice)\\\\b')"
p52
atp53
Rp54
sb.