(ifile_types
ParseObject
p0
(dp1
S'methods'
p2
c__builtin__
set
p3
((lp4
S'Method.PET'
p5
atp6
Rp7
sS'topics'
p8
g3
((lp9
tp10
Rp11
sS'receptors'
p12
g3
((lp13
(S'5ht2a'
p14
I356
I362
tp15
a(S'5ht2a'
p16
I796
I807
tp17
a(S'5ht2a'
p18
I1029
I1035
tp19
a(S'5ht2a'
p20
I719
I725
tp21
a(S'5ht2a'
p22
I117
I123
tp23
atp24
Rp25
sS'raw_text_methods'
p26
g3
((lp27
S"(17, u'\\\\bpet')"
p28
aS"(18, u'\\\\bimaging')"
p29
atp30
Rp31
sS'regions'
p32
g3
((lp33
tp34
Rp35
sS'year'
p36
V2002
p37
sS'species'
p38
g3
((lp39
tp40
Rp41
sb.