(ifile_types
ParseObject
p0
(dp1
S'antagonists'
p2
c__builtin__
set
p3
((lp4
S"(185, u'\\\\bsb ?399885')"
p5
aS"(183, u'\\\\bsb ?271046')"
p6
atp7
Rp8
sS'methods'
p9
g3
((lp10
S'Method.ANTAGONIST'
p11
atp12
Rp13
sS'topics'
p14
g3
((lp15
S"(8, u'\\\\blearning')"
p16
aS"(6, u'\\\\bcognit')"
p17
aS"(7, u'\\\\bmemory')"
p18
atp19
Rp20
sS'receptors'
p21
g3
((lp22
S'5ht6'
p23
aS'5ht6a'
p24
atp25
Rp26
sS'regions'
p27
g3
((lp28
S"(203, u'(?i)(dentates|dentate)(-|\\\\s+)?(gyruses|gyrus)')"
p29
atp30
Rp31
sS'year'
p32
V2008
p33
sS'agonists'
p34
g3
((lp35
S"(155, u'\\\\bmem')"
p36
atp37
Rp38
sS'species'
p39
g3
((lp40
S"(5537, u'(?i)(hippos|hippo)')"
p41
aS"(5958, u'(?i)(rats|rat)')"
p42
aS"(867, u'(?i)(tits|tit)')"
p43
aS"(6753, u'(?i)(da|das)')"
p44
aS"(479, u'(?i)(lings|ling)')"
p45
aS"(468, u'(?i)(oxen|ox)')"
p46
aS"(1055, u'(?i)(men|man)')"
p47
aS"(6249, u'(?i)(ants|ant)')"
p48
aS"(3152, u'(?i)(layers|layer)')"
p49
aS"(5743, u'(?i)(bots|bot)')"
p50
aS"(3550, u'(?i)(anis|ani)')"
p51
aS"(7094, u'(?i)(curs|cur)')"
p52
aS"(5229, u'(?i)(moles|mole)')"
p53
aS"(1961, u'(?i)(pens|pen)')"
p54
aS"(6356, u'(?i)(ais|ai)')"
p55
aS"(6391, u'(?i)(asses|ass)')"
p56
aS"(7058, u'(?i)(does|doe)')"
p57
atp58
Rp59
sb.