(ifile_types
ParseObject
p0
(dp1
S'methods'
p2
c__builtin__
set
p3
((lp4
S'Method.AGONIST'
p5
atp6
Rp7
sS'topics'
p8
g3
((lp9
S"(30, u'\\\\bpain')"
p10
aS"(1, u'\\\\bpatient')"
p11
aS"(4, u'\\\\btreatment')"
p12
atp13
Rp14
sS'receptors'
p15
g3
((lp16
(S'5ht1b'
p17
I457
I462
tp18
a(S'5ht1d'
p19
I457
I464
tp20
atp21
Rp22
sS'raw_text_methods'
p23
g3
((lp24
S"(13, u'\\\\bagonist')"
p25
aS"(47, u'\\\\bsumatriptan')"
p26
atp27
Rp28
sS'regions'
p29
g3
((lp30
tp31
Rp32
sS'year'
p33
V2000
p34
sS'species'
p35
g3
((lp36
tp37
Rp38
sb.