(ifile_types
ParseObject
p0
(dp1
S'antagonists'
p2
c__builtin__
set
p3
((lp4
tp5
Rp6
sS'methods'
p7
g3
((lp8
S'Method.ANTAGONIST'
p9
aS'Method.AGONIST'
p10
atp11
Rp12
sS'topics'
p13
g3
((lp14
S"(21, u'\\\\bpain')"
p15
aS"(6, u'\\\\bcognit')"
p16
aS"(9, u'\\\\bdepress')"
p17
aS"(10, u'\\\\banxiety')"
p18
aS"(30, u'\\\\bparkinsons')"
p19
atp20
Rp21
sS'receptors'
p22
g3
((lp23
S'5ht1a'
p24
atp25
Rp26
sS'regions'
p27
g3
((lp28
tp29
Rp30
sS'year'
p31
V2014
p32
sS'agonists'
p33
g3
((lp34
tp35
Rp36
sS'species'
p37
g3
((lp38
S"(2323, u'(?i)(bees|bee)')"
p39
aS"(4624, u'(?i)(apes|ape)')"
p40
aS"(5958, u'(?i)(rats|rat)')"
p41
aS"(867, u'(?i)(tits|tit)')"
p42
aS"(6753, u'(?i)(da|das)')"
p43
aS"(479, u'(?i)(lings|ling)')"
p44
aS"(81, u'(?i)(asps|asp)')"
p45
aS"(1055, u'(?i)(men|man)')"
p46
aS"(3404, u'(?i)(titis|titi)')"
p47
aS"(4979, u'(?i)(cats|cat)')"
p48
aS"(6249, u'(?i)(ants|ant)')"
p49
aS"(5229, u'(?i)(moles|mole)')"
p50
aS"(1414, u'(?i)(chars|char)')"
p51
aS"(3048, u'(?i)(hogs|hog)')"
p52
aS"(6356, u'(?i)(ais|ai)')"
p53
atp54
Rp55
sb.