(ifile_types
ParseObject
p0
(dp1
S'methods'
p2
c__builtin__
set
p3
((lp4
S'Method.AGONIST'
p5
atp6
Rp7
sS'topics'
p8
g3
((lp9
S"(5, u'\\\\btherap')"
p10
aS"(26, u'\\\\bbehav')"
p11
atp12
Rp13
sS'receptors'
p14
g3
((lp15
(S'5ht2a'
p16
I900
I906
tp17
a(S'5ht2a'
p18
I1265
I1271
tp19
a(S'5ht2a'
p20
I65
I71
tp21
a(S'5ht2a'
p22
I471
I477
tp23
a(S'5ht2a'
p24
I215
I221
tp25
a(S'5ht2a'
p26
I312
I318
tp27
a(S'5ht2a'
p28
I642
I648
tp29
a(S'5ht2'
p30
I1046
I1051
tp31
atp32
Rp33
sS'raw_text_methods'
p34
g3
((lp35
S"(13, u'\\\\bagonist')"
p36
atp37
Rp38
sS'regions'
p39
g3
((lp40
tp41
Rp42
sS'year'
p43
V2004
p44
sS'species'
p45
g3
((lp46
S"(4, u'(?i)\\\\b(rats|rat)\\\\b')"
p47
atp48
Rp49
sb.