(ifile_types
ParseObject
p0
(dp1
S'antagonists'
p2
c__builtin__
set
p3
((lp4
S"(52, u'\\\\bmetergoline')"
p5
aS"(35, u'\\\\bmetergoline')"
p6
atp7
Rp8
sS'methods'
p9
g3
((lp10
S'Method.ANTAGONIST'
p11
atp12
Rp13
sS'topics'
p14
g3
((lp15
tp16
Rp17
sS'receptors'
p18
g3
((lp19
S'5ht5'
p20
atp21
Rp22
sS'regions'
p23
g3
((lp24
S"(158, u'(?i)(suprachiasmatics|suprachiasmatic)(-|\\\\s+)?(nuclei|nucleus)')"
p25
aS"(359, u'(?i)(retinohypothalamics|retinohypothalamic)(-|\\\\s+)?(tracts|tract)')"
p26
atp27
Rp28
sS'year'
p29
V1999
p30
sS'agonists'
p31
g3
((lp32
tp33
Rp34
sS'species'
p35
g3
((lp36
S"(6249, u'(?i)(ants|ant)')"
p37
aS"(6753, u'(?i)(da|das)')"
p38
aS"(5958, u'(?i)(rats|rat)')"
p39
aS"(5743, u'(?i)(bots|bot)')"
p40
aS"(81, u'(?i)(asps|asp)')"
p41
aS"(468, u'(?i)(oxen|ox)')"
p42
aS"(1055, u'(?i)(men|man)')"
p43
aS"(3726, u'(?i)(mates|mate)')"
p44
aS"(1349, u'(?i)(rams|ram)')"
p45
aS"(2334, u'(?i)(eels|eel)')"
p46
aS"(4979, u'(?i)(cats|cat)')"
p47
aS"(3550, u'(?i)(anis|ani)')"
p48
aS"(1961, u'(?i)(pens|pen)')"
p49
aS"(6356, u'(?i)(ais|ai)')"
p50
aS"(821, u'(?i)(lice|louse)')"
p51
aS"(7552, u'(?i)(bats|bat)')"
p52
atp53
Rp54
sb.