(ifile_types
ParseObject
p0
(dp1
S'antagonists'
p2
c__builtin__
set
p3
((lp4
S"(131, u'\\\\bm1')"
p5
aS"(31, u'\\\\bway ?100635')"
p6
atp7
Rp8
sS'methods'
p9
g3
((lp10
S'Method.ANTAGONIST'
p11
aS'Method.AGONIST'
p12
atp13
Rp14
sS'topics'
p15
g3
((lp16
tp17
Rp18
sS'receptors'
p19
g3
((lp20
S'5ht1a'
p21
aS'5ht2a'
p22
atp23
Rp24
sS'regions'
p25
g3
((lp26
tp27
Rp28
sS'year'
p29
V2008
p30
sS'agonists'
p31
g3
((lp32
S"(63, u'\\\\bpsilocybin')"
p33
aS"(29, u'\\\\bdpt')"
p34
aS"(49, u'\\\\blysergic acid diethylamide')"
p35
aS"(147, u'\\\\bmdma')"
p36
aS"(158, u'\\\\blsd')"
p37
atp38
Rp39
sS'species'
p40
g3
((lp41
S"(5799, u'(?i)\\\\b(rodents|rodent)\\\\b')"
p42
aS"(163, u'(?i)\\\\b(mice|mouse)\\\\b')"
p43
aS"(2054, u'(?i)\\\\b(heads|head)\\\\b')"
p44
aS"(3196, u'(?i)\\\\b(human|humans)\\\\b')"
p45
aS"(1057, u'(?i)\\\\b(humans|human)\\\\b')"
p46
aS"(5958, u'(?i)\\\\b(rats|rat)\\\\b')"
p47
atp48
Rp49
sb.