(ifile_types
ParseObject
p0
(dp1
S'antagonists'
p2
c__builtin__
set
p3
((lp4
tp5
Rp6
sS'methods'
p7
g3
((lp8
tp9
Rp10
sS'topics'
p11
g3
((lp12
S"(16, u'\\\\bfeed')"
p13
aS"(2, u'\\\\bappetite')"
p14
aS"(10, u'\\\\banxiety')"
p15
aS"(1, u'\\\\bmood')"
p16
atp17
Rp18
sS'receptors'
p19
g3
((lp20
tp21
Rp22
sS'regions'
p23
g3
((lp24
tp25
Rp26
sS'year'
p27
V2010
p28
sS'agonists'
p29
g3
((lp30
tp31
Rp32
sS'species'
p33
g3
((lp34
tp35
Rp36
sb.