(ifile_types
ParseObject
p0
(dp1
S'methods'
p2
c__builtin__
set
p3
((lp4
S'Method.ANTAGONIST'
p5
aS'Method.AGONIST'
p6
atp7
Rp8
sS'topics'
p9
g3
((lp10
S"(13, u'\\\\bantidepress')"
p11
aS"(7, u'\\\\bdepressi')"
p12
aS"(33, u'\\\\blocomot')"
p13
aS"(5, u'\\\\btherap')"
p14
aS"(26, u'\\\\bbehav')"
p15
aS"(4, u'\\\\btreatment')"
p16
atp17
Rp18
sS'receptors'
p19
g3
((lp20
(S'5ht3'
p21
I443
I448
tp22
atp23
Rp24
sS'raw_text_methods'
p25
g3
((lp26
S"(13, u'\\\\bagonist')"
p27
aS"(20, u'\\\\bondansetron')"
p28
aS"(4, u'\\\\bpcpa')"
p29
aS"(12, u'\\\\bantagonist')"
p30
aS"(11, u'\\\\bfluoxetine')"
p31
atp32
Rp33
sS'regions'
p34
g3
((lp35
tp36
Rp37
sS'year'
p38
V2013
p39
sS'species'
p40
g3
((lp41
S"(1, u'(?i)\\\\b(mice|mouse)\\\\b')"
p42
aS"(6, u'(?i)\\\\b(rodents|rodent)\\\\b')"
p43
aS"(5, u'(?i)\\\\b(mices|mice)\\\\b')"
p44
aS"(4, u'(?i)\\\\b(rats|rat)\\\\b')"
p45
atp46
Rp47
sb.