(ifile_types
ParseObject
p0
(dp1
S'methods'
p2
c__builtin__
set
p3
((lp4
S'Method.ANTAGONIST'
p5
atp6
Rp7
sS'topics'
p8
g3
((lp9
S"(16, u'\\\\blearning')"
p10
aS"(26, u'\\\\bbehav')"
p11
aS"(4, u'\\\\btreatment')"
p12
atp13
Rp14
sS'receptors'
p15
g3
((lp16
(S'5ht3'
p17
I226
I231
tp18
a(S'5ht3'
p19
I1596
I1601
tp20
a(S'5ht3'
p21
I559
I564
tp22
a(S'5ht3'
p23
I2611
I2616
tp24
atp25
Rp26
sS'raw_text_methods'
p27
g3
((lp28
S"(20, u'\\\\bondansetron')"
p29
aS"(12, u'\\\\bantagonist')"
p30
atp31
Rp32
sS'regions'
p33
g3
((lp34
tp35
Rp36
sS'year'
p37
V1997
p38
sS'species'
p39
g3
((lp40
S"(4, u'(?i)\\\\b(rats|rat)\\\\b')"
p41
atp42
Rp43
sb.