(ifile_types
ParseObject
p0
(dp1
S'methods'
p2
c__builtin__
set
p3
((lp4
S'Method.STIMULATION'
p5
aS'Method.ANTAGONIST'
p6
atp7
Rp8
sS'topics'
p9
g3
((lp10
S"(13, u'\\\\bantidepress')"
p11
aS"(7, u'\\\\bdepressi')"
p12
aS"(20, u'\\\\bmood')"
p13
aS"(6, u'\\\\baggressi')"
p14
aS"(5, u'\\\\btherap')"
p15
aS"(1, u'\\\\bpatient')"
p16
aS"(4, u'\\\\btreatment')"
p17
aS"(3, u'\\\\bclinical')"
p18
atp19
Rp20
sS'receptors'
p21
g3
((lp22
(S'5ht1b'
p23
I1946
I1954
tp24
a(S'5ht5'
p25
I357
I367
tp26
a(S'5ht1a'
p27
I1946
I1952
tp28
a(S'5ht1a'
p29
I1900
I1906
tp30
a(S'5ht4'
p31
I1908
I1913
tp32
a(S'5ht5'
p33
I1946
I1955
tp34
a(S'5ht2c'
p35
I1966
I1972
tp36
a(S'5ht3'
p37
I1973
I1978
tp38
a(S'5ht2a'
p39
I1958
I1964
tp40
atp41
Rp42
sS'raw_text_methods'
p43
g3
((lp44
S"(38, u'\\\\bssri')"
p45
aS"(12, u'\\\\bantagonist')"
p46
atp47
Rp48
sS'regions'
p49
g3
((lp50
S"(19, u'(?i)\\\\b(cortexes|cortex)\\\\b')"
p51
aS"(4, u'(?i)\\\\b(presynaptics|presynaptic)\\\\b')"
p52
aS"(3, u'(?i)\\\\b(postsynaptics|postsynaptic)\\\\b')"
p53
atp54
Rp55
sS'year'
p56
V2015
p57
sS'species'
p58
g3
((lp59
tp60
Rp61
sb.