(ifile_types
ParseObject
p0
(dp1
S'methods'
p2
c__builtin__
set
p3
((lp4
S'Method.STIMULATION'
p5
aS'Method.ANTAGONIST'
p6
atp7
Rp8
sS'topics'
p9
g3
((lp10
S"(24, u'\\\\banxiolytic')"
p11
aS"(8, u'\\\\banxi')"
p12
aS"(13, u'\\\\bantidepress')"
p13
aS"(26, u'\\\\bbehav')"
p14
aS"(16, u'\\\\blearning')"
p15
atp16
Rp17
sS'receptors'
p18
g3
((lp19
(S'5ht1'
p20
I483
I488
tp21
a(S'5ht1a'
p22
I842
I848
tp23
a(S'5ht1a'
p24
I1324
I1330
tp25
a(S'5ht2'
p26
I780
I785
tp27
atp28
Rp29
sS'raw_text_methods'
p30
g3
((lp31
S"(7, u'\\\\bpropranolol')"
p32
aS"(9, u'\\\\britanserin')"
p33
aS"(36, u'\\\\bbenzodiazepine')"
p34
aS"(21, u'\\\\bipsapirone')"
p35
aS"(12, u'\\\\bantagonist')"
p36
atp37
Rp38
sS'regions'
p39
g3
((lp40
tp41
Rp42
sS'year'
p43
V1990
p44
sS'species'
p45
g3
((lp46
tp47
Rp48
sb.