(ifile_types
ParseObject
p0
(dp1
S'antagonists'
p2
c__builtin__
set
p3
((lp4
S"(32, u'\\\\bway ?100635')"
p5
aS"(34, u'\\\\byohimbine')"
p6
atp7
Rp8
sS'methods'
p9
g3
((lp10
S'Method.ANTAGONIST'
p11
aS'Method.AGONIST'
p12
atp13
Rp14
sS'topics'
p15
g3
((lp16
tp17
Rp18
sS'receptors'
p19
g3
((lp20
S'5ht5'
p21
aS'5ht1a'
p22
atp23
Rp24
sS'regions'
p25
g3
((lp26
S"(34, u'(?i)(pon|pons)')"
p27
atp28
Rp29
sS'year'
p30
V2009
p31
sS'agonists'
p32
g3
((lp33
S"(89, u'\\\\byohimbine')"
p34
atp35
Rp36
sS'species'
p37
g3
((lp38
S"(2323, u'(?i)(bees|bee)')"
p39
aS"(949, u'(?i)(cohoes|coho)')"
p40
aS"(5958, u'(?i)(rats|rat)')"
p41
aS"(6753, u'(?i)(da|das)')"
p42
aS"(468, u'(?i)(oxen|ox)')"
p43
aS"(5967, u'(?i)(males|male)')"
p44
aS"(4163, u'(?i)(ermines|ermine)')"
p45
aS"(1055, u'(?i)(men|man)')"
p46
aS"(6249, u'(?i)(ants|ant)')"
p47
aS"(5743, u'(?i)(bots|bot)')"
p48
aS"(2568, u'(?i)(hens|hen)')"
p49
aS"(6356, u'(?i)(ais|ai)')"
p50
atp51
Rp52
sb.