(ifile_types
ParseObject
p0
(dp1
S'methods'
p2
c__builtin__
set
p3
((lp4
S'Method.PET'
p5
atp6
Rp7
sS'topics'
p8
g3
((lp9
S"(1, u'\\\\bpatient')"
p10
aS"(4, u'\\\\btreatment')"
p11
aS"(2, u'\\\\bdisorder')"
p12
atp13
Rp14
sS'receptors'
p15
g3
((lp16
(S'5ht2a'
p17
I450
I456
tp18
a(S'5ht2a'
p19
I1341
I1347
tp20
a(S'5ht2a'
p21
I35
I41
tp22
atp23
Rp24
sS'raw_text_methods'
p25
g3
((lp26
S"(17, u'\\\\bpet')"
p27
aS"(18, u'\\\\bimaging')"
p28
atp29
Rp30
sS'regions'
p31
g3
((lp32
tp33
Rp34
sS'year'
p35
V2011
p36
sS'species'
p37
g3
((lp38
tp39
Rp40
sb.