(ifile_types
ParseObject
p0
(dp1
S'antagonists'
p2
c__builtin__
set
p3
((lp4
tp5
Rp6
sS'methods'
p7
g3
((lp8
S'Method.PET'
p9
atp10
Rp11
sS'topics'
p12
g3
((lp13
S"(9, u'\\\\bdepress')"
p14
aS"(10, u'\\\\banxiety')"
p15
atp16
Rp17
sS'receptors'
p18
g3
((lp19
S'5ht4b'
p20
aS'5ht4'
p21
aS'5ht5'
p22
atp23
Rp24
sS'regions'
p25
g3
((lp26
S"(34, u'(?i)(pon|pons)')"
p27
atp28
Rp29
sS'year'
p30
V2012
p31
sS'agonists'
p32
g3
((lp33
tp34
Rp35
sS'species'
p36
g3
((lp37
S"(3503, u'(?i)(fishers|fisher)')"
p38
aS"(6356, u'(?i)(ais|ai)')"
p39
aS"(3196, u'(?i)(human|humans)')"
p40
aS"(3812, u'(?i)(studs|stud)')"
p41
aS"(6391, u'(?i)(asses|ass)')"
p42
aS"(1070, u'(?i)(pets|pet)')"
p43
aS"(4657, u'(?i)(fish|fish)')"
p44
aS"(479, u'(?i)(lings|ling)')"
p45
aS"(4091, u'(?i)(adults|adult)')"
p46
aS"(81, u'(?i)(asps|asp)')"
p47
aS"(3550, u'(?i)(anis|ani)')"
p48
aS"(2809, u'(?i)(toms|tom)')"
p49
aS"(6249, u'(?i)(ants|ant)')"
p50
aS"(6682, u'(?i)(tera|teras)')"
p51
aS"(1055, u'(?i)(men|man)')"
p52
aS"(4979, u'(?i)(cats|cat)')"
p53
aS"(1057, u'(?i)(humans|human)')"
p54
aS"(4247, u'(?i)(tatus|tatu)')"
p55
aS"(2323, u'(?i)(bees|bee)')"
p56
aS"(1628, u'(?i)(cod|cod)')"
p57
aS"(702, u'(?i)(genets|genet)')"
p58
aS"(1054, u'(?i)(homoes|homo)')"
p59
atp60
Rp61
sb.