(ifile_types
ParseObject
p0
(dp1
S'methods'
p2
c__builtin__
set
p3
((lp4
tp5
Rp6
sS'topics'
p7
g3
((lp8
S"(31, u'\\\\brespiratory')"
p9
aS"(5, u'\\\\btherap')"
p10
aS"(26, u'\\\\bbehav')"
p11
atp12
Rp13
sS'receptors'
p14
g3
((lp15
(S'5ht1'
p16
I1336
I1342
tp17
a(S'5ht1a'
p18
I1336
I1342
tp19
atp20
Rp21
sS'raw_text_methods'
p22
g3
((lp23
S"(16, u'\\\\bdiazepam')"
p24
aS"(36, u'\\\\bbenzodiazepine')"
p25
atp26
Rp27
sS'regions'
p28
g3
((lp29
S"(11, u'(?i)\\\\b(cerebrals|cerebral)\\\\b')"
p30
aS"(19, u'(?i)\\\\b(cortexes|cortex)\\\\b')"
p31
atp32
Rp33
sS'year'
p34
V2000
p35
sS'species'
p36
g3
((lp37
S"(1, u'(?i)\\\\b(mice|mouse)\\\\b')"
p38
aS"(5, u'(?i)\\\\b(mices|mice)\\\\b')"
p39
atp40
Rp41
sb.