(ifile_types
ParseObject
p0
(dp1
S'methods'
p2
c__builtin__
set
p3
((lp4
S'Method.ANTAGONIST'
p5
atp6
Rp7
sS'topics'
p8
g3
((lp9
S"(26, u'\\\\bbehav')"
p10
aS"(33, u'\\\\blocomot')"
p11
atp12
Rp13
sS'receptors'
p14
g3
((lp15
(S'5ht4'
p16
I653
I658
tp17
a(S'5ht4'
p18
I773
I778
tp19
a(S'5ht4'
p20
I1303
I1308
tp21
a(S'5ht4'
p22
I1730
I1735
tp23
a(S'5ht4'
p24
I990
I995
tp25
a(S'5ht4'
p26
I42
I47
tp27
atp28
Rp29
sS'raw_text_methods'
p30
g3
((lp31
S"(48, u'\\\\bmdma')"
p32
aS"(12, u'\\\\bantagonist')"
p33
atp34
Rp35
sS'regions'
p36
g3
((lp37
tp38
Rp39
sS'year'
p40
V2011
p41
sS'species'
p42
g3
((lp43
S"(3, u'(?i)\\\\b(males|male)\\\\b')"
p44
aS"(4, u'(?i)\\\\b(rats|rat)\\\\b')"
p45
atp46
Rp47
sb.