(ifile_types
ParseObject
p0
(dp1
S'methods'
p2
c__builtin__
set
p3
((lp4
S'Method.ANTAGONIST'
p5
aS'Method.AGONIST'
p6
atp7
Rp8
sS'topics'
p9
g3
((lp10
tp11
Rp12
sS'receptors'
p13
g3
((lp14
(S'5ht6'
p15
I1246
I1251
tp16
a(S'5ht2'
p17
I1418
I1423
tp18
a(S'5ht1c'
p19
I2435
I2441
tp20
a(S'5ht1'
p21
I101
I106
tp22
a(S'5ht2'
p23
I974
I979
tp24
a(S'5ht1c'
p25
I963
I969
tp26
a(S'5ht3'
p27
I2181
I2186
tp28
a(S'5ht2'
p29
I2171
I2176
tp30
a(S'5ht1'
p31
I285
I290
tp32
atp33
Rp34
sS'raw_text_methods'
p35
g3
((lp36
S"(53, u'\\\\bketanserin')"
p37
aS"(15, u'\\\\b8ohdpat')"
p38
aS"(13, u'\\\\bagonist')"
p39
aS"(30, u'\\\\b2methyl')"
p40
aS"(47, u'\\\\bsumatriptan')"
p41
aS"(46, u'\\\\bspiperone')"
p42
aS"(12, u'\\\\bantagonist')"
p43
atp44
Rp45
sS'regions'
p46
g3
((lp47
tp48
Rp49
sS'year'
p50
V1993
p51
sS'species'
p52
g3
((lp53
S"(4, u'(?i)\\\\b(rats|rat)\\\\b')"
p54
atp55
Rp56
sb.