(ifile_types
ParseObject
p0
(dp1
S'methods'
p2
c__builtin__
set
p3
((lp4
S'Method.PET'
p5
aS'Method.ANTAGONIST'
p6
atp7
Rp8
sS'topics'
p9
g3
((lp10
S"(2, u'\\\\bdisorder')"
p11
atp12
Rp13
sS'receptors'
p14
g3
((lp15
(S'5ht1a'
p16
I1473
I1479
tp17
a(S'5ht1a'
p18
I739
I745
tp19
a(S'5ht1a'
p20
I90
I96
tp21
atp22
Rp23
sS'raw_text_methods'
p24
g3
((lp25
S"(1, u'\\\\bneuroimag')"
p26
aS"(17, u'\\\\bpet')"
p27
aS"(19, u'\\\\bpositron emission tomography')"
p28
aS"(38, u'\\\\bssri')"
p29
aS"(12, u'\\\\bantagonist')"
p30
atp31
Rp32
sS'regions'
p33
g3
((lp34
S"(11, u'(?i)\\\\b(cerebrals|cerebral)\\\\b')"
p35
aS"(19, u'(?i)\\\\b(cortexes|cortex)\\\\b')"
p36
atp37
Rp38
sS'year'
p39
V2005
p40
sS'species'
p41
g3
((lp42
S"(4, u'(?i)\\\\b(rats|rat)\\\\b')"
p43
atp44
Rp45
sb.