(ifile_types
ParseObject
p0
(dp1
S'methods'
p2
c__builtin__
set
p3
((lp4
S'Method.ANTAGONIST'
p5
aS'Method.AGONIST'
p6
atp7
Rp8
sS'topics'
p9
g3
((lp10
tp11
Rp12
sS'receptors'
p13
g3
((lp14
(S'5ht1a'
p15
I1237
I1242
tp16
a(S'5ht2a'
p17
I1887
I1892
tp18
a(S'5ht1a'
p19
I2860
I2865
tp20
a(S'5ht2a'
p21
I178
I189
tp22
a(S'5ht2a'
p23
I3002
I3007
tp24
a(S'5ht2c'
p25
I1984
I1989
tp26
a(S'5ht1a'
p27
I2565
I2570
tp28
a(S'5ht2c'
p29
I1630
I1635
tp30
a(S'5ht2c'
p31
I194
I205
tp32
a(S'5ht1a'
p33
I540
I545
tp34
a(S'5ht2a'
p35
I2199
I2204
tp36
a(S'5ht1a'
p37
I1314
I1319
tp38
a(S'5ht2a'
p39
I2516
I2521
tp40
a(S'5ht2c'
p41
I3011
I3016
tp42
a(S'5ht2a'
p43
I1620
I1625
tp44
a(S'5ht1a'
p45
I985
I990
tp46
a(S'5ht2c'
p47
I2526
I2531
tp48
a(S'5ht1a'
p49
I40
I51
tp50
a(S'5ht1a'
p51
I1537
I1542
tp52
a(S'5ht2c'
p53
I2338
I2343
tp54
atp55
Rp56
sS'raw_text_methods'
p57
g3
((lp58
S"(13, u'\\\\bagonist')"
p59
aS"(15, u'\\\\b8ohdpat')"
p60
aS"(49, u'\\\\bdoi')"
p61
aS"(23, u'\\\\bmdl')"
p62
aS"(12, u'\\\\bantagonist')"
p63
atp64
Rp65
sS'regions'
p66
g3
((lp67
S"(4, u'(?i)\\\\b(presynaptics|presynaptic)\\\\b')"
p68
aS"(3, u'(?i)\\\\b(postsynaptics|postsynaptic)\\\\b')"
p69
atp70
Rp71
sS'year'
p72
V2006
p73
sS'species'
p74
g3
((lp75
S"(4, u'(?i)\\\\b(rats|rat)\\\\b')"
p76
atp77
Rp78
sb.