(ifile_types
ParseObject
p0
(dp1
S'methods'
p2
c__builtin__
set
p3
((lp4
S'Method.ANTAGONIST'
p5
aS'Method.AGONIST'
p6
atp7
Rp8
sS'topics'
p9
g3
((lp10
S"(8, u'\\\\banxi')"
p11
aS"(26, u'\\\\bbehav')"
p12
aS"(4, u'\\\\btreatment')"
p13
atp14
Rp15
sS'receptors'
p16
g3
((lp17
(S'5ht3'
p18
I695
I700
tp19
a(S'5ht1a'
p20
I652
I658
tp21
atp22
Rp23
sS'raw_text_methods'
p24
g3
((lp25
S"(22, u'\\\\bbuspirone')"
p26
aS"(16, u'\\\\bdiazepam')"
p27
aS"(36, u'\\\\bbenzodiazepine')"
p28
aS"(13, u'\\\\bagonist')"
p29
aS"(28, u'\\\\bzacopride')"
p30
aS"(12, u'\\\\bantagonist')"
p31
atp32
Rp33
sS'regions'
p34
g3
((lp35
tp36
Rp37
sS'year'
p38
V1993
p39
sS'species'
p40
g3
((lp41
S"(4, u'(?i)\\\\b(rats|rat)\\\\b')"
p42
atp43
Rp44
sb.