(ifile_types
ParseObject
p0
(dp1
S'antagonists'
p2
c__builtin__
set
p3
((lp4
tp5
Rp6
sS'methods'
p7
g3
((lp8
tp9
Rp10
sS'topics'
p11
g3
((lp12
S"(30, u'\\\\bparkinsons')"
p13
aS"(1, u'\\\\bmood')"
p14
atp15
Rp16
sS'receptors'
p17
g3
((lp18
tp19
Rp20
sS'regions'
p21
g3
((lp22
tp23
Rp24
sS'year'
p25
V2009
p26
sS'agonists'
p27
g3
((lp28
tp29
Rp30
sS'species'
p31
g3
((lp32
S"(5686, u'(?i)\\\\b(foxes|fox)\\\\b')"
p33
atp34
Rp35
sb.