(ifile_types
ParseObject
p0
(dp1
S'methods'
p2
c__builtin__
set
p3
((lp4
S'Method.ANTAGONIST'
p5
atp6
Rp7
sS'topics'
p8
g3
((lp9
S"(5, u'\\\\btherap')"
p10
aS"(7, u'\\\\bdepressi')"
p11
aS"(4, u'\\\\btreatment')"
p12
aS"(3, u'\\\\bclinical')"
p13
atp14
Rp15
sS'receptors'
p16
g3
((lp17
(S'5ht1a'
p18
I3381
I3387
tp19
a(S'5ht1a'
p20
I3185
I3191
tp21
a(S'5ht1a'
p22
I2743
I2749
tp23
a(S'5ht1a'
p24
I387
I393
tp25
a(S'5ht1a'
p26
I36
I42
tp27
atp28
Rp29
sS'raw_text_methods'
p30
g3
((lp31
S"(38, u'\\\\bssri')"
p32
aS"(39, u'\\\\bselective serotonin reuptake inhibitor')"
p33
aS"(12, u'\\\\bantagonist')"
p34
atp35
Rp36
sS'regions'
p37
g3
((lp38
S"(19, u'(?i)\\\\b(cortexes|cortex)\\\\b')"
p39
aS"(16, u'(?i)\\\\b(drns|drn)\\\\b')"
p40
atp41
Rp42
sS'year'
p43
V1996
p44
sS'species'
p45
g3
((lp46
S"(4, u'(?i)\\\\b(rats|rat)\\\\b')"
p47
atp48
Rp49
sb.