(ifile_types
ParseObject
p0
(dp1
S'antagonists'
p2
c__builtin__
set
p3
((lp4
tp5
Rp6
sS'methods'
p7
g3
((lp8
S'Method.ANTAGONIST'
p9
atp10
Rp11
sS'topics'
p12
g3
((lp13
S"(9, u'\\\\bdepress')"
p14
aS"(35, u'\\\\bstress')"
p15
aS"(10, u'\\\\banxiety')"
p16
atp17
Rp18
sS'receptors'
p19
g3
((lp20
S'5ht5'
p21
aS'5ht1a'
p22
atp23
Rp24
sS'regions'
p25
g3
((lp26
S"(34, u'(?i)(pon|pons)')"
p27
atp28
Rp29
sS'year'
p30
V2008
p31
sS'agonists'
p32
g3
((lp33
tp34
Rp35
sS'species'
p36
g3
((lp37
S"(6753, u'(?i)(da|das)')"
p38
aS"(6249, u'(?i)(ants|ant)')"
p39
aS"(7609, u'(?i)(erns|ern)')"
p40
aS"(7610, u'(?i)(ernes|erne)')"
p41
aS"(5176, u'(?i)(tegs|teg)')"
p42
aS"(6682, u'(?i)(tera|teras)')"
p43
aS"(1055, u'(?i)(men|man)')"
p44
aS"(4979, u'(?i)(cats|cat)')"
p45
aS"(5958, u'(?i)(rats|rat)')"
p46
aS"(7058, u'(?i)(does|doe)')"
p47
aS"(6356, u'(?i)(ais|ai)')"
p48
aS"(6391, u'(?i)(asses|ass)')"
p49
aS"(1683, u'(?i)(terns|tern)')"
p50
atp51
Rp52
sb.