(ifile_types
ParseObject
p0
(dp1
S'antagonists'
p2
c__builtin__
set
p3
((lp4
tp5
Rp6
sS'methods'
p7
g3
((lp8
S'Method.AGONIST'
p9
atp10
Rp11
sS'topics'
p12
g3
((lp13
S"(6, u'\\\\bcognit')"
p14
atp15
Rp16
sS'receptors'
p17
g3
((lp18
S'5ht6'
p19
aS'5ht5'
p20
atp21
Rp22
sS'regions'
p23
g3
((lp24
S"(254, u'(?i)\\\\b(prefrontals|prefrontal)(-|\\\\s+)?(cortexes|cortex)\\\\b')"
p25
aS"(255, u'(?i)\\\\b(pres|pre)(-|\\\\s+)?(frontals|frontal)(-|\\\\s+)?(cortexes|cortex)\\\\b')"
p26
atp27
Rp28
sS'year'
p29
V2016
p30
sS'agonists'
p31
g3
((lp32
S"(176, u'\\\\bdom')"
p33
atp34
Rp35
sS'species'
p36
g3
((lp37
S"(163, u'(?i)\\\\b(mice|mouse)\\\\b')"
p38
atp39
Rp40
sb.