(ifile_types
ParseObject
p0
(dp1
S'antagonists'
p2
c__builtin__
set
p3
((lp4
S"(130, u'\\\\britanserin')"
p5
aS"(21, u'\\\\bpindolol')"
p6
aS"(54, u'\\\\britanserin')"
p7
aS"(209, u'\\\\btfmpp')"
p8
aS"(102, u'\\\\bfluoxetine')"
p9
aS"(135, u'\\\\bondansetron')"
p10
atp11
Rp12
sS'methods'
p13
g3
((lp14
S'Method.ANTAGONIST'
p15
aS'Method.AGONIST'
p16
atp17
Rp18
sS'topics'
p19
g3
((lp20
tp21
Rp22
sS'receptors'
p23
g3
((lp24
S'5ht1c'
p25
aS'5ht1b'
p26
aS'5ht1a'
p27
aS'5ht3a'
p28
aS'5ht2a'
p29
aS'5ht5'
p30
aS'5ht3'
p31
atp32
Rp33
sS'regions'
p34
g3
((lp35
S"(34, u'(?i)(pon|pons)')"
p36
atp37
Rp38
sS'year'
p39
V2001
p40
sS'agonists'
p41
g3
((lp42
S"(92, u'\\\\b8 ?oh ?dpat')"
p43
aS"(183, u'\\\\btfmpp')"
p44
aS"(169, u'\\\\bfenfluramine')"
p45
aS"(33, u'\\\\bdoi')"
p46
atp47
Rp48
sS'species'
p49
g3
((lp50
S"(6753, u'(?i)(da|das)')"
p51
aS"(5958, u'(?i)(rats|rat)')"
p52
aS"(6356, u'(?i)(ais|ai)')"
p53
aS"(163, u'(?i)(mice|mouse)')"
p54
aS"(468, u'(?i)(oxen|ox)')"
p55
aS"(1349, u'(?i)(rams|ram)')"
p56
aS"(1055, u'(?i)(men|man)')"
p57
aS"(4964, u'(?i)(serins|serin)')"
p58
aS"(6249, u'(?i)(ants|ant)')"
p59
aS"(3812, u'(?i)(studs|stud)')"
p60
aS"(4979, u'(?i)(cats|cat)')"
p61
aS"(5949, u'(?i)(dogs|dog)')"
p62
atp63
Rp64
sb.