(ifile_types
ParseObject
p0
(dp1
S'antagonists'
p2
c__builtin__
set
p3
((lp4
S"(203, u'\\\\btfmpp')"
p5
atp6
Rp7
sS'methods'
p8
g3
((lp9
S'Method.AGONIST'
p10
atp11
Rp12
sS'topics'
p13
g3
((lp14
tp15
Rp16
sS'receptors'
p17
g3
((lp18
S'5ht1b'
p19
atp20
Rp21
sS'regions'
p22
g3
((lp23
tp24
Rp25
sS'year'
p26
V1991
p27
sS'agonists'
p28
g3
((lp29
S"(178, u'\\\\btfmpp')"
p30
aS"(155, u'\\\\bmcpp')"
p31
aS"(67, u'\\\\bru ?24969')"
p32
atp33
Rp34
sS'species'
p35
g3
((lp36
S"(163, u'(?i)\\\\b(mice|mouse)\\\\b')"
p37
atp38
Rp39
sb.