(ifile_types
ParseObject
p0
(dp1
S'methods'
p2
c__builtin__
set
p3
((lp4
S'Method.ANTAGONIST'
p5
aS'Method.AGONIST'
p6
atp7
Rp8
sS'topics'
p9
g3
((lp10
S"(9, u'\\\\bstress')"
p11
aS"(4, u'\\\\btreatment')"
p12
atp13
Rp14
sS'receptors'
p15
g3
((lp16
(S'5ht2a'
p17
I1053
I1059
tp18
a(S'5ht2a'
p19
I1415
I1421
tp20
a(S'5ht2'
p21
I1694
I1699
tp22
a(S'5ht2a'
p23
I588
I594
tp24
a(S'5ht2a'
p25
I376
I387
tp26
a(S'5ht2'
p27
I111
I116
tp28
a(S'5ht2a'
p29
I390
I396
tp30
a(S'5ht2'
p31
I1270
I1275
tp32
atp33
Rp34
sS'raw_text_methods'
p35
g3
((lp36
S"(13, u'\\\\bagonist')"
p37
aS"(12, u'\\\\bantagonist')"
p38
atp39
Rp40
sS'regions'
p41
g3
((lp42
tp43
Rp44
sS'year'
p45
V2013
p46
sS'species'
p47
g3
((lp48
tp49
Rp50
sb.