(ifile_types
ParseObject
p0
(dp1
S'antagonists'
p2
c__builtin__
set
p3
((lp4
S"(84, u'\\\\bsb ?206553')"
p5
atp6
Rp7
sS'methods'
p8
g3
((lp9
S'Method.ANTAGONIST'
p10
aS'Method.AGONIST'
p11
atp12
Rp13
sS'topics'
p14
g3
((lp15
S"(26, u'\\\\bcardiovascular')"
p16
atp17
Rp18
sS'receptors'
p19
g3
((lp20
S'5ht2c'
p21
aS'5ht2b'
p22
aS'5ht2'
p23
aS'5ht2a'
p24
atp25
Rp26
sS'regions'
p27
g3
((lp28
S"(362, u'(?i)\\\\b(brains|brain)(-|\\\\s+)?(stems|stem)\\\\b')"
p29
aS"(30, u'(?i)\\\\b(nuclei|nucleus)(-|\\\\s+)?(ambiguuses|ambiguus)\\\\b')"
p30
atp31
Rp32
sS'year'
p33
V2008
p34
sS'agonists'
p35
g3
((lp36
S"(140, u'\\\\bbw ?723c86')"
p37
aS"(176, u'\\\\bdom')"
p38
aS"(155, u'\\\\bmcpp')"
p39
atp40
Rp41
sS'species'
p42
g3
((lp43
tp44
Rp45
sb.