(ifile_types
ParseObject
p0
(dp1
S'methods'
p2
c__builtin__
set
p3
((lp4
tp5
Rp6
sS'topics'
p7
g3
((lp8
S"(26, u'\\\\bbehav')"
p9
aS"(9, u'\\\\bstress')"
p10
aS"(2, u'\\\\bdisorder')"
p11
atp12
Rp13
sS'receptors'
p14
g3
((lp15
(S'5ht1a'
p16
I1407
I1413
tp17
a(S'5ht1a'
p18
I1320
I1326
tp19
atp20
Rp21
sS'raw_text_methods'
p22
g3
((lp23
tp24
Rp25
sS'regions'
p26
g3
((lp27
S"(11, u'(?i)\\\\b(cerebrals|cerebral)\\\\b')"
p28
aS"(19, u'(?i)\\\\b(cortexes|cortex)\\\\b')"
p29
aS"(16, u'(?i)\\\\b(drns|drn)\\\\b')"
p30
atp31
Rp32
sS'year'
p33
V2004
p34
sS'species'
p35
g3
((lp36
S"(1, u'(?i)\\\\b(mice|mouse)\\\\b')"
p37
aS"(5, u'(?i)\\\\b(mices|mice)\\\\b')"
p38
atp39
Rp40
sb.