(ifile_types
ParseObject
p0
(dp1
S'antagonists'
p2
c__builtin__
set
p3
((lp4
S"(204, u'\\\\bsb ?269970')"
p5
aS"(32, u'\\\\bway ?100635')"
p6
atp7
Rp8
sS'methods'
p9
g3
((lp10
S'Method.ANTAGONIST'
p11
aS'Method.AGONIST'
p12
atp13
Rp14
sS'topics'
p15
g3
((lp16
tp17
Rp18
sS'receptors'
p19
g3
((lp20
S'5ht7'
p21
aS'5ht1a'
p22
aS'5ht7b'
p23
aS'5ht5a'
p24
atp25
Rp26
sS'regions'
p27
g3
((lp28
S"(318, u'(?i)(raphes|raphe)(-|\\\\s+)?(nuclei|nucleus)')"
p29
aS"(94, u'(?i)(dorsals|dorsal)(-|\\\\s+)?(raphes|raphe)(-|\\\\s+)?(nuclei|nucleus)')"
p30
atp31
Rp32
sS'year'
p33
V2005
p34
sS'agonists'
p35
g3
((lp36
tp37
Rp38
sS'species'
p39
g3
((lp40
S"(4404, u'(?i)(duns|dun)')"
p41
aS"(5958, u'(?i)(rats|rat)')"
p42
aS"(468, u'(?i)(oxen|ox)')"
p43
aS"(1055, u'(?i)(men|man)')"
p44
aS"(6753, u'(?i)(da|das)')"
p45
aS"(4099, u'(?i)(hamsters|hamster)')"
p46
aS"(6249, u'(?i)(ants|ant)')"
p47
aS"(3522, u'(?i)(tetras|tetra)')"
p48
aS"(1961, u'(?i)(pens|pen)')"
p49
aS"(6356, u'(?i)(ais|ai)')"
p50
atp51
Rp52
sb.