(ifile_types
ParseObject
p0
(dp1
S'methods'
p2
c__builtin__
set
p3
((lp4
S'Method.PET'
p5
aS'Method.AGONIST'
p6
atp7
Rp8
sS'topics'
p9
g3
((lp10
S"(3, u'\\\\bclinical')"
p11
atp12
Rp13
sS'receptors'
p14
g3
((lp15
(S'5ht2a'
p16
I384
I390
tp17
a(S'5ht2a'
p18
I902
I908
tp19
a(S'5ht2a'
p20
I279
I285
tp21
a(S'5ht2a'
p22
I65
I71
tp23
a(S'5ht2a'
p24
I255
I266
tp25
atp26
Rp27
sS'raw_text_methods'
p28
g3
((lp29
S"(13, u'\\\\bagonist')"
p30
aS"(17, u'\\\\bpet')"
p31
aS"(19, u'\\\\bpositron emission tomography')"
p32
aS"(18, u'\\\\bimaging')"
p33
atp34
Rp35
sS'regions'
p36
g3
((lp37
S"(11, u'(?i)\\\\b(cerebrals|cerebral)\\\\b')"
p38
atp39
Rp40
sS'year'
p41
V2013
p42
sS'species'
p43
g3
((lp44
S"(1, u'(?i)\\\\b(mice|mouse)\\\\b')"
p45
aS"(5, u'(?i)\\\\b(mices|mice)\\\\b')"
p46
aS"(4, u'(?i)\\\\b(rats|rat)\\\\b')"
p47
atp48
Rp49
sb.