(ifile_types
ParseObject
p0
(dp1
S'antagonists'
p2
c__builtin__
set
p3
((lp4
S"(110, u'\\\\bsb ?242084')"
p5
atp6
Rp7
sS'methods'
p8
g3
((lp9
S'Method.ANTAGONIST'
p10
aS'Method.AGONIST'
p11
atp12
Rp13
sS'topics'
p14
g3
((lp15
S"(4, u'\\\\blocomot')"
p16
atp17
Rp18
sS'receptors'
p19
g3
((lp20
S'5ht2c'
p21
atp22
Rp23
sS'regions'
p24
g3
((lp25
S"(96, u'(?i)(ventrals|ventral)(-|\\\\s+)?(tegmentals|tegmental)(-|\\\\s+)?(areas|area)')"
p26
aS"(34, u'(?i)(pon|pons)')"
p27
atp28
Rp29
sS'year'
p30
V2004
p31
sS'agonists'
p32
g3
((lp33
S"(147, u'\\\\bro60 ?0175')"
p34
atp35
Rp36
sS'species'
p37
g3
((lp38
S"(5176, u'(?i)(tegs|teg)')"
p39
aS"(5958, u'(?i)(rats|rat)')"
p40
aS"(4979, u'(?i)(cats|cat)')"
p41
aS"(6753, u'(?i)(da|das)')"
p42
aS"(4163, u'(?i)(ermines|ermine)')"
p43
aS"(1055, u'(?i)(men|man)')"
p44
aS"(3592, u'(?i)(ravens|raven)')"
p45
aS"(5743, u'(?i)(bots|bot)')"
p46
aS"(6249, u'(?i)(ants|ant)')"
p47
aS"(6356, u'(?i)(ais|ai)')"
p48
atp49
Rp50
sb.