(ifile_types
ParseObject
p0
(dp1
S'methods'
p2
c__builtin__
set
p3
((lp4
S'Method.ANTAGONIST'
p5
aS'Method.AGONIST'
p6
atp7
Rp8
sS'topics'
p9
g3
((lp10
S"(8, u'\\\\banxi')"
p11
aS"(7, u'\\\\bdepressi')"
p12
aS"(2, u'\\\\bdisorder')"
p13
atp14
Rp15
sS'receptors'
p16
g3
((lp17
(S'5ht1'
p18
I264
I269
tp19
a(S'5ht1'
p20
I529
I534
tp21
a(S'5ht1d'
p22
I245
I251
tp23
a(S'5ht1'
p24
I630
I635
tp25
a(S'5ht1d'
p26
I307
I313
tp27
a(S'5ht1'
p28
I35
I40
tp29
a(S'5ht1d'
p30
I439
I445
tp31
a(S'5ht1d'
p32
I683
I689
tp33
atp34
Rp35
sS'raw_text_methods'
p36
g3
((lp37
S"(13, u'\\\\bagonist')"
p38
aS"(47, u'\\\\bsumatriptan')"
p39
aS"(12, u'\\\\bantagonist')"
p40
atp41
Rp42
sS'regions'
p43
g3
((lp44
S"(1, u'(?i)\\\\b(neocortexes|neocortex)\\\\b')"
p45
atp46
Rp47
sS'year'
p48
V1996
p49
sS'species'
p50
g3
((lp51
tp52
Rp53
sb.