(ifile_types
ParseObject
p0
(dp1
S'antagonists'
p2
c__builtin__
set
p3
((lp4
tp5
Rp6
sS'methods'
p7
g3
((lp8
S'Method.AGONIST'
p9
atp10
Rp11
sS'topics'
p12
g3
((lp13
S"(29, u'\\\\bsex')"
p14
atp15
Rp16
sS'receptors'
p17
g3
((lp18
S'5ht1a'
p19
atp20
Rp21
sS'regions'
p22
g3
((lp23
S"(217, u'(?i)\\\\b(beds|bed)(-|\\\\s+)?(nuclei|nucleus)(-|\\\\s+)?(ofs|of)(-|\\\\s+)?(thes|the)(-|\\\\s+)?(strias|stria)(-|\\\\s+)?(terminali|terminalis)\\\\b')"
p24
aS"(209, u'(?i)\\\\b(amygdalas|amygdala)\\\\b')"
p25
aS"(291, u'(?i)\\\\b(cingulates|cingulate)(-|\\\\s+)?(cortexes|cortex)\\\\b')"
p26
aS"(216, u'(?i)\\\\b(strias|stria)(-|\\\\s+)?(terminali|terminalis)\\\\b')"
p27
aS"(165, u'(?i)\\\\b(preoptics|preoptic)(-|\\\\s+)?(areas|area)\\\\b')"
p28
atp29
Rp30
sS'year'
p31
V1999
p32
sS'agonists'
p33
g3
((lp34
tp35
Rp36
sS'species'
p37
g3
((lp38
S"(3152, u'(?i)\\\\b(layers|layer)\\\\b')"
p39
aS"(5958, u'(?i)\\\\b(rats|rat)\\\\b')"
p40
aS"(6125, u'(?i)\\\\b(females|female)\\\\b')"
p41
atp42
Rp43
sb.