(ifile_types
ParseObject
p0
(dp1
S'antagonists'
p2
c__builtin__
set
p3
((lp4
S"(204, u'\\\\bsb ?269970')"
p5
aS"(102, u'\\\\bfluoxetine')"
p6
aS"(16, u'\\\\bnad ?299')"
p7
atp8
Rp9
sS'methods'
p10
g3
((lp11
S'Method.ANTAGONIST'
p12
aS'Method.AGONIST'
p13
atp14
Rp15
sS'topics'
p16
g3
((lp17
S"(8, u'\\\\blearning')"
p18
aS"(7, u'\\\\bmemory')"
p19
atp20
Rp21
sS'receptors'
p22
g3
((lp23
S'5ht7'
p24
aS'5ht1a'
p25
aS'5ht5'
p26
atp27
Rp28
sS'regions'
p29
g3
((lp30
tp31
Rp32
sS'year'
p33
V2012
p34
sS'agonists'
p35
g3
((lp36
S"(231, u'\\\\blp ?44')"
p37
aS"(92, u'\\\\b8 ?oh ?dpat')"
p38
aS"(226, u'\\\\bas ?19')"
p39
aS"(155, u'\\\\bmem')"
p40
atp41
Rp42
sS'species'
p43
g3
((lp44
S"(5537, u'(?i)(hippos|hippo)')"
p45
aS"(4163, u'(?i)(ermines|ermine)')"
p46
aS"(2568, u'(?i)(hens|hen)')"
p47
aS"(5958, u'(?i)(rats|rat)')"
p48
aS"(163, u'(?i)(mice|mouse)')"
p49
aS"(6753, u'(?i)(da|das)')"
p50
aS"(479, u'(?i)(lings|ling)')"
p51
aS"(5967, u'(?i)(males|male)')"
p52
aS"(468, u'(?i)(oxen|ox)')"
p53
aS"(1055, u'(?i)(men|man)')"
p54
aS"(6249, u'(?i)(ants|ant)')"
p55
aS"(3534, u'(?i)(scads|scad)')"
p56
aS"(4979, u'(?i)(cats|cat)')"
p57
aS"(3550, u'(?i)(anis|ani)')"
p58
aS"(1961, u'(?i)(pens|pen)')"
p59
aS"(3812, u'(?i)(studs|stud)')"
p60
aS"(6391, u'(?i)(asses|ass)')"
p61
aS"(5743, u'(?i)(bots|bot)')"
p62
aS"(6356, u'(?i)(ais|ai)')"
p63
atp64
Rp65
sb.