(ifile_types
ParseObject
p0
(dp1
S'methods'
p2
c__builtin__
set
p3
((lp4
S'Method.ANTAGONIST'
p5
aS'Method.AGONIST'
p6
atp7
Rp8
sS'topics'
p9
g3
((lp10
S"(22, u'\\\\bschizophreni')"
p11
aS"(2, u'\\\\bdisorder')"
p12
atp13
Rp14
sS'receptors'
p15
g3
((lp16
(S'5ht2'
p17
I1257
I1263
tp18
a(S'5ht1a'
p19
I99
I105
tp20
a(S'5ht2a'
p21
I1257
I1263
tp22
a(S'5ht1a'
p23
I1050
I1056
tp24
a(S'5ht2'
p25
I107
I113
tp26
a(S'5ht1a'
p27
I933
I939
tp28
a(S'5ht1a'
p29
I448
I459
tp30
a(S'5ht2a'
p31
I515
I521
tp32
a(S'5ht1a'
p33
I462
I468
tp34
a(S'5ht2a'
p35
I680
I686
tp36
a(S'5ht1'
p37
I462
I468
tp38
a(S'5ht2a'
p39
I1257
I1264
tp40
a(S'5ht2'
p41
I515
I521
tp42
a(S'5ht1a'
p43
I1336
I1342
tp44
a(S'5ht2a'
p45
I107
I113
tp46
atp47
Rp48
sS'raw_text_methods'
p49
g3
((lp50
S"(13, u'\\\\bagonist')"
p51
aS"(49, u'\\\\bdoi')"
p52
aS"(12, u'\\\\bantagonist')"
p53
atp54
Rp55
sS'regions'
p56
g3
((lp57
S"(16, u'(?i)\\\\b(drns|drn)\\\\b')"
p58
atp59
Rp60
sS'year'
p61
V2009
p62
sS'species'
p63
g3
((lp64
S"(4, u'(?i)\\\\b(rats|rat)\\\\b')"
p65
atp66
Rp67
sb.