(ifile_types
ParseObject
p0
(dp1
S'antagonists'
p2
c__builtin__
set
p3
((lp4
S"(53, u'\\\\bketanserin')"
p5
aS"(128, u'\\\\bketanserin')"
p6
aS"(105, u'\\\\bmethysergide')"
p7
atp8
Rp9
sS'methods'
p10
g3
((lp11
S'Method.ANTAGONIST'
p12
atp13
Rp14
sS'topics'
p15
g3
((lp16
tp17
Rp18
sS'receptors'
p19
g3
((lp20
S'5ht2c'
p21
aS'5ht2a'
p22
atp23
Rp24
sS'regions'
p25
g3
((lp26
S"(318, u'(?i)(raphes|raphe)(-|\\\\s+)?(nuclei|nucleus)')"
p27
aS"(94, u'(?i)(dorsals|dorsal)(-|\\\\s+)?(raphes|raphe)(-|\\\\s+)?(nuclei|nucleus)')"
p28
atp29
Rp30
sS'year'
p31
V2008
p32
sS'agonists'
p33
g3
((lp34
S"(60, u'\\\\bmethysergide')"
p35
atp36
Rp37
sS'species'
p38
g3
((lp39
S"(2568, u'(?i)(hens|hen)')"
p40
aS"(5958, u'(?i)(rats|rat)')"
p41
aS"(4979, u'(?i)(cats|cat)')"
p42
aS"(6391, u'(?i)(asses|ass)')"
p43
aS"(1055, u'(?i)(men|man)')"
p44
aS"(6249, u'(?i)(ants|ant)')"
p45
aS"(4964, u'(?i)(serins|serin)')"
p46
aS"(3550, u'(?i)(anis|ani)')"
p47
aS"(3522, u'(?i)(tetras|tetra)')"
p48
aS"(1057, u'(?i)(humans|human)')"
p49
aS"(1961, u'(?i)(pens|pen)')"
p50
aS"(3812, u'(?i)(studs|stud)')"
p51
aS"(3196, u'(?i)(human|humans)')"
p52
aS"(5743, u'(?i)(bots|bot)')"
p53
aS"(6356, u'(?i)(ais|ai)')"
p54
atp55
Rp56
sb.