(ifile_types
ParseObject
p0
(dp1
S'antagonists'
p2
c__builtin__
set
p3
((lp4
S"(177, u'\\\\bsb ?399885')"
p5
atp6
Rp7
sS'methods'
p8
g3
((lp9
S'Method.ANTAGONIST'
p10
aS'Method.AGONIST'
p11
atp12
Rp13
sS'topics'
p14
g3
((lp15
S"(7, u'\\\\bmemory')"
p16
atp17
Rp18
sS'receptors'
p19
g3
((lp20
S'5ht6'
p21
atp22
Rp23
sS'regions'
p24
g3
((lp25
tp26
Rp27
sS'year'
p28
V2019
p29
sS'agonists'
p30
g3
((lp31
S"(149, u'\\\\bmem')"
p32
aS"(218, u'\\\\bemd ?386088')"
p33
atp34
Rp35
sS'species'
p36
g3
((lp37
tp38
Rp39
sb.