(ifile_types
ParseObject
p0
(dp1
S'methods'
p2
c__builtin__
set
p3
((lp4
S'Method.STAINING'
p5
aS'Method.AGONIST'
p6
aS'Method.ANTAGONIST'
p7
atp8
Rp9
sS'topics'
p10
g3
((lp11
tp12
Rp13
sS'receptors'
p14
g3
((lp15
(S'5ht1a'
p16
I1517
I1523
tp17
a(S'5ht1a'
p18
I196
I202
tp19
a(S'5ht1a'
p20
I1645
I1651
tp21
a(S'5ht1a'
p22
I296
I302
tp23
a(S'5ht1a'
p24
I48
I54
tp25
a(S'5ht1a'
p26
I1117
I1123
tp27
a(S'5ht1a'
p28
I989
I995
tp29
a(S'5ht1a'
p30
I1408
I1414
tp31
atp32
Rp33
sS'raw_text_methods'
p34
g3
((lp35
S"(13, u'\\\\bagonist')"
p36
aS"(2, u'\\\\blabeling')"
p37
aS"(3, u'\\\\bimmunoreactiv')"
p38
aS"(21, u'\\\\bipsapirone')"
p39
aS"(12, u'\\\\bantagonist')"
p40
atp41
Rp42
sS'regions'
p43
g3
((lp44
tp45
Rp46
sS'year'
p47
V2005
p48
sS'species'
p49
g3
((lp50
S"(2, u'(?i)\\\\b(females|female)\\\\b')"
p51
aS"(3, u'(?i)\\\\b(males|male)\\\\b')"
p52
aS"(4, u'(?i)\\\\b(rats|rat)\\\\b')"
p53
atp54
Rp55
sb.