(ifile_types
ParseObject
p0
(dp1
S'antagonists'
p2
c__builtin__
set
p3
((lp4
tp5
Rp6
sS'methods'
p7
g3
((lp8
S'Method.AGONIST'
p9
atp10
Rp11
sS'topics'
p12
g3
((lp13
tp14
Rp15
sS'receptors'
p16
g3
((lp17
S'5ht1c'
p18
aS'5ht1b'
p19
aS'5ht1a'
p20
atp21
Rp22
sS'regions'
p23
g3
((lp24
tp25
Rp26
sS'year'
p27
V1992
p28
sS'agonists'
p29
g3
((lp30
S"(192, u'\\\\bquipazine')"
p31
aS"(155, u'\\\\bmcpp')"
p32
atp33
Rp34
sS'species'
p35
g3
((lp36
S"(2054, u'(?i)\\\\b(heads|head)\\\\b')"
p37
aS"(5958, u'(?i)\\\\b(rats|rat)\\\\b')"
p38
aS"(7127, u'(?i)\\\\b(monitors|monitor)\\\\b')"
p39
atp40
Rp41
sb.