(ifile_types
ParseObject
p0
(dp1
S'antagonists'
p2
c__builtin__
set
p3
((lp4
S"(209, u'\\\\btfmpp')"
p5
atp6
Rp7
sS'methods'
p8
g3
((lp9
S'Method.AGONIST'
p10
atp11
Rp12
sS'topics'
p13
g3
((lp14
tp15
Rp16
sS'receptors'
p17
g3
((lp18
S'5ht1b'
p19
aS'5ht5'
p20
aS'5ht3a'
p21
aS'5ht2c'
p22
aS'5ht2a'
p23
aS'5ht3'
p24
atp25
Rp26
sS'regions'
p27
g3
((lp28
S"(34, u'(?i)(pon|pons)')"
p29
atp30
Rp31
sS'year'
p32
V1995
p33
sS'agonists'
p34
g3
((lp35
S"(181, u'\\\\bdom')"
p36
aS"(56, u'\\\\blsd')"
p37
aS"(183, u'\\\\btfmpp')"
p38
aS"(161, u'\\\\bmcpp')"
p39
aS"(196, u'\\\\bquipazine')"
p40
aS"(172, u'\\\\bmk ?212')"
p41
atp42
Rp43
sS'species'
p44
g3
((lp45
S"(2323, u'(?i)(bees|bee)')"
p46
aS"(2568, u'(?i)(hens|hen)')"
p47
aS"(867, u'(?i)(tits|tit)')"
p48
aS"(6753, u'(?i)(da|das)')"
p49
aS"(6682, u'(?i)(tera|teras)')"
p50
aS"(853, u'(?i)(minas|mina)')"
p51
aS"(3812, u'(?i)(studs|stud)')"
p52
aS"(6391, u'(?i)(asses|ass)')"
p53
atp54
Rp55
sb.