(ifile_types
ParseObject
p0
(dp1
S'methods'
p2
c__builtin__
set
p3
((lp4
S'Method.PET'
p5
aS'Method.ANTAGONIST'
p6
atp7
Rp8
sS'topics'
p9
g3
((lp10
S"(14, u'\\\\bcogniti')"
p11
aS"(1, u'\\\\bpatient')"
p12
aS"(7, u'\\\\bdepressi')"
p13
aS"(13, u'\\\\bantidepress')"
p14
aS"(2, u'\\\\bdisorder')"
p15
atp16
Rp17
sS'receptors'
p18
g3
((lp19
(S'5ht2a'
p20
I312
I318
tp21
a(S'5ht1a'
p22
I789
I795
tp23
a(S'5ht1a'
p24
I638
I644
tp25
a(S'5ht2a'
p26
I1135
I1141
tp27
a(S'5ht1a'
p28
I256
I262
tp29
atp30
Rp31
sS'raw_text_methods'
p32
g3
((lp33
S"(19, u'\\\\bpositron emission tomography')"
p34
aS"(18, u'\\\\bimaging')"
p35
aS"(39, u'\\\\bselective serotonin reuptake inhibitor')"
p36
aS"(12, u'\\\\bantagonist')"
p37
atp38
Rp39
sS'regions'
p40
g3
((lp41
S"(19, u'(?i)\\\\b(cortexes|cortex)\\\\b')"
p42
aS"(4, u'(?i)\\\\b(presynaptics|presynaptic)\\\\b')"
p43
aS"(3, u'(?i)\\\\b(postsynaptics|postsynaptic)\\\\b')"
p44
atp45
Rp46
sS'year'
p47
V2000
p48
sS'species'
p49
g3
((lp50
tp51
Rp52
sb.