(ifile_types
ParseObject
p0
(dp1
S'methods'
p2
c__builtin__
set
p3
((lp4
S'Method.AGONIST'
p5
atp6
Rp7
sS'topics'
p8
g3
((lp9
tp10
Rp11
sS'receptors'
p12
g3
((lp13
(S'5ht1a'
p14
I215
I221
tp15
a(S'5ht1a'
p16
I549
I555
tp17
a(S'5ht1a'
p18
I116
I122
tp19
a(S'5ht1a'
p20
I644
I650
tp21
a(S'5ht1a'
p22
I936
I942
tp23
a(S'5ht1a'
p24
I882
I888
tp25
atp26
Rp27
sS'raw_text_methods'
p28
g3
((lp29
S"(13, u'\\\\bagonist')"
p30
aS"(15, u'\\\\b8ohdpat')"
p31
aS"(41, u'\\\\bhaloperidol')"
p32
atp33
Rp34
sS'regions'
p35
g3
((lp36
S"(8, u'(?i)\\\\b(centrals|central)(-|\\\\s+)?(nervouses|nervous)(-|\\\\s+)?(systems|system)\\\\b')"
p37
atp38
Rp39
sS'year'
p40
V2004
p41
sS'species'
p42
g3
((lp43
tp44
Rp45
sb.