(ifile_types
ParseObject
p0
(dp1
S'methods'
p2
c__builtin__
set
p3
((lp4
S'Method.AGONIST'
p5
atp6
Rp7
sS'topics'
p8
g3
((lp9
S"(5, u'\\\\btherap')"
p10
aS"(13, u'\\\\bantidepress')"
p11
aS"(25, u'\\\\bsocial')"
p12
aS"(4, u'\\\\btreatment')"
p13
aS"(26, u'\\\\bbehav')"
p14
atp15
Rp16
sS'receptors'
p17
g3
((lp18
(S'5ht1b'
p19
I649
I655
tp20
a(S'5ht1b'
p21
I286
I292
tp22
a(S'5ht1b'
p23
I87
I93
tp24
a(S'5ht1b'
p25
I442
I448
tp26
atp27
Rp28
sS'raw_text_methods'
p29
g3
((lp30
S"(13, u'\\\\bagonist')"
p31
aS"(36, u'\\\\bbenzodiazepine')"
p32
aS"(33, u'\\\\bmcpp')"
p33
aS"(31, u'\\\\bbenzodiazepines')"
p34
atp35
Rp36
sS'regions'
p37
g3
((lp38
tp39
Rp40
sS'year'
p41
V1991
p42
sS'species'
p43
g3
((lp44
S"(1, u'(?i)\\\\b(mice|mouse)\\\\b')"
p45
aS"(5, u'(?i)\\\\b(mices|mice)\\\\b')"
p46
atp47
Rp48
sb.