(ifile_types
ParseObject
p0
(dp1
S'methods'
p2
c__builtin__
set
p3
((lp4
S'Method.ANTAGONIST'
p5
aS'Method.AGONIST'
p6
atp7
Rp8
sS'topics'
p9
g3
((lp10
S"(26, u'\\\\bbehav')"
p11
atp12
Rp13
sS'receptors'
p14
g3
((lp15
(S'5ht3'
p16
I585
I590
tp17
a(S'5ht3'
p18
I1129
I1134
tp19
a(S'5ht2'
p20
I441
I446
tp21
a(S'5ht3'
p22
I269
I274
tp23
a(S'5ht3'
p24
I1064
I1069
tp25
a(S'5ht1'
p26
I435
I440
tp27
a(S'5ht2'
p28
I291
I301
tp29
a(S'5ht3'
p30
I519
I524
tp31
a(S'5ht3'
p32
I32
I37
tp33
atp34
Rp35
sS'raw_text_methods'
p36
g3
((lp37
S"(13, u'\\\\bagonist')"
p38
aS"(30, u'\\\\b2methyl')"
p39
aS"(12, u'\\\\bantagonist')"
p40
atp41
Rp42
sS'regions'
p43
g3
((lp44
tp45
Rp46
sS'year'
p47
V1992
p48
sS'species'
p49
g3
((lp50
S"(4, u'(?i)\\\\b(rats|rat)\\\\b')"
p51
atp52
Rp53
sb.