(ifile_types
ParseObject
p0
(dp1
S'methods'
p2
c__builtin__
set
p3
((lp4
S'Method.ANTAGONIST'
p5
aS'Method.AGONIST'
p6
atp7
Rp8
sS'topics'
p9
g3
((lp10
S"(22, u'\\\\bschizophreni')"
p11
aS"(8, u'\\\\banxi')"
p12
aS"(5, u'\\\\btherap')"
p13
aS"(13, u'\\\\bantidepress')"
p14
aS"(24, u'\\\\banxiolytic')"
p15
atp16
Rp17
sS'receptors'
p18
g3
((lp19
(S'5ht3'
p20
I1659
I1664
tp21
a(S'5ht1c'
p22
I2011
I2017
tp23
a(S'5ht1d'
p24
I1731
I1737
tp25
a(S'5ht1a'
p26
I1712
I1718
tp27
a(S'5ht3'
p28
I2455
I2460
tp29
a(S'5ht1a'
p30
I3074
I3080
tp31
a(S'5ht1d'
p32
I3147
I3153
tp33
a(S'5ht2'
p34
I1381
I1386
tp35
a(S'5ht5'
p36
I508
I518
tp37
a(S'5ht2'
p38
I1594
I1599
tp39
a(S'5ht2'
p40
I3213
I3218
tp41
a(S'5ht1a'
p42
I1935
I1941
tp43
a(S'5ht1b'
p44
I1720
I1726
tp45
a(S'5ht2'
p46
I2919
I2924
tp47
a(S'5ht2'
p48
I2102
I2107
tp49
a(S'5ht3'
p50
I2929
I2934
tp51
a(S'5ht4'
p52
I2301
I2306
tp53
a(S'5ht1a'
p54
I2883
I2889
tp55
a(S'5ht1d'
p56
I1857
I1864
tp57
a(S'5ht1'
p58
I1371
I1376
tp59
a(S'5ht4'
p60
I1669
I1674
tp61
a(S'5ht2'
p62
I3103
I3108
tp63
a(S'5ht1a'
p64
I1833
I1839
tp65
a(S'5ht1'
p66
I1567
I1572
tp67
a(S'5ht1b'
p68
I1857
I1863
tp69
a(S'5ht2'
p70
I1969
I1974
tp71
a(S'5ht3'
p72
I3223
I3228
tp73
a(S'5ht3'
p74
I1536
I1541
tp75
a(S'5ht4'
p76
I1404
I1409
tp77
atp78
Rp79
sS'raw_text_methods'
p80
g3
((lp81
S"(13, u'\\\\bagonist')"
p82
aS"(12, u'\\\\bantagonist')"
p83
atp84
Rp85
sS'regions'
p86
g3
((lp87
S"(11, u'(?i)\\\\b(cerebrals|cerebral)\\\\b')"
p88
aS"(4, u'(?i)\\\\b(presynaptics|presynaptic)\\\\b')"
p89
atp90
Rp91
sS'year'
p92
V1992
p93
sS'species'
p94
g3
((lp95
tp96
Rp97
sb.