(ifile_types
ParseObject
p0
(dp1
S'methods'
p2
c__builtin__
set
p3
((lp4
S'Method.ANTAGONIST'
p5
aS'Method.AGONIST'
p6
atp7
Rp8
sS'topics'
p9
g3
((lp10
S"(3, u'\\\\bclinical')"
p11
atp12
Rp13
sS'receptors'
p14
g3
((lp15
(S'5ht3'
p16
I1165
I1170
tp17
a(S'5ht2'
p18
I1102
I1107
tp19
atp20
Rp21
sS'raw_text_methods'
p22
g3
((lp23
S"(13, u'\\\\bagonist')"
p24
aS"(53, u'\\\\bketanserin')"
p25
aS"(20, u'\\\\bondansetron')"
p26
aS"(4, u'\\\\bpcpa')"
p27
aS"(12, u'\\\\bantagonist')"
p28
atp29
Rp30
sS'regions'
p31
g3
((lp32
tp33
Rp34
sS'year'
p35
V2004
p36
sS'species'
p37
g3
((lp38
S"(1, u'(?i)\\\\b(mice|mouse)\\\\b')"
p39
aS"(5, u'(?i)\\\\b(mices|mice)\\\\b')"
p40
aS"(3, u'(?i)\\\\b(males|male)\\\\b')"
p41
atp42
Rp43
sb.