(ifile_types
ParseObject
p0
(dp1
S'antagonists'
p2
c__builtin__
set
p3
((lp4
S"(131, u'\\\\bm1')"
p5
atp6
Rp7
sS'methods'
p8
g3
((lp9
S'Method.ANTAGONIST'
p10
atp11
Rp12
sS'topics'
p13
g3
((lp14
tp15
Rp16
sS'receptors'
p17
g3
((lp18
S'5ht2c'
p19
aS'5ht2a'
p20
atp21
Rp22
sS'regions'
p23
g3
((lp24
tp25
Rp26
sS'year'
p27
V2003
p28
sS'agonists'
p29
g3
((lp30
S"(158, u'\\\\blsd')"
p31
aS"(49, u'\\\\blysergic acid diethylamide')"
p32
aS"(176, u'\\\\bdom')"
p33
atp34
Rp35
sS'species'
p36
g3
((lp37
S"(3527, u'(?i)\\\\b(permits|permit)\\\\b')"
p38
atp39
Rp40
sb.