(ifile_types
ParseObject
p0
(dp1
S'methods'
p2
c__builtin__
set
p3
((lp4
S'Method.ANTAGONIST'
p5
atp6
Rp7
sS'topics'
p8
g3
((lp9
S"(24, u'\\\\banxiolytic')"
p10
aS"(8, u'\\\\banxi')"
p11
aS"(5, u'\\\\btherap')"
p12
aS"(26, u'\\\\bbehav')"
p13
aS"(2, u'\\\\bdisorder')"
p14
atp15
Rp16
sS'receptors'
p17
g3
((lp18
(S'5ht2a'
p19
I816
I822
tp20
a(S'5ht3'
p21
I883
I888
tp22
a(S'5ht2c'
p23
I826
I832
tp24
a(S'5ht1a'
p25
I808
I814
tp26
atp27
Rp28
sS'raw_text_methods'
p29
g3
((lp30
S"(12, u'\\\\bantagonist')"
p31
atp32
Rp33
sS'regions'
p34
g3
((lp35
tp36
Rp37
sS'year'
p38
V1995
p39
sS'species'
p40
g3
((lp41
tp42
Rp43
sb.