(ifile_types
ParseObject
p0
(dp1
S'methods'
p2
c__builtin__
set
p3
((lp4
S'Method.STAINING'
p5
atp6
Rp7
sS'topics'
p8
g3
((lp9
S"(5, u'\\\\btherap')"
p10
aS"(3, u'\\\\bclinical')"
p11
atp12
Rp13
sS'receptors'
p14
g3
((lp15
(S'5ht2'
p16
I2088
I2092
tp17
a(S'5ht2'
p18
I1804
I1808
tp19
a(S'5ht2a'
p20
I1785
I1790
tp21
a(S'5ht2'
p22
I2246
I2250
tp23
a(S'5ht2'
p24
I2948
I2952
tp25
a(S'5ht2'
p26
I1895
I1899
tp27
atp28
Rp29
sS'raw_text_methods'
p30
g3
((lp31
S"(3, u'\\\\bimmunoreactiv')"
p32
atp33
Rp34
sS'regions'
p35
g3
((lp36
S"(19, u'(?i)\\\\b(cortexes|cortex)\\\\b')"
p37
atp38
Rp39
sS'year'
p40
V2003
p41
sS'species'
p42
g3
((lp43
tp44
Rp45
sb.