(ifile_types
ParseObject
p0
(dp1
S'antagonists'
p2
c__builtin__
set
p3
((lp4
S"(53, u'\\\\bketanserin')"
p5
aS"(128, u'\\\\bketanserin')"
p6
aS"(110, u'\\\\bsb ?242084')"
p7
atp8
Rp9
sS'methods'
p10
g3
((lp11
S'Method.PET'
p12
aS'Method.ANTAGONIST'
p13
aS'Method.AGONIST'
p14
atp15
Rp16
sS'topics'
p17
g3
((lp18
tp19
Rp20
sS'receptors'
p21
g3
((lp22
S'5ht2c'
p23
aS'5ht2'
p24
aS'5ht2a'
p25
atp26
Rp27
sS'regions'
p28
g3
((lp29
S"(71, u'(?i)(cerebellums|cerebellum)')"
p30
aS"(34, u'(?i)(pon|pons)')"
p31
atp32
Rp33
sS'year'
p34
V2014
p35
sS'agonists'
p36
g3
((lp37
S"(137, u'\\\\bcimbi ?36')"
p38
atp39
Rp40
sS'species'
p41
g3
((lp42
S"(2401, u'(?i)(primates|primate)')"
p43
aS"(3592, u'(?i)(ravens|raven)')"
p44
aS"(7094, u'(?i)(curs|cur)')"
p45
aS"(6356, u'(?i)(ais|ai)')"
p46
aS"(6249, u'(?i)(ants|ant)')"
p47
aS"(6391, u'(?i)(asses|ass)')"
p48
aS"(3812, u'(?i)(studs|stud)')"
p49
aS"(3196, u'(?i)(human|humans)')"
p50
aS"(1070, u'(?i)(pets|pet)')"
p51
aS"(6125, u'(?i)(females|female)')"
p52
aS"(479, u'(?i)(lings|ling)')"
p53
aS"(5967, u'(?i)(males|male)')"
p54
aS"(3550, u'(?i)(anis|ani)')"
p55
aS"(2341, u'(?i)(monkeys|monkey)')"
p56
aS"(5537, u'(?i)(hippos|hippo)')"
p57
aS"(6753, u'(?i)(da|das)')"
p58
aS"(5958, u'(?i)(rats|rat)')"
p59
aS"(4201, u'(?i)(kines|kine)')"
p60
aS"(1055, u'(?i)(men|man)')"
p61
aS"(4597, u'(?i)(rhesuses|rhesus)(-|\\\\s+)?(monkeys|monkey)')"
p62
aS"(4979, u'(?i)(cats|cat)')"
p63
aS"(1057, u'(?i)(humans|human)')"
p64
aS"(1414, u'(?i)(chars|char)')"
p65
aS"(4596, u'(?i)(rhesuses|rhesus)')"
p66
aS"(2323, u'(?i)(bees|bee)')"
p67
aS"(853, u'(?i)(minas|mina)')"
p68
aS"(3051, u'(?i)(pigs|pig)')"
p69
aS"(3726, u'(?i)(mates|mate)')"
p70
aS"(4964, u'(?i)(serins|serin)')"
p71
atp72
Rp73
sb.