(ifile_types
ParseObject
p0
(dp1
S'antagonists'
p2
c__builtin__
set
p3
((lp4
tp5
Rp6
sS'methods'
p7
g3
((lp8
S'Method.STIMULATION'
p9
aS'Method.AGONIST'
p10
atp11
Rp12
sS'topics'
p13
g3
((lp14
tp15
Rp16
sS'receptors'
p17
g3
((lp18
S'5ht1d'
p19
atp20
Rp21
sS'regions'
p22
g3
((lp23
tp24
Rp25
sS'year'
p26
V1995
p27
sS'agonists'
p28
g3
((lp29
S"(96, u'\\\\bsumatriptan')"
p30
aS"(102, u'\\\\bcp ?122288')"
p31
atp32
Rp33
sS'species'
p34
g3
((lp35
S"(5958, u'(?i)\\\\b(rats|rat)\\\\b')"
p36
atp37
Rp38
sb.