(ifile_types
ParseObject
p0
(dp1
S'antagonists'
p2
c__builtin__
set
p3
((lp4
S"(117, u'\\\\bketanserin')"
p5
atp6
Rp7
sS'methods'
p8
g3
((lp9
S'Method.ANTAGONIST'
p10
aS'Method.AGONIST'
p11
atp12
Rp13
sS'topics'
p14
g3
((lp15
S"(9, u'\\\\bdepress')"
p16
aS"(11, u'\\\\banxiolyt')"
p17
aS"(10, u'\\\\banxiety')"
p18
aS"(12, u'\\\\banxiogen')"
p19
atp20
Rp21
sS'receptors'
p22
g3
((lp23
S'5ht2a'
p24
aS'5ht2b'
p25
aS'5ht2'
p26
aS'5ht2c'
p27
atp28
Rp29
sS'regions'
p30
g3
((lp31
tp32
Rp33
sS'year'
p34
V2012
p35
sS'agonists'
p36
g3
((lp37
S"(155, u'\\\\bmcpp')"
p38
atp39
Rp40
sS'species'
p41
g3
((lp42
S"(4091, u'(?i)\\\\b(adults|adult)\\\\b')"
p43
aS"(5958, u'(?i)\\\\b(rats|rat)\\\\b')"
p44
aS"(6125, u'(?i)\\\\b(females|female)\\\\b')"
p45
atp46
Rp47
sb.