(ifile_types
ParseObject
p0
(dp1
S'methods'
p2
c__builtin__
set
p3
((lp4
S'Method.AGONIST'
p5
atp6
Rp7
sS'topics'
p8
g3
((lp9
S"(26, u'\\\\bbehav')"
p10
aS"(25, u'\\\\bsocial')"
p11
atp12
Rp13
sS'receptors'
p14
g3
((lp15
(S'5ht1a'
p16
I1368
I1374
tp17
atp18
Rp19
sS'raw_text_methods'
p20
g3
((lp21
S"(13, u'\\\\bagonist')"
p22
atp23
Rp24
sS'regions'
p25
g3
((lp26
S"(19, u'(?i)\\\\b(cortexes|cortex)\\\\b')"
p27
atp28
Rp29
sS'year'
p30
V2012
p31
sS'species'
p32
g3
((lp33
S"(1, u'(?i)\\\\b(mice|mouse)\\\\b')"
p34
aS"(5, u'(?i)\\\\b(mices|mice)\\\\b')"
p35
atp36
Rp37
sb.