(ifile_types
ParseObject
p0
(dp1
S'methods'
p2
c__builtin__
set
p3
((lp4
S'Method.ANTAGONIST'
p5
atp6
Rp7
sS'topics'
p8
g3
((lp9
S"(22, u'\\\\bschizophreni')"
p10
aS"(14, u'\\\\bcogniti')"
p11
aS"(26, u'\\\\bbehav')"
p12
aS"(19, u'\\\\bpsychosis')"
p13
aS"(17, u'\\\\balzheimer')"
p14
aS"(2, u'\\\\bdisorder')"
p15
aS"(16, u'\\\\blearning')"
p16
aS"(23, u'\\\\bantipsychotic')"
p17
aS"(15, u'\\\\bmemory')"
p18
aS"(5, u'\\\\btherap')"
p19
aS"(4, u'\\\\btreatment')"
p20
aS"(3, u'\\\\bclinical')"
p21
atp22
Rp23
sS'receptors'
p24
g3
((lp25
(S'5ht6'
p26
I40
I45
tp27
a(S'5ht6'
p28
I667
I672
tp29
a(S'5ht6'
p30
I436
I441
tp31
a(S'5ht6'
p32
I784
I789
tp33
a(S'5ht6'
p34
I1750
I1755
tp35
a(S'5ht6'
p36
I243
I248
tp37
atp38
Rp39
sS'raw_text_methods'
p40
g3
((lp41
S"(5, u'\\\\bmk801')"
p42
aS"(12, u'\\\\bantagonist')"
p43
atp44
Rp45
sS'regions'
p46
g3
((lp47
S"(8, u'(?i)\\\\b(centrals|central)(-|\\\\s+)?(nervouses|nervous)(-|\\\\s+)?(systems|system)\\\\b')"
p48
atp49
Rp50
sS'year'
p51
V2011
p52
sS'species'
p53
g3
((lp54
tp55
Rp56
sb.