(ifile_types
ParseObject
p0
(dp1
S'methods'
p2
c__builtin__
set
p3
((lp4
tp5
Rp6
sS'topics'
p7
g3
((lp8
S"(7, u'\\\\bdepressi')"
p9
aS"(4, u'\\\\btreatment')"
p10
atp11
Rp12
sS'receptors'
p13
g3
((lp14
(S'5ht2a'
p15
I1325
I1331
tp16
a(S'5ht2a'
p17
I565
I571
tp18
a(S'5ht2a'
p19
I1383
I1389
tp20
a(S'5ht2a'
p21
I325
I331
tp22
a(S'5ht2a'
p23
I77
I83
tp24
a(S'5ht2a'
p25
I704
I710
tp26
atp27
Rp28
sS'raw_text_methods'
p29
g3
((lp30
S"(54, u'\\\\bautoradiography')"
p31
atp32
Rp33
sS'regions'
p34
g3
((lp35
S"(19, u'(?i)\\\\b(cortexes|cortex)\\\\b')"
p36
aS"(23, u'(?i)\\\\b(forebrains|forebrain)\\\\b')"
p37
aS"(17, u'(?i)\\\\b(caudates|caudate)\\\\b')"
p38
aS"(18, u'(?i)\\\\b(putamens|putamen)\\\\b')"
p39
atp40
Rp41
sS'year'
p42
V2002
p43
sS'species'
p44
g3
((lp45
S"(4, u'(?i)\\\\b(rats|rat)\\\\b')"
p46
atp47
Rp48
sb.