(ifile_types
ParseObject
p0
(dp1
S'antagonists'
p2
c__builtin__
set
p3
((lp4
tp5
Rp6
sS'methods'
p7
g3
((lp8
S'Method.AGONIST'
p9
atp10
Rp11
sS'topics'
p12
g3
((lp13
tp14
Rp15
sS'receptors'
p16
g3
((lp17
S'5ht5'
p18
aS'5ht3'
p19
aS'5ht2'
p20
aS'5ht2a'
p21
atp22
Rp23
sS'regions'
p24
g3
((lp25
S"(103, u'(?i)(substantias|substantia)(-|\\\\s+)?(nigras|nigra)')"
p26
aS"(209, u'(?i)(amygdalas|amygdala)')"
p27
aS"(227, u'(?i)(olfactories|olfactory)(-|\\\\s+)?(tubercles|tubercle)')"
p28
aS"(105, u'(?i)(par|pars)(-|\\\\s+)?(reticulatas|reticulata)')"
p29
aS"(27, u'(?i)(areas|area)(-|\\\\s+)?(postremas|postrema)')"
p30
aS"(190, u'(?i)(zonas|zona)(-|\\\\s+)?(incertas|incerta)')"
p31
aS"(104, u'(?i)(par|pars)(-|\\\\s+)?(compactas|compacta)')"
p32
aS"(189, u'(?i)(subthalamics|subthalamic)(-|\\\\s+)?(nuclei|nucleus)')"
p33
atp34
Rp35
sS'year'
p36
V1993
p37
sS'agonists'
p38
g3
((lp39
S"(196, u'\\\\bquipazine')"
p40
atp41
Rp42
sS'species'
p43
g3
((lp44
S"(2568, u'(?i)(hens|hen)')"
p45
aS"(867, u'(?i)(tits|tit)')"
p46
aS"(6753, u'(?i)(da|das)')"
p47
aS"(4163, u'(?i)(ermines|ermine)')"
p48
aS"(4091, u'(?i)(adults|adult)')"
p49
aS"(5967, u'(?i)(males|male)')"
p50
aS"(468, u'(?i)(oxen|ox)')"
p51
aS"(6249, u'(?i)(ants|ant)')"
p52
aS"(853, u'(?i)(minas|mina)')"
p53
aS"(5958, u'(?i)(rats|rat)')"
p54
aS"(1961, u'(?i)(pens|pen)')"
p55
aS"(6356, u'(?i)(ais|ai)')"
p56
atp57
Rp58
sb.