(ifile_types
ParseObject
p0
(dp1
S'methods'
p2
c__builtin__
set
p3
((lp4
S'Method.ANTAGONIST'
p5
aS'Method.AGONIST'
p6
atp7
Rp8
sS'topics'
p9
g3
((lp10
S"(14, u'\\\\bcogniti')"
p11
aS"(26, u'\\\\bbehav')"
p12
aS"(7, u'\\\\bdepressi')"
p13
aS"(20, u'\\\\bmood')"
p14
aS"(15, u'\\\\bmemory')"
p15
aS"(13, u'\\\\bantidepress')"
p16
atp17
Rp18
sS'receptors'
p19
g3
((lp20
(S'5ht1'
p21
I539
I544
tp22
a(S'5ht1'
p23
I712
I717
tp24
a(S'5ht1a'
p25
I1626
I1632
tp26
a(S'5ht1'
p27
I986
I991
tp28
a(S'5ht1'
p29
I805
I810
tp30
a(S'5ht1a'
p31
I454
I460
tp32
a(S'5ht1'
p33
I1478
I1483
tp34
a(S'5ht1a'
p35
I127
I133
tp36
atp37
Rp38
sS'raw_text_methods'
p39
g3
((lp40
S"(13, u'\\\\bagonist')"
p41
aS"(11, u'\\\\bfluoxetine')"
p42
aS"(12, u'\\\\bantagonist')"
p43
atp44
Rp45
sS'regions'
p46
g3
((lp47
S"(20, u'(?i)\\\\b(prefrontals|prefrontal)\\\\b')"
p48
aS"(21, u'(?i)\\\\b(mpfcs|mpfc)\\\\b')"
p49
aS"(19, u'(?i)\\\\b(cortexes|cortex)\\\\b')"
p50
atp51
Rp52
sS'year'
p53
V2019
p54
sS'species'
p55
g3
((lp56
S"(4, u'(?i)\\\\b(rats|rat)\\\\b')"
p57
atp58
Rp59
sb.