(ifile_types
ParseObject
p0
(dp1
S'antagonists'
p2
c__builtin__
set
p3
((lp4
tp5
Rp6
sS'methods'
p7
g3
((lp8
S'Method.ANTAGONIST'
p9
atp10
Rp11
sS'topics'
p12
g3
((lp13
tp14
Rp15
sS'receptors'
p16
g3
((lp17
S'5ht3'
p18
atp19
Rp20
sS'regions'
p21
g3
((lp22
S"(254, u'(?i)\\\\b(prefrontals|prefrontal)(-|\\\\s+)?(cortexes|cortex)\\\\b')"
p23
aS"(174, u'(?i)\\\\b(posteriors|posterior)\\\\b')"
p24
aS"(96, u'(?i)\\\\b(ventrals|ventral)(-|\\\\s+)?(tegmentals|tegmental)(-|\\\\s+)?(areas|area)\\\\b')"
p25
aS"(255, u'(?i)\\\\b(pres|pre)(-|\\\\s+)?(frontals|frontal)(-|\\\\s+)?(cortexes|cortex)\\\\b')"
p26
aS"(230, u'(?i)\\\\b(ventrals|ventral)(-|\\\\s+)?(pallidums|pallidum)\\\\b')"
p27
aS"(389, u'(?i)\\\\b(cerebrospinals|cerebrospinal)(-|\\\\s+)?(fluids|fluid)\\\\b')"
p28
atp29
Rp30
sS'year'
p31
V2011
p32
sS'agonists'
p33
g3
((lp34
S"(189, u'\\\\bethanol')"
p35
atp36
Rp37
sS'species'
p38
g3
((lp39
S"(5958, u'(?i)\\\\b(rats|rat)\\\\b')"
p40
aS"(6125, u'(?i)\\\\b(females|female)\\\\b')"
p41
atp42
Rp43
sb.