(ifile_types
ParseObject
p0
(dp1
S'antagonists'
p2
c__builtin__
set
p3
((lp4
tp5
Rp6
sS'methods'
p7
g3
((lp8
tp9
Rp10
sS'topics'
p11
g3
((lp12
S"(37, u'\\\\baddict')"
p13
aS"(18, u'\\\\bpsychostim')"
p14
aS"(19, u'\\\\bimpulsiv')"
p15
aS"(4, u'\\\\blocomot')"
p16
atp17
Rp18
sS'receptors'
p19
g3
((lp20
S'5ht2b'
p21
atp22
Rp23
sS'regions'
p24
g3
((lp25
S"(225, u'(?i)\\\\b(ventrals|ventral)(-|\\\\s+)?(striatums|striatum)\\\\b')"
p26
aS"(220, u'(?i)\\\\b(striatums|striatum)\\\\b')"
p27
atp28
Rp29
sS'year'
p30
V2017
p31
sS'agonists'
p32
g3
((lp33
tp34
Rp35
sS'species'
p36
g3
((lp37
S"(5967, u'(?i)\\\\b(males|male)\\\\b')"
p38
aS"(163, u'(?i)\\\\b(mice|mouse)\\\\b')"
p39
atp40
Rp41
sb.