(ifile_types
ParseObject
p0
(dp1
S'methods'
p2
c__builtin__
set
p3
((lp4
S'Method.PET'
p5
aS'Method.AGONIST'
p6
atp7
Rp8
sS'topics'
p9
g3
((lp10
tp11
Rp12
sS'receptors'
p13
g3
((lp14
(S'5ht2a'
p15
I1352
I1358
tp16
a(S'5ht2a'
p17
I1617
I1623
tp18
a(S'5ht2a'
p19
I117
I123
tp20
a(S'5ht2a'
p21
I481
I487
tp22
a(S'5ht2a'
p23
I1027
I1033
tp24
a(S'5ht2a'
p25
I270
I281
tp26
a(S'5ht2a'
p27
I284
I290
tp28
a(S'5ht2a'
p29
I776
I782
tp30
a(S'5ht2a'
p31
I1927
I1933
tp32
a(S'5ht2a'
p33
I368
I374
tp34
atp35
Rp36
sS'raw_text_methods'
p37
g3
((lp38
S"(13, u'\\\\bagonist')"
p39
aS"(53, u'\\\\bketanserin')"
p40
aS"(17, u'\\\\bpet')"
p41
aS"(19, u'\\\\bpositron emission tomography')"
p42
aS"(18, u'\\\\bimaging')"
p43
atp44
Rp45
sS'regions'
p46
g3
((lp47
S"(9, u'(?i)\\\\b(cerebellums|cerebellum)\\\\b')"
p48
atp49
Rp50
sS'year'
p51
V2011
p52
sS'species'
p53
g3
((lp54
tp55
Rp56
sb.