(ifile_types
ParseObject
p0
(dp1
S'antagonists'
p2
c__builtin__
set
p3
((lp4
tp5
Rp6
sS'methods'
p7
g3
((lp8
S'Method.ANTAGONIST'
p9
aS'Method.AGONIST'
p10
atp11
Rp12
sS'topics'
p13
g3
((lp14
S"(11, u'\\\\banxiolyt')"
p15
aS"(10, u'\\\\banxiety')"
p16
atp17
Rp18
sS'receptors'
p19
g3
((lp20
S'5ht1b'
p21
aS'5ht1a'
p22
atp23
Rp24
sS'regions'
p25
g3
((lp26
S"(318, u'(?i)(raphes|raphe)(-|\\\\s+)?(nuclei|nucleus)')"
p27
aS"(94, u'(?i)(dorsals|dorsal)(-|\\\\s+)?(raphes|raphe)(-|\\\\s+)?(nuclei|nucleus)')"
p28
aS"(34, u'(?i)(pon|pons)')"
p29
atp30
Rp31
sS'year'
p32
V1996
p33
sS'agonists'
p34
g3
((lp35
S"(92, u'\\\\b8 ?oh ?dpat')"
p36
atp37
Rp38
sS'species'
p39
g3
((lp40
S"(2323, u'(?i)(bees|bee)')"
p41
aS"(5537, u'(?i)(hippos|hippo)')"
p42
aS"(2568, u'(?i)(hens|hen)')"
p43
aS"(5743, u'(?i)(bots|bot)')"
p44
aS"(6682, u'(?i)(tera|teras)')"
p45
aS"(468, u'(?i)(oxen|ox)')"
p46
aS"(1349, u'(?i)(rams|ram)')"
p47
aS"(6249, u'(?i)(ants|ant)')"
p48
aS"(6215, u'(?i)(racers|racer)')"
p49
aS"(4979, u'(?i)(cats|cat)')"
p50
aS"(5958, u'(?i)(rats|rat)')"
p51
aS"(3522, u'(?i)(tetras|tetra)')"
p52
aS"(6356, u'(?i)(ais|ai)')"
p53
atp54
Rp55
sb.