(ifile_types
ParseObject
p0
(dp1
S'methods'
p2
c__builtin__
set
p3
((lp4
S'Method.ANTAGONIST'
p5
atp6
Rp7
sS'topics'
p8
g3
((lp9
S"(28, u'\\\\bgastrointestin')"
p10
aS"(13, u'\\\\bantidepress')"
p11
aS"(32, u'\\\\bvomit')"
p12
aS"(3, u'\\\\bclinical')"
p13
atp14
Rp15
sS'receptors'
p16
g3
((lp17
(S'5ht3'
p18
I90
I95
tp19
a(S'5ht3'
p20
I1610
I1614
tp21
a(S'5ht3'
p22
I1244
I1248
tp23
a(S'5ht3'
p24
I1578
I1582
tp25
a(S'5ht3'
p26
I858
I862
tp27
a(S'5ht3'
p28
I935
I939
tp29
a(S'5ht3'
p30
I996
I1000
tp31
atp32
Rp33
sS'raw_text_methods'
p34
g3
((lp35
S"(11, u'\\\\bfluoxetine')"
p36
aS"(12, u'\\\\bantagonist')"
p37
atp38
Rp39
sS'regions'
p40
g3
((lp41
S"(11, u'(?i)\\\\b(cerebrals|cerebral)\\\\b')"
p42
atp43
Rp44
sS'year'
p45
V1993
p46
sS'species'
p47
g3
((lp48
tp49
Rp50
sb.