(ifile_types
ParseObject
p0
(dp1
S'antagonists'
p2
c__builtin__
set
p3
((lp4
tp5
Rp6
sS'methods'
p7
g3
((lp8
S'Method.AGONIST'
p9
atp10
Rp11
sS'topics'
p12
g3
((lp13
S"(29, u'\\\\bsex')"
p14
atp15
Rp16
sS'receptors'
p17
g3
((lp18
S'5ht5'
p19
aS'5ht1a'
p20
aS'5ht2a'
p21
atp22
Rp23
sS'regions'
p24
g3
((lp25
S"(159, u'(?i)(paraventriculars|paraventricular)(-|\\\\s+)?(nuclei|nucleus)')"
p26
aS"(126, u'(?i)(thalamuses|thalamus)')"
p27
aS"(34, u'(?i)(pon|pons)')"
p28
atp29
Rp30
sS'year'
p31
V2018
p32
sS'agonists'
p33
g3
((lp34
S"(6, u'\\\\b5 ?mt')"
p35
aS"(224, u'\\\\b5 ?methoxytryptamine')"
p36
atp37
Rp38
sS'species'
p39
g3
((lp40
S"(2323, u'(?i)(bees|bee)')"
p41
aS"(1688, u'(?i)(ounces|ounce)')"
p42
aS"(5958, u'(?i)(rats|rat)')"
p43
aS"(6125, u'(?i)(females|female)')"
p44
aS"(6682, u'(?i)(tera|teras)')"
p45
aS"(4091, u'(?i)(adults|adult)')"
p46
aS"(5967, u'(?i)(males|male)')"
p47
aS"(468, u'(?i)(oxen|ox)')"
p48
aS"(1055, u'(?i)(men|man)')"
p49
aS"(6249, u'(?i)(ants|ant)')"
p50
aS"(3592, u'(?i)(ravens|raven)')"
p51
aS"(5743, u'(?i)(bots|bot)')"
p52
aS"(3550, u'(?i)(anis|ani)')"
p53
aS"(6356, u'(?i)(ais|ai)')"
p54
aS"(7609, u'(?i)(erns|ern)')"
p55
aS"(1683, u'(?i)(terns|tern)')"
p56
atp57
Rp58
sb.