(ifile_types
ParseObject
p0
(dp1
S'methods'
p2
c__builtin__
set
p3
((lp4
S'Method.AGONIST'
p5
atp6
Rp7
sS'topics'
p8
g3
((lp9
S"(26, u'\\\\bbehav')"
p10
aS"(33, u'\\\\blocomot')"
p11
atp12
Rp13
sS'receptors'
p14
g3
((lp15
(S'5ht2c'
p16
I163
I170
tp17
a(S'5ht2a'
p18
I330
I336
tp19
a(S'5ht2c'
p20
I330
I337
tp21
a(S'5ht2a'
p22
I163
I169
tp23
atp24
Rp25
sS'raw_text_methods'
p26
g3
((lp27
S"(13, u'\\\\bagonist')"
p28
aS"(49, u'\\\\bdoi')"
p29
aS"(48, u'\\\\bmdma')"
p30
atp31
Rp32
sS'regions'
p33
g3
((lp34
tp35
Rp36
sS'year'
p37
V1998
p38
sS'species'
p39
g3
((lp40
S"(4, u'(?i)\\\\b(rats|rat)\\\\b')"
p41
atp42
Rp43
sb.