(ifile_types
ParseObject
p0
(dp1
S'antagonists'
p2
c__builtin__
set
p3
((lp4
tp5
Rp6
sS'methods'
p7
g3
((lp8
S'Method.AGONIST'
p9
atp10
Rp11
sS'topics'
p12
g3
((lp13
S"(4, u'\\\\blocomot')"
p14
atp15
Rp16
sS'receptors'
p17
g3
((lp18
S'5ht1'
p19
atp20
Rp21
sS'regions'
p22
g3
((lp23
tp24
Rp25
sS'year'
p26
V1992
p27
sS'agonists'
p28
g3
((lp29
S"(74, u'\\\\bru ?24969')"
p30
aS"(92, u'\\\\b8 ?oh ?dpat')"
p31
atp32
Rp33
sS'species'
p34
g3
((lp35
S"(6753, u'(?i)(da|das)')"
p36
aS"(5958, u'(?i)(rats|rat)')"
p37
aS"(163, u'(?i)(mice|mouse)')"
p38
aS"(468, u'(?i)(oxen|ox)')"
p39
aS"(4979, u'(?i)(cats|cat)')"
p40
aS"(3550, u'(?i)(anis|ani)')"
p41
aS"(1961, u'(?i)(pens|pen)')"
p42
aS"(6356, u'(?i)(ais|ai)')"
p43
aS"(2809, u'(?i)(toms|tom)')"
p44
aS"(5743, u'(?i)(bots|bot)')"
p45
aS"(7058, u'(?i)(does|doe)')"
p46
atp47
Rp48
sb.