(ifile_types
ParseObject
p0
(dp1
S'antagonists'
p2
c__builtin__
set
p3
((lp4
S"(53, u'\\\\bketanserin')"
p5
aS"(128, u'\\\\bketanserin')"
p6
atp7
Rp8
sS'methods'
p9
g3
((lp10
S'Method.ANTAGONIST'
p11
aS'Method.AGONIST'
p12
atp13
Rp14
sS'topics'
p15
g3
((lp16
tp17
Rp18
sS'receptors'
p19
g3
((lp20
S'5ht1b'
p21
aS'5ht1a'
p22
aS'5ht1f'
p23
aS'5ht1e'
p24
aS'5ht2a'
p25
aS'5ht1d'
p26
atp27
Rp28
sS'regions'
p29
g3
((lp30
S"(88, u'(?i)(superiors|superior)(-|\\\\s+)?(colliculis|colliculi)')"
p31
aS"(103, u'(?i)(substantias|substantia)(-|\\\\s+)?(nigras|nigra)')"
p32
aS"(34, u'(?i)(pon|pons)')"
p33
atp34
Rp35
sS'year'
p36
V1999
p37
sS'agonists'
p38
g3
((lp39
S"(103, u'\\\\bsumatriptan')"
p40
atp41
Rp42
sS'species'
p43
g3
((lp44
S"(5537, u'(?i)(hippos|hippo)')"
p45
aS"(4177, u'(?i)(grays|gray)')"
p46
aS"(5958, u'(?i)(rats|rat)')"
p47
aS"(5917, u'(?i)(roaches|roach)')"
p48
aS"(867, u'(?i)(tits|tit)')"
p49
aS"(5743, u'(?i)(bots|bot)')"
p50
aS"(479, u'(?i)(lings|ling)')"
p51
aS"(3051, u'(?i)(pigs|pig)')"
p52
aS"(3152, u'(?i)(layers|layer)')"
p53
aS"(3062, u'(?i)(guineas|guinea)')"
p54
aS"(1055, u'(?i)(men|man)')"
p55
aS"(4964, u'(?i)(serins|serin)')"
p56
aS"(6249, u'(?i)(ants|ant)')"
p57
aS"(5229, u'(?i)(moles|mole)')"
p58
aS"(3812, u'(?i)(studs|stud)')"
p59
aS"(6391, u'(?i)(asses|ass)')"
p60
aS"(4480, u'(?i)(guineas|guinea)(-|\\\\s+)?(pigs|pig)')"
p61
aS"(2665, u'(?i)(rays|ray)')"
p62
aS"(6356, u'(?i)(ais|ai)')"
p63
atp64
Rp65
sb.