(ifile_types
ParseObject
p0
(dp1
S'antagonists'
p2
c__builtin__
set
p3
((lp4
S"(124, u'\\\\bondansetron')"
p5
atp6
Rp7
sS'methods'
p8
g3
((lp9
S'Method.ANTAGONIST'
p10
aS'Method.AGONIST'
p11
atp12
Rp13
sS'topics'
p14
g3
((lp15
tp16
Rp17
sS'receptors'
p18
g3
((lp19
S'5ht3a'
p20
aS'5ht3'
p21
atp22
Rp23
sS'regions'
p24
g3
((lp25
S"(362, u'(?i)\\\\b(brains|brain)(-|\\\\s+)?(stems|stem)\\\\b')"
p26
aS"(313, u'(?i)\\\\b(solitaries|solitary)(-|\\\\s+)?(tracts|tract)\\\\b')"
p27
atp28
Rp29
sS'year'
p30
V2017
p31
sS'agonists'
p32
g3
((lp33
tp34
Rp35
sS'species'
p36
g3
((lp37
S"(3348, u'(?i)\\\\b(babies|baby)\\\\b')"
p38
aS"(7058, u'(?i)\\\\b(does|doe)\\\\b')"
p39
aS"(5958, u'(?i)\\\\b(rats|rat)\\\\b')"
p40
aS"(3722, u'(?i)\\\\b(pups|pup)\\\\b')"
p41
atp42
Rp43
sb.