(ifile_types
ParseObject
p0
(dp1
S'antagonists'
p2
c__builtin__
set
p3
((lp4
S"(61, u'\\\\bmdl ?100907')"
p5
atp6
Rp7
sS'methods'
p8
g3
((lp9
S'Method.PET'
p10
aS'Method.ANTAGONIST'
p11
atp12
Rp13
sS'topics'
p14
g3
((lp15
S"(15, u'\\\\bschizophreni')"
p16
atp17
Rp18
sS'receptors'
p19
g3
((lp20
S'5ht2a'
p21
atp22
Rp23
sS'regions'
p24
g3
((lp25
S"(34, u'(?i)(pon|pons)')"
p26
atp27
Rp28
sS'year'
p29
V1998
p30
sS'agonists'
p31
g3
((lp32
tp33
Rp34
sS'species'
p35
g3
((lp36
S"(2323, u'(?i)(bees|bee)')"
p37
aS"(6753, u'(?i)(da|das)')"
p38
aS"(5958, u'(?i)(rats|rat)')"
p39
aS"(6356, u'(?i)(ais|ai)')"
p40
aS"(4201, u'(?i)(kines|kine)')"
p41
aS"(6391, u'(?i)(asses|ass)')"
p42
aS"(5967, u'(?i)(males|male)')"
p43
aS"(468, u'(?i)(oxen|ox)')"
p44
aS"(1349, u'(?i)(rams|ram)')"
p45
aS"(6249, u'(?i)(ants|ant)')"
p46
aS"(1055, u'(?i)(men|man)')"
p47
aS"(853, u'(?i)(minas|mina)')"
p48
aS"(7094, u'(?i)(curs|cur)')"
p49
aS"(3550, u'(?i)(anis|ani)')"
p50
aS"(1057, u'(?i)(humans|human)')"
p51
aS"(1961, u'(?i)(pens|pen)')"
p52
aS"(3812, u'(?i)(studs|stud)')"
p53
aS"(3196, u'(?i)(human|humans)')"
p54
aS"(2809, u'(?i)(toms|tom)')"
p55
aS"(4979, u'(?i)(cats|cat)')"
p56
atp57
Rp58
sb.