(ifile_types
ParseObject
p0
(dp1
S'methods'
p2
c__builtin__
set
p3
((lp4
S'Method.AGONIST'
p5
atp6
Rp7
sS'topics'
p8
g3
((lp9
tp10
Rp11
sS'receptors'
p12
g3
((lp13
(S'5ht1a'
p14
I73
I79
tp15
a(S'5ht1a'
p16
I465
I471
tp17
a(S'5ht1a'
p18
I204
I210
tp19
a(S'5ht1a'
p20
I1422
I1428
tp21
a(S'5ht1'
p22
I1399
I1404
tp23
a(S'5ht1a'
p24
I895
I901
tp25
atp26
Rp27
sS'raw_text_methods'
p28
g3
((lp29
S"(13, u'\\\\bagonist')"
p30
aS"(46, u'\\\\bspiperone')"
p31
aS"(24, u'\\\\bgepirone')"
p32
aS"(21, u'\\\\bipsapirone')"
p33
aS"(22, u'\\\\bbuspirone')"
p34
atp35
Rp36
sS'regions'
p37
g3
((lp38
tp39
Rp40
sS'year'
p41
V1993
p42
sS'species'
p43
g3
((lp44
S"(4, u'(?i)\\\\b(rats|rat)\\\\b')"
p45
atp46
Rp47
sb.