(ifile_types
ParseObject
p0
(dp1
S'antagonists'
p2
c__builtin__
set
p3
((lp4
tp5
Rp6
sS'methods'
p7
g3
((lp8
S'Method.AGONIST'
p9
atp10
Rp11
sS'topics'
p12
g3
((lp13
S"(11, u'\\\\banxiolyt')"
p14
atp15
Rp16
sS'receptors'
p17
g3
((lp18
S'5ht1a'
p19
atp20
Rp21
sS'regions'
p22
g3
((lp23
tp24
Rp25
sS'year'
p26
V1997
p27
sS'agonists'
p28
g3
((lp29
S"(92, u'\\\\b8 ?oh ?dpat')"
p30
aS"(93, u'\\\\balnespirone')"
p31
aS"(155, u'\\\\bmem')"
p32
atp33
Rp34
sS'species'
p35
g3
((lp36
S"(5537, u'(?i)(hippos|hippo)')"
p37
aS"(5967, u'(?i)(males|male)')"
p38
aS"(5958, u'(?i)(rats|rat)')"
p39
aS"(479, u'(?i)(lings|ling)')"
p40
aS"(81, u'(?i)(asps|asp)')"
p41
aS"(468, u'(?i)(oxen|ox)')"
p42
aS"(1055, u'(?i)(men|man)')"
p43
aS"(1054, u'(?i)(homoes|homo)')"
p44
aS"(853, u'(?i)(minas|mina)')"
p45
aS"(3522, u'(?i)(tetras|tetra)')"
p46
aS"(6356, u'(?i)(ais|ai)')"
p47
aS"(6391, u'(?i)(asses|ass)')"
p48
atp49
Rp50
sb.