(ifile_types
ParseObject
p0
(dp1
S'methods'
p2
c__builtin__
set
p3
((lp4
S'Method.KNOCKOUT'
p5
aS'Method.ANTAGONIST'
p6
atp7
Rp8
sS'topics'
p9
g3
((lp10
S"(13, u'\\\\bantidepress')"
p11
atp12
Rp13
sS'receptors'
p14
g3
((lp15
(S'5ht1b'
p16
I33
I39
tp17
a(S'5ht1b'
p18
I1330
I1336
tp19
a(S'5ht1b'
p20
I305
I311
tp21
a(S'5ht1b'
p22
I1539
I1545
tp23
a(S'5ht1b'
p24
I1671
I1677
tp25
a(S'5ht1b'
p26
I1429
I1435
tp27
a(S'5ht1b'
p28
I1038
I1044
tp29
a(S'5ht5'
p30
I267
I277
tp31
a(S'5ht1b'
p32
I991
I997
tp33
a(S'5ht1d'
p34
I1038
I1046
tp35
atp36
Rp37
sS'raw_text_methods'
p38
g3
((lp39
S"(38, u'\\\\bssri')"
p40
aS"(39, u'\\\\bselective serotonin reuptake inhibitor')"
p41
aS"(12, u'\\\\bantagonist')"
p42
atp43
Rp44
sS'regions'
p45
g3
((lp46
S"(19, u'(?i)\\\\b(cortexes|cortex)\\\\b')"
p47
aS"(4, u'(?i)\\\\b(presynaptics|presynaptic)\\\\b')"
p48
atp49
Rp50
sS'year'
p51
V2001
p52
sS'species'
p53
g3
((lp54
S"(1, u'(?i)\\\\b(mice|mouse)\\\\b')"
p55
aS"(5, u'(?i)\\\\b(mices|mice)\\\\b')"
p56
atp57
Rp58
sb.