(ifile_types
ParseObject
p0
(dp1
S'antagonists'
p2
c__builtin__
set
p3
((lp4
tp5
Rp6
sS'methods'
p7
g3
((lp8
S'Method.AGONIST'
p9
atp10
Rp11
sS'topics'
p12
g3
((lp13
S"(5, u'\\\\bgastrointestin')"
p14
aS"(35, u'\\\\bstress')"
p15
aS"(11, u'\\\\banxiolyt')"
p16
aS"(20, u'\\\\baggressi')"
p17
atp18
Rp19
sS'receptors'
p20
g3
((lp21
S'5ht1a'
p22
atp23
Rp24
sS'regions'
p25
g3
((lp26
tp27
Rp28
sS'year'
p29
V1995
p30
sS'agonists'
p31
g3
((lp32
S"(20, u'\\\\bbuspirone')"
p33
aS"(189, u'\\\\bethanol')"
p34
atp35
Rp36
sS'species'
p37
g3
((lp38
S"(5958, u'(?i)\\\\b(rats|rat)\\\\b')"
p39
atp40
Rp41
sb.