(ifile_types
ParseObject
p0
(dp1
S'antagonists'
p2
c__builtin__
set
p3
((lp4
S"(32, u'\\\\bway ?100635')"
p5
atp6
Rp7
sS'methods'
p8
g3
((lp9
S'Method.PET'
p10
atp11
Rp12
sS'topics'
p13
g3
((lp14
tp15
Rp16
sS'receptors'
p17
g3
((lp18
S'5ht1a'
p19
atp20
Rp21
sS'regions'
p22
g3
((lp23
S"(318, u'(?i)(raphes|raphe)(-|\\\\s+)?(nuclei|nucleus)')"
p24
aS"(71, u'(?i)(cerebellums|cerebellum)')"
p25
aS"(34, u'(?i)(pon|pons)')"
p26
atp27
Rp28
sS'year'
p29
V2002
p30
sS'agonists'
p31
g3
((lp32
tp33
Rp34
sS'species'
p35
g3
((lp36
S"(4163, u'(?i)(ermines|ermine)')"
p37
aS"(3592, u'(?i)(ravens|raven)')"
p38
aS"(7094, u'(?i)(curs|cur)')"
p39
aS"(3812, u'(?i)(studs|stud)')"
p40
aS"(5958, u'(?i)(rats|rat)')"
p41
aS"(6356, u'(?i)(ais|ai)')"
p42
aS"(3196, u'(?i)(human|humans)')"
p43
aS"(1795, u'(?i)(mounts|mount)')"
p44
aS"(1070, u'(?i)(pets|pet)')"
p45
aS"(479, u'(?i)(lings|ling)')"
p46
aS"(5967, u'(?i)(males|male)')"
p47
aS"(468, u'(?i)(oxen|ox)')"
p48
aS"(5743, u'(?i)(bots|bot)')"
p49
aS"(6249, u'(?i)(ants|ant)')"
p50
aS"(7609, u'(?i)(erns|ern)')"
p51
aS"(867, u'(?i)(tits|tit)')"
p52
aS"(4201, u'(?i)(kines|kine)')"
p53
aS"(1055, u'(?i)(men|man)')"
p54
aS"(6753, u'(?i)(da|das)')"
p55
aS"(1057, u'(?i)(humans|human)')"
p56
aS"(2568, u'(?i)(hens|hen)')"
p57
aS"(853, u'(?i)(minas|mina)')"
p58
aS"(1683, u'(?i)(terns|tern)')"
p59
atp60
Rp61
sb.