(ifile_types
ParseObject
p0
(dp1
S'antagonists'
p2
c__builtin__
set
p3
((lp4
tp5
Rp6
sS'methods'
p7
g3
((lp8
tp9
Rp10
sS'topics'
p11
g3
((lp12
S"(33, u'\\\\balzheimers')"
p13
aS"(6, u'\\\\bcognit')"
p14
aS"(34, u'\\\\bdementia')"
p15
atp16
Rp17
sS'receptors'
p18
g3
((lp19
S'5ht1a'
p20
aS'5ht2a'
p21
atp22
Rp23
sS'regions'
p24
g3
((lp25
tp26
Rp27
sS'year'
p28
V2009
p29
sS'agonists'
p30
g3
((lp31
tp32
Rp33
sS'species'
p34
g3
((lp35
S"(4624, u'(?i)(apes|ape)')"
p36
aS"(5958, u'(?i)(rats|rat)')"
p37
aS"(4964, u'(?i)(serins|serin)')"
p38
aS"(4163, u'(?i)(ermines|ermine)')"
p39
aS"(1055, u'(?i)(men|man)')"
p40
aS"(6249, u'(?i)(ants|ant)')"
p41
aS"(1349, u'(?i)(rams|ram)')"
p42
aS"(853, u'(?i)(minas|mina)')"
p43
aS"(3550, u'(?i)(anis|ani)')"
p44
aS"(7094, u'(?i)(curs|cur)')"
p45
aS"(3812, u'(?i)(studs|stud)')"
p46
aS"(6391, u'(?i)(asses|ass)')"
p47
aS"(6356, u'(?i)(ais|ai)')"
p48
atp49
Rp50
sb.