(ifile_types
ParseObject
p0
(dp1
S'methods'
p2
c__builtin__
set
p3
((lp4
S'Method.PET'
p5
aS'Method.ANTAGONIST'
p6
aS'Method.AGONIST'
p7
atp8
Rp9
sS'topics'
p10
g3
((lp11
S"(24, u'\\\\banxiolytic')"
p12
aS"(14, u'\\\\bcogniti')"
p13
aS"(26, u'\\\\bbehav')"
p14
aS"(13, u'\\\\bantidepress')"
p15
aS"(15, u'\\\\bmemory')"
p16
aS"(8, u'\\\\banxi')"
p17
aS"(4, u'\\\\btreatment')"
p18
atp19
Rp20
sS'receptors'
p21
g3
((lp22
(S'5ht3'
p23
I873
I878
tp24
a(S'5ht1'
p25
I474
I479
tp26
a(S'5ht2'
p27
I585
I590
tp28
a(S'5ht3'
p29
I804
I809
tp30
a(S'5ht3'
p31
I695
I700
tp32
a(S'5ht1a'
p33
I2075
I2081
tp34
atp35
Rp36
sS'raw_text_methods'
p37
g3
((lp38
S"(13, u'\\\\bagonist')"
p39
aS"(19, u'\\\\bpositron emission tomography')"
p40
aS"(32, u'\\\\blesions')"
p41
aS"(22, u'\\\\bbuspirone')"
p42
atp43
Rp44
sS'regions'
p45
g3
((lp46
S"(11, u'(?i)\\\\b(cerebrals|cerebral)\\\\b')"
p47
atp48
Rp49
sS'year'
p50
V1996
p51
sS'species'
p52
g3
((lp53
S"(4, u'(?i)\\\\b(rats|rat)\\\\b')"
p54
atp55
Rp56
sb.