(ifile_types
ParseObject
p0
(dp1
S'antagonists'
p2
c__builtin__
set
p3
((lp4
S"(32, u'\\\\bway ?100635')"
p5
atp6
Rp7
sS'methods'
p8
g3
((lp9
S'Method.ANTAGONIST'
p10
atp11
Rp12
sS'topics'
p13
g3
((lp14
S"(4, u'\\\\blocomot')"
p15
aS"(9, u'\\\\bdepress')"
p16
aS"(35, u'\\\\bstress')"
p17
aS"(16, u'\\\\bfeed')"
p18
aS"(11, u'\\\\banxiolyt')"
p19
aS"(10, u'\\\\banxiety')"
p20
atp21
Rp22
sS'receptors'
p23
g3
((lp24
S'5ht1a'
p25
atp26
Rp27
sS'regions'
p28
g3
((lp29
S"(318, u'(?i)(raphes|raphe)(-|\\\\s+)?(nuclei|nucleus)')"
p30
aS"(34, u'(?i)(pon|pons)')"
p31
atp32
Rp33
sS'year'
p34
V2005
p35
sS'agonists'
p36
g3
((lp37
tp38
Rp39
sS'species'
p40
g3
((lp41
S"(2323, u'(?i)(bees|bee)')"
p42
aS"(5537, u'(?i)(hippos|hippo)')"
p43
aS"(5958, u'(?i)(rats|rat)')"
p44
aS"(5743, u'(?i)(bots|bot)')"
p45
aS"(1055, u'(?i)(men|man)')"
p46
aS"(4979, u'(?i)(cats|cat)')"
p47
aS"(6249, u'(?i)(ants|ant)')"
p48
aS"(1961, u'(?i)(pens|pen)')"
p49
aS"(3812, u'(?i)(studs|stud)')"
p50
aS"(6391, u'(?i)(asses|ass)')"
p51
aS"(2809, u'(?i)(toms|tom)')"
p52
aS"(6356, u'(?i)(ais|ai)')"
p53
atp54
Rp55
sb.