(ifile_types
ParseObject
p0
(dp1
S'methods'
p2
c__builtin__
set
p3
((lp4
S'Method.ANTAGONIST'
p5
atp6
Rp7
sS'topics'
p8
g3
((lp9
S"(26, u'\\\\bbehav')"
p10
atp11
Rp12
sS'receptors'
p13
g3
((lp14
(S'5ht2a'
p15
I1172
I1178
tp16
a(S'5ht2a'
p17
I526
I532
tp18
a(S'5ht2a'
p19
I618
I624
tp20
a(S'5ht2a'
p21
I380
I386
tp22
a(S'5ht2a'
p23
I224
I230
tp24
a(S'5ht2a'
p25
I40
I46
tp26
atp27
Rp28
sS'raw_text_methods'
p29
g3
((lp30
S"(41, u'\\\\bhaloperidol')"
p31
aS"(23, u'\\\\bmdl')"
p32
aS"(12, u'\\\\bantagonist')"
p33
atp34
Rp35
sS'regions'
p36
g3
((lp37
tp38
Rp39
sS'year'
p40
V1995
p41
sS'species'
p42
g3
((lp43
tp44
Rp45
sb.