(ifile_types
ParseObject
p0
(dp1
S'methods'
p2
c__builtin__
set
p3
((lp4
S'Method.ANTAGONIST'
p5
aS'Method.AGONIST'
p6
atp7
Rp8
sS'topics'
p9
g3
((lp10
S"(26, u'\\\\bbehav')"
p11
atp12
Rp13
sS'receptors'
p14
g3
((lp15
(S'5ht2a'
p16
I2020
I2026
tp17
a(S'5ht1a'
p18
I1313
I1319
tp19
a(S'5ht2a'
p20
I601
I607
tp21
a(S'5ht2a'
p22
I1697
I1703
tp23
a(S'5ht2'
p24
I1823
I1828
tp25
a(S'5ht2c'
p26
I1335
I1341
tp27
a(S'5ht1a'
p28
I1748
I1754
tp29
a(S'5ht2c'
p30
I1708
I1714
tp31
a(S'5ht2a'
p32
I1295
I1301
tp33
atp34
Rp35
sS'raw_text_methods'
p36
g3
((lp37
S"(13, u'\\\\bagonist')"
p38
aS"(27, u'\\\\blsd')"
p39
aS"(50, u'\\\\bm100907')"
p40
aS"(29, u'\\\\bdiethylamide')"
p41
aS"(12, u'\\\\bantagonist')"
p42
atp43
Rp44
sS'regions'
p45
g3
((lp46
tp47
Rp48
sS'year'
p49
V2005
p50
sS'species'
p51
g3
((lp52
S"(1, u'(?i)\\\\b(mice|mouse)\\\\b')"
p53
aS"(6, u'(?i)\\\\b(rodents|rodent)\\\\b')"
p54
aS"(5, u'(?i)\\\\b(mices|mice)\\\\b')"
p55
aS"(4, u'(?i)\\\\b(rats|rat)\\\\b')"
p56
atp57
Rp58
sb.