(ifile_types
ParseObject
p0
(dp1
S'methods'
p2
c__builtin__
set
p3
((lp4
S'Method.ANTAGONIST'
p5
aS'Method.AGONIST'
p6
atp7
Rp8
sS'topics'
p9
g3
((lp10
S"(5, u'\\\\btherap')"
p11
aS"(12, u'\\\\bsleep')"
p12
aS"(26, u'\\\\bbehav')"
p13
atp14
Rp15
sS'receptors'
p16
g3
((lp17
(S'5ht1a'
p18
I361
I367
tp19
a(S'5ht1a'
p20
I1238
I1244
tp21
a(S'5ht1a'
p22
I2364
I2370
tp23
a(S'5ht1a'
p24
I2181
I2187
tp25
a(S'5ht1a'
p26
I614
I620
tp27
a(S'5ht1a'
p28
I416
I422
tp29
a(S'5ht1a'
p30
I1035
I1041
tp31
a(S'5ht1a'
p32
I2048
I2054
tp33
atp34
Rp35
sS'raw_text_methods'
p36
g3
((lp37
S"(13, u'\\\\bagonist')"
p38
aS"(46, u'\\\\bspiperone')"
p39
aS"(51, u'\\\\bway100635')"
p40
aS"(12, u'\\\\bantagonist')"
p41
atp42
Rp43
sS'regions'
p44
g3
((lp45
tp46
Rp47
sS'year'
p48
V1996
p49
sS'species'
p50
g3
((lp51
tp52
Rp53
sb.