(ifile_types
ParseObject
p0
(dp1
S'antagonists'
p2
c__builtin__
set
p3
((lp4
S"(131, u'\\\\bm1')"
p5
aS"(26, u'\\\\bspiperone')"
p6
aS"(17, u'\\\\bnan ?190')"
p7
atp8
Rp9
sS'methods'
p10
g3
((lp11
S'Method.ANTAGONIST'
p12
aS'Method.AGONIST'
p13
atp14
Rp15
sS'topics'
p16
g3
((lp17
tp18
Rp19
sS'receptors'
p20
g3
((lp21
S'5ht1b'
p22
aS'5ht1a'
p23
atp24
Rp25
sS'regions'
p26
g3
((lp27
tp28
Rp29
sS'year'
p30
V1996
p31
sS'agonists'
p32
g3
((lp33
S"(20, u'\\\\bbuspirone')"
p34
aS"(85, u'\\\\b8 ?oh ?dpat')"
p35
atp36
Rp37
sS'species'
p38
g3
((lp39
S"(4657, u'(?i)\\\\b(fish|fish)\\\\b')"
p40
aS"(233, u'(?i)\\\\b(rainbows|rainbow)(-|\\\\s+)?(trout|trout)\\\\b')"
p41
aS"(4392, u'(?i)\\\\b(trout|trout)\\\\b')"
p42
atp43
Rp44
sb.