(ifile_types
ParseObject
p0
(dp1
S'antagonists'
p2
c__builtin__
set
p3
((lp4
S"(21, u'\\\\bpindolol')"
p5
aS"(119, u'\\\\britanserin')"
p6
atp7
Rp8
sS'methods'
p9
g3
((lp10
S'Method.AGONIST'
p11
atp12
Rp13
sS'topics'
p14
g3
((lp15
tp16
Rp17
sS'receptors'
p18
g3
((lp19
S'5ht7a'
p20
aS'5ht7'
p21
aS'5ht1a'
p22
atp23
Rp24
sS'regions'
p25
g3
((lp26
S"(94, u'(?i)\\\\b(dorsals|dorsal)(-|\\\\s+)?(raphes|raphe)(-|\\\\s+)?(nuclei|nucleus)\\\\b')"
p27
aS"(318, u'(?i)\\\\b(raphes|raphe)(-|\\\\s+)?(nuclei|nucleus)\\\\b')"
p28
aS"(158, u'(?i)\\\\b(suprachiasmatics|suprachiasmatic)(-|\\\\s+)?(nuclei|nucleus)\\\\b')"
p29
atp30
Rp31
sS'year'
p32
V1999
p33
sS'agonists'
p34
g3
((lp35
S"(85, u'\\\\b8 ?oh ?dpat')"
p36
atp37
Rp38
sS'species'
p39
g3
((lp40
S"(5967, u'(?i)\\\\b(males|male)\\\\b')"
p41
aS"(4099, u'(?i)\\\\b(hamsters|hamster)\\\\b')"
p42
aS"(5217, u'(?i)\\\\b(syrians|syrian)(-|\\\\s+)?(hamsters|hamster)\\\\b')"
p43
aS"(1949, u'(?i)\\\\b(pacemakers|pacemaker)\\\\b')"
p44
atp45
Rp46
sb.