(ifile_types
ParseObject
p0
(dp1
S'methods'
p2
c__builtin__
set
p3
((lp4
S'Method.PET'
p5
atp6
Rp7
sS'topics'
p8
g3
((lp9
S"(22, u'\\\\bschizophreni')"
p10
aS"(1, u'\\\\bpatient')"
p11
aS"(2, u'\\\\bdisorder')"
p12
atp13
Rp14
sS'receptors'
p15
g3
((lp16
(S'5ht1a'
p17
I32
I43
tp18
a(S'5ht1a'
p19
I1347
I1353
tp20
a(S'5ht1a'
p21
I1041
I1047
tp22
a(S'5ht1a'
p23
I869
I875
tp24
a(S'5ht1a'
p25
I350
I361
tp26
a(S'5ht1a'
p27
I454
I460
tp28
a(S'5ht1a'
p29
I1247
I1253
tp30
a(S'5ht1a'
p31
I373
I379
tp32
a(S'5ht1a'
p33
I1448
I1454
tp34
a(S'5ht1a'
p35
I1861
I1867
tp36
atp37
Rp38
sS'raw_text_methods'
p39
g3
((lp40
S"(17, u'\\\\bpet')"
p41
aS"(19, u'\\\\bpositron emission tomography')"
p42
aS"(18, u'\\\\bimaging')"
p43
atp44
Rp45
sS'regions'
p46
g3
((lp47
S"(20, u'(?i)\\\\b(prefrontals|prefrontal)\\\\b')"
p48
aS"(19, u'(?i)\\\\b(cortexes|cortex)\\\\b')"
p49
aS"(12, u'(?i)\\\\b(amygdalas|amygdala)\\\\b')"
p50
atp51
Rp52
sS'year'
p53
V2006
p54
sS'species'
p55
g3
((lp56
tp57
Rp58
sb.