(ifile_types
ParseObject
p0
(dp1
S'methods'
p2
c__builtin__
set
p3
((lp4
S'Method.ANTAGONIST'
p5
aS'Method.AGONIST'
p6
atp7
Rp8
sS'topics'
p9
g3
((lp10
S"(33, u'\\\\blocomot')"
p11
atp12
Rp13
sS'receptors'
p14
g3
((lp15
(S'5ht3'
p16
I811
I816
tp17
a(S'5ht3'
p18
I1159
I1164
tp19
a(S'5ht3'
p20
I1063
I1068
tp21
a(S'5ht3'
p22
I919
I924
tp23
a(S'5ht3'
p24
I27
I32
tp25
a(S'5ht3'
p26
I1448
I1453
tp27
atp28
Rp29
sS'raw_text_methods'
p30
g3
((lp31
S"(13, u'\\\\bagonist')"
p32
aS"(12, u'\\\\bantagonist')"
p33
atp34
Rp35
sS'regions'
p36
g3
((lp37
S"(4, u'(?i)\\\\b(presynaptics|presynaptic)\\\\b')"
p38
atp39
Rp40
sS'year'
p41
V2007
p42
sS'species'
p43
g3
((lp44
S"(4, u'(?i)\\\\b(rats|rat)\\\\b')"
p45
atp46
Rp47
sb.