(ifile_types
ParseObject
p0
(dp1
S'methods'
p2
c__builtin__
set
p3
((lp4
S'Method.AGONIST'
p5
atp6
Rp7
sS'topics'
p8
g3
((lp9
S"(13, u'\\\\bantidepress')"
p10
aS"(25, u'\\\\bsocial')"
p11
aS"(2, u'\\\\bdisorder')"
p12
aS"(7, u'\\\\bdepressi')"
p13
aS"(9, u'\\\\bstress')"
p14
aS"(5, u'\\\\btherap')"
p15
aS"(26, u'\\\\bbehav')"
p16
aS"(1, u'\\\\bpatient')"
p17
aS"(4, u'\\\\btreatment')"
p18
atp19
Rp20
sS'receptors'
p21
g3
((lp22
(S'5ht4'
p23
I659
I664
tp24
a(S'5ht1a'
p25
I1674
I1680
tp26
atp27
Rp28
sS'raw_text_methods'
p29
g3
((lp30
S"(13, u'\\\\bagonist')"
p31
atp32
Rp33
sS'regions'
p34
g3
((lp35
tp36
Rp37
sS'year'
p38
V2012
p39
sS'species'
p40
g3
((lp41
S"(1, u'(?i)\\\\b(mice|mouse)\\\\b')"
p42
aS"(5, u'(?i)\\\\b(mices|mice)\\\\b')"
p43
aS"(3, u'(?i)\\\\b(males|male)\\\\b')"
p44
atp45
Rp46
sb.