(ifile_types
ParseObject
p0
(dp1
S'antagonists'
p2
c__builtin__
set
p3
((lp4
tp5
Rp6
sS'methods'
p7
g3
((lp8
S'Method.AGONIST'
p9
atp10
Rp11
sS'topics'
p12
g3
((lp13
S"(9, u'\\\\bdepress')"
p14
atp15
Rp16
sS'receptors'
p17
g3
((lp18
S'5ht1b'
p19
aS'5ht5'
p20
aS'5ht2'
p21
aS'5ht1'
p22
aS'5ht2a'
p23
aS'5ht2c'
p24
atp25
Rp26
sS'regions'
p27
g3
((lp28
S"(220, u'(?i)(striatums|striatum)')"
p29
aS"(222, u'(?i)(neostriatums|neostriatum)')"
p30
aS"(34, u'(?i)(pon|pons)')"
p31
atp32
Rp33
sS'year'
p34
V1994
p35
sS'agonists'
p36
g3
((lp37
S"(161, u'\\\\bmcpp')"
p38
aS"(33, u'\\\\bdoi')"
p39
atp40
Rp41
sS'species'
p42
g3
((lp43
S"(2670, u'(?i)(arabs|arab)')"
p44
aS"(2568, u'(?i)(hens|hen)')"
p45
aS"(867, u'(?i)(tits|tit)')"
p46
aS"(6753, u'(?i)(da|das)')"
p47
aS"(4091, u'(?i)(adults|adult)')"
p48
aS"(468, u'(?i)(oxen|ox)')"
p49
aS"(1055, u'(?i)(men|man)')"
p50
aS"(6249, u'(?i)(ants|ant)')"
p51
aS"(3592, u'(?i)(ravens|raven)')"
p52
aS"(4979, u'(?i)(cats|cat)')"
p53
aS"(3550, u'(?i)(anis|ani)')"
p54
aS"(5958, u'(?i)(rats|rat)')"
p55
aS"(5917, u'(?i)(roaches|roach)')"
p56
aS"(6356, u'(?i)(ais|ai)')"
p57
aS"(6391, u'(?i)(asses|ass)')"
p58
aS"(118, u'(?i)(jacks|jack)')"
p59
atp60
Rp61
sb.