(ifile_types
ParseObject
p0
(dp1
S'antagonists'
p2
c__builtin__
set
p3
((lp4
S"(84, u'\\\\bsb ?206553')"
p5
aS"(99, u'\\\\bsb ?242084')"
p6
atp7
Rp8
sS'methods'
p9
g3
((lp10
S'Method.ANTAGONIST'
p11
aS'Method.AGONIST'
p12
atp13
Rp14
sS'topics'
p15
g3
((lp16
S"(4, u'\\\\blocomot')"
p17
atp18
Rp19
sS'receptors'
p20
g3
((lp21
S'5ht2'
p22
atp23
Rp24
sS'regions'
p25
g3
((lp26
S"(362, u'(?i)\\\\b(brains|brain)(-|\\\\s+)?(stems|stem)\\\\b')"
p27
atp28
Rp29
sS'year'
p30
V2010
p31
sS'agonists'
p32
g3
((lp33
S"(175, u'\\\\bdoi')"
p34
atp35
Rp36
sS'species'
p37
g3
((lp38
S"(5783, u'(?i)\\\\b(hinds|hind)\\\\b')"
p39
aS"(5958, u'(?i)\\\\b(rats|rat)\\\\b')"
p40
atp41
Rp42
sb.