(ifile_types
ParseObject
p0
(dp1
S'methods'
p2
c__builtin__
set
p3
((lp4
S'Method.AGONIST'
p5
atp6
Rp7
sS'topics'
p8
g3
((lp9
S"(26, u'\\\\bbehav')"
p10
atp11
Rp12
sS'receptors'
p13
g3
((lp14
(S'5ht2a'
p15
I360
I366
tp16
a(S'5ht1a'
p17
I1064
I1070
tp18
a(S'5ht2a'
p19
I1206
I1212
tp20
a(S'5ht1a'
p21
I339
I345
tp22
a(S'5ht1a'
p23
I944
I950
tp24
atp25
Rp26
sS'raw_text_methods'
p27
g3
((lp28
S"(13, u'\\\\bagonist')"
p29
aS"(15, u'\\\\b8ohdpat')"
p30
aS"(49, u'\\\\bdoi')"
p31
atp32
Rp33
sS'regions'
p34
g3
((lp35
tp36
Rp37
sS'year'
p38
V1997
p39
sS'species'
p40
g3
((lp41
S"(3, u'(?i)\\\\b(males|male)\\\\b')"
p42
aS"(4, u'(?i)\\\\b(rats|rat)\\\\b')"
p43
atp44
Rp45
sb.