(ifile_types
ParseObject
p0
(dp1
S'methods'
p2
c__builtin__
set
p3
((lp4
S'Method.AGONIST'
p5
atp6
Rp7
sS'topics'
p8
g3
((lp9
S"(26, u'\\\\bbehav')"
p10
aS"(4, u'\\\\btreatment')"
p11
atp12
Rp13
sS'receptors'
p14
g3
((lp15
(S'5ht2a'
p16
I612
I618
tp17
a(S'5ht2a'
p18
I1135
I1141
tp19
a(S'5ht2a'
p20
I242
I248
tp21
a(S'5ht2a'
p22
I991
I997
tp23
a(S'5ht2a'
p24
I55
I61
tp25
atp26
Rp27
sS'raw_text_methods'
p28
g3
((lp29
S"(13, u'\\\\bagonist')"
p30
atp31
Rp32
sS'regions'
p33
g3
((lp34
tp35
Rp36
sS'year'
p37
V1996
p38
sS'species'
p39
g3
((lp40
tp41
Rp42
sb.