(ifile_types
ParseObject
p0
(dp1
S'methods'
p2
c__builtin__
set
p3
((lp4
S'Method.PET'
p5
atp6
Rp7
sS'topics'
p8
g3
((lp9
tp10
Rp11
sS'receptors'
p12
g3
((lp13
(S'5ht1a'
p14
I883
I889
tp15
a(S'5ht1a'
p16
I149
I155
tp17
a(S'5ht1a'
p18
I790
I796
tp19
a(S'5ht1a'
p20
I657
I663
tp21
a(S'5ht1a'
p22
I234
I240
tp23
atp24
Rp25
sS'raw_text_methods'
p26
g3
((lp27
S"(17, u'\\\\bpet')"
p28
aS"(19, u'\\\\bpositron emission tomography')"
p29
atp30
Rp31
sS'regions'
p32
g3
((lp33
tp34
Rp35
sS'year'
p36
V2002
p37
sS'species'
p38
g3
((lp39
S"(1, u'(?i)\\\\b(mice|mouse)\\\\b')"
p40
aS"(5, u'(?i)\\\\b(mices|mice)\\\\b')"
p41
atp42
Rp43
sb.