(ifile_types
ParseObject
p0
(dp1
S'methods'
p2
c__builtin__
set
p3
((lp4
S'Method.ANTAGONIST'
p5
aS'Method.AGONIST'
p6
atp7
Rp8
sS'topics'
p9
g3
((lp10
S"(22, u'\\\\bschizophreni')"
p11
aS"(24, u'\\\\banxiolytic')"
p12
aS"(13, u'\\\\bantidepress')"
p13
aS"(2, u'\\\\bdisorder')"
p14
aS"(7, u'\\\\bdepressi')"
p15
aS"(6, u'\\\\baggressi')"
p16
aS"(5, u'\\\\btherap')"
p17
aS"(8, u'\\\\banxi')"
p18
aS"(4, u'\\\\btreatment')"
p19
aS"(3, u'\\\\bclinical')"
p20
atp21
Rp22
sS'receptors'
p23
g3
((lp24
(S'5ht3'
p25
I1410
I1415
tp26
a(S'5ht1b'
p27
I1379
I1385
tp28
a(S'5ht1c'
p29
I1387
I1393
tp30
a(S'5ht1a'
p31
I1578
I1584
tp32
a(S'5ht3'
p33
I1692
I1697
tp34
a(S'5ht1d'
p35
I1395
I1401
tp36
a(S'5ht2'
p37
I1403
I1408
tp38
a(S'5ht4'
p39
I1417
I1422
tp40
a(S'5ht1a'
p41
I1371
I1377
tp42
a(S'5ht2'
p43
I1683
I1688
tp44
atp45
Rp46
sS'raw_text_methods'
p47
g3
((lp48
S"(13, u'\\\\bagonist')"
p49
aS"(12, u'\\\\bantagonist')"
p50
atp51
Rp52
sS'regions'
p53
g3
((lp54
tp55
Rp56
sS'year'
p57
V1991
p58
sS'species'
p59
g3
((lp60
tp61
Rp62
sb.