(ifile_types
ParseObject
p0
(dp1
S'antagonists'
p2
c__builtin__
set
p3
((lp4
S"(53, u'\\\\bketanserin')"
p5
aS"(14, u'\\\\bmethiothepin')"
p6
aS"(105, u'\\\\bmethysergide')"
p7
aS"(128, u'\\\\bketanserin')"
p8
aS"(136, u'\\\\btropisetron')"
p9
aS"(140, u'\\\\brenzapride')"
p10
aS"(27, u'\\\\bspiperone')"
p11
atp12
Rp13
sS'methods'
p14
g3
((lp15
S'Method.ANTAGONIST'
p16
aS'Method.AGONIST'
p17
atp18
Rp19
sS'topics'
p20
g3
((lp21
tp22
Rp23
sS'receptors'
p24
g3
((lp25
S'5ht5'
p26
aS'5ht2'
p27
aS'5ht1'
p28
aS'5ht2a'
p29
aS'5ht1a'
p30
aS'5ht4a'
p31
atp32
Rp33
sS'regions'
p34
g3
((lp35
S"(34, u'(?i)(pon|pons)')"
p36
atp37
Rp38
sS'year'
p39
V1993
p40
sS'agonists'
p41
g3
((lp42
S"(103, u'\\\\bsumatriptan')"
p43
aS"(207, u'\\\\brenzapride')"
p44
aS"(224, u'\\\\b5 ?methoxytryptamine')"
p45
aS"(60, u'\\\\bmethysergide')"
p46
aS"(33, u'\\\\bdoi')"
p47
atp48
Rp49
sS'species'
p50
g3
((lp51
S"(2568, u'(?i)(hens|hen)')"
p52
aS"(7609, u'(?i)(erns|ern)')"
p53
aS"(5958, u'(?i)(rats|rat)')"
p54
aS"(6753, u'(?i)(da|das)')"
p55
aS"(3051, u'(?i)(pigs|pig)')"
p56
aS"(468, u'(?i)(oxen|ox)')"
p57
aS"(3062, u'(?i)(guineas|guinea)')"
p58
aS"(6249, u'(?i)(ants|ant)')"
p59
aS"(1055, u'(?i)(men|man)')"
p60
aS"(4964, u'(?i)(serins|serin)')"
p61
aS"(3550, u'(?i)(anis|ani)')"
p62
aS"(3522, u'(?i)(tetras|tetra)')"
p63
aS"(6356, u'(?i)(ais|ai)')"
p64
aS"(4480, u'(?i)(guineas|guinea)(-|\\\\s+)?(pigs|pig)')"
p65
aS"(1628, u'(?i)(cod|cod)')"
p66
aS"(6642, u'(?i)(lions|lion)')"
p67
aS"(7058, u'(?i)(does|doe)')"
p68
atp69
Rp70
sb.