(ifile_types
ParseObject
p0
(dp1
S'methods'
p2
c__builtin__
set
p3
((lp4
S'Method.ANTAGONIST'
p5
atp6
Rp7
sS'topics'
p8
g3
((lp9
tp10
Rp11
sS'receptors'
p12
g3
((lp13
(S'5ht3'
p14
I1231
I1236
tp15
a(S'5ht1a'
p16
I958
I964
tp17
atp18
Rp19
sS'raw_text_methods'
p20
g3
((lp21
S"(48, u'\\\\bmdma')"
p22
aS"(12, u'\\\\bantagonist')"
p23
atp24
Rp25
sS'regions'
p26
g3
((lp27
S"(19, u'(?i)\\\\b(cortexes|cortex)\\\\b')"
p28
aS"(16, u'(?i)\\\\b(drns|drn)\\\\b')"
p29
atp30
Rp31
sS'year'
p32
V1997
p33
sS'species'
p34
g3
((lp35
tp36
Rp37
sb.