(ifile_types
ParseObject
p0
(dp1
S'antagonists'
p2
c__builtin__
set
p3
((lp4
tp5
Rp6
sS'methods'
p7
g3
((lp8
S'Method.KNOCKOUT'
p9
atp10
Rp11
sS'topics'
p12
g3
((lp13
S"(31, u'\\\\bobesity')"
p14
aS"(9, u'\\\\bdepress')"
p15
aS"(2, u'\\\\bappetite')"
p16
aS"(16, u'\\\\bfeed')"
p17
atp18
Rp19
sS'receptors'
p20
g3
((lp21
S'5ht2c'
p22
atp23
Rp24
sS'regions'
p25
g3
((lp26
S"(236, u'(?i)(septals|septal)(-|\\\\s+)?(nuclei|nucleus)')"
p27
aS"(34, u'(?i)(pon|pons)')"
p28
aS"(126, u'(?i)(thalamuses|thalamus)')"
p29
aS"(49, u'(?i)(loci|locus)(-|\\\\s+)?(coeruleuses|coeruleus)')"
p30
aS"(170, u'(?i)(ventromedials|ventromedial)(-|\\\\s+)?(nuclei|nucleus)')"
p31
aS"(171, u'(?i)(arcuates|arcuate)(-|\\\\s+)?(nuclei|nucleus)')"
p32
atp33
Rp34
sS'year'
p35
V2006
p36
sS'agonists'
p37
g3
((lp38
S"(14, u'\\\\bamphetamine')"
p39
atp40
Rp41
sS'species'
p42
g3
((lp43
S"(4404, u'(?i)(duns|dun)')"
p44
aS"(1961, u'(?i)(pens|pen)')"
p45
aS"(2183, u'(?i)(gars|gar)')"
p46
aS"(4462, u'(?i)(monals|monal)')"
p47
aS"(6356, u'(?i)(ais|ai)')"
p48
aS"(6249, u'(?i)(ants|ant)')"
p49
aS"(5229, u'(?i)(moles|mole)')"
p50
aS"(3812, u'(?i)(studs|stud)')"
p51
aS"(6391, u'(?i)(asses|ass)')"
p52
aS"(5497, u'(?i)(fices|fice)')"
p53
aS"(1070, u'(?i)(pets|pet)')"
p54
aS"(479, u'(?i)(lings|ling)')"
p55
aS"(81, u'(?i)(asps|asp)')"
p56
aS"(5551, u'(?i)(owls|owl)')"
p57
aS"(5743, u'(?i)(bots|bot)')"
p58
aS"(3550, u'(?i)(anis|ani)')"
p59
aS"(3426, u'(?i)(hares|hare)')"
p60
aS"(2809, u'(?i)(toms|tom)')"
p61
aS"(4520, u'(?i)(agoutis|agouti)')"
p62
aS"(5958, u'(?i)(rats|rat)')"
p63
aS"(7609, u'(?i)(erns|ern)')"
p64
aS"(867, u'(?i)(tits|tit)')"
p65
aS"(163, u'(?i)(mice|mouse)')"
p66
aS"(6682, u'(?i)(tera|teras)')"
p67
aS"(1055, u'(?i)(men|man)')"
p68
aS"(4979, u'(?i)(cats|cat)')"
p69
aS"(7094, u'(?i)(curs|cur)')"
p70
aS"(4371, u'(?i)(lizas|liza)')"
p71
aS"(1414, u'(?i)(chars|char)')"
p72
aS"(2323, u'(?i)(bees|bee)')"
p73
aS"(2568, u'(?i)(hens|hen)')"
p74
aS"(6753, u'(?i)(da|das)')"
p75
aS"(1683, u'(?i)(terns|tern)')"
p76
atp77
Rp78
sb.