(ifile_types
ParseObject
p0
(dp1
S'antagonists'
p2
c__builtin__
set
p3
((lp4
tp5
Rp6
sS'methods'
p7
g3
((lp8
S'Method.PET'
p9
aS'Method.ANTAGONIST'
p10
aS'Method.AGONIST'
p11
atp12
Rp13
sS'topics'
p14
g3
((lp15
S"(6, u'\\\\bcognit')"
p16
aS"(11, u'\\\\banxiolyt')"
p17
aS"(7, u'\\\\bmemory')"
p18
atp19
Rp20
sS'receptors'
p21
g3
((lp22
S'5ht5'
p23
aS'5ht3'
p24
aS'5ht1a'
p25
aS'5ht2a'
p26
atp27
Rp28
sS'regions'
p29
g3
((lp30
S"(362, u'(?i)(brains|brain)(-|\\\\s+)?(stems|stem)')"
p31
aS"(226, u'(?i)(nuclei|nucleus)(-|\\\\s+)?(accumben|accumbens)')"
p32
aS"(34, u'(?i)(pon|pons)')"
p33
atp34
Rp35
sS'year'
p36
V1996
p37
sS'agonists'
p38
g3
((lp39
S"(24, u'\\\\bbuspirone')"
p40
aS"(14, u'\\\\bamphetamine')"
p41
aS"(155, u'\\\\bmem')"
p42
atp43
Rp44
sS'species'
p45
g3
((lp46
S"(2323, u'(?i)(bees|bee)')"
p47
aS"(6753, u'(?i)(da|das)')"
p48
aS"(2809, u'(?i)(toms|tom)')"
p49
aS"(7609, u'(?i)(erns|ern)')"
p50
aS"(867, u'(?i)(tits|tit)')"
p51
aS"(4201, u'(?i)(kines|kine)')"
p52
aS"(4163, u'(?i)(ermines|ermine)')"
p53
aS"(5958, u'(?i)(rats|rat)')"
p54
aS"(468, u'(?i)(oxen|ox)')"
p55
aS"(1055, u'(?i)(men|man)')"
p56
aS"(6249, u'(?i)(ants|ant)')"
p57
aS"(6356, u'(?i)(ais|ai)')"
p58
aS"(3550, u'(?i)(anis|ani)')"
p59
aS"(6682, u'(?i)(tera|teras)')"
p60
aS"(1057, u'(?i)(humans|human)')"
p61
aS"(1961, u'(?i)(pens|pen)')"
p62
aS"(3812, u'(?i)(studs|stud)')"
p63
aS"(3196, u'(?i)(human|humans)')"
p64
aS"(1628, u'(?i)(cod|cod)')"
p65
aS"(1683, u'(?i)(terns|tern)')"
p66
atp67
Rp68
sb.