(ifile_types
ParseObject
p0
(dp1
S'methods'
p2
c__builtin__
set
p3
((lp4
tp5
Rp6
sS'topics'
p7
g3
((lp8
S"(22, u'\\\\bschizophreni')"
p9
aS"(14, u'\\\\bcogniti')"
p10
aS"(17, u'\\\\balzheimer')"
p11
aS"(7, u'\\\\bdepressi')"
p12
aS"(20, u'\\\\bmood')"
p13
aS"(15, u'\\\\bmemory')"
p14
atp15
Rp16
sS'receptors'
p17
g3
((lp18
(S'5ht2a'
p19
I2005
I2011
tp20
a(S'5ht2a'
p21
I897
I903
tp22
a(S'5ht2a'
p23
I1097
I1103
tp24
a(S'5ht2a'
p25
I604
I610
tp26
a(S'5ht2a'
p27
I1360
I1366
tp28
a(S'5ht2a'
p29
I504
I510
tp30
atp31
Rp32
sS'raw_text_methods'
p33
g3
((lp34
tp35
Rp36
sS'regions'
p37
g3
((lp38
S"(11, u'(?i)\\\\b(cerebrals|cerebral)\\\\b')"
p39
aS"(19, u'(?i)\\\\b(cortexes|cortex)\\\\b')"
p40
aS"(23, u'(?i)\\\\b(forebrains|forebrain)\\\\b')"
p41
atp42
Rp43
sS'year'
p44
V1998
p45
sS'species'
p46
g3
((lp47
S"(6, u'(?i)\\\\b(rodents|rodent)\\\\b')"
p48
aS"(2, u'(?i)\\\\b(females|female)\\\\b')"
p49
aS"(3, u'(?i)\\\\b(males|male)\\\\b')"
p50
aS"(4, u'(?i)\\\\b(rats|rat)\\\\b')"
p51
atp52
Rp53
sb.