(ifile_types
ParseObject
p0
(dp1
S'methods'
p2
c__builtin__
set
p3
((lp4
S'Method.ANTAGONIST'
p5
aS'Method.AGONIST'
p6
atp7
Rp8
sS'topics'
p9
g3
((lp10
tp11
Rp12
sS'receptors'
p13
g3
((lp14
(S'5ht3'
p15
I50
I55
tp16
a(S'5ht3'
p17
I267
I272
tp18
a(S'5ht3'
p19
I1079
I1084
tp20
a(S'5ht3'
p21
I148
I153
tp22
a(S'5ht3'
p23
I398
I403
tp24
atp25
Rp26
sS'raw_text_methods'
p27
g3
((lp28
S"(13, u'\\\\bagonist')"
p29
aS"(30, u'\\\\b2methyl')"
p30
aS"(12, u'\\\\bantagonist')"
p31
atp32
Rp33
sS'regions'
p34
g3
((lp35
tp36
Rp37
sS'year'
p38
V1995
p39
sS'species'
p40
g3
((lp41
tp42
Rp43
sb.