(ifile_types
ParseObject
p0
(dp1
S'methods'
p2
c__builtin__
set
p3
((lp4
S'Method.ANTAGONIST'
p5
atp6
Rp7
sS'topics'
p8
g3
((lp9
S"(22, u'\\\\bschizophreni')"
p10
aS"(26, u'\\\\bbehav')"
p11
aS"(33, u'\\\\blocomot')"
p12
aS"(29, u'\\\\bhyperactiv')"
p13
aS"(5, u'\\\\btherap')"
p14
aS"(4, u'\\\\btreatment')"
p15
aS"(3, u'\\\\bclinical')"
p16
atp17
Rp18
sS'receptors'
p19
g3
((lp20
(S'5ht3'
p21
I866
I871
tp22
a(S'5ht3'
p23
I2299
I2304
tp24
a(S'5ht3'
p25
I491
I496
tp26
a(S'5ht3'
p27
I395
I400
tp28
a(S'5ht3'
p29
I2596
I2601
tp30
a(S'5ht3'
p31
I2132
I2137
tp32
a(S'5ht3'
p33
I783
I788
tp34
atp35
Rp36
sS'raw_text_methods'
p37
g3
((lp38
S"(41, u'\\\\bhaloperidol')"
p39
aS"(20, u'\\\\bondansetron')"
p40
aS"(42, u'\\\\bneuroleptics')"
p41
aS"(12, u'\\\\bantagonist')"
p42
atp43
Rp44
sS'regions'
p45
g3
((lp46
tp47
Rp48
sS'year'
p49
V1993
p50
sS'species'
p51
g3
((lp52
S"(4, u'(?i)\\\\b(rats|rat)\\\\b')"
p53
atp54
Rp55
sb.