(ifile_types
ParseObject
p0
(dp1
S'methods'
p2
c__builtin__
set
p3
((lp4
S'Method.ANTAGONIST'
p5
atp6
Rp7
sS'topics'
p8
g3
((lp9
S"(29, u'\\\\bhyperactiv')"
p10
aS"(26, u'\\\\bbehav')"
p11
aS"(23, u'\\\\bantipsychotic')"
p12
atp13
Rp14
sS'receptors'
p15
g3
((lp16
(S'5ht2a'
p17
I372
I378
tp18
a(S'5ht2a'
p19
I1392
I1398
tp20
a(S'5ht2a'
p21
I1434
I1440
tp22
a(S'5ht2a'
p23
I902
I908
tp24
a(S'5ht2'
p25
I1434
I1440
tp26
atp27
Rp28
sS'raw_text_methods'
p29
g3
((lp30
S"(53, u'\\\\bketanserin')"
p31
aS"(41, u'\\\\bhaloperidol')"
p32
aS"(12, u'\\\\bantagonist')"
p33
atp34
Rp35
sS'regions'
p36
g3
((lp37
tp38
Rp39
sS'year'
p40
V1994
p41
sS'species'
p42
g3
((lp43
tp44
Rp45
sb.