(ifile_types
ParseObject
p0
(dp1
S'methods'
p2
c__builtin__
set
p3
((lp4
S'Method.PET'
p5
atp6
Rp7
sS'topics'
p8
g3
((lp9
S"(8, u'\\\\banxi')"
p10
aS"(7, u'\\\\bdepressi')"
p11
aS"(26, u'\\\\bbehav')"
p12
aS"(2, u'\\\\bdisorder')"
p13
atp14
Rp15
sS'receptors'
p16
g3
((lp17
(S'5ht4'
p18
I73
I78
tp19
a(S'5ht4'
p20
I1251
I1256
tp21
a(S'5ht4'
p22
I954
I959
tp23
a(S'5ht4'
p24
I971
I976
tp25
atp26
Rp27
sS'raw_text_methods'
p28
g3
((lp29
S"(1, u'\\\\bneuroimag')"
p30
aS"(17, u'\\\\bpet')"
p31
aS"(19, u'\\\\bpositron emission tomography')"
p32
atp33
Rp34
sS'regions'
p35
g3
((lp36
S"(1, u'(?i)\\\\b(neocortexes|neocortex)\\\\b')"
p37
atp38
Rp39
sS'year'
p40
V2012
p41
sS'species'
p42
g3
((lp43
tp44
Rp45
sb.