(ifile_types
ParseObject
p0
(dp1
S'methods'
p2
c__builtin__
set
p3
((lp4
S'Method.ANTAGONIST'
p5
atp6
Rp7
sS'topics'
p8
g3
((lp9
S"(5, u'\\\\btherap')"
p10
aS"(13, u'\\\\bantidepress')"
p11
atp12
Rp13
sS'receptors'
p14
g3
((lp15
(S'5ht1b'
p16
I866
I872
tp17
a(S'5ht1b'
p18
I361
I367
tp19
a(S'5ht1a'
p20
I346
I352
tp21
a(S'5ht1a'
p22
I1424
I1430
tp23
a(S'5ht1a'
p24
I698
I704
tp25
a(S'5ht1b'
p26
I1637
I1645
tp27
a(S'5ht1d'
p28
I866
I874
tp29
a(S'5ht1a'
p30
I184
I190
tp31
a(S'5ht1b'
p32
I1435
I1441
tp33
a(S'5ht1a'
p34
I1637
I1643
tp35
a(S'5ht1b'
p36
I195
I201
tp37
a(S'5ht1'
p38
I346
I352
tp39
atp40
Rp41
sS'raw_text_methods'
p42
g3
((lp43
S"(11, u'\\\\bfluoxetine')"
p44
aS"(12, u'\\\\bantagonist')"
p45
atp46
Rp47
sS'regions'
p48
g3
((lp49
S"(19, u'(?i)\\\\b(cortexes|cortex)\\\\b')"
p50
atp51
Rp52
sS'year'
p53
V1997
p54
sS'species'
p55
g3
((lp56
S"(4, u'(?i)\\\\b(rats|rat)\\\\b')"
p57
atp58
Rp59
sb.