(ifile_types
ParseObject
p0
(dp1
S'methods'
p2
c__builtin__
set
p3
((lp4
S'Method.ANTAGONIST'
p5
atp6
Rp7
sS'topics'
p8
g3
((lp9
S"(35, u'\\\\bnocicept')"
p10
atp11
Rp12
sS'receptors'
p13
g3
((lp14
(S'5ht7'
p15
I1671
I1676
tp16
a(S'5ht7'
p17
I730
I735
tp18
a(S'5ht7'
p19
I1155
I1160
tp20
a(S'5ht7'
p21
I158
I163
tp22
a(S'5ht7'
p23
I263
I268
tp24
a(S'5ht7'
p25
I1326
I1331
tp26
atp27
Rp28
sS'raw_text_methods'
p29
g3
((lp30
S"(12, u'\\\\bantagonist')"
p31
atp32
Rp33
sS'regions'
p34
g3
((lp35
tp36
Rp37
sS'year'
p38
V2002
p39
sS'species'
p40
g3
((lp41
S"(4, u'(?i)\\\\b(rats|rat)\\\\b')"
p42
atp43
Rp44
sb.