(ifile_types
ParseObject
p0
(dp1
S'methods'
p2
c__builtin__
set
p3
((lp4
S'Method.STAINING'
p5
atp6
Rp7
sS'topics'
p8
g3
((lp9
tp10
Rp11
sS'receptors'
p12
g3
((lp13
(S'5ht1a'
p14
I709
I715
tp15
a(S'5ht1a'
p16
I1565
I1571
tp17
a(S'5ht1a'
p18
I1055
I1061
tp19
a(S'5ht1a'
p20
I120
I126
tp21
atp22
Rp23
sS'raw_text_methods'
p24
g3
((lp25
S"(54, u'\\\\bautoradiography')"
p26
atp27
Rp28
sS'regions'
p29
g3
((lp30
S"(19, u'(?i)\\\\b(cortexes|cortex)\\\\b')"
p31
aS"(14, u'(?i)\\\\b(caudals|caudal)\\\\b')"
p32
atp33
Rp34
sS'year'
p35
V2005
p36
sS'species'
p37
g3
((lp38
tp39
Rp40
sb.