(ifile_types
ParseObject
p0
(dp1
S'methods'
p2
c__builtin__
set
p3
((lp4
S'Method.AGONIST'
p5
atp6
Rp7
sS'topics'
p8
g3
((lp9
tp10
Rp11
sS'receptors'
p12
g3
((lp13
(S'5ht2c'
p14
I1705
I1711
tp15
a(S'5ht3'
p16
I2002
I2007
tp17
a(S'5ht2c'
p18
I30
I36
tp19
a(S'5ht2c'
p20
I1354
I1360
tp21
a(S'5ht1b'
p22
I2016
I2022
tp23
a(S'5ht2a'
p24
I1994
I2000
tp25
a(S'5ht2c'
p26
I496
I502
tp27
a(S'5ht2c'
p28
I272
I278
tp29
a(S'5ht2c'
p30
I1936
I1942
tp31
a(S'5ht2c'
p32
I1566
I1572
tp33
a(S'5ht2c'
p34
I1029
I1035
tp35
atp36
Rp37
sS'raw_text_methods'
p38
g3
((lp39
S"(13, u'\\\\bagonist')"
p40
aS"(27, u'\\\\blsd')"
p41
aS"(33, u'\\\\bmcpp')"
p42
aS"(52, u'\\\\bmk212')"
p43
atp44
Rp45
sS'regions'
p46
g3
((lp47
tp48
Rp49
sS'year'
p50
V1995
p51
sS'species'
p52
g3
((lp53
tp54
Rp55
sb.