(ifile_types
ParseObject
p0
(dp1
S'methods'
p2
c__builtin__
set
p3
((lp4
S'Method.ANTAGONIST'
p5
aS'Method.AGONIST'
p6
atp7
Rp8
sS'topics'
p9
g3
((lp10
S"(29, u'\\\\bhyperactiv')"
p11
aS"(26, u'\\\\bbehav')"
p12
atp13
Rp14
sS'receptors'
p15
g3
((lp16
(S'5ht2c'
p17
I50
I56
tp18
a(S'5ht2'
p19
I617
I622
tp20
a(S'5ht2'
p21
I569
I574
tp22
a(S'5ht2'
p23
I1595
I1600
tp24
a(S'5ht2c'
p25
I252
I258
tp26
a(S'5ht2'
p27
I269
I274
tp28
atp29
Rp30
sS'raw_text_methods'
p31
g3
((lp32
S"(13, u'\\\\bagonist')"
p33
aS"(12, u'\\\\bantagonist')"
p34
atp35
Rp36
sS'regions'
p37
g3
((lp38
tp39
Rp40
sS'year'
p41
V2002
p42
sS'species'
p43
g3
((lp44
S"(3, u'(?i)\\\\b(males|male)\\\\b')"
p45
aS"(4, u'(?i)\\\\b(rats|rat)\\\\b')"
p46
atp47
Rp48
sb.