(ifile_types
ParseObject
p0
(dp1
S'antagonists'
p2
c__builtin__
set
p3
((lp4
tp5
Rp6
sS'methods'
p7
g3
((lp8
S'Method.ANTAGONIST'
p9
aS'Method.AGONIST'
p10
atp11
Rp12
sS'topics'
p13
g3
((lp14
S"(9, u'\\\\bdepress')"
p15
aS"(30, u'\\\\bparkinsons')"
p16
aS"(10, u'\\\\banxiety')"
p17
atp18
Rp19
sS'receptors'
p20
g3
((lp21
S'5ht2c'
p22
atp23
Rp24
sS'regions'
p25
g3
((lp26
S"(105, u'(?i)\\\\b(par|pars)(-|\\\\s+)?(reticulatas|reticulata)\\\\b')"
p27
aS"(103, u'(?i)\\\\b(substantias|substantia)(-|\\\\s+)?(nigras|nigra)\\\\b')"
p28
aS"(219, u'(?i)\\\\b(basals|basal)(-|\\\\s+)?(ganglias|ganglia)\\\\b')"
p29
atp30
Rp31
sS'year'
p32
V1999
p33
sS'agonists'
p34
g3
((lp35
tp36
Rp37
sS'species'
p38
g3
((lp39
S"(5686, u'(?i)\\\\b(foxes|fox)\\\\b')"
p40
atp41
Rp42
sb.