(ifile_types
ParseObject
p0
(dp1
S'methods'
p2
c__builtin__
set
p3
((lp4
S'Method.ANTAGONIST'
p5
atp6
Rp7
sS'topics'
p8
g3
((lp9
S"(14, u'\\\\bcogniti')"
p10
aS"(5, u'\\\\btherap')"
p11
aS"(7, u'\\\\bdepressi')"
p12
aS"(13, u'\\\\bantidepress')"
p13
aS"(4, u'\\\\btreatment')"
p14
atp15
Rp16
sS'receptors'
p17
g3
((lp18
(S'5ht6'
p19
I292
I296
tp20
a(S'5ht6'
p21
I92
I96
tp22
a(S'5ht6'
p23
I205
I209
tp24
a(S'5ht6'
p25
I468
I472
tp26
atp27
Rp28
sS'raw_text_methods'
p29
g3
((lp30
S"(12, u'\\\\bantagonist')"
p31
atp32
Rp33
sS'regions'
p34
g3
((lp35
S"(20, u'(?i)\\\\b(prefrontals|prefrontal)\\\\b')"
p36
aS"(19, u'(?i)\\\\b(cortexes|cortex)\\\\b')"
p37
atp38
Rp39
sS'year'
p40
V2014
p41
sS'species'
p42
g3
((lp43
tp44
Rp45
sb.