(ifile_types
ParseObject
p0
(dp1
S'antagonists'
p2
c__builtin__
set
p3
((lp4
tp5
Rp6
sS'methods'
p7
g3
((lp8
tp9
Rp10
sS'topics'
p11
g3
((lp12
S"(9, u'\\\\bdepress')"
p13
atp14
Rp15
sS'receptors'
p16
g3
((lp17
S'5ht1a'
p18
atp19
Rp20
sS'regions'
p21
g3
((lp22
S"(94, u'(?i)\\\\b(dorsals|dorsal)(-|\\\\s+)?(raphes|raphe)(-|\\\\s+)?(nuclei|nucleus)\\\\b')"
p23
aS"(49, u'(?i)\\\\b(loci|locus)(-|\\\\s+)?(coeruleuses|coeruleus)\\\\b')"
p24
aS"(96, u'(?i)\\\\b(ventrals|ventral)(-|\\\\s+)?(tegmentals|tegmental)(-|\\\\s+)?(areas|area)\\\\b')"
p25
aS"(318, u'(?i)\\\\b(raphes|raphe)(-|\\\\s+)?(nuclei|nucleus)\\\\b')"
p26
atp27
Rp28
sS'year'
p29
V2008
p30
sS'agonists'
p31
g3
((lp32
S"(158, u'\\\\blsd')"
p33
atp34
Rp35
sS'species'
p36
g3
((lp37
S"(5958, u'(?i)\\\\b(rats|rat)\\\\b')"
p38
atp39
Rp40
sb.