(ifile_types
ParseObject
p0
(dp1
S'antagonists'
p2
c__builtin__
set
p3
((lp4
S"(194, u'\\\\bmethysergide')"
p5
aS"(206, u'\\\\bbromocriptine')"
p6
aS"(58, u'\\\\bhaloperidol')"
p7
atp8
Rp9
sS'methods'
p10
g3
((lp11
S'Method.STAINING'
p12
aS'Method.AGONIST'
p13
aS'Method.ANTAGONIST'
p14
atp15
Rp16
sS'topics'
p17
g3
((lp18
tp19
Rp20
sS'receptors'
p21
g3
((lp22
S'5ht1a'
p23
atp24
Rp25
sS'regions'
p26
g3
((lp27
S"(171, u'(?i)\\\\b(arcuates|arcuate)(-|\\\\s+)?(nuclei|nucleus)\\\\b')"
p28
atp29
Rp30
sS'year'
p31
V1992
p32
sS'agonists'
p33
g3
((lp34
S"(53, u'\\\\bmethysergide')"
p35
aS"(85, u'\\\\b8 ?oh ?dpat')"
p36
aS"(43, u'\\\\bhaloperidol')"
p37
atp38
Rp39
sS'species'
p40
g3
((lp41
S"(5967, u'(?i)\\\\b(males|male)\\\\b')"
p42
aS"(5958, u'(?i)\\\\b(rats|rat)\\\\b')"
p43
atp44
Rp45
sb.