(ifile_types
ParseObject
p0
(dp1
S'antagonists'
p2
c__builtin__
set
p3
((lp4
tp5
Rp6
sS'methods'
p7
g3
((lp8
S'Method.AGONIST'
p9
atp10
Rp11
sS'topics'
p12
g3
((lp13
S"(30, u'\\\\bparkinsons')"
p14
atp15
Rp16
sS'receptors'
p17
g3
((lp18
S'5ht1a'
p19
atp20
Rp21
sS'regions'
p22
g3
((lp23
S"(310, u'(?i)(medials|medial)(-|\\\\s+)?(forebrains|forebrain)(-|\\\\s+)?(bundles|bundle)')"
p24
aS"(318, u'(?i)(raphes|raphe)(-|\\\\s+)?(nuclei|nucleus)')"
p25
aS"(94, u'(?i)(dorsals|dorsal)(-|\\\\s+)?(raphes|raphe)(-|\\\\s+)?(nuclei|nucleus)')"
p26
atp27
Rp28
sS'year'
p29
V2009
p30
sS'agonists'
p31
g3
((lp32
S"(92, u'\\\\b8 ?oh ?dpat')"
p33
atp34
Rp35
sS'species'
p36
g3
((lp37
S"(4624, u'(?i)(apes|ape)')"
p38
aS"(7094, u'(?i)(curs|cur)')"
p39
aS"(6580, u'(?i)(dams|dam)')"
p40
aS"(6356, u'(?i)(ais|ai)')"
p41
aS"(6249, u'(?i)(ants|ant)')"
p42
aS"(3812, u'(?i)(studs|stud)')"
p43
aS"(3431, u'(?i)(roans|roan)')"
p44
aS"(468, u'(?i)(oxen|ox)')"
p45
aS"(1349, u'(?i)(rams|ram)')"
p46
aS"(107, u'(?i)(stags|stag)')"
p47
aS"(3550, u'(?i)(anis|ani)')"
p48
aS"(2809, u'(?i)(toms|tom)')"
p49
aS"(5958, u'(?i)(rats|rat)')"
p50
aS"(4201, u'(?i)(kines|kine)')"
p51
aS"(1055, u'(?i)(men|man)')"
p52
aS"(5176, u'(?i)(tegs|teg)')"
p53
aS"(1961, u'(?i)(pens|pen)')"
p54
aS"(4979, u'(?i)(cats|cat)')"
p55
aS"(2323, u'(?i)(bees|bee)')"
p56
aS"(5799, u'(?i)(rodents|rodent)')"
p57
aS"(2568, u'(?i)(hens|hen)')"
p58
aS"(6753, u'(?i)(da|das)')"
p59
atp60
Rp61
sb.