(ifile_types
ParseObject
p0
(dp1
S'methods'
p2
c__builtin__
set
p3
((lp4
S'Method.ANTAGONIST'
p5
aS'Method.AGONIST'
p6
atp7
Rp8
sS'topics'
p9
g3
((lp10
S"(22, u'\\\\bschizophreni')"
p11
aS"(14, u'\\\\bcogniti')"
p12
aS"(29, u'\\\\bhyperactiv')"
p13
aS"(23, u'\\\\bantipsychotic')"
p14
aS"(5, u'\\\\btherap')"
p15
aS"(4, u'\\\\btreatment')"
p16
atp17
Rp18
sS'receptors'
p19
g3
((lp20
(S'5ht2c'
p21
I1454
I1462
tp22
a(S'5ht2a'
p23
I1454
I1460
tp24
a(S'5ht2a'
p25
I2103
I2109
tp26
a(S'5ht2a'
p27
I1171
I1177
tp28
a(S'5ht2a'
p29
I966
I972
tp30
a(S'5ht2a'
p31
I667
I673
tp32
atp33
Rp34
sS'raw_text_methods'
p35
g3
((lp36
S"(13, u'\\\\bagonist')"
p37
aS"(41, u'\\\\bhaloperidol')"
p38
aS"(5, u'\\\\bmk801')"
p39
aS"(12, u'\\\\bantagonist')"
p40
atp41
Rp42
sS'regions'
p43
g3
((lp44
tp45
Rp46
sS'year'
p47
V2007
p48
sS'species'
p49
g3
((lp50
tp51
Rp52
sb.