(ifile_types
ParseObject
p0
(dp1
S'antagonists'
p2
c__builtin__
set
p3
((lp4
S"(104, u'\\\\bimipramine')"
p5
aS"(91, u'\\\\bfluoxetine')"
p6
aS"(117, u'\\\\bketanserin')"
p7
aS"(33, u'\\\\byohimbine')"
p8
atp9
Rp10
sS'methods'
p11
g3
((lp12
S'Method.ANTAGONIST'
p13
atp14
Rp15
sS'topics'
p16
g3
((lp17
S"(9, u'\\\\bdepress')"
p18
aS"(35, u'\\\\bstress')"
p19
aS"(1, u'\\\\bmood')"
p20
atp21
Rp22
sS'receptors'
p23
g3
((lp24
S'5ht2a'
p25
atp26
Rp27
sS'regions'
p28
g3
((lp29
tp30
Rp31
sS'year'
p32
V2015
p33
sS'agonists'
p34
g3
((lp35
S"(121, u'\\\\bagmatine')"
p36
aS"(82, u'\\\\byohimbine')"
p37
atp38
Rp39
sS'species'
p40
g3
((lp41
tp42
Rp43
sb.