(ifile_types
ParseObject
p0
(dp1
S'methods'
p2
c__builtin__
set
p3
((lp4
S'Method.ANTAGONIST'
p5
aS'Method.AGONIST'
p6
atp7
Rp8
sS'topics'
p9
g3
((lp10
S"(7, u'\\\\bdepressi')"
p11
atp12
Rp13
sS'receptors'
p14
g3
((lp15
(S'5ht1a'
p16
I409
I415
tp17
a(S'5ht1'
p18
I1246
I1251
tp19
a(S'5ht2'
p20
I777
I782
tp21
a(S'5ht1a'
p22
I551
I557
tp23
a(S'5ht1'
p24
I344
I349
tp25
a(S'5ht2'
p26
I354
I359
tp27
a(S'5ht1a'
p28
I1365
I1371
tp29
a(S'5ht1a'
p30
I652
I658
tp31
a(S'5ht1'
p32
I771
I776
tp33
a(S'5ht1b'
p34
I1292
I1298
tp35
a(S'5ht2'
p36
I1355
I1360
tp37
a(S'5ht1b'
p38
I558
I564
tp39
a(S'5ht2'
p40
I51
I61
tp41
a(S'5ht1'
p42
I35
I45
tp43
a(S'5ht1b'
p44
I416
I422
tp45
a(S'5ht2'
p46
I1050
I1055
tp47
a(S'5ht2'
p48
I691
I696
tp49
atp50
Rp51
sS'raw_text_methods'
p52
g3
((lp53
S"(13, u'\\\\bagonist')"
p54
aS"(53, u'\\\\bketanserin')"
p55
aS"(49, u'\\\\bdoi')"
p56
aS"(12, u'\\\\bantagonist')"
p57
atp58
Rp59
sS'regions'
p60
g3
((lp61
tp62
Rp63
sS'year'
p64
V1995
p65
sS'species'
p66
g3
((lp67
tp68
Rp69
sb.