(ifile_types
ParseObject
p0
(dp1
S'methods'
p2
c__builtin__
set
p3
((lp4
tp5
Rp6
sS'topics'
p7
g3
((lp8
S"(26, u'\\\\bbehav')"
p9
aS"(4, u'\\\\btreatment')"
p10
atp11
Rp12
sS'receptors'
p13
g3
((lp14
(S'5ht3'
p15
I1666
I1671
tp16
a(S'5ht3'
p17
I1251
I1256
tp18
a(S'5ht3'
p19
I1859
I1864
tp20
a(S'5ht3'
p21
I1174
I1179
tp22
a(S'5ht3'
p23
I1479
I1484
tp24
a(S'5ht3'
p25
I456
I461
tp26
atp27
Rp28
sS'raw_text_methods'
p29
g3
((lp30
tp31
Rp32
sS'regions'
p33
g3
((lp34
tp35
Rp36
sS'year'
p37
V2011
p38
sS'species'
p39
g3
((lp40
S"(4, u'(?i)\\\\b(rats|rat)\\\\b')"
p41
atp42
Rp43
sb.