(ifile_types
ParseObject
p0
(dp1
S'antagonists'
p2
c__builtin__
set
p3
((lp4
S"(102, u'\\\\bfluoxetine')"
p5
atp6
Rp7
sS'methods'
p8
g3
((lp9
S'Method.PET'
p10
atp11
Rp12
sS'topics'
p13
g3
((lp14
tp15
Rp16
sS'receptors'
p17
g3
((lp18
S'5ht4b'
p19
aS'5ht4'
p20
atp21
Rp22
sS'regions'
p23
g3
((lp24
S"(292, u'(?i)(anteriors|anterior)(-|\\\\s+)?(cingulates|cingulate)')"
p25
aS"(291, u'(?i)(cingulates|cingulate)(-|\\\\s+)?(cortexes|cortex)')"
p26
aS"(209, u'(?i)(amygdalas|amygdala)')"
p27
aS"(34, u'(?i)(pon|pons)')"
p28
atp29
Rp30
sS'year'
p31
V2015
p32
sS'agonists'
p33
g3
((lp34
tp35
Rp36
sS'species'
p37
g3
((lp38
S"(1070, u'(?i)(pets|pet)')"
p39
aS"(5958, u'(?i)(rats|rat)')"
p40
aS"(4657, u'(?i)(fish|fish)')"
p41
aS"(6753, u'(?i)(da|das)')"
p42
aS"(6391, u'(?i)(asses|ass)')"
p43
aS"(479, u'(?i)(lings|ling)')"
p44
aS"(5967, u'(?i)(males|male)')"
p45
aS"(468, u'(?i)(oxen|ox)')"
p46
aS"(1055, u'(?i)(men|man)')"
p47
aS"(6249, u'(?i)(ants|ant)')"
p48
aS"(3503, u'(?i)(fishers|fisher)')"
p49
aS"(853, u'(?i)(minas|mina)')"
p50
aS"(7094, u'(?i)(curs|cur)')"
p51
aS"(3550, u'(?i)(anis|ani)')"
p52
aS"(6682, u'(?i)(tera|teras)')"
p53
aS"(1057, u'(?i)(humans|human)')"
p54
aS"(4247, u'(?i)(tatus|tatu)')"
p55
aS"(3812, u'(?i)(studs|stud)')"
p56
aS"(3196, u'(?i)(human|humans)')"
p57
aS"(6356, u'(?i)(ais|ai)')"
p58
atp59
Rp60
sb.