(ifile_types
ParseObject
p0
(dp1
S'antagonists'
p2
c__builtin__
set
p3
((lp4
S"(209, u'\\\\btfmpp')"
p5
aS"(102, u'\\\\bfluoxetine')"
p6
atp7
Rp8
sS'methods'
p9
g3
((lp10
S'Method.AGONIST'
p11
atp12
Rp13
sS'topics'
p14
g3
((lp15
S"(16, u'\\\\bfeed')"
p16
atp17
Rp18
sS'receptors'
p19
g3
((lp20
S'5ht1c'
p21
aS'5ht1b'
p22
aS'5ht1a'
p23
aS'5ht1'
p24
atp25
Rp26
sS'regions'
p27
g3
((lp28
S"(126, u'(?i)(thalamuses|thalamus)')"
p29
atp30
Rp31
sS'year'
p32
V1992
p33
sS'agonists'
p34
g3
((lp35
S"(74, u'\\\\bru ?24969')"
p36
aS"(183, u'\\\\btfmpp')"
p37
atp38
Rp39
sS'species'
p40
g3
((lp41
S"(2568, u'(?i)(hens|hen)')"
p42
aS"(5958, u'(?i)(rats|rat)')"
p43
aS"(6753, u'(?i)(da|das)')"
p44
aS"(468, u'(?i)(oxen|ox)')"
p45
aS"(1055, u'(?i)(men|man)')"
p46
aS"(6249, u'(?i)(ants|ant)')"
p47
aS"(5743, u'(?i)(bots|bot)')"
p48
aS"(3550, u'(?i)(anis|ani)')"
p49
aS"(1553, u'(?i)(mews|mew)')"
p50
aS"(7094, u'(?i)(curs|cur)')"
p51
aS"(1961, u'(?i)(pens|pen)')"
p52
aS"(6356, u'(?i)(ais|ai)')"
p53
aS"(3522, u'(?i)(tetras|tetra)')"
p54
aS"(7058, u'(?i)(does|doe)')"
p55
atp56
Rp57
sb.