(ifile_types
ParseObject
p0
(dp1
S'antagonists'
p2
c__builtin__
set
p3
((lp4
tp5
Rp6
sS'methods'
p7
g3
((lp8
S'Method.PET'
p9
aS'Method.AGONIST'
p10
atp11
Rp12
sS'topics'
p13
g3
((lp14
S"(36, u'\\\\bcompulsiv')"
p15
atp16
Rp17
sS'receptors'
p18
g3
((lp19
S'5ht1a'
p20
aS'5ht5'
p21
aS'5ht2'
p22
aS'5ht2c'
p23
atp24
Rp25
sS'regions'
p26
g3
((lp27
S"(256, u'(?i)\\\\b(orbitofrontals|orbitofrontal)(-|\\\\s+)?(cortexes|cortex)\\\\b')"
p28
atp29
Rp30
sS'year'
p31
V2005
p32
sS'agonists'
p33
g3
((lp34
S"(155, u'\\\\bmcpp')"
p35
aS"(85, u'\\\\b8 ?oh ?dpat')"
p36
aS"(175, u'\\\\bdoi')"
p37
atp38
Rp39
sS'species'
p40
g3
((lp41
S"(5967, u'(?i)\\\\b(males|male)\\\\b')"
p42
aS"(1057, u'(?i)\\\\b(humans|human)\\\\b')"
p43
aS"(5958, u'(?i)\\\\b(rats|rat)\\\\b')"
p44
aS"(3196, u'(?i)\\\\b(human|humans)\\\\b')"
p45
atp46
Rp47
sb.