(ifile_types
ParseObject
p0
(dp1
S'methods'
p2
c__builtin__
set
p3
((lp4
S'Method.ANTAGONIST'
p5
aS'Method.AGONIST'
p6
atp7
Rp8
sS'topics'
p9
g3
((lp10
tp11
Rp12
sS'receptors'
p13
g3
((lp14
(S'5ht3'
p15
I1097
I1102
tp16
a(S'5ht3'
p17
I1450
I1455
tp18
a(S'5ht2c'
p19
I1150
I1158
tp20
a(S'5ht3'
p21
I1693
I1698
tp22
a(S'5ht2a'
p23
I1402
I1408
tp24
a(S'5ht2a'
p25
I1150
I1156
tp26
a(S'5ht3'
p27
I39
I44
tp28
a(S'5ht2c'
p29
I1402
I1410
tp30
a(S'5ht3'
p31
I1336
I1341
tp32
atp33
Rp34
sS'raw_text_methods'
p35
g3
((lp36
S"(23, u'\\\\bmdl')"
p37
aS"(26, u'\\\\bmdl72222')"
p38
aS"(32, u'\\\\blesions')"
p39
aS"(13, u'\\\\bagonist')"
p40
aS"(9, u'\\\\britanserin')"
p41
aS"(12, u'\\\\bantagonist')"
p42
atp43
Rp44
sS'regions'
p45
g3
((lp46
S"(23, u'(?i)\\\\b(forebrains|forebrain)\\\\b')"
p47
atp48
Rp49
sS'year'
p50
V1998
p51
sS'species'
p52
g3
((lp53
S"(4, u'(?i)\\\\b(rats|rat)\\\\b')"
p54
atp55
Rp56
sb.