(ifile_types
ParseObject
p0
(dp1
S'methods'
p2
c__builtin__
set
p3
((lp4
S'Method.PET'
p5
atp6
Rp7
sS'topics'
p8
g3
((lp9
tp10
Rp11
sS'receptors'
p12
g3
((lp13
(S'5ht5'
p14
I255
I265
tp15
a(S'5ht1b'
p16
I286
I292
tp17
a(S'5ht1b'
p18
I67
I73
tp19
a(S'5ht1b'
p20
I1617
I1623
tp21
a(S'5ht1b'
p22
I1059
I1065
tp23
atp24
Rp25
sS'raw_text_methods'
p26
g3
((lp27
S"(17, u'\\\\bpet')"
p28
aS"(19, u'\\\\bpositron emission tomography')"
p29
aS"(49, u'\\\\bdoi')"
p30
atp31
Rp32
sS'regions'
p33
g3
((lp34
S"(19, u'(?i)\\\\b(cortexes|cortex)\\\\b')"
p35
aS"(11, u'(?i)\\\\b(cerebrals|cerebral)\\\\b')"
p36
aS"(9, u'(?i)\\\\b(cerebellums|cerebellum)\\\\b')"
p37
atp38
Rp39
sS'year'
p40
V2010
p41
sS'species'
p42
g3
((lp43
tp44
Rp45
sb.