(ifile_types
ParseObject
p0
(dp1
S'methods'
p2
c__builtin__
set
p3
((lp4
tp5
Rp6
sS'topics'
p7
g3
((lp8
S"(1, u'\\\\bpatient')"
p9
aS"(5, u'\\\\btherap')"
p10
atp11
Rp12
sS'receptors'
p13
g3
((lp14
(S'5ht1a'
p15
I809
I815
tp16
a(S'5ht2'
p17
I896
I901
tp18
a(S'5ht1a'
p19
I181
I187
tp20
a(S'5ht2'
p21
I192
I197
tp22
a(S'5ht1a'
p23
I600
I606
tp24
a(S'5ht1a'
p25
I1290
I1296
tp26
a(S'5ht2'
p27
I1362
I1367
tp28
a(S'5ht2'
p29
I611
I616
tp30
atp31
Rp32
sS'raw_text_methods'
p33
g3
((lp34
S"(54, u'\\\\bautoradiography')"
p35
atp36
Rp37
sS'regions'
p38
g3
((lp39
S"(19, u'(?i)\\\\b(cortexes|cortex)\\\\b')"
p40
atp41
Rp42
sS'year'
p43
V1996
p44
sS'species'
p45
g3
((lp46
tp47
Rp48
sb.