(ifile_types
ParseObject
p0
(dp1
S'methods'
p2
c__builtin__
set
p3
((lp4
S'Method.ANTAGONIST'
p5
atp6
Rp7
sS'topics'
p8
g3
((lp9
S"(24, u'\\\\banxiolytic')"
p10
aS"(8, u'\\\\banxi')"
p11
aS"(26, u'\\\\bbehav')"
p12
aS"(4, u'\\\\btreatment')"
p13
aS"(15, u'\\\\bmemory')"
p14
atp15
Rp16
sS'receptors'
p17
g3
((lp18
(S'5ht3'
p19
I993
I998
tp20
a(S'5ht3'
p21
I441
I446
tp22
a(S'5ht1a'
p23
I1079
I1085
tp24
a(S'5ht3'
p25
I286
I291
tp26
a(S'5ht3'
p27
I68
I73
tp28
a(S'5ht3'
p29
I1609
I1614
tp30
a(S'5ht3'
p31
I365
I370
tp32
atp33
Rp34
sS'raw_text_methods'
p35
g3
((lp36
S"(22, u'\\\\bbuspirone')"
p37
aS"(16, u'\\\\bdiazepam')"
p38
aS"(20, u'\\\\bondansetron')"
p39
aS"(36, u'\\\\bbenzodiazepine')"
p40
aS"(31, u'\\\\bbenzodiazepines')"
p41
aS"(12, u'\\\\bantagonist')"
p42
atp43
Rp44
sS'regions'
p45
g3
((lp46
tp47
Rp48
sS'year'
p49
V1995
p50
sS'species'
p51
g3
((lp52
S"(1, u'(?i)\\\\b(mice|mouse)\\\\b')"
p53
aS"(6, u'(?i)\\\\b(rodents|rodent)\\\\b')"
p54
aS"(5, u'(?i)\\\\b(mices|mice)\\\\b')"
p55
aS"(4, u'(?i)\\\\b(rats|rat)\\\\b')"
p56
atp57
Rp58
sb.