(ifile_types
ParseObject
p0
(dp1
S'methods'
p2
c__builtin__
set
p3
((lp4
S'Method.PET'
p5
atp6
Rp7
sS'topics'
p8
g3
((lp9
S"(26, u'\\\\bbehav')"
p10
atp11
Rp12
sS'receptors'
p13
g3
((lp14
(S'5ht4'
p15
I1693
I1698
tp16
a(S'5ht4'
p17
I593
I598
tp18
a(S'5ht4'
p19
I1028
I1033
tp20
a(S'5ht4'
p21
I571
I581
tp22
a(S'5ht4'
p23
I843
I848
tp24
atp25
Rp26
sS'raw_text_methods'
p27
g3
((lp28
S"(19, u'\\\\bpositron emission tomography')"
p29
atp30
Rp31
sS'regions'
p32
g3
((lp33
S"(1, u'(?i)\\\\b(neocortexes|neocortex)\\\\b')"
p34
aS"(12, u'(?i)\\\\b(amygdalas|amygdala)\\\\b')"
p35
aS"(17, u'(?i)\\\\b(caudates|caudate)\\\\b')"
p36
aS"(18, u'(?i)\\\\b(putamens|putamen)\\\\b')"
p37
atp38
Rp39
sS'year'
p40
V2015
p41
sS'species'
p42
g3
((lp43
tp44
Rp45
sb.