(ifile_types
ParseObject
p0
(dp1
S'antagonists'
p2
c__builtin__
set
p3
((lp4
tp5
Rp6
sS'methods'
p7
g3
((lp8
S'Method.ANTAGONIST'
p9
aS'Method.AGONIST'
p10
atp11
Rp12
sS'topics'
p13
g3
((lp14
tp15
Rp16
sS'receptors'
p17
g3
((lp18
S'5ht3a'
p19
aS'5ht5'
p20
aS'5ht3'
p21
aS'5ht2'
p22
atp23
Rp24
sS'regions'
p25
g3
((lp26
S"(226, u'(?i)(nuclei|nucleus)(-|\\\\s+)?(accumben|accumbens)')"
p27
atp28
Rp29
sS'year'
p30
V1997
p31
sS'agonists'
p32
g3
((lp33
S"(193, u'\\\\bethanol')"
p34
aS"(190, u'\\\\b2 ?methyl ?5 ?ht')"
p35
atp36
Rp37
sS'species'
p38
g3
((lp39
S"(949, u'(?i)(cohoes|coho)')"
p40
aS"(3137, u'(?i)(iguanids|iguanid)')"
p41
aS"(5958, u'(?i)(rats|rat)')"
p42
aS"(6249, u'(?i)(ants|ant)')"
p43
aS"(6682, u'(?i)(tera|teras)')"
p44
aS"(4604, u'(?i)(mites|mite)')"
p45
aS"(2568, u'(?i)(hens|hen)')"
p46
aS"(6356, u'(?i)(ais|ai)')"
p47
aS"(3550, u'(?i)(anis|ani)')"
p48
aS"(3812, u'(?i)(studs|stud)')"
p49
aS"(6878, u'(?i)(guans|guan)')"
p50
atp51
Rp52
sb.