(ifile_types
ParseObject
p0
(dp1
S'antagonists'
p2
c__builtin__
set
p3
((lp4
S"(32, u'\\\\bway ?100635')"
p5
atp6
Rp7
sS'methods'
p8
g3
((lp9
S'Method.ANTAGONIST'
p10
aS'Method.AGONIST'
p11
atp12
Rp13
sS'topics'
p14
g3
((lp15
S"(19, u'\\\\bimpulsiv')"
p16
aS"(12, u'\\\\banxiogen')"
p17
aS"(10, u'\\\\banxiety')"
p18
aS"(16, u'\\\\bfeed')"
p19
atp20
Rp21
sS'receptors'
p22
g3
((lp23
S'5ht1a'
p24
atp25
Rp26
sS'regions'
p27
g3
((lp28
S"(34, u'(?i)(pon|pons)')"
p29
atp30
Rp31
sS'year'
p32
V2009
p33
sS'agonists'
p34
g3
((lp35
S"(8, u'\\\\b5 ?meo ?dmt')"
p36
atp37
Rp38
sS'species'
p39
g3
((lp40
S"(6753, u'(?i)(da|das)')"
p41
aS"(5958, u'(?i)(rats|rat)')"
p42
aS"(163, u'(?i)(mice|mouse)')"
p43
aS"(6391, u'(?i)(asses|ass)')"
p44
aS"(6249, u'(?i)(ants|ant)')"
p45
aS"(6682, u'(?i)(tera|teras)')"
p46
aS"(1055, u'(?i)(men|man)')"
p47
aS"(5131, u'(?i)(hags|hag)')"
p48
aS"(3812, u'(?i)(studs|stud)')"
p49
aS"(3550, u'(?i)(anis|ani)')"
p50
aS"(1057, u'(?i)(humans|human)')"
p51
aS"(5917, u'(?i)(roaches|roach)')"
p52
aS"(1961, u'(?i)(pens|pen)')"
p53
aS"(1414, u'(?i)(chars|char)')"
p54
aS"(3196, u'(?i)(human|humans)')"
p55
aS"(4979, u'(?i)(cats|cat)')"
p56
atp57
Rp58
sb.