(ifile_types
ParseObject
p0
(dp1
S'methods'
p2
c__builtin__
set
p3
((lp4
S'Method.ANTAGONIST'
p5
atp6
Rp7
sS'topics'
p8
g3
((lp9
S"(5, u'\\\\btherap')"
p10
aS"(32, u'\\\\bvomit')"
p11
atp12
Rp13
sS'receptors'
p14
g3
((lp15
(S'5ht3'
p16
I58
I63
tp17
a(S'5ht3'
p18
I1602
I1607
tp19
a(S'5ht3'
p20
I367
I372
tp21
a(S'5ht3'
p22
I44
I54
tp23
a(S'5ht3'
p24
I518
I523
tp25
a(S'5ht3'
p26
I815
I820
tp27
a(S'5ht3'
p28
I256
I261
tp29
atp30
Rp31
sS'raw_text_methods'
p32
g3
((lp33
S"(12, u'\\\\bantagonist')"
p34
atp35
Rp36
sS'regions'
p37
g3
((lp38
tp39
Rp40
sS'year'
p41
V1995
p42
sS'species'
p43
g3
((lp44
S"(4, u'(?i)\\\\b(rats|rat)\\\\b')"
p45
atp46
Rp47
sb.