(ifile_types
ParseObject
p0
(dp1
S'methods'
p2
c__builtin__
set
p3
((lp4
S'Method.ANTAGONIST'
p5
aS'Method.AGONIST'
p6
atp7
Rp8
sS'topics'
p9
g3
((lp10
S"(22, u'\\\\bschizophreni')"
p11
aS"(23, u'\\\\bantipsychotic')"
p12
aS"(19, u'\\\\bpsychosis')"
p13
atp14
Rp15
sS'receptors'
p16
g3
((lp17
(S'5ht2a'
p18
I975
I980
tp19
a(S'5ht2a'
p20
I65
I70
tp21
a(S'5ht2c'
p22
I1243
I1248
tp23
a(S'5ht2a'
p24
I1334
I1339
tp25
a(S'5ht2a'
p26
I884
I889
tp27
a(S'5ht2a'
p28
I789
I794
tp29
atp30
Rp31
sS'raw_text_methods'
p32
g3
((lp33
S"(13, u'\\\\bagonist')"
p34
aS"(27, u'\\\\blsd')"
p35
aS"(12, u'\\\\bantagonist')"
p36
atp37
Rp38
sS'regions'
p39
g3
((lp40
tp41
Rp42
sS'year'
p43
V1998
p44
sS'species'
p45
g3
((lp46
S"(4, u'(?i)\\\\b(rats|rat)\\\\b')"
p47
atp48
Rp49
sb.