(ifile_types
ParseObject
p0
(dp1
S'antagonists'
p2
c__builtin__
set
p3
((lp4
S"(133, u'\\\\bmianserin')"
p5
aS"(193, u'\\\\bmesulergine')"
p6
aS"(194, u'\\\\bmethysergide')"
p7
aS"(117, u'\\\\bketanserin')"
p8
aS"(33, u'\\\\byohimbine')"
p9
atp10
Rp11
sS'methods'
p12
g3
((lp13
S'Method.ANTAGONIST'
p14
aS'Method.AGONIST'
p15
atp16
Rp17
sS'topics'
p18
g3
((lp19
tp20
Rp21
sS'receptors'
p22
g3
((lp23
S'5ht1c'
p24
aS'5ht1a'
p25
aS'5ht3'
p26
aS'5ht2'
p27
aS'5ht1d'
p28
atp29
Rp30
sS'regions'
p31
g3
((lp32
S"(362, u'(?i)\\\\b(brains|brain)(-|\\\\s+)?(stems|stem)\\\\b')"
p33
atp34
Rp35
sS'year'
p36
V1993
p37
sS'agonists'
p38
g3
((lp39
S"(165, u'\\\\bmesulergine')"
p40
aS"(96, u'\\\\bsumatriptan')"
p41
aS"(53, u'\\\\bmethysergide')"
p42
aS"(149, u'\\\\bmem')"
p43
aS"(82, u'\\\\byohimbine')"
p44
atp45
Rp46
sS'species'
p47
g3
((lp48
S"(473, u'(?i)\\\\b(rabbits|rabbit)\\\\b')"
p49
atp50
Rp51
sb.