(ifile_types
ParseObject
p0
(dp1
S'methods'
p2
c__builtin__
set
p3
((lp4
S'Method.ANTAGONIST'
p5
atp6
Rp7
sS'topics'
p8
g3
((lp9
S"(1, u'\\\\bpatient')"
p10
aS"(7, u'\\\\bdepressi')"
p11
aS"(13, u'\\\\bantidepress')"
p12
aS"(4, u'\\\\btreatment')"
p13
aS"(3, u'\\\\bclinical')"
p14
atp15
Rp16
sS'receptors'
p17
g3
((lp18
(S'5ht1a'
p19
I112
I118
tp20
atp21
Rp22
sS'raw_text_methods'
p23
g3
((lp24
S"(38, u'\\\\bssri')"
p25
aS"(12, u'\\\\bantagonist')"
p26
atp27
Rp28
sS'regions'
p29
g3
((lp30
S"(23, u'(?i)\\\\b(forebrains|forebrain)\\\\b')"
p31
atp32
Rp33
sS'year'
p34
V1996
p35
sS'species'
p36
g3
((lp37
tp38
Rp39
sb.