(ifile_types
ParseObject
p0
(dp1
S'antagonists'
p2
c__builtin__
set
p3
((lp4
S"(91, u'\\\\bfluoxetine')"
p5
aS"(31, u'\\\\bway ?100635')"
p6
atp7
Rp8
sS'methods'
p9
g3
((lp10
S'Method.ANTAGONIST'
p11
aS'Method.AGONIST'
p12
atp13
Rp14
sS'topics'
p15
g3
((lp16
S"(6, u'\\\\bcognit')"
p17
aS"(4, u'\\\\blocomot')"
p18
atp19
Rp20
sS'receptors'
p21
g3
((lp22
S'5ht1a'
p23
atp24
Rp25
sS'regions'
p26
g3
((lp27
tp28
Rp29
sS'year'
p30
V2018
p31
sS'agonists'
p32
g3
((lp33
tp34
Rp35
sS'species'
p36
g3
((lp37
S"(5799, u'(?i)\\\\b(rodents|rodent)\\\\b')"
p38
aS"(2621, u'(?i)\\\\b(vertebrates|vertebrate)\\\\b')"
p39
aS"(1057, u'(?i)\\\\b(humans|human)\\\\b')"
p40
aS"(163, u'(?i)\\\\b(mice|mouse)\\\\b')"
p41
aS"(3196, u'(?i)\\\\b(human|humans)\\\\b')"
p42
atp43
Rp44
sb.