(ifile_types
ParseObject
p0
(dp1
S'methods'
p2
c__builtin__
set
p3
((lp4
S'Method.ANTAGONIST'
p5
atp6
Rp7
sS'topics'
p8
g3
((lp9
tp10
Rp11
sS'receptors'
p12
g3
((lp13
(S'5ht3'
p14
I1658
I1663
tp15
a(S'5ht3'
p16
I1523
I1528
tp17
a(S'5ht3'
p18
I56
I61
tp19
atp20
Rp21
sS'raw_text_methods'
p22
g3
((lp23
S"(20, u'\\\\bondansetron')"
p24
aS"(12, u'\\\\bantagonist')"
p25
aS"(10, u'\\\\bmethamphetamine')"
p26
atp27
Rp28
sS'regions'
p29
g3
((lp30
tp31
Rp32
sS'year'
p33
V2005
p34
sS'species'
p35
g3
((lp36
S"(1, u'(?i)\\\\b(mice|mouse)\\\\b')"
p37
aS"(5, u'(?i)\\\\b(mices|mice)\\\\b')"
p38
aS"(3, u'(?i)\\\\b(males|male)\\\\b')"
p39
atp40
Rp41
sb.