(ifile_types
ParseObject
p0
(dp1
S'antagonists'
p2
c__builtin__
set
p3
((lp4
tp5
Rp6
sS'methods'
p7
g3
((lp8
tp9
Rp10
sS'topics'
p11
g3
((lp12
S"(8, u'\\\\blearning')"
p13
atp14
Rp15
sS'receptors'
p16
g3
((lp17
S'5ht6'
p18
atp19
Rp20
sS'regions'
p21
g3
((lp22
S"(220, u'(?i)(striatums|striatum)')"
p23
aS"(174, u'(?i)(posteriors|posterior)')"
p24
aS"(34, u'(?i)(pon|pons)')"
p25
atp26
Rp27
sS'year'
p28
V2011
p29
sS'agonists'
p30
g3
((lp31
tp32
Rp33
sS'species'
p34
g3
((lp35
S"(1070, u'(?i)(pets|pet)')"
p36
aS"(5626, u'(?i)(posters|poster)')"
p37
aS"(5958, u'(?i)(rats|rat)')"
p38
aS"(6857, u'(?i)(ormers|ormer)')"
p39
aS"(867, u'(?i)(tits|tit)')"
p40
aS"(6753, u'(?i)(da|das)')"
p41
aS"(479, u'(?i)(lings|ling)')"
p42
aS"(5967, u'(?i)(males|male)')"
p43
aS"(1055, u'(?i)(men|man)')"
p44
aS"(3404, u'(?i)(titis|titi)')"
p45
aS"(4979, u'(?i)(cats|cat)')"
p46
aS"(6249, u'(?i)(ants|ant)')"
p47
aS"(3812, u'(?i)(studs|stud)')"
p48
aS"(7609, u'(?i)(erns|ern)')"
p49
aS"(6356, u'(?i)(ais|ai)')"
p50
atp51
Rp52
sb.