(ifile_types
ParseObject
p0
(dp1
S'methods'
p2
c__builtin__
set
p3
((lp4
S'Method.PET'
p5
atp6
Rp7
sS'topics'
p8
g3
((lp9
S"(26, u'\\\\bbehav')"
p10
atp11
Rp12
sS'receptors'
p13
g3
((lp14
(S'5ht2a'
p15
I36
I47
tp16
a(S'5ht2a'
p17
I739
I750
tp18
a(S'5ht2a'
p19
I1430
I1436
tp20
a(S'5ht2a'
p21
I762
I768
tp22
a(S'5ht2a'
p23
I936
I942
tp24
a(S'5ht2a'
p25
I1186
I1192
tp26
a(S'5ht2a'
p27
I1083
I1089
tp28
atp29
Rp30
sS'raw_text_methods'
p31
g3
((lp32
S"(1, u'\\\\bneuroimag')"
p33
aS"(17, u'\\\\bpet')"
p34
atp35
Rp36
sS'regions'
p37
g3
((lp38
S"(11, u'(?i)\\\\b(cerebrals|cerebral)\\\\b')"
p39
aS"(19, u'(?i)\\\\b(cortexes|cortex)\\\\b')"
p40
atp41
Rp42
sS'year'
p43
V2009
p44
sS'species'
p45
g3
((lp46
tp47
Rp48
sb.