(ifile_types
ParseObject
p0
(dp1
S'antagonists'
p2
c__builtin__
set
p3
((lp4
S"(128, u'\\\\bmetoclopramide')"
p5
aS"(130, u'\\\\bzacopride')"
p6
atp7
Rp8
sS'methods'
p9
g3
((lp10
S'Method.ANTAGONIST'
p11
aS'Method.AGONIST'
p12
atp13
Rp14
sS'topics'
p15
g3
((lp16
S"(5, u'\\\\bgastrointestin')"
p17
atp18
Rp19
sS'receptors'
p20
g3
((lp21
S'5ht4'
p22
aS'5ht3'
p23
aS'5ht2'
p24
aS'5ht1'
p25
atp26
Rp27
sS'regions'
p28
g3
((lp29
tp30
Rp31
sS'year'
p32
V1989
p33
sS'agonists'
p34
g3
((lp35
S"(198, u'\\\\bcisapride')"
p36
aS"(209, u'\\\\bmetoclopramide')"
p37
aS"(208, u'\\\\bzacopride')"
p38
aS"(192, u'\\\\bquipazine')"
p39
atp40
Rp41
sS'species'
p42
g3
((lp43
S"(1266, u'(?i)\\\\b(embryos|embryo)\\\\b')"
p44
aS"(163, u'(?i)\\\\b(mice|mouse)\\\\b')"
p45
atp46
Rp47
sb.