(ifile_types
ParseObject
p0
(dp1
S'antagonists'
p2
c__builtin__
set
p3
((lp4
tp5
Rp6
sS'methods'
p7
g3
((lp8
tp9
Rp10
sS'topics'
p11
g3
((lp12
S"(30, u'\\\\bparkinsons')"
p13
aS"(1, u'\\\\bmood')"
p14
atp15
Rp16
sS'receptors'
p17
g3
((lp18
S'5ht5'
p19
atp20
Rp21
sS'regions'
p22
g3
((lp23
tp24
Rp25
sS'year'
p26
V2009
p27
sS'agonists'
p28
g3
((lp29
tp30
Rp31
sS'species'
p32
g3
((lp33
S"(2568, u'(?i)(hens|hen)')"
p34
aS"(867, u'(?i)(tits|tit)')"
p35
aS"(4201, u'(?i)(kines|kine)')"
p36
aS"(6249, u'(?i)(ants|ant)')"
p37
aS"(468, u'(?i)(oxen|ox)')"
p38
aS"(1055, u'(?i)(men|man)')"
p39
aS"(3726, u'(?i)(mates|mate)')"
p40
aS"(5743, u'(?i)(bots|bot)')"
p41
aS"(5958, u'(?i)(rats|rat)')"
p42
aS"(3812, u'(?i)(studs|stud)')"
p43
aS"(5686, u'(?i)(foxes|fox)')"
p44
aS"(2809, u'(?i)(toms|tom)')"
p45
aS"(6356, u'(?i)(ais|ai)')"
p46
atp47
Rp48
sb.