(ifile_types
ParseObject
p0
(dp1
S'antagonists'
p2
c__builtin__
set
p3
((lp4
S"(53, u'\\\\bketanserin')"
p5
aS"(128, u'\\\\bketanserin')"
p6
aS"(61, u'\\\\bmdl ?100907')"
p7
atp8
Rp9
sS'methods'
p10
g3
((lp11
S'Method.ANTAGONIST'
p12
atp13
Rp14
sS'topics'
p15
g3
((lp16
tp17
Rp18
sS'receptors'
p19
g3
((lp20
S'5ht2'
p21
aS'5ht2a'
p22
atp23
Rp24
sS'regions'
p25
g3
((lp26
S"(34, u'(?i)(pon|pons)')"
p27
atp28
Rp29
sS'year'
p30
V2002
p31
sS'agonists'
p32
g3
((lp33
S"(153, u'\\\\bmdma')"
p34
atp35
Rp36
sS'species'
p37
g3
((lp38
S"(4624, u'(?i)(apes|ape)')"
p39
aS"(3592, u'(?i)(ravens|raven)')"
p40
aS"(7094, u'(?i)(curs|cur)')"
p41
aS"(6249, u'(?i)(ants|ant)')"
p42
aS"(6356, u'(?i)(ais|ai)')"
p43
aS"(6391, u'(?i)(asses|ass)')"
p44
aS"(6125, u'(?i)(females|female)')"
p45
aS"(4091, u'(?i)(adults|adult)')"
p46
aS"(5967, u'(?i)(males|male)')"
p47
aS"(468, u'(?i)(oxen|ox)')"
p48
aS"(3550, u'(?i)(anis|ani)')"
p49
aS"(2341, u'(?i)(monkeys|monkey)')"
p50
aS"(5958, u'(?i)(rats|rat)')"
p51
aS"(4598, u'(?i)(macacas|macaca)(-|\\\\s+)?(mulattas|mulatta)')"
p52
aS"(867, u'(?i)(tits|tit)')"
p53
aS"(1055, u'(?i)(men|man)')"
p54
aS"(4597, u'(?i)(rhesuses|rhesus)(-|\\\\s+)?(monkeys|monkey)')"
p55
aS"(5176, u'(?i)(tegs|teg)')"
p56
aS"(1414, u'(?i)(chars|char)')"
p57
aS"(4596, u'(?i)(rhesuses|rhesus)')"
p58
aS"(2323, u'(?i)(bees|bee)')"
p59
aS"(4964, u'(?i)(serins|serin)')"
p60
atp61
Rp62
sb.