(ifile_types
ParseObject
p0
(dp1
S'methods'
p2
c__builtin__
set
p3
((lp4
S'Method.ANTAGONIST'
p5
aS'Method.AGONIST'
p6
atp7
Rp8
sS'topics'
p9
g3
((lp10
tp11
Rp12
sS'receptors'
p13
g3
((lp14
(S'5ht1b'
p15
I683
I689
tp16
a(S'5ht1a'
p17
I83
I89
tp18
a(S'5ht1a'
p19
I1429
I1435
tp20
a(S'5ht1a'
p21
I752
I758
tp22
a(S'5ht1a'
p23
I1670
I1676
tp24
a(S'5ht1a'
p25
I532
I538
tp26
a(S'5ht1a'
p27
I672
I678
tp28
a(S'5ht1b'
p29
I1743
I1749
tp30
a(S'5ht1a'
p31
I2131
I2137
tp32
atp33
Rp34
sS'raw_text_methods'
p35
g3
((lp36
S"(13, u'\\\\bagonist')"
p37
aS"(15, u'\\\\b8ohdpat')"
p38
aS"(46, u'\\\\bspiperone')"
p39
aS"(22, u'\\\\bbuspirone')"
p40
aS"(12, u'\\\\bantagonist')"
p41
atp42
Rp43
sS'regions'
p44
g3
((lp45
tp46
Rp47
sS'year'
p48
V1996
p49
sS'species'
p50
g3
((lp51
tp52
Rp53
sb.