(ifile_types
ParseObject
p0
(dp1
S'antagonists'
p2
c__builtin__
set
p3
((lp4
tp5
Rp6
sS'methods'
p7
g3
((lp8
S'Method.AGONIST'
p9
atp10
Rp11
sS'topics'
p12
g3
((lp13
S"(29, u'\\\\bsex')"
p14
aS"(35, u'\\\\bstress')"
p15
aS"(10, u'\\\\banxiety')"
p16
atp17
Rp18
sS'receptors'
p19
g3
((lp20
S'5ht5'
p21
aS'5ht1a'
p22
atp23
Rp24
sS'regions'
p25
g3
((lp26
S"(34, u'(?i)(pon|pons)')"
p27
atp28
Rp29
sS'year'
p30
V2013
p31
sS'agonists'
p32
g3
((lp33
S"(92, u'\\\\b8 ?oh ?dpat')"
p34
atp35
Rp36
sS'species'
p37
g3
((lp38
S"(6249, u'(?i)(ants|ant)')"
p39
aS"(5958, u'(?i)(rats|rat)')"
p40
aS"(6125, u'(?i)(females|female)')"
p41
aS"(7609, u'(?i)(erns|ern)')"
p42
aS"(6753, u'(?i)(da|das)')"
p43
aS"(5967, u'(?i)(males|male)')"
p44
aS"(468, u'(?i)(oxen|ox)')"
p45
aS"(1055, u'(?i)(men|man)')"
p46
aS"(3726, u'(?i)(mates|mate)')"
p47
aS"(6580, u'(?i)(dams|dam)')"
p48
aS"(4979, u'(?i)(cats|cat)')"
p49
aS"(3550, u'(?i)(anis|ani)')"
p50
aS"(3522, u'(?i)(tetras|tetra)')"
p51
aS"(7094, u'(?i)(curs|cur)')"
p52
aS"(4371, u'(?i)(lizas|liza)')"
p53
aS"(3722, u'(?i)(pups|pup)')"
p54
aS"(6115, u'(?i)(predators|predator)')"
p55
aS"(6356, u'(?i)(ais|ai)')"
p56
aS"(1683, u'(?i)(terns|tern)')"
p57
aS"(7552, u'(?i)(bats|bat)')"
p58
atp59
Rp60
sb.