(ifile_types
ParseObject
p0
(dp1
S'methods'
p2
c__builtin__
set
p3
((lp4
S'Method.PET'
p5
aS'Method.AGONIST'
p6
atp7
Rp8
sS'topics'
p9
g3
((lp10
S"(14, u'\\\\bcogniti')"
p11
aS"(15, u'\\\\bmemory')"
p12
atp13
Rp14
sS'receptors'
p15
g3
((lp16
(S'5ht1a'
p17
I490
I496
tp18
atp19
Rp20
sS'raw_text_methods'
p21
g3
((lp22
S"(13, u'\\\\bagonist')"
p23
aS"(17, u'\\\\bpet')"
p24
aS"(19, u'\\\\bpositron emission tomography')"
p25
aS"(22, u'\\\\bbuspirone')"
p26
atp27
Rp28
sS'regions'
p29
g3
((lp30
S"(11, u'(?i)\\\\b(cerebrals|cerebral)\\\\b')"
p31
aS"(19, u'(?i)\\\\b(cortexes|cortex)\\\\b')"
p32
aS"(20, u'(?i)\\\\b(prefrontals|prefrontal)\\\\b')"
p33
atp34
Rp35
sS'year'
p36
V1992
p37
sS'species'
p38
g3
((lp39
tp40
Rp41
sb.