(ifile_types
ParseObject
p0
(dp1
S'antagonists'
p2
c__builtin__
set
p3
((lp4
S"(23, u'\\\\brisperidone')"
p5
aS"(36, u'\\\\baripiprazole')"
p6
aS"(56, u'\\\\bclozapine')"
p7
aS"(57, u'\\\\bolanzapine')"
p8
aS"(141, u'\\\\bzacopride')"
p9
aS"(139, u'\\\\bmetoclopramide')"
p10
aS"(125, u'\\\\bquetiapine')"
p11
aS"(117, u'\\\\bmianserin')"
p12
aS"(124, u'\\\\bolanzapine')"
p13
aS"(82, u'\\\\bamisulpride')"
p14
aS"(59, u'\\\\brisperidone')"
p15
aS"(68, u'\\\\bchlorpromazine')"
p16
aS"(58, u'\\\\bquetiapine')"
p17
aS"(114, u'\\\\bimipramine')"
p18
aS"(123, u'\\\\bclozapine')"
p19
atp20
Rp21
sS'methods'
p22
g3
((lp23
tp24
Rp25
sS'topics'
p26
g3
((lp27
S"(15, u'\\\\bschizophreni')"
p28
aS"(11, u'\\\\banxiolyt')"
p29
atp30
Rp31
sS'receptors'
p32
g3
((lp33
S'5ht7'
p34
aS'5ht5'
p35
atp36
Rp37
sS'regions'
p38
g3
((lp39
S"(34, u'(?i)(pon|pons)')"
p40
atp41
Rp42
sS'year'
p43
V2017
p44
sS'agonists'
p45
g3
((lp46
S"(16, u'\\\\baripiprazole')"
p47
aS"(214, u'\\\\bsulpiride')"
p48
aS"(213, u'\\\\bmetoclopramide')"
p49
aS"(27, u'\\\\bclozapine')"
p50
aS"(71, u'\\\\bquetiapine')"
p51
aS"(64, u'\\\\bolanzapine')"
p52
aS"(212, u'\\\\bzacopride')"
p53
atp54
Rp55
sS'species'
p56
g3
((lp57
S"(2323, u'(?i)(bees|bee)')"
p58
aS"(5967, u'(?i)(males|male)')"
p59
aS"(6753, u'(?i)(da|das)')"
p60
aS"(2568, u'(?i)(hens|hen)')"
p61
aS"(6356, u'(?i)(ais|ai)')"
p62
aS"(163, u'(?i)(mice|mouse)')"
p63
aS"(4091, u'(?i)(adults|adult)')"
p64
aS"(4371, u'(?i)(lizas|liza)')"
p65
aS"(468, u'(?i)(oxen|ox)')"
p66
aS"(1349, u'(?i)(rams|ram)')"
p67
aS"(6249, u'(?i)(ants|ant)')"
p68
aS"(853, u'(?i)(minas|mina)')"
p69
aS"(7094, u'(?i)(curs|cur)')"
p70
aS"(5958, u'(?i)(rats|rat)')"
p71
aS"(3426, u'(?i)(hares|hare)')"
p72
aS"(1961, u'(?i)(pens|pen)')"
p73
aS"(3812, u'(?i)(studs|stud)')"
p74
aS"(6391, u'(?i)(asses|ass)')"
p75
aS"(4979, u'(?i)(cats|cat)')"
p76
aS"(4964, u'(?i)(serins|serin)')"
p77
atp78
Rp79
sb.