(ifile_types
ParseObject
p0
(dp1
S'antagonists'
p2
c__builtin__
set
p3
((lp4
tp5
Rp6
sS'methods'
p7
g3
((lp8
S'Method.ANTAGONIST'
p9
aS'Method.AGONIST'
p10
atp11
Rp12
sS'topics'
p13
g3
((lp14
S"(15, u'\\\\bschizophreni')"
p15
aS"(9, u'\\\\bdepress')"
p16
aS"(1, u'\\\\bmood')"
p17
aS"(35, u'\\\\bstress')"
p18
aS"(6, u'\\\\bcognit')"
p19
aS"(10, u'\\\\banxiety')"
p20
atp21
Rp22
sS'receptors'
p23
g3
((lp24
S'5ht2a'
p25
atp26
Rp27
sS'regions'
p28
g3
((lp29
S"(254, u'(?i)(prefrontals|prefrontal)(-|\\\\s+)?(cortexes|cortex)')"
p30
aS"(255, u'(?i)(pres|pre)(-|\\\\s+)?(frontals|frontal)(-|\\\\s+)?(cortexes|cortex)')"
p31
aS"(34, u'(?i)(pon|pons)')"
p32
atp33
Rp34
sS'year'
p35
V2013
p36
sS'agonists'
p37
g3
((lp38
tp39
Rp40
sS'species'
p41
g3
((lp42
S"(2323, u'(?i)(bees|bee)')"
p43
aS"(5958, u'(?i)(rats|rat)')"
p44
aS"(6753, u'(?i)(da|das)')"
p45
aS"(479, u'(?i)(lings|ling)')"
p46
aS"(1055, u'(?i)(men|man)')"
p47
aS"(6249, u'(?i)(ants|ant)')"
p48
aS"(6356, u'(?i)(ais|ai)')"
p49
aS"(3550, u'(?i)(anis|ani)')"
p50
aS"(1057, u'(?i)(humans|human)')"
p51
aS"(5229, u'(?i)(moles|mole)')"
p52
aS"(6391, u'(?i)(asses|ass)')"
p53
aS"(3812, u'(?i)(studs|stud)')"
p54
aS"(3196, u'(?i)(human|humans)')"
p55
atp56
Rp57
sb.