(ifile_types
ParseObject
p0
(dp1
S'antagonists'
p2
c__builtin__
set
p3
((lp4
tp5
Rp6
sS'methods'
p7
g3
((lp8
tp9
Rp10
sS'topics'
p11
g3
((lp12
tp13
Rp14
sS'receptors'
p15
g3
((lp16
S'5ht1a'
p17
aS'5ht3'
p18
aS'5ht2'
p19
aS'5ht1'
p20
aS'5ht5'
p21
aS'5ht4a'
p22
atp23
Rp24
sS'regions'
p25
g3
((lp26
tp27
Rp28
sS'year'
p29
V2011
p30
sS'agonists'
p31
g3
((lp32
S"(92, u'\\\\b8 ?oh ?dpat')"
p33
aS"(155, u'\\\\bmem')"
p34
atp35
Rp36
sS'species'
p37
g3
((lp38
S"(1070, u'(?i)(pets|pet)')"
p39
aS"(4163, u'(?i)(ermines|ermine)')"
p40
aS"(6249, u'(?i)(ants|ant)')"
p41
aS"(867, u'(?i)(tits|tit)')"
p42
aS"(4964, u'(?i)(serins|serin)')"
p43
aS"(6753, u'(?i)(da|das)')"
p44
aS"(479, u'(?i)(lings|ling)')"
p45
aS"(468, u'(?i)(oxen|ox)')"
p46
aS"(1055, u'(?i)(men|man)')"
p47
aS"(3404, u'(?i)(titis|titi)')"
p48
aS"(3812, u'(?i)(studs|stud)')"
p49
aS"(1961, u'(?i)(pens|pen)')"
p50
aS"(1414, u'(?i)(chars|char)')"
p51
aS"(6391, u'(?i)(asses|ass)')"
p52
aS"(6356, u'(?i)(ais|ai)')"
p53
atp54
Rp55
sb.