(ifile_types
ParseObject
p0
(dp1
S'methods'
p2
c__builtin__
set
p3
((lp4
S'Method.AGONIST'
p5
atp6
Rp7
sS'topics'
p8
g3
((lp9
S"(24, u'\\\\banxiolytic')"
p10
aS"(8, u'\\\\banxi')"
p11
atp12
Rp13
sS'receptors'
p14
g3
((lp15
(S'5ht1a'
p16
I1557
I1563
tp17
a(S'5ht1a'
p18
I1408
I1414
tp19
a(S'5ht1a'
p20
I262
I268
tp21
atp22
Rp23
sS'raw_text_methods'
p24
g3
((lp25
S"(13, u'\\\\bagonist')"
p26
aS"(22, u'\\\\bbuspirone')"
p27
atp28
Rp29
sS'regions'
p30
g3
((lp31
tp32
Rp33
sS'year'
p34
V1989
p35
sS'species'
p36
g3
((lp37
S"(4, u'(?i)\\\\b(rats|rat)\\\\b')"
p38
atp39
Rp40
sb.