(ifile_types
ParseObject
p0
(dp1
S'methods'
p2
c__builtin__
set
p3
((lp4
S'Method.ANTAGONIST'
p5
aS'Method.AGONIST'
p6
atp7
Rp8
sS'topics'
p9
g3
((lp10
S"(26, u'\\\\bbehav')"
p11
atp12
Rp13
sS'receptors'
p14
g3
((lp15
(S'5ht2c'
p16
I877
I885
tp17
a(S'5ht2a'
p18
I877
I883
tp19
atp20
Rp21
sS'raw_text_methods'
p22
g3
((lp23
S"(13, u'\\\\bagonist')"
p24
aS"(49, u'\\\\bdoi')"
p25
aS"(12, u'\\\\bantagonist')"
p26
atp27
Rp28
sS'regions'
p29
g3
((lp30
tp31
Rp32
sS'year'
p33
V2001
p34
sS'species'
p35
g3
((lp36
S"(1, u'(?i)\\\\b(mice|mouse)\\\\b')"
p37
aS"(6, u'(?i)\\\\b(rodents|rodent)\\\\b')"
p38
atp39
Rp40
sb.