(ifile_types
ParseObject
p0
(dp1
S'methods'
p2
c__builtin__
set
p3
((lp4
tp5
Rp6
sS'topics'
p7
g3
((lp8
S"(26, u'\\\\bbehav')"
p9
aS"(7, u'\\\\bdepressi')"
p10
aS"(9, u'\\\\bstress')"
p11
atp12
Rp13
sS'receptors'
p14
g3
((lp15
(S'5ht2'
p16
I1194
I1199
tp17
a(S'5ht1a'
p18
I658
I664
tp19
a(S'5ht1a'
p20
I1094
I1100
tp21
a(S'5ht1a'
p22
I786
I792
tp23
a(S'5ht2'
p24
I607
I612
tp25
a(S'5ht2'
p26
I996
I1001
tp27
a(S'5ht2'
p28
I742
I747
tp29
atp30
Rp31
sS'raw_text_methods'
p32
g3
((lp33
tp34
Rp35
sS'regions'
p36
g3
((lp37
tp38
Rp39
sS'year'
p40
V1995
p41
sS'species'
p42
g3
((lp43
S"(4, u'(?i)\\\\b(rats|rat)\\\\b')"
p44
atp45
Rp46
sb.