(ifile_types
ParseObject
p0
(dp1
S'antagonists'
p2
c__builtin__
set
p3
((lp4
tp5
Rp6
sS'methods'
p7
g3
((lp8
S'Method.ANTAGONIST'
p9
aS'Method.AGONIST'
p10
atp11
Rp12
sS'topics'
p13
g3
((lp14
tp15
Rp16
sS'receptors'
p17
g3
((lp18
S'5ht5'
p19
aS'5ht2c'
p20
atp21
Rp22
sS'regions'
p23
g3
((lp24
S"(34, u'(?i)(pon|pons)')"
p25
atp26
Rp27
sS'year'
p28
V1999
p29
sS'agonists'
p30
g3
((lp31
tp32
Rp33
sS'species'
p34
g3
((lp35
S"(5958, u'(?i)(rats|rat)')"
p36
aS"(7609, u'(?i)(erns|ern)')"
p37
aS"(6753, u'(?i)(da|das)')"
p38
aS"(479, u'(?i)(lings|ling)')"
p39
aS"(1055, u'(?i)(men|man)')"
p40
aS"(6249, u'(?i)(ants|ant)')"
p41
aS"(5743, u'(?i)(bots|bot)')"
p42
aS"(3550, u'(?i)(anis|ani)')"
p43
aS"(1057, u'(?i)(humans|human)')"
p44
aS"(6356, u'(?i)(ais|ai)')"
p45
aS"(3196, u'(?i)(human|humans)')"
p46
aS"(1628, u'(?i)(cod|cod)')"
p47
aS"(1683, u'(?i)(terns|tern)')"
p48
atp49
Rp50
sb.