(ifile_types
ParseObject
p0
(dp1
S'methods'
p2
c__builtin__
set
p3
((lp4
tp5
Rp6
sS'topics'
p7
g3
((lp8
S"(1, u'\\\\bpatient')"
p9
aS"(17, u'\\\\balzheimer')"
p10
atp11
Rp12
sS'receptors'
p13
g3
((lp14
(S'5ht1b'
p15
I810
I816
tp16
a(S'5ht2'
p17
I1400
I1405
tp18
a(S'5ht2a'
p19
I998
I1004
tp20
a(S'5ht2a'
p21
I1111
I1117
tp22
a(S'5ht2'
p23
I1347
I1352
tp24
atp25
Rp26
sS'raw_text_methods'
p27
g3
((lp28
tp29
Rp30
sS'regions'
p31
g3
((lp32
S"(4, u'(?i)\\\\b(presynaptics|presynaptic)\\\\b')"
p33
aS"(7, u'(?i)\\\\b(entorhinals|entorhinal)\\\\b')"
p34
atp35
Rp36
sS'year'
p37
V1996
p38
sS'species'
p39
g3
((lp40
S"(4, u'(?i)\\\\b(rats|rat)\\\\b')"
p41
atp42
Rp43
sb.