(ifile_types
ParseObject
p0
(dp1
S'methods'
p2
c__builtin__
set
p3
((lp4
tp5
Rp6
sS'topics'
p7
g3
((lp8
S"(35, u'\\\\bnocicept')"
p9
atp10
Rp11
sS'receptors'
p12
g3
((lp13
(S'5ht7'
p14
I1208
I1213
tp15
a(S'5ht7'
p16
I1044
I1049
tp17
a(S'5ht5a'
p18
I622
I628
tp19
a(S'5ht7'
p20
I634
I639
tp21
a(S'5ht2c'
p22
I614
I620
tp23
a(S'5ht2c'
p24
I1181
I1187
tp25
a(S'5ht5a'
p26
I72
I78
tp27
a(S'5ht5'
p28
I72
I78
tp29
a(S'5ht7'
p30
I84
I89
tp31
a(S'5ht2c'
p32
I64
I70
tp33
a(S'5ht5a'
p34
I1197
I1203
tp35
a(S'5ht2c'
p36
I750
I756
tp37
a(S'5ht5a'
p38
I907
I913
tp39
a(S'5ht5'
p40
I622
I628
tp41
atp42
Rp43
sS'raw_text_methods'
p44
g3
((lp45
S"(3, u'\\\\bimmunoreactiv')"
p46
atp47
Rp48
sS'regions'
p49
g3
((lp50
tp51
Rp52
sS'year'
p53
V2006
p54
sS'species'
p55
g3
((lp56
S"(4, u'(?i)\\\\b(rats|rat)\\\\b')"
p57
atp58
Rp59
sb.