(ifile_types
ParseObject
p0
(dp1
S'methods'
p2
c__builtin__
set
p3
((lp4
S'Method.PET'
p5
atp6
Rp7
sS'topics'
p8
g3
((lp9
S"(14, u'\\\\bcogniti')"
p10
aS"(5, u'\\\\btherap')"
p11
aS"(26, u'\\\\bbehav')"
p12
aS"(25, u'\\\\bsocial')"
p13
aS"(3, u'\\\\bclinical')"
p14
atp15
Rp16
sS'receptors'
p17
g3
((lp18
(S'5ht2'
p19
I1803
I1813
tp20
a(S'5ht2'
p21
I881
I891
tp22
a(S'5ht2'
p23
I1160
I1170
tp24
atp25
Rp26
sS'raw_text_methods'
p27
g3
((lp28
S"(19, u'\\\\bpositron emission tomography')"
p29
aS"(48, u'\\\\bmdma')"
p30
atp31
Rp32
sS'regions'
p33
g3
((lp34
S"(11, u'(?i)\\\\b(cerebrals|cerebral)\\\\b')"
p35
atp36
Rp37
sS'year'
p38
V2019
p39
sS'species'
p40
g3
((lp41
tp42
Rp43
sb.