(ifile_types
ParseObject
p0
(dp1
S'methods'
p2
c__builtin__
set
p3
((lp4
tp5
Rp6
sS'topics'
p7
g3
((lp8
S"(30, u'\\\\bpain')"
p9
aS"(13, u'\\\\bantidepress')"
p10
aS"(4, u'\\\\btreatment')"
p11
atp12
Rp13
sS'receptors'
p14
g3
((lp15
(S'5ht1d'
p16
I500
I506
tp17
a(S'5ht3'
p18
I721
I726
tp19
a(S'5ht5'
p20
I314
I324
tp21
a(S'5ht1b'
p22
I683
I689
tp23
a(S'5ht1b'
p24
I761
I767
tp25
a(S'5ht3'
p26
I925
I930
tp27
a(S'5ht1d'
p28
I691
I697
tp29
a(S'5ht3'
p30
I1410
I1415
tp31
a(S'5ht1b'
p32
I492
I498
tp33
a(S'5ht3'
p34
I511
I516
tp35
a(S'5ht3'
p36
I1199
I1204
tp37
a(S'5ht4'
p38
I728
I733
tp39
atp40
Rp41
sS'raw_text_methods'
p42
g3
((lp43
tp44
Rp45
sS'regions'
p46
g3
((lp47
S"(4, u'(?i)\\\\b(presynaptics|presynaptic)\\\\b')"
p48
atp49
Rp50
sS'year'
p51
V2020
p52
sS'species'
p53
g3
((lp54
tp55
Rp56
sb.