(ifile_types
ParseObject
p0
(dp1
S'methods'
p2
c__builtin__
set
p3
((lp4
S'Method.ANTAGONIST'
p5
atp6
Rp7
sS'topics'
p8
g3
((lp9
S"(13, u'\\\\bantidepress')"
p10
aS"(7, u'\\\\bdepressi')"
p11
aS"(5, u'\\\\btherap')"
p12
aS"(1, u'\\\\bpatient')"
p13
aS"(4, u'\\\\btreatment')"
p14
aS"(3, u'\\\\bclinical')"
p15
atp16
Rp17
sS'receptors'
p18
g3
((lp19
tp20
Rp21
sS'raw_text_methods'
p22
g3
((lp23
S"(38, u'\\\\bssri')"
p24
aS"(39, u'\\\\bselective serotonin reuptake inhibitor')"
p25
aS"(12, u'\\\\bantagonist')"
p26
atp27
Rp28
sS'regions'
p29
g3
((lp30
tp31
Rp32
sS'year'
p33
V2007
p34
sS'species'
p35
g3
((lp36
tp37
Rp38
sb.