(ifile_types
ParseObject
p0
(dp1
S'methods'
p2
c__builtin__
set
p3
((lp4
S'Method.ANTAGONIST'
p5
aS'Method.AGONIST'
p6
atp7
Rp8
sS'topics'
p9
g3
((lp10
S"(31, u'\\\\brespiratory')"
p11
aS"(1, u'\\\\bpatient')"
p12
aS"(26, u'\\\\bbehav')"
p13
atp14
Rp15
sS'receptors'
p16
g3
((lp17
(S'5ht7'
p18
I761
I766
tp19
atp20
Rp21
sS'raw_text_methods'
p22
g3
((lp23
S"(13, u'\\\\bagonist')"
p24
aS"(38, u'\\\\bssri')"
p25
aS"(12, u'\\\\bantagonist')"
p26
atp27
Rp28
sS'regions'
p29
g3
((lp30
tp31
Rp32
sS'year'
p33
V2014
p34
sS'species'
p35
g3
((lp36
S"(1, u'(?i)\\\\b(mice|mouse)\\\\b')"
p37
aS"(5, u'(?i)\\\\b(mices|mice)\\\\b')"
p38
atp39
Rp40
sb.