(ifile_types
ParseObject
p0
(dp1
S'antagonists'
p2
c__builtin__
set
p3
((lp4
tp5
Rp6
sS'methods'
p7
g3
((lp8
S'Method.AGONIST'
p9
atp10
Rp11
sS'topics'
p12
g3
((lp13
S"(9, u'\\\\bdepress')"
p14
atp15
Rp16
sS'receptors'
p17
g3
((lp18
S'5ht1a'
p19
aS'5ht2'
p20
atp21
Rp22
sS'regions'
p23
g3
((lp24
S"(178, u'(?i)(laterals|lateral)(-|\\\\s+)?(nuclei|nucleus)')"
p25
aS"(174, u'(?i)(posteriors|posterior)')"
p26
aS"(77, u'(?i)(cerebellars|cerebellar)(-|\\\\s+)?(nuclei|nucleus)')"
p27
aS"(34, u'(?i)(pon|pons)')"
p28
atp29
Rp30
sS'year'
p31
V2003
p32
sS'agonists'
p33
g3
((lp34
tp35
Rp36
sS'species'
p37
g3
((lp38
S"(5626, u'(?i)(posters|poster)')"
p39
aS"(5958, u'(?i)(rats|rat)')"
p40
aS"(1049, u'(?i)(elands|eland)')"
p41
aS"(6682, u'(?i)(tera|teras)')"
p42
aS"(468, u'(?i)(oxen|ox)')"
p43
aS"(4979, u'(?i)(cats|cat)')"
p44
aS"(6249, u'(?i)(ants|ant)')"
p45
aS"(3812, u'(?i)(studs|stud)')"
p46
atp47
Rp48
sb.