(ifile_types
ParseObject
p0
(dp1
S'antagonists'
p2
c__builtin__
set
p3
((lp4
S"(43, u'\\\\bbrl ?15572')"
p5
aS"(39, u'\\\\bsb ?224289')"
p6
atp7
Rp8
sS'methods'
p9
g3
((lp10
S'Method.STIMULATION'
p11
aS'Method.ANTAGONIST'
p12
aS'Method.AGONIST'
p13
atp14
Rp15
sS'topics'
p16
g3
((lp17
tp18
Rp19
sS'receptors'
p20
g3
((lp21
S'5ht1b'
p22
aS'5ht1'
p23
aS'5ht1d'
p24
atp25
Rp26
sS'regions'
p27
g3
((lp28
S"(374, u'(?i)(duras|dura)(-|\\\\s+)?(maters|mater)')"
p29
aS"(34, u'(?i)(pon|pons)')"
p30
atp31
Rp32
sS'year'
p33
V2002
p34
sS'agonists'
p35
g3
((lp36
tp37
Rp38
sS'species'
p39
g3
((lp40
S"(6753, u'(?i)(da|das)')"
p41
aS"(5958, u'(?i)(rats|rat)')"
p42
aS"(853, u'(?i)(minas|mina)')"
p43
aS"(3592, u'(?i)(ravens|raven)')"
p44
aS"(3726, u'(?i)(mates|mate)')"
p45
aS"(5743, u'(?i)(bots|bot)')"
p46
aS"(6249, u'(?i)(ants|ant)')"
p47
aS"(7094, u'(?i)(curs|cur)')"
p48
aS"(6356, u'(?i)(ais|ai)')"
p49
aS"(7082, u'(?i)(sagittas|sagitta)')"
p50
aS"(4979, u'(?i)(cats|cat)')"
p51
atp52
Rp53
sb.