(ifile_types
ParseObject
p0
(dp1
S'antagonists'
p2
c__builtin__
set
p3
((lp4
S"(36, u'\\\\baripiprazole')"
p5
atp6
Rp7
sS'methods'
p8
g3
((lp9
S'Method.ANTAGONIST'
p10
aS'Method.AGONIST'
p11
atp12
Rp13
sS'topics'
p14
g3
((lp15
S"(9, u'\\\\bdepress')"
p16
aS"(35, u'\\\\bstress')"
p17
atp18
Rp19
sS'receptors'
p20
g3
((lp21
S'5ht7'
p22
aS'5ht6'
p23
aS'5ht5'
p24
aS'5ht2c'
p25
aS'5ht2a'
p26
aS'5ht1a'
p27
atp28
Rp29
sS'regions'
p30
g3
((lp31
S"(314, u'(?i)(mesocorticals|mesocortical)(-|\\\\s+)?(pathways|pathway)')"
p32
aS"(34, u'(?i)(pon|pons)')"
p33
atp34
Rp35
sS'year'
p36
V2014
p37
sS'agonists'
p38
g3
((lp39
S"(16, u'\\\\baripiprazole')"
p40
atp41
Rp42
sS'species'
p43
g3
((lp44
S"(2323, u'(?i)(bees|bee)')"
p45
aS"(2670, u'(?i)(arabs|arab)')"
p46
aS"(5958, u'(?i)(rats|rat)')"
p47
aS"(5967, u'(?i)(males|male)')"
p48
aS"(1055, u'(?i)(men|man)')"
p49
aS"(1349, u'(?i)(rams|ram)')"
p50
aS"(4518, u'(?i)(makoes|mako)')"
p51
aS"(6356, u'(?i)(ais|ai)')"
p52
aS"(6249, u'(?i)(ants|ant)')"
p53
aS"(3812, u'(?i)(studs|stud)')"
p54
aS"(4074, u'(?i)(bulls|bull)')"
p55
atp56
Rp57
sb.