(ifile_types
ParseObject
p0
(dp1
S'methods'
p2
c__builtin__
set
p3
((lp4
S'Method.PET'
p5
aS'Method.ANTAGONIST'
p6
atp7
Rp8
sS'topics'
p9
g3
((lp10
S"(26, u'\\\\bbehav')"
p11
atp12
Rp13
sS'receptors'
p14
g3
((lp15
(S'5ht2a'
p16
I1258
I1263
tp17
atp18
Rp19
sS'raw_text_methods'
p20
g3
((lp21
S"(1, u'\\\\bneuroimag')"
p22
aS"(11, u'\\\\bfluoxetine')"
p23
aS"(50, u'\\\\bm100907')"
p24
aS"(48, u'\\\\bmdma')"
p25
aS"(19, u'\\\\bpositron emission tomography')"
p26
aS"(12, u'\\\\bantagonist')"
p27
atp28
Rp29
sS'regions'
p30
g3
((lp31
S"(17, u'(?i)\\\\b(caudates|caudate)\\\\b')"
p32
atp33
Rp34
sS'year'
p35
V2009
p36
sS'species'
p37
g3
((lp38
S"(8, u'(?i)\\\\b(primates|primate)\\\\b')"
p39
atp40
Rp41
sb.