(ifile_types
ParseObject
p0
(dp1
S'antagonists'
p2
c__builtin__
set
p3
((lp4
tp5
Rp6
sS'methods'
p7
g3
((lp8
S'Method.AGONIST'
p9
atp10
Rp11
sS'topics'
p12
g3
((lp13
S"(33, u'\\\\balzheimers')"
p14
atp15
Rp16
sS'receptors'
p17
g3
((lp18
S'5ht7'
p19
aS'5ht6'
p20
aS'5ht5'
p21
aS'5ht4'
p22
aS'5ht6a'
p23
atp24
Rp25
sS'regions'
p26
g3
((lp27
S"(389, u'(?i)(cerebrospinals|cerebrospinal)(-|\\\\s+)?(fluids|fluid)')"
p28
aS"(34, u'(?i)(pon|pons)')"
p29
atp30
Rp31
sS'year'
p32
V2016
p33
sS'agonists'
p34
g3
((lp35
tp36
Rp37
sS'species'
p38
g3
((lp39
S"(3404, u'(?i)(titis|titi)')"
p40
aS"(4404, u'(?i)(duns|dun)')"
p41
aS"(5958, u'(?i)(rats|rat)')"
p42
aS"(4657, u'(?i)(fish|fish)')"
p43
aS"(867, u'(?i)(tits|tit)')"
p44
aS"(163, u'(?i)(mice|mouse)')"
p45
aS"(6753, u'(?i)(da|das)')"
p46
aS"(479, u'(?i)(lings|ling)')"
p47
aS"(1349, u'(?i)(rams|ram)')"
p48
aS"(1055, u'(?i)(men|man)')"
p49
aS"(6356, u'(?i)(ais|ai)')"
p50
aS"(6249, u'(?i)(ants|ant)')"
p51
aS"(1057, u'(?i)(humans|human)')"
p52
aS"(5229, u'(?i)(moles|mole)')"
p53
aS"(1961, u'(?i)(pens|pen)')"
p54
aS"(3812, u'(?i)(studs|stud)')"
p55
aS"(3196, u'(?i)(human|humans)')"
p56
aS"(3503, u'(?i)(fishers|fisher)')"
p57
aS"(7058, u'(?i)(does|doe)')"
p58
atp59
Rp60
sb.