(ifile_types
ParseObject
p0
(dp1
S'antagonists'
p2
c__builtin__
set
p3
((lp4
S"(67, u'\\\\bhaloperidol')"
p5
atp6
Rp7
sS'methods'
p8
g3
((lp9
S'Method.AGONIST'
p10
atp11
Rp12
sS'topics'
p13
g3
((lp14
S"(17, u'\\\\bgroom')"
p15
aS"(35, u'\\\\bstress')"
p16
atp17
Rp18
sS'receptors'
p19
g3
((lp20
S'5ht1a'
p21
atp22
Rp23
sS'regions'
p24
g3
((lp25
S"(34, u'(?i)(pon|pons)')"
p26
atp27
Rp28
sS'year'
p29
V1997
p30
sS'agonists'
p31
g3
((lp32
S"(92, u'\\\\b8 ?oh ?dpat')"
p33
aS"(48, u'\\\\bhaloperidol')"
p34
atp35
Rp36
sS'species'
p37
g3
((lp38
S"(5958, u'(?i)(rats|rat)')"
p39
aS"(6753, u'(?i)(da|das)')"
p40
aS"(1055, u'(?i)(men|man)')"
p41
aS"(4979, u'(?i)(cats|cat)')"
p42
aS"(3812, u'(?i)(studs|stud)')"
p43
aS"(6356, u'(?i)(ais|ai)')"
p44
atp45
Rp46
sb.