(ifile_types
ParseObject
p0
(dp1
S'methods'
p2
c__builtin__
set
p3
((lp4
S'Method.ANTAGONIST'
p5
aS'Method.AGONIST'
p6
atp7
Rp8
sS'topics'
p9
g3
((lp10
S"(26, u'\\\\bbehav')"
p11
atp12
Rp13
sS'receptors'
p14
g3
((lp15
(S'5ht1a'
p16
I81
I87
tp17
a(S'5ht1a'
p18
I1779
I1785
tp19
a(S'5ht1a'
p20
I919
I925
tp21
a(S'5ht1a'
p22
I714
I720
tp23
a(S'5ht1a'
p24
I1574
I1580
tp25
a(S'5ht1a'
p26
I547
I553
tp27
atp28
Rp29
sS'raw_text_methods'
p30
g3
((lp31
S"(13, u'\\\\bagonist')"
p32
aS"(15, u'\\\\b8ohdpat')"
p33
aS"(12, u'\\\\bantagonist')"
p34
atp35
Rp36
sS'regions'
p37
g3
((lp38
S"(4, u'(?i)\\\\b(presynaptics|presynaptic)\\\\b')"
p39
aS"(3, u'(?i)\\\\b(postsynaptics|postsynaptic)\\\\b')"
p40
atp41
Rp42
sS'year'
p43
V1997
p44
sS'species'
p45
g3
((lp46
S"(4, u'(?i)\\\\b(rats|rat)\\\\b')"
p47
atp48
Rp49
sb.