(ifile_types
ParseObject
p0
(dp1
S'antagonists'
p2
c__builtin__
set
p3
((lp4
S"(53, u'\\\\bketanserin')"
p5
aS"(128, u'\\\\bketanserin')"
p6
aS"(39, u'\\\\bsb ?224289')"
p7
atp8
Rp9
sS'methods'
p10
g3
((lp11
S'Method.ANTAGONIST'
p12
aS'Method.AGONIST'
p13
atp14
Rp15
sS'topics'
p16
g3
((lp17
tp18
Rp19
sS'receptors'
p20
g3
((lp21
S'5ht1b'
p22
aS'5ht1a'
p23
aS'5ht1f'
p24
aS'5ht1e'
p25
aS'5ht2a'
p26
aS'5ht1d'
p27
atp28
Rp29
sS'regions'
p30
g3
((lp31
S"(88, u'(?i)(superiors|superior)(-|\\\\s+)?(colliculis|colliculi)')"
p32
aS"(103, u'(?i)(substantias|substantia)(-|\\\\s+)?(nigras|nigra)')"
p33
aS"(34, u'(?i)(pon|pons)')"
p34
atp35
Rp36
sS'year'
p37
V1999
p38
sS'agonists'
p39
g3
((lp40
S"(103, u'\\\\bsumatriptan')"
p41
atp42
Rp43
sS'species'
p44
g3
((lp45
S"(5537, u'(?i)(hippos|hippo)')"
p46
aS"(4177, u'(?i)(grays|gray)')"
p47
aS"(5958, u'(?i)(rats|rat)')"
p48
aS"(867, u'(?i)(tits|tit)')"
p49
aS"(5743, u'(?i)(bots|bot)')"
p50
aS"(479, u'(?i)(lings|ling)')"
p51
aS"(3051, u'(?i)(pigs|pig)')"
p52
aS"(3152, u'(?i)(layers|layer)')"
p53
aS"(3062, u'(?i)(guineas|guinea)')"
p54
aS"(1055, u'(?i)(men|man)')"
p55
aS"(4964, u'(?i)(serins|serin)')"
p56
aS"(6249, u'(?i)(ants|ant)')"
p57
aS"(5917, u'(?i)(roaches|roach)')"
p58
aS"(3812, u'(?i)(studs|stud)')"
p59
aS"(6391, u'(?i)(asses|ass)')"
p60
aS"(4480, u'(?i)(guineas|guinea)(-|\\\\s+)?(pigs|pig)')"
p61
aS"(2665, u'(?i)(rays|ray)')"
p62
aS"(6356, u'(?i)(ais|ai)')"
p63
atp64
Rp65
sb.