(ifile_types
ParseObject
p0
(dp1
S'methods'
p2
c__builtin__
set
p3
((lp4
S'Method.ANTAGONIST'
p5
aS'Method.AGONIST'
p6
atp7
Rp8
sS'topics'
p9
g3
((lp10
tp11
Rp12
sS'receptors'
p13
g3
((lp14
(S'5ht7'
p15
I1217
I1223
tp16
a(S'5ht1'
p17
I1444
I1448
tp18
a(S'5ht1a'
p19
I1034
I1040
tp20
a(S'5ht2'
p21
I1217
I1222
tp22
a(S'5ht1'
p23
I901
I906
tp24
a(S'5ht1a'
p25
I1078
I1084
tp26
a(S'5ht1a'
p27
I1167
I1173
tp28
a(S'5ht2'
p29
I901
I907
tp30
a(S'5ht2'
p31
I1444
I1449
tp32
a(S'5ht1a'
p33
I943
I949
tp34
atp35
Rp36
sS'raw_text_methods'
p37
g3
((lp38
S"(13, u'\\\\bagonist')"
p39
aS"(9, u'\\\\britanserin')"
p40
aS"(45, u'\\\\bmetergoline')"
p41
aS"(12, u'\\\\bantagonist')"
p42
atp43
Rp44
sS'regions'
p45
g3
((lp46
S"(3, u'(?i)\\\\b(postsynaptics|postsynaptic)\\\\b')"
p47
atp48
Rp49
sS'year'
p50
V1998
p51
sS'species'
p52
g3
((lp53
S"(6, u'(?i)\\\\b(rodents|rodent)\\\\b')"
p54
atp55
Rp56
sb.