(ifile_types
ParseObject
p0
(dp1
S'methods'
p2
c__builtin__
set
p3
((lp4
S'Method.ANTAGONIST'
p5
atp6
Rp7
sS'topics'
p8
g3
((lp9
tp10
Rp11
sS'receptors'
p12
g3
((lp13
(S'5ht1d'
p14
I707
I714
tp15
a(S'5ht1b'
p16
I707
I713
tp17
a(S'5ht1d'
p18
I1623
I1630
tp19
a(S'5ht1d'
p20
I106
I113
tp21
a(S'5ht1b'
p22
I1623
I1629
tp23
a(S'5ht1b'
p24
I1488
I1493
tp25
a(S'5ht1d'
p26
I510
I516
tp27
a(S'5ht1b'
p28
I106
I112
tp29
a(S'5ht1b'
p30
I510
I515
tp31
a(S'5ht1d'
p32
I1488
I1494
tp33
atp34
Rp35
sS'raw_text_methods'
p36
g3
((lp37
S"(4, u'\\\\bpcpa')"
p38
aS"(47, u'\\\\bsumatriptan')"
p39
aS"(12, u'\\\\bantagonist')"
p40
atp41
Rp42
sS'regions'
p43
g3
((lp44
tp45
Rp46
sS'year'
p47
V2018
p48
sS'species'
p49
g3
((lp50
S"(1, u'(?i)\\\\b(mice|mouse)\\\\b')"
p51
aS"(5, u'(?i)\\\\b(mices|mice)\\\\b')"
p52
atp53
Rp54
sb.