(ifile_types
ParseObject
p0
(dp1
S'antagonists'
p2
c__builtin__
set
p3
((lp4
S"(117, u'\\\\bketanserin')"
p5
aS"(31, u'\\\\bway ?100635')"
p6
aS"(58, u'\\\\bhaloperidol')"
p7
atp8
Rp9
sS'methods'
p10
g3
((lp11
S'Method.ANTAGONIST'
p12
atp13
Rp14
sS'topics'
p15
g3
((lp16
tp17
Rp18
sS'receptors'
p19
g3
((lp20
S'5ht1a'
p21
aS'5ht2'
p22
atp23
Rp24
sS'regions'
p25
g3
((lp26
tp27
Rp28
sS'year'
p29
V2001
p30
sS'agonists'
p31
g3
((lp32
S"(43, u'\\\\bhaloperidol')"
p33
atp34
Rp35
sS'species'
p36
g3
((lp37
S"(6753, u'(?i)\\\\b(da|das)\\\\b')"
p38
aS"(1055, u'(?i)\\\\b(men|man)\\\\b')"
p39
aS"(1057, u'(?i)\\\\b(humans|human)\\\\b')"
p40
aS"(5958, u'(?i)\\\\b(rats|rat)\\\\b')"
p41
aS"(3196, u'(?i)\\\\b(human|humans)\\\\b')"
p42
atp43
Rp44
sb.