(ifile_types
ParseObject
p0
(dp1
S'antagonists'
p2
c__builtin__
set
p3
((lp4
S"(30, u'\\\\bway ?100135')"
p5
aS"(34, u'\\\\bmetergoline')"
p6
aS"(17, u'\\\\bnan ?190')"
p7
aS"(119, u'\\\\britanserin')"
p8
atp9
Rp10
sS'methods'
p11
g3
((lp12
S'Method.ANTAGONIST'
p13
aS'Method.AGONIST'
p14
atp15
Rp16
sS'topics'
p17
g3
((lp18
tp19
Rp20
sS'receptors'
p21
g3
((lp22
tp23
Rp24
sS'regions'
p25
g3
((lp26
S"(158, u'(?i)\\\\b(suprachiasmatics|suprachiasmatic)(-|\\\\s+)?(nuclei|nucleus)\\\\b')"
p27
atp28
Rp29
sS'year'
p30
V1998
p31
sS'agonists'
p32
g3
((lp33
tp34
Rp35
sS'species'
p36
g3
((lp37
S"(5799, u'(?i)\\\\b(rodents|rodent)\\\\b')"
p38
aS"(4099, u'(?i)\\\\b(hamsters|hamster)\\\\b')"
p39
aS"(5217, u'(?i)\\\\b(syrians|syrian)(-|\\\\s+)?(hamsters|hamster)\\\\b')"
p40
aS"(1949, u'(?i)\\\\b(pacemakers|pacemaker)\\\\b')"
p41
atp42
Rp43
sb.