(ifile_types
ParseObject
p0
(dp1
S'antagonists'
p2
c__builtin__
set
p3
((lp4
S"(200, u'\\\\bmesulergine')"
p5
aS"(54, u'\\\\britanserin')"
p6
aS"(130, u'\\\\britanserin')"
p7
aS"(95, u'\\\\bsb ?206553')"
p8
atp9
Rp10
sS'methods'
p11
g3
((lp12
S'Method.ANTAGONIST'
p13
atp14
Rp15
sS'topics'
p16
g3
((lp17
tp18
Rp19
sS'receptors'
p20
g3
((lp21
S'5ht2b'
p22
aS'5ht2c'
p23
aS'5ht2'
p24
aS'5ht2a'
p25
atp26
Rp27
sS'regions'
p28
g3
((lp29
S"(226, u'(?i)(nuclei|nucleus)(-|\\\\s+)?(accumben|accumbens)')"
p30
atp31
Rp32
sS'year'
p33
V1998
p34
sS'agonists'
p35
g3
((lp36
S"(171, u'\\\\bmesulergine')"
p37
atp38
Rp39
sS'species'
p40
g3
((lp41
S"(4301, u'(?i)(hydras|hydra)')"
p42
aS"(2568, u'(?i)(hens|hen)')"
p43
aS"(4979, u'(?i)(cats|cat)')"
p44
aS"(6753, u'(?i)(da|das)')"
p45
aS"(5551, u'(?i)(owls|owl)')"
p46
aS"(468, u'(?i)(oxen|ox)')"
p47
aS"(1055, u'(?i)(men|man)')"
p48
aS"(6249, u'(?i)(ants|ant)')"
p49
aS"(6215, u'(?i)(racers|racer)')"
p50
aS"(4964, u'(?i)(serins|serin)')"
p51
aS"(5958, u'(?i)(rats|rat)')"
p52
aS"(1961, u'(?i)(pens|pen)')"
p53
aS"(3812, u'(?i)(studs|stud)')"
p54
atp55
Rp56
sb.