(ifile_types
ParseObject
p0
(dp1
S'methods'
p2
c__builtin__
set
p3
((lp4
S'Method.ANTAGONIST'
p5
aS'Method.AGONIST'
p6
atp7
Rp8
sS'topics'
p9
g3
((lp10
tp11
Rp12
sS'receptors'
p13
g3
((lp14
(S'5ht1a'
p15
I1555
I1561
tp16
a(S'5ht1a'
p17
I472
I478
tp18
a(S'5ht1'
p19
I147
I152
tp20
a(S'5ht1a'
p21
I370
I376
tp22
a(S'5ht1a'
p23
I357
I368
tp24
a(S'5ht1a'
p25
I807
I813
tp26
atp27
Rp28
sS'raw_text_methods'
p29
g3
((lp30
S"(13, u'\\\\bagonist')"
p31
aS"(12, u'\\\\bantagonist')"
p32
atp33
Rp34
sS'regions'
p35
g3
((lp36
tp37
Rp38
sS'year'
p39
V1993
p40
sS'species'
p41
g3
((lp42
tp43
Rp44
sb.