(ifile_types
ParseObject
p0
(dp1
S'methods'
p2
c__builtin__
set
p3
((lp4
S'Method.KNOCKOUT'
p5
atp6
Rp7
sS'topics'
p8
g3
((lp9
S"(8, u'\\\\banxi')"
p10
aS"(26, u'\\\\bbehav')"
p11
aS"(7, u'\\\\bdepressi')"
p12
aS"(9, u'\\\\bstress')"
p13
aS"(13, u'\\\\bantidepress')"
p14
atp15
Rp16
sS'receptors'
p17
g3
((lp18
(S'5ht1a'
p19
I1739
I1745
tp20
a(S'5ht1b'
p21
I118
I124
tp22
a(S'5ht1b'
p23
I881
I887
tp24
a(S'5ht1a'
p25
I107
I113
tp26
a(S'5ht1a'
p27
I870
I876
tp28
atp29
Rp30
sS'raw_text_methods'
p31
g3
((lp32
S"(38, u'\\\\bssri')"
p33
aS"(39, u'\\\\bselective serotonin reuptake inhibitor')"
p34
atp35
Rp36
sS'regions'
p37
g3
((lp38
S"(4, u'(?i)\\\\b(presynaptics|presynaptic)\\\\b')"
p39
atp40
Rp41
sS'year'
p42
V2014
p43
sS'species'
p44
g3
((lp45
S"(1, u'(?i)\\\\b(mice|mouse)\\\\b')"
p46
aS"(6, u'(?i)\\\\b(rodents|rodent)\\\\b')"
p47
aS"(5, u'(?i)\\\\b(mices|mice)\\\\b')"
p48
aS"(4, u'(?i)\\\\b(rats|rat)\\\\b')"
p49
atp50
Rp51
sb.