(ifile_types
ParseObject
p0
(dp1
S'antagonists'
p2
c__builtin__
set
p3
((lp4
S"(26, u'\\\\bspiperone')"
p5
atp6
Rp7
sS'methods'
p8
g3
((lp9
S'Method.ANTAGONIST'
p10
aS'Method.AGONIST'
p11
atp12
Rp13
sS'topics'
p14
g3
((lp15
tp16
Rp17
sS'receptors'
p18
g3
((lp19
S'5ht1a'
p20
aS'5ht5c'
p21
atp22
Rp23
sS'regions'
p24
g3
((lp25
tp26
Rp27
sS'year'
p28
V1985
p29
sS'agonists'
p30
g3
((lp31
S"(98, u'\\\\b5 ?carboxamidotryptamine')"
p32
aS"(149, u'\\\\bmem')"
p33
atp34
Rp35
sS'species'
p36
g3
((lp37
S"(4979, u'(?i)\\\\b(cats|cat)\\\\b')"
p38
aS"(3051, u'(?i)\\\\b(pigs|pig)\\\\b')"
p39
aS"(4480, u'(?i)\\\\b(guineas|guinea)(-|\\\\s+)?(pigs|pig)\\\\b')"
p40
aS"(3062, u'(?i)\\\\b(guineas|guinea)\\\\b')"
p41
atp42
Rp43
sb.