(ifile_types
ParseObject
p0
(dp1
S'methods'
p2
c__builtin__
set
p3
((lp4
S'Method.AGONIST'
p5
atp6
Rp7
sS'topics'
p8
g3
((lp9
S"(4, u'\\\\btreatment')"
p10
atp11
Rp12
sS'receptors'
p13
g3
((lp14
(S'5ht1a'
p15
I224
I230
tp16
a(S'5ht1a'
p17
I1424
I1430
tp18
a(S'5ht1a'
p19
I499
I505
tp20
a(S'5ht1a'
p21
I44
I50
tp22
atp23
Rp24
sS'raw_text_methods'
p25
g3
((lp26
S"(13, u'\\\\bagonist')"
p27
aS"(15, u'\\\\b8ohdpat')"
p28
atp29
Rp30
sS'regions'
p31
g3
((lp32
S"(16, u'(?i)\\\\b(drns|drn)\\\\b')"
p33
atp34
Rp35
sS'year'
p36
V2009
p37
sS'species'
p38
g3
((lp39
S"(4, u'(?i)\\\\b(rats|rat)\\\\b')"
p40
atp41
Rp42
sb.