(ifile_types
ParseObject
p0
(dp1
S'methods'
p2
c__builtin__
set
p3
((lp4
S'Method.STIMULATION'
p5
atp6
Rp7
sS'topics'
p8
g3
((lp9
S"(35, u'\\\\bnocicept')"
p10
atp11
Rp12
sS'receptors'
p13
g3
((lp14
(S'5ht1d'
p15
I597
I605
tp16
a(S'5ht1b'
p17
I597
I603
tp18
atp19
Rp20
sS'raw_text_methods'
p21
g3
((lp22
S"(47, u'\\\\bsumatriptan')"
p23
atp24
Rp25
sS'regions'
p26
g3
((lp27
S"(4, u'(?i)\\\\b(presynaptics|presynaptic)\\\\b')"
p28
atp29
Rp30
sS'year'
p31
V1996
p32
sS'species'
p33
g3
((lp34
S"(4, u'(?i)\\\\b(rats|rat)\\\\b')"
p35
atp36
Rp37
sb.