(ifile_types
ParseObject
p0
(dp1
S'methods'
p2
c__builtin__
set
p3
((lp4
S'Method.ANTAGONIST'
p5
atp6
Rp7
sS'topics'
p8
g3
((lp9
S"(24, u'\\\\banxiolytic')"
p10
aS"(8, u'\\\\banxi')"
p11
aS"(26, u'\\\\bbehav')"
p12
aS"(25, u'\\\\bsocial')"
p13
atp14
Rp15
sS'receptors'
p16
g3
((lp17
(S'5ht3'
p18
I1663
I1668
tp19
atp20
Rp21
sS'raw_text_methods'
p22
g3
((lp23
S"(16, u'\\\\bdiazepam')"
p24
aS"(20, u'\\\\bondansetron')"
p25
aS"(12, u'\\\\bantagonist')"
p26
atp27
Rp28
sS'regions'
p29
g3
((lp30
S"(19, u'(?i)\\\\b(cortexes|cortex)\\\\b')"
p31
aS"(12, u'(?i)\\\\b(amygdalas|amygdala)\\\\b')"
p32
aS"(7, u'(?i)\\\\b(entorhinals|entorhinal)\\\\b')"
p33
atp34
Rp35
sS'year'
p36
V1997
p37
sS'species'
p38
g3
((lp39
S"(4, u'(?i)\\\\b(rats|rat)\\\\b')"
p40
atp41
Rp42
sb.