(ifile_types
ParseObject
p0
(dp1
S'methods'
p2
c__builtin__
set
p3
((lp4
S'Method.ANTAGONIST'
p5
aS'Method.AGONIST'
p6
atp7
Rp8
sS'topics'
p9
g3
((lp10
S"(4, u'\\\\btreatment')"
p11
atp12
Rp13
sS'receptors'
p14
g3
((lp15
(S'5ht2a'
p16
I868
I874
tp17
a(S'5ht2c'
p18
I868
I878
tp19
a(S'5ht1d'
p20
I382
I388
tp21
a(S'5ht1d'
p22
I750
I756
tp23
a(S'5ht1d'
p24
I1690
I1696
tp25
a(S'5ht1d'
p26
I1847
I1853
tp27
a(S'5ht1d'
p28
I188
I194
tp29
a(S'5ht3'
p30
I884
I889
tp31
a(S'5ht2b'
p32
I868
I876
tp33
a(S'5ht1d'
p34
I32
I38
tp35
a(S'5ht1d'
p36
I635
I641
tp37
atp38
Rp39
sS'raw_text_methods'
p40
g3
((lp41
S"(13, u'\\\\bagonist')"
p42
aS"(47, u'\\\\bsumatriptan')"
p43
aS"(12, u'\\\\bantagonist')"
p44
atp45
Rp46
sS'regions'
p47
g3
((lp48
S"(19, u'(?i)\\\\b(cortexes|cortex)\\\\b')"
p49
aS"(23, u'(?i)\\\\b(forebrains|forebrain)\\\\b')"
p50
atp51
Rp52
sS'year'
p53
V1995
p54
sS'species'
p55
g3
((lp56
S"(7, u'(?i)\\\\b(guineas|guinea)(-|\\\\s+)?(pigs|pig)\\\\b')"
p57
atp58
Rp59
sb.