(ifile_types
ParseObject
p0
(dp1
S'antagonists'
p2
c__builtin__
set
p3
((lp4
tp5
Rp6
sS'methods'
p7
g3
((lp8
S'Method.AGONIST'
p9
atp10
Rp11
sS'topics'
p12
g3
((lp13
tp14
Rp15
sS'receptors'
p16
g3
((lp17
S'5ht1a'
p18
atp19
Rp20
sS'regions'
p21
g3
((lp22
S"(220, u'(?i)\\\\b(striatums|striatum)\\\\b')"
p23
aS"(169, u'(?i)\\\\b(dorsomedials|dorsomedial)(-|\\\\s+)?(hypothalamics|hypothalamic)(-|\\\\s+)?(nuclei|nucleus)\\\\b')"
p24
atp25
Rp26
sS'year'
p27
V1997
p28
sS'agonists'
p29
g3
((lp30
S"(20, u'\\\\bbuspirone')"
p31
aS"(189, u'\\\\bethanol')"
p32
atp33
Rp34
sS'species'
p35
g3
((lp36
S"(6753, u'(?i)\\\\b(da|das)\\\\b')"
p37
aS"(6580, u'(?i)\\\\b(dams|dam)\\\\b')"
p38
aS"(3248, u'(?i)\\\\b(offspring|offspring)\\\\b')"
p39
aS"(5958, u'(?i)\\\\b(rats|rat)\\\\b')"
p40
aS"(7058, u'(?i)\\\\b(does|doe)\\\\b')"
p41
atp42
Rp43
sb.