(ifile_types
ParseObject
p0
(dp1
S'antagonists'
p2
c__builtin__
set
p3
((lp4
S"(32, u'\\\\bway ?100635')"
p5
aS"(54, u'\\\\britanserin')"
p6
aS"(130, u'\\\\britanserin')"
p7
aS"(45, u'\\\\bgr ?127935')"
p8
atp9
Rp10
sS'methods'
p11
g3
((lp12
S'Method.ANTAGONIST'
p13
aS'Method.AGONIST'
p14
atp15
Rp16
sS'topics'
p17
g3
((lp18
tp19
Rp20
sS'receptors'
p21
g3
((lp22
S'5ht1a'
p23
aS'5ht2a'
p24
aS'5ht2c'
p25
aS'5ht1d'
p26
atp27
Rp28
sS'regions'
p29
g3
((lp30
S"(34, u'(?i)(pon|pons)')"
p31
atp32
Rp33
sS'year'
p34
V1995
p35
sS'agonists'
p36
g3
((lp37
S"(92, u'\\\\b8 ?oh ?dpat')"
p38
atp39
Rp40
sS'species'
p41
g3
((lp42
S"(6249, u'(?i)(ants|ant)')"
p43
aS"(6753, u'(?i)(da|das)')"
p44
aS"(2568, u'(?i)(hens|hen)')"
p45
aS"(7609, u'(?i)(erns|ern)')"
p46
aS"(5743, u'(?i)(bots|bot)')"
p47
aS"(3051, u'(?i)(pigs|pig)')"
p48
aS"(468, u'(?i)(oxen|ox)')"
p49
aS"(1055, u'(?i)(men|man)')"
p50
aS"(3726, u'(?i)(mates|mate)')"
p51
aS"(3062, u'(?i)(guineas|guinea)')"
p52
aS"(4964, u'(?i)(serins|serin)')"
p53
aS"(5958, u'(?i)(rats|rat)')"
p54
aS"(3522, u'(?i)(tetras|tetra)')"
p55
aS"(5131, u'(?i)(hags|hag)')"
p56
aS"(1961, u'(?i)(pens|pen)')"
p57
aS"(6356, u'(?i)(ais|ai)')"
p58
aS"(4480, u'(?i)(guineas|guinea)(-|\\\\s+)?(pigs|pig)')"
p59
aS"(2809, u'(?i)(toms|tom)')"
p60
aS"(6744, u'(?i)(maras|mara)')"
p61
atp62
Rp63
sb.