(ifile_types
ParseObject
p0
(dp1
S'methods'
p2
c__builtin__
set
p3
((lp4
S'Method.IMMUNOHISTOCHEMISTRY'
p5
atp6
Rp7
sS'topics'
p8
g3
((lp9
tp10
Rp11
sS'receptors'
p12
g3
((lp13
(S'5ht1a'
p14
I881
I887
tp15
a(S'5ht1a'
p16
I1447
I1453
tp17
atp18
Rp19
sS'raw_text_methods'
p20
g3
((lp21
tp22
Rp23
sS'regions'
p24
g3
((lp25
S"(19, u'(?i)\\\\b(cortexes|cortex)\\\\b')"
p26
atp27
Rp28
sS'year'
p29
V2009
p30
sS'species'
p31
g3
((lp32
tp33
Rp34
sb.