(ifile_types
ParseObject
p0
(dp1
S'methods'
p2
c__builtin__
set
p3
((lp4
S'Method.ANTAGONIST'
p5
aS'Method.AGONIST'
p6
atp7
Rp8
sS'topics'
p9
g3
((lp10
S"(23, u'\\\\bantipsychotic')"
p11
atp12
Rp13
sS'receptors'
p14
g3
((lp15
(S'5ht1a'
p16
I1777
I1783
tp17
a(S'5ht1a'
p18
I721
I727
tp19
a(S'5ht1a'
p20
I469
I475
tp21
a(S'5ht1a'
p22
I2124
I2130
tp23
a(S'5ht1a'
p24
I1392
I1398
tp25
a(S'5ht1a'
p26
I107
I113
tp27
a(S'5ht1a'
p28
I1682
I1688
tp29
a(S'5ht1a'
p30
I2046
I2052
tp31
atp32
Rp33
sS'raw_text_methods'
p34
g3
((lp35
S"(13, u'\\\\bagonist')"
p36
aS"(51, u'\\\\bway100635')"
p37
aS"(12, u'\\\\bantagonist')"
p38
atp39
Rp40
sS'regions'
p41
g3
((lp42
S"(20, u'(?i)\\\\b(prefrontals|prefrontal)\\\\b')"
p43
aS"(19, u'(?i)\\\\b(cortexes|cortex)\\\\b')"
p44
atp45
Rp46
sS'year'
p47
V2009
p48
sS'species'
p49
g3
((lp50
S"(4, u'(?i)\\\\b(rats|rat)\\\\b')"
p51
atp52
Rp53
sb.