(ifile_types
ParseObject
p0
(dp1
S'antagonists'
p2
c__builtin__
set
p3
((lp4
tp5
Rp6
sS'methods'
p7
g3
((lp8
S'Method.ANTAGONIST'
p9
atp10
Rp11
sS'topics'
p12
g3
((lp13
S"(11, u'\\\\banxiolyt')"
p14
aS"(1, u'\\\\bmood')"
p15
atp16
Rp17
sS'receptors'
p18
g3
((lp19
S'5ht1a'
p20
aS'5ht2a'
p21
atp22
Rp23
sS'regions'
p24
g3
((lp25
S"(215, u'(?i)(basolaterals|basolateral)(-|\\\\s+)?(amygdalas|amygdala)')"
p26
aS"(209, u'(?i)(amygdalas|amygdala)')"
p27
aS"(214, u'(?i)(laterals|lateral)(-|\\\\s+)?(amygdalas|amygdala)')"
p28
aS"(254, u'(?i)(prefrontals|prefrontal)(-|\\\\s+)?(cortexes|cortex)')"
p29
aS"(255, u'(?i)(pres|pre)(-|\\\\s+)?(frontals|frontal)(-|\\\\s+)?(cortexes|cortex)')"
p30
aS"(203, u'(?i)(dentates|dentate)(-|\\\\s+)?(gyruses|gyrus)')"
p31
atp32
Rp33
sS'year'
p34
V2012
p35
sS'agonists'
p36
g3
((lp37
tp38
Rp39
sS'species'
p40
g3
((lp41
S"(5537, u'(?i)(hippos|hippo)')"
p42
aS"(5958, u'(?i)(rats|rat)')"
p43
aS"(6753, u'(?i)(da|das)')"
p44
aS"(479, u'(?i)(lings|ling)')"
p45
aS"(468, u'(?i)(oxen|ox)')"
p46
aS"(1055, u'(?i)(men|man)')"
p47
aS"(6356, u'(?i)(ais|ai)')"
p48
aS"(6249, u'(?i)(ants|ant)')"
p49
aS"(6682, u'(?i)(tera|teras)')"
p50
aS"(4371, u'(?i)(lizas|liza)')"
p51
aS"(3812, u'(?i)(studs|stud)')"
p52
atp53
Rp54
sb.