(ifile_types
ParseObject
p0
(dp1
S'methods'
p2
c__builtin__
set
p3
((lp4
S'Method.ANTAGONIST'
p5
aS'Method.AGONIST'
p6
atp7
Rp8
sS'topics'
p9
g3
((lp10
S"(5, u'\\\\btherap')"
p11
atp12
Rp13
sS'receptors'
p14
g3
((lp15
(S'5ht1'
p16
I766
I771
tp17
a(S'5ht1c'
p18
I929
I935
tp19
a(S'5ht1a'
p20
I599
I605
tp21
a(S'5ht2'
p22
I458
I463
tp23
a(S'5ht1c'
p24
I1602
I1608
tp25
a(S'5ht2'
p26
I2097
I2102
tp27
a(S'5ht1a'
p28
I868
I874
tp29
a(S'5ht1b'
p30
I876
I882
tp31
a(S'5ht2'
p32
I606
I611
tp33
a(S'5ht1c'
p34
I451
I457
tp35
a(S'5ht3'
p36
I1702
I1707
tp37
a(S'5ht1a'
p38
I2106
I2112
tp39
a(S'5ht2'
p40
I936
I941
tp41
a(S'5ht3'
p42
I504
I509
tp43
a(S'5ht1c'
p44
I887
I893
tp45
a(S'5ht2'
p46
I772
I777
tp47
atp48
Rp49
sS'raw_text_methods'
p50
g3
((lp51
S"(7, u'\\\\bpropranolol')"
p52
aS"(33, u'\\\\bmcpp')"
p53
aS"(23, u'\\\\bmdl')"
p54
aS"(26, u'\\\\bmdl72222')"
p55
aS"(13, u'\\\\bagonist')"
p56
aS"(45, u'\\\\bmetergoline')"
p57
aS"(46, u'\\\\bspiperone')"
p58
aS"(9, u'\\\\britanserin')"
p59
aS"(12, u'\\\\bantagonist')"
p60
atp61
Rp62
sS'regions'
p63
g3
((lp64
tp65
Rp66
sS'year'
p67
V1992
p68
sS'species'
p69
g3
((lp70
S"(4, u'(?i)\\\\b(rats|rat)\\\\b')"
p71
atp72
Rp73
sb.