(ifile_types
ParseObject
p0
(dp1
S'antagonists'
p2
c__builtin__
set
p3
((lp4
S"(32, u'\\\\bway ?100635')"
p5
aS"(123, u'\\\\bclozapine')"
p6
aS"(56, u'\\\\bclozapine')"
p7
atp8
Rp9
sS'methods'
p10
g3
((lp11
S'Method.ANTAGONIST'
p12
aS'Method.AGONIST'
p13
atp14
Rp15
sS'topics'
p16
g3
((lp17
tp18
Rp19
sS'receptors'
p20
g3
((lp21
S'5ht1a'
p22
atp23
Rp24
sS'regions'
p25
g3
((lp26
tp27
Rp28
sS'year'
p29
V1997
p30
sS'agonists'
p31
g3
((lp32
S"(92, u'\\\\b8 ?oh ?dpat')"
p33
aS"(27, u'\\\\bclozapine')"
p34
atp35
Rp36
sS'species'
p37
g3
((lp38
S"(5537, u'(?i)(hippos|hippo)')"
p39
aS"(2568, u'(?i)(hens|hen)')"
p40
aS"(6753, u'(?i)(da|das)')"
p41
aS"(468, u'(?i)(oxen|ox)')"
p42
aS"(1349, u'(?i)(rams|ram)')"
p43
aS"(6249, u'(?i)(ants|ant)')"
p44
aS"(1055, u'(?i)(men|man)')"
p45
aS"(5743, u'(?i)(bots|bot)')"
p46
aS"(5958, u'(?i)(rats|rat)')"
p47
aS"(3522, u'(?i)(tetras|tetra)')"
p48
aS"(1057, u'(?i)(humans|human)')"
p49
aS"(6391, u'(?i)(asses|ass)')"
p50
aS"(3812, u'(?i)(studs|stud)')"
p51
aS"(3196, u'(?i)(human|humans)')"
p52
atp53
Rp54
sb.