(ifile_types
ParseObject
p0
(dp1
S'methods'
p2
c__builtin__
set
p3
((lp4
S'Method.ANTAGONIST'
p5
atp6
Rp7
sS'topics'
p8
g3
((lp9
S"(22, u'\\\\bschizophreni')"
p10
aS"(7, u'\\\\bdepressi')"
p11
aS"(23, u'\\\\bantipsychotic')"
p12
aS"(4, u'\\\\btreatment')"
p13
aS"(2, u'\\\\bdisorder')"
p14
atp15
Rp16
sS'receptors'
p17
g3
((lp18
(S'5ht2a'
p19
I788
I794
tp20
a(S'5ht2a'
p21
I329
I335
tp22
a(S'5ht1a'
p23
I2216
I2222
tp24
atp25
Rp26
sS'raw_text_methods'
p27
g3
((lp28
S"(41, u'\\\\bhaloperidol')"
p29
aS"(40, u'\\\\bclozapine')"
p30
aS"(23, u'\\\\bmdl')"
p31
aS"(12, u'\\\\bantagonist')"
p32
atp33
Rp34
sS'regions'
p35
g3
((lp36
S"(19, u'(?i)\\\\b(cortexes|cortex)\\\\b')"
p37
aS"(16, u'(?i)\\\\b(drns|drn)\\\\b')"
p38
atp39
Rp40
sS'year'
p41
V1997
p42
sS'species'
p43
g3
((lp44
S"(4, u'(?i)\\\\b(rats|rat)\\\\b')"
p45
atp46
Rp47
sb.