(ifile_types
ParseObject
p0
(dp1
S'methods'
p2
c__builtin__
set
p3
((lp4
S'Method.ANTAGONIST'
p5
atp6
Rp7
sS'topics'
p8
g3
((lp9
tp10
Rp11
sS'receptors'
p12
g3
((lp13
(S'5ht3'
p14
I1450
I1455
tp15
a(S'5ht3'
p16
I1147
I1152
tp17
a(S'5ht3'
p18
I29
I34
tp19
a(S'5ht3'
p20
I388
I393
tp21
a(S'5ht3'
p22
I1364
I1369
tp23
a(S'5ht3'
p24
I1303
I1308
tp25
atp26
Rp27
sS'raw_text_methods'
p28
g3
((lp29
S"(20, u'\\\\bondansetron')"
p30
aS"(12, u'\\\\bantagonist')"
p31
atp32
Rp33
sS'regions'
p34
g3
((lp35
tp36
Rp37
sS'year'
p38
V1992
p39
sS'species'
p40
g3
((lp41
tp42
Rp43
sb.