(ifile_types
ParseObject
p0
(dp1
S'antagonists'
p2
c__builtin__
set
p3
((lp4
tp5
Rp6
sS'methods'
p7
g3
((lp8
tp9
Rp10
sS'topics'
p11
g3
((lp12
S"(21, u'\\\\bpain')"
p13
aS"(15, u'\\\\bschizophreni')"
p14
aS"(6, u'\\\\bcognit')"
p15
aS"(10, u'\\\\banxiety')"
p16
atp17
Rp18
sS'receptors'
p19
g3
((lp20
S'5ht7'
p21
aS'5ht5'
p22
aS'5ht7b'
p23
aS'5ht7c'
p24
atp25
Rp26
sS'regions'
p27
g3
((lp28
tp29
Rp30
sS'year'
p31
V2008
p32
sS'agonists'
p33
g3
((lp34
S"(155, u'\\\\bmem')"
p35
atp36
Rp37
sS'species'
p38
g3
((lp39
S"(4624, u'(?i)(apes|ape)')"
p40
aS"(4979, u'(?i)(cats|cat)')"
p41
aS"(5958, u'(?i)(rats|rat)')"
p42
aS"(6356, u'(?i)(ais|ai)')"
p43
aS"(163, u'(?i)(mice|mouse)')"
p44
aS"(6391, u'(?i)(asses|ass)')"
p45
aS"(1055, u'(?i)(men|man)')"
p46
aS"(6249, u'(?i)(ants|ant)')"
p47
aS"(853, u'(?i)(minas|mina)')"
p48
aS"(3550, u'(?i)(anis|ani)')"
p49
aS"(1057, u'(?i)(humans|human)')"
p50
aS"(4371, u'(?i)(lizas|liza)')"
p51
aS"(3812, u'(?i)(studs|stud)')"
p52
aS"(3196, u'(?i)(human|humans)')"
p53
aS"(5743, u'(?i)(bots|bot)')"
p54
aS"(821, u'(?i)(lice|louse)')"
p55
atp56
Rp57
sb.