(ifile_types
ParseObject
p0
(dp1
S'methods'
p2
c__builtin__
set
p3
((lp4
S'Method.ANTAGONIST'
p5
aS'Method.AGONIST'
p6
atp7
Rp8
sS'topics'
p9
g3
((lp10
S"(24, u'\\\\banxiolytic')"
p11
aS"(8, u'\\\\banxi')"
p12
atp13
Rp14
sS'receptors'
p15
g3
((lp16
(S'5ht1a'
p17
I775
I781
tp18
a(S'5ht1a'
p19
I332
I338
tp20
a(S'5ht1a'
p21
I234
I240
tp22
a(S'5ht1a'
p23
I30
I41
tp24
a(S'5ht1a'
p25
I456
I462
tp26
a(S'5ht1a'
p27
I879
I885
tp28
atp29
Rp30
sS'raw_text_methods'
p31
g3
((lp32
S"(13, u'\\\\bagonist')"
p33
aS"(21, u'\\\\bipsapirone')"
p34
aS"(12, u'\\\\bantagonist')"
p35
atp36
Rp37
sS'regions'
p38
g3
((lp39
S"(3, u'(?i)\\\\b(postsynaptics|postsynaptic)\\\\b')"
p40
atp41
Rp42
sS'year'
p43
V1997
p44
sS'species'
p45
g3
((lp46
S"(4, u'(?i)\\\\b(rats|rat)\\\\b')"
p47
atp48
Rp49
sb.