(ifile_types
ParseObject
p0
(dp1
S'methods'
p2
c__builtin__
set
p3
((lp4
S'Method.ANTAGONIST'
p5
aS'Method.AGONIST'
p6
atp7
Rp8
sS'topics'
p9
g3
((lp10
S"(22, u'\\\\bschizophreni')"
p11
aS"(8, u'\\\\banxi')"
p12
aS"(5, u'\\\\btherap')"
p13
aS"(23, u'\\\\bantipsychotic')"
p14
aS"(14, u'\\\\bcogniti')"
p15
atp16
Rp17
sS'receptors'
p18
g3
((lp19
(S'5ht1b'
p20
I914
I920
tp21
a(S'5ht1d'
p22
I1757
I1763
tp23
a(S'5ht1b'
p24
I903
I909
tp25
a(S'5ht1d'
p26
I914
I922
tp27
a(S'5ht5'
p28
I274
I284
tp29
a(S'5ht1b'
p30
I1576
I1582
tp31
a(S'5ht1d'
p32
I1608
I1614
tp33
a(S'5ht1b'
p34
I511
I517
tp35
atp36
Rp37
sS'raw_text_methods'
p38
g3
((lp39
S"(13, u'\\\\bagonist')"
p40
aS"(12, u'\\\\bantagonist')"
p41
atp42
Rp43
sS'regions'
p44
g3
((lp45
S"(19, u'(?i)\\\\b(cortexes|cortex)\\\\b')"
p46
atp47
Rp48
sS'year'
p49
V1999
p50
sS'species'
p51
g3
((lp52
S"(4, u'(?i)\\\\b(rats|rat)\\\\b')"
p53
atp54
Rp55
sb.