(ifile_types
ParseObject
p0
(dp1
S'methods'
p2
c__builtin__
set
p3
((lp4
S'Method.PET'
p5
atp6
Rp7
sS'topics'
p8
g3
((lp9
tp10
Rp11
sS'receptors'
p12
g3
((lp13
(S'5ht1a'
p14
I361
I367
tp15
a(S'5ht1a'
p16
I1021
I1027
tp17
a(S'5ht1a'
p18
I35
I41
tp19
a(S'5ht1a'
p20
I626
I632
tp21
atp22
Rp23
sS'raw_text_methods'
p24
g3
((lp25
S"(17, u'\\\\bpet')"
p26
aS"(19, u'\\\\bpositron emission tomography')"
p27
aS"(18, u'\\\\bimaging')"
p28
atp29
Rp30
sS'regions'
p31
g3
((lp32
S"(9, u'(?i)\\\\b(cerebellums|cerebellum)\\\\b')"
p33
atp34
Rp35
sS'year'
p36
V1997
p37
sS'species'
p38
g3
((lp39
tp40
Rp41
sb.