(ifile_types
ParseObject
p0
(dp1
S'antagonists'
p2
c__builtin__
set
p3
((lp4
tp5
Rp6
sS'methods'
p7
g3
((lp8
S'Method.AGONIST'
p9
atp10
Rp11
sS'topics'
p12
g3
((lp13
S"(33, u'\\\\balzheimers')"
p14
aS"(6, u'\\\\bcognit')"
p15
aS"(35, u'\\\\bstress')"
p16
aS"(7, u'\\\\bmemory')"
p17
atp18
Rp19
sS'receptors'
p20
g3
((lp21
S'5ht5'
p22
aS'5ht1a'
p23
aS'5ht1d'
p24
atp25
Rp26
sS'regions'
p27
g3
((lp28
S"(34, u'(?i)(pon|pons)')"
p29
atp30
Rp31
sS'year'
p32
V2016
p33
sS'agonists'
p34
g3
((lp35
S"(155, u'\\\\bmem')"
p36
atp37
Rp38
sS'species'
p39
g3
((lp40
S"(5537, u'(?i)(hippos|hippo)')"
p41
aS"(5799, u'(?i)(rodents|rodent)')"
p42
aS"(5958, u'(?i)(rats|rat)')"
p43
aS"(6753, u'(?i)(da|das)')"
p44
aS"(4163, u'(?i)(ermines|ermine)')"
p45
aS"(1055, u'(?i)(men|man)')"
p46
aS"(6249, u'(?i)(ants|ant)')"
p47
aS"(3812, u'(?i)(studs|stud)')"
p48
aS"(3550, u'(?i)(anis|ani)')"
p49
aS"(1961, u'(?i)(pens|pen)')"
p50
aS"(1414, u'(?i)(chars|char)')"
p51
aS"(6391, u'(?i)(asses|ass)')"
p52
aS"(6356, u'(?i)(ais|ai)')"
p53
atp54
Rp55
sb.