(ifile_types
ParseObject
p0
(dp1
S'antagonists'
p2
c__builtin__
set
p3
((lp4
tp5
Rp6
sS'methods'
p7
g3
((lp8
tp9
Rp10
sS'topics'
p11
g3
((lp12
tp13
Rp14
sS'receptors'
p15
g3
((lp16
S'5ht1b'
p17
atp18
Rp19
sS'regions'
p20
g3
((lp21
S"(219, u'(?i)\\\\b(basals|basal)(-|\\\\s+)?(ganglias|ganglia)\\\\b')"
p22
aS"(248, u'(?i)\\\\b(cerebrals|cerebral)(-|\\\\s+)?(cortexes|cortex)\\\\b')"
p23
aS"(88, u'(?i)\\\\b(superiors|superior)(-|\\\\s+)?(colliculis|colliculi)\\\\b')"
p24
aS"(103, u'(?i)\\\\b(substantias|substantia)(-|\\\\s+)?(nigras|nigra)\\\\b')"
p25
atp26
Rp27
sS'year'
p28
V1997
p29
sS'agonists'
p30
g3
((lp31
S"(149, u'\\\\bmem')"
p32
atp33
Rp34
sS'species'
p35
g3
((lp36
S"(163, u'(?i)\\\\b(mice|mouse)\\\\b')"
p37
atp38
Rp39
sb.