(ifile_types
ParseObject
p0
(dp1
S'antagonists'
p2
c__builtin__
set
p3
((lp4
tp5
Rp6
sS'methods'
p7
g3
((lp8
S'Method.ANTAGONIST'
p9
aS'Method.AGONIST'
p10
atp11
Rp12
sS'topics'
p13
g3
((lp14
tp15
Rp16
sS'receptors'
p17
g3
((lp18
S'5ht2a'
p19
atp20
Rp21
sS'regions'
p22
g3
((lp23
S"(226, u'(?i)(nuclei|nucleus)(-|\\\\s+)?(accumben|accumbens)')"
p24
atp25
Rp26
sS'year'
p27
V2013
p28
sS'agonists'
p29
g3
((lp30
S"(167, u'\\\\bcp ?809101')"
p31
aS"(56, u'\\\\blsd')"
p32
aS"(55, u'\\\\blysergic acid diethylamide')"
p33
aS"(132, u'\\\\btcb ?2')"
p34
aS"(33, u'\\\\bdoi')"
p35
atp36
Rp37
sS'species'
p38
g3
((lp39
S"(4624, u'(?i)(apes|ape)')"
p40
aS"(5958, u'(?i)(rats|rat)')"
p41
aS"(6753, u'(?i)(da|das)')"
p42
aS"(81, u'(?i)(asps|asp)')"
p43
aS"(468, u'(?i)(oxen|ox)')"
p44
aS"(1055, u'(?i)(men|man)')"
p45
aS"(2334, u'(?i)(eels|eel)')"
p46
aS"(6356, u'(?i)(ais|ai)')"
p47
aS"(6249, u'(?i)(ants|ant)')"
p48
aS"(3812, u'(?i)(studs|stud)')"
p49
atp50
Rp51
sb.