(ifile_types
ParseObject
p0
(dp1
S'antagonists'
p2
c__builtin__
set
p3
((lp4
S"(198, u'\\\\bsb ?269970')"
p5
aS"(31, u'\\\\bway ?100635')"
p6
aS"(194, u'\\\\bmethysergide')"
p7
atp8
Rp9
sS'methods'
p10
g3
((lp11
S'Method.ANTAGONIST'
p12
atp13
Rp14
sS'topics'
p15
g3
((lp16
tp17
Rp18
sS'receptors'
p19
g3
((lp20
S'5ht7'
p21
aS'5ht1a'
p22
aS'5ht2'
p23
aS'5ht1'
p24
aS'5ht2a'
p25
aS'5ht7a'
p26
atp27
Rp28
sS'regions'
p29
g3
((lp30
tp31
Rp32
sS'year'
p33
V2005
p34
sS'agonists'
p35
g3
((lp36
S"(53, u'\\\\bmethysergide')"
p37
atp38
Rp39
sS'species'
p40
g3
((lp41
S"(5958, u'(?i)\\\\b(rats|rat)\\\\b')"
p42
atp43
Rp44
sb.