(ifile_types
ParseObject
p0
(dp1
S'antagonists'
p2
c__builtin__
set
p3
((lp4
S"(21, u'\\\\bpindolol')"
p5
aS"(117, u'\\\\bketanserin')"
p6
aS"(119, u'\\\\britanserin')"
p7
atp8
Rp9
sS'methods'
p10
g3
((lp11
S'Method.ANTAGONIST'
p12
aS'Method.AGONIST'
p13
atp14
Rp15
sS'topics'
p16
g3
((lp17
tp18
Rp19
sS'receptors'
p20
g3
((lp21
S'5ht1c'
p22
aS'5ht1a'
p23
aS'5ht2'
p24
aS'5ht2a'
p25
atp26
Rp27
sS'regions'
p28
g3
((lp29
tp30
Rp31
sS'year'
p32
V1991
p33
sS'agonists'
p34
g3
((lp35
S"(175, u'\\\\bdoi')"
p36
atp37
Rp38
sS'species'
p39
g3
((lp40
tp41
Rp42
sb.