(ifile_types
ParseObject
p0
(dp1
S'methods'
p2
c__builtin__
set
p3
((lp4
S'Method.ANTAGONIST'
p5
aS'Method.AGONIST'
p6
atp7
Rp8
sS'topics'
p9
g3
((lp10
S"(26, u'\\\\bbehav')"
p11
atp12
Rp13
sS'receptors'
p14
g3
((lp15
(S'5ht1b'
p16
I50
I56
tp17
a(S'5ht1b'
p18
I371
I377
tp19
a(S'5ht1d'
p20
I723
I731
tp21
a(S'5ht1b'
p22
I535
I541
tp23
a(S'5ht1b'
p24
I191
I202
tp25
a(S'5ht1b'
p26
I666
I672
tp27
a(S'5ht1b'
p28
I723
I729
tp29
a(S'5ht1b'
p30
I1213
I1219
tp31
a(S'5ht1b'
p32
I205
I211
tp33
atp34
Rp35
sS'raw_text_methods'
p36
g3
((lp37
S"(13, u'\\\\bagonist')"
p38
aS"(12, u'\\\\bantagonist')"
p39
atp40
Rp41
sS'regions'
p42
g3
((lp43
tp44
Rp45
sS'year'
p46
V2009
p47
sS'species'
p48
g3
((lp49
S"(4, u'(?i)\\\\b(rats|rat)\\\\b')"
p50
atp51
Rp52
sb.