(ifile_types
ParseObject
p0
(dp1
S'antagonists'
p2
c__builtin__
set
p3
((lp4
tp5
Rp6
sS'methods'
p7
g3
((lp8
S'Method.AGONIST'
p9
atp10
Rp11
sS'topics'
p12
g3
((lp13
tp14
Rp15
sS'receptors'
p16
g3
((lp17
S'5ht1b'
p18
aS'5ht1a'
p19
atp20
Rp21
sS'regions'
p22
g3
((lp23
S"(96, u'(?i)\\\\b(ventrals|ventral)(-|\\\\s+)?(tegmentals|tegmental)(-|\\\\s+)?(areas|area)\\\\b')"
p24
aS"(226, u'(?i)\\\\b(nuclei|nucleus)(-|\\\\s+)?(accumben|accumbens)\\\\b')"
p25
atp26
Rp27
sS'year'
p28
V1989
p29
sS'agonists'
p30
g3
((lp31
tp32
Rp33
sS'species'
p34
g3
((lp35
S"(6878, u'(?i)\\\\b(guans|guan)\\\\b')"
p36
aS"(6753, u'(?i)\\\\b(da|das)\\\\b')"
p37
aS"(5958, u'(?i)\\\\b(rats|rat)\\\\b')"
p38
aS"(4074, u'(?i)\\\\b(bulls|bull)\\\\b')"
p39
atp40
Rp41
sb.