(ifile_types
ParseObject
p0
(dp1
S'antagonists'
p2
c__builtin__
set
p3
((lp4
tp5
Rp6
sS'methods'
p7
g3
((lp8
S'Method.KNOCKOUT'
p9
atp10
Rp11
sS'topics'
p12
g3
((lp13
S"(11, u'\\\\banxiolyt')"
p14
aS"(10, u'\\\\banxiety')"
p15
aS"(16, u'\\\\bfeed')"
p16
atp17
Rp18
sS'receptors'
p19
g3
((lp20
S'5ht1b'
p21
aS'5ht1a'
p22
aS'5ht1'
p23
atp24
Rp25
sS'regions'
p26
g3
((lp27
S"(94, u'(?i)\\\\b(dorsals|dorsal)(-|\\\\s+)?(raphes|raphe)(-|\\\\s+)?(nuclei|nucleus)\\\\b')"
p28
aS"(318, u'(?i)\\\\b(raphes|raphe)(-|\\\\s+)?(nuclei|nucleus)\\\\b')"
p29
atp30
Rp31
sS'year'
p32
V2011
p33
sS'agonists'
p34
g3
((lp35
tp36
Rp37
sS'species'
p38
g3
((lp39
S"(1057, u'(?i)\\\\b(humans|human)\\\\b')"
p40
aS"(163, u'(?i)\\\\b(mice|mouse)\\\\b')"
p41
aS"(3196, u'(?i)\\\\b(human|humans)\\\\b')"
p42
atp43
Rp44
sb.