(ifile_types
ParseObject
p0
(dp1
S'methods'
p2
c__builtin__
set
p3
((lp4
S'Method.ANTAGONIST'
p5
aS'Method.AGONIST'
p6
atp7
Rp8
sS'topics'
p9
g3
((lp10
S"(26, u'\\\\bbehav')"
p11
aS"(25, u'\\\\bsocial')"
p12
atp13
Rp14
sS'receptors'
p15
g3
((lp16
(S'5ht7'
p17
I1320
I1327
tp18
a(S'5ht1b'
p19
I1333
I1339
tp20
a(S'5ht7'
p21
I1310
I1320
tp22
a(S'5ht1a'
p23
I1320
I1326
tp24
atp25
Rp26
sS'raw_text_methods'
p27
g3
((lp28
S"(13, u'\\\\bagonist')"
p29
aS"(12, u'\\\\bantagonist')"
p30
atp31
Rp32
sS'regions'
p33
g3
((lp34
tp35
Rp36
sS'year'
p37
V2011
p38
sS'species'
p39
g3
((lp40
tp41
Rp42
sb.