(ifile_types
ParseObject
p0
(dp1
S'methods'
p2
c__builtin__
set
p3
((lp4
S'Method.AGONIST'
p5
atp6
Rp7
sS'topics'
p8
g3
((lp9
S"(7, u'\\\\bdepressi')"
p10
atp11
Rp12
sS'receptors'
p13
g3
((lp14
(S'5ht1a'
p15
I41
I52
tp16
a(S'5ht1a'
p17
I1365
I1371
tp18
a(S'5ht1a'
p19
I710
I716
tp20
a(S'5ht1a'
p21
I1480
I1486
tp22
a(S'5ht1a'
p23
I484
I490
tp24
atp25
Rp26
sS'raw_text_methods'
p27
g3
((lp28
S"(13, u'\\\\bagonist')"
p29
aS"(15, u'\\\\b8ohdpat')"
p30
atp31
Rp32
sS'regions'
p33
g3
((lp34
tp35
Rp36
sS'year'
p37
V2007
p38
sS'species'
p39
g3
((lp40
tp41
Rp42
sb.