(ifile_types
ParseObject
p0
(dp1
S'methods'
p2
c__builtin__
set
p3
((lp4
S'Method.PET'
p5
atp6
Rp7
sS'topics'
p8
g3
((lp9
tp10
Rp11
sS'receptors'
p12
g3
((lp13
(S'5ht2a'
p14
I689
I695
tp15
atp16
Rp17
sS'raw_text_methods'
p18
g3
((lp19
S"(17, u'\\\\bpet')"
p20
aS"(19, u'\\\\bpositron emission tomography')"
p21
aS"(54, u'\\\\bautoradiography')"
p22
atp23
Rp24
sS'regions'
p25
g3
((lp26
tp27
Rp28
sS'year'
p29
V2005
p30
sS'species'
p31
g3
((lp32
tp33
Rp34
sb.