(ifile_types
ParseObject
p0
(dp1
S'antagonists'
p2
c__builtin__
set
p3
((lp4
S"(124, u'\\\\bondansetron')"
p5
aS"(14, u'\\\\bmethiothepin')"
p6
aS"(123, u'\\\\bgranisetron')"
p7
aS"(129, u'\\\\brenzapride')"
p8
atp9
Rp10
sS'methods'
p11
g3
((lp12
S'Method.ANTAGONIST'
p13
aS'Method.AGONIST'
p14
atp15
Rp16
sS'topics'
p17
g3
((lp18
S"(17, u'\\\\bgroom')"
p19
aS"(4, u'\\\\blocomot')"
p20
atp21
Rp22
sS'receptors'
p23
g3
((lp24
S'5ht3'
p25
atp26
Rp27
sS'regions'
p28
g3
((lp29
S"(96, u'(?i)\\\\b(ventrals|ventral)(-|\\\\s+)?(tegmentals|tegmental)(-|\\\\s+)?(areas|area)\\\\b')"
p30
aS"(226, u'(?i)\\\\b(nuclei|nucleus)(-|\\\\s+)?(accumben|accumbens)\\\\b')"
p31
atp32
Rp33
sS'year'
p34
V1996
p35
sS'agonists'
p36
g3
((lp37
S"(98, u'\\\\b5 ?carboxamidotryptamine')"
p38
aS"(203, u'\\\\brenzapride')"
p39
aS"(186, u'\\\\b2 ?methyl ?5 ?ht')"
p40
atp41
Rp42
sS'species'
p43
g3
((lp44
S"(5958, u'(?i)\\\\b(rats|rat)\\\\b')"
p45
atp46
Rp47
sb.