(ifile_types
ParseObject
p0
(dp1
S'methods'
p2
c__builtin__
set
p3
((lp4
S'Method.ANTAGONIST'
p5
aS'Method.AGONIST'
p6
atp7
Rp8
sS'topics'
p9
g3
((lp10
S"(4, u'\\\\btreatment')"
p11
atp12
Rp13
sS'receptors'
p14
g3
((lp15
(S'5ht1a'
p16
I1337
I1343
tp17
a(S'5ht1b'
p18
I709
I717
tp19
a(S'5ht1a'
p20
I1804
I1810
tp21
a(S'5ht1a'
p22
I709
I715
tp23
a(S'5ht5'
p24
I409
I419
tp25
a(S'5ht1a'
p26
I1109
I1115
tp27
a(S'5ht1a'
p28
I2539
I2545
tp29
atp30
Rp31
sS'raw_text_methods'
p32
g3
((lp33
S"(13, u'\\\\bagonist')"
p34
aS"(15, u'\\\\b8ohdpat')"
p35
aS"(27, u'\\\\blsd')"
p36
aS"(29, u'\\\\bdiethylamide')"
p37
aS"(12, u'\\\\bantagonist')"
p38
atp39
Rp40
sS'regions'
p41
g3
((lp42
S"(3, u'(?i)\\\\b(postsynaptics|postsynaptic)\\\\b')"
p43
atp44
Rp45
sS'year'
p46
V1998
p47
sS'species'
p48
g3
((lp49
S"(3, u'(?i)\\\\b(males|male)\\\\b')"
p50
aS"(4, u'(?i)\\\\b(rats|rat)\\\\b')"
p51
atp52
Rp53
sb.