(ifile_types
ParseObject
p0
(dp1
S'methods'
p2
c__builtin__
set
p3
((lp4
S'Method.ANTAGONIST'
p5
aS'Method.AGONIST'
p6
atp7
Rp8
sS'topics'
p9
g3
((lp10
S"(7, u'\\\\bdepressi')"
p11
aS"(3, u'\\\\bclinical')"
p12
aS"(17, u'\\\\balzheimer')"
p13
aS"(2, u'\\\\bdisorder')"
p14
atp15
Rp16
sS'receptors'
p17
g3
((lp18
(S'5ht1a'
p19
I1665
I1671
tp20
a(S'5ht1a'
p21
I355
I361
tp22
a(S'5ht1a'
p23
I1237
I1243
tp24
a(S'5ht1a'
p25
I837
I843
tp26
a(S'5ht1a'
p27
I1460
I1466
tp28
a(S'5ht1a'
p29
I1920
I1926
tp30
a(S'5ht1'
p31
I61
I66
tp32
a(S'5ht1a'
p33
I644
I650
tp34
a(S'5ht1a'
p35
I341
I352
tp36
a(S'5ht1'
p37
I476
I481
tp38
a(S'5ht1a'
p39
I1151
I1157
tp40
atp41
Rp42
sS'raw_text_methods'
p43
g3
((lp44
S"(13, u'\\\\bagonist')"
p45
aS"(2, u'\\\\blabeling')"
p46
aS"(3, u'\\\\bimmunoreactiv')"
p47
aS"(12, u'\\\\bantagonist')"
p48
atp49
Rp50
sS'regions'
p51
g3
((lp52
S"(19, u'(?i)\\\\b(cortexes|cortex)\\\\b')"
p53
aS"(3, u'(?i)\\\\b(postsynaptics|postsynaptic)\\\\b')"
p54
atp55
Rp56
sS'year'
p57
V2007
p58
sS'species'
p59
g3
((lp60
S"(4, u'(?i)\\\\b(rats|rat)\\\\b')"
p61
atp62
Rp63
sb.