(ifile_types
ParseObject
p0
(dp1
S'antagonists'
p2
c__builtin__
set
p3
((lp4
S"(31, u'\\\\bway ?100635')"
p5
aS"(52, u'\\\\bmdl ?100907')"
p6
atp7
Rp8
sS'methods'
p9
g3
((lp10
S'Method.ANTAGONIST'
p11
aS'Method.AGONIST'
p12
atp13
Rp14
sS'topics'
p15
g3
((lp16
S"(35, u'\\\\bstress')"
p17
aS"(10, u'\\\\banxiety')"
p18
atp19
Rp20
sS'receptors'
p21
g3
((lp22
S'5ht1b'
p23
aS'5ht1a'
p24
aS'5ht2'
p25
atp26
Rp27
sS'regions'
p28
g3
((lp29
S"(209, u'(?i)\\\\b(amygdalas|amygdala)\\\\b')"
p30
aS"(254, u'(?i)\\\\b(prefrontals|prefrontal)(-|\\\\s+)?(cortexes|cortex)\\\\b')"
p31
aS"(215, u'(?i)\\\\b(basolaterals|basolateral)(-|\\\\s+)?(amygdalas|amygdala)\\\\b')"
p32
aS"(199, u'(?i)\\\\b(externals|external)(-|\\\\s+)?(capsules|capsule)\\\\b')"
p33
aS"(198, u'(?i)\\\\b(internals|internal)(-|\\\\s+)?(capsules|capsule)\\\\b')"
p34
aS"(255, u'(?i)\\\\b(pres|pre)(-|\\\\s+)?(frontals|frontal)(-|\\\\s+)?(cortexes|cortex)\\\\b')"
p35
atp36
Rp37
sS'year'
p38
V2017
p39
sS'agonists'
p40
g3
((lp41
S"(100, u'\\\\bcp ?93129')"
p42
aS"(85, u'\\\\b8 ?oh ?dpat')"
p43
atp44
Rp45
sS'species'
p46
g3
((lp47
tp48
Rp49
sb.