(ifile_types
ParseObject
p0
(dp1
S'methods'
p2
c__builtin__
set
p3
((lp4
tp5
Rp6
sS'topics'
p7
g3
((lp8
tp9
Rp10
sS'receptors'
p11
g3
((lp12
(S'5ht5'
p13
I275
I285
tp14
a(S'5ht1a'
p15
I1510
I1516
tp16
a(S'5ht2c'
p17
I1290
I1296
tp18
a(S'5ht1a'
p19
I1226
I1232
tp20
atp21
Rp22
sS'raw_text_methods'
p23
g3
((lp24
tp25
Rp26
sS'regions'
p27
g3
((lp28
S"(4, u'(?i)\\\\b(presynaptics|presynaptic)\\\\b')"
p29
atp30
Rp31
sS'year'
p32
V2012
p33
sS'species'
p34
g3
((lp35
tp36
Rp37
sb.