(ifile_types
ParseObject
p0
(dp1
S'methods'
p2
c__builtin__
set
p3
((lp4
tp5
Rp6
sS'topics'
p7
g3
((lp8
tp9
Rp10
sS'receptors'
p11
g3
((lp12
(S'5ht1a'
p13
I950
I956
tp14
a(S'5ht2a'
p15
I961
I967
tp16
a(S'5ht2a'
p17
I161
I167
tp18
a(S'5ht1a'
p19
I150
I156
tp20
atp21
Rp22
sS'raw_text_methods'
p23
g3
((lp24
tp25
Rp26
sS'regions'
p27
g3
((lp28
tp29
Rp30
sS'year'
p31
V2002
p32
sS'species'
p33
g3
((lp34
tp35
Rp36
sb.