(ifile_types
ParseObject
p0
(dp1
S'methods'
p2
c__builtin__
set
p3
((lp4
tp5
Rp6
sS'topics'
p7
g3
((lp8
tp9
Rp10
sS'receptors'
p11
g3
((lp12
(S'5ht1a'
p13
I1140
I1146
tp14
a(S'5ht1a'
p15
I1122
I1128
tp16
atp17
Rp18
sS'raw_text_methods'
p19
g3
((lp20
S"(54, u'\\\\bautoradiography')"
p21
atp22
Rp23
sS'regions'
p24
g3
((lp25
S"(19, u'(?i)\\\\b(cortexes|cortex)\\\\b')"
p26
aS"(9, u'(?i)\\\\b(cerebellums|cerebellum)\\\\b')"
p27
atp28
Rp29
sS'year'
p30
V1996
p31
sS'species'
p32
g3
((lp33
tp34
Rp35
sb.