(ifile_types
ParseObject
p0
(dp1
S'methods'
p2
c__builtin__
set
p3
((lp4
tp5
Rp6
sS'topics'
p7
g3
((lp8
S"(8, u'\\\\banxi')"
p9
aS"(7, u'\\\\bdepressi')"
p10
aS"(26, u'\\\\bbehav')"
p11
atp12
Rp13
sS'receptors'
p14
g3
((lp15
(S'5ht1d'
p16
I324
I330
tp17
a(S'5ht1'
p18
I179
I184
tp19
a(S'5ht1d'
p20
I46
I52
tp21
a(S'5ht1b'
p22
I1454
I1460
tp23
a(S'5ht1d'
p24
I1501
I1507
tp25
atp26
Rp27
sS'raw_text_methods'
p28
g3
((lp29
S"(47, u'\\\\bsumatriptan')"
p30
atp31
Rp32
sS'regions'
p33
g3
((lp34
tp35
Rp36
sS'year'
p37
V1992
p38
sS'species'
p39
g3
((lp40
S"(4, u'(?i)\\\\b(rats|rat)\\\\b')"
p41
atp42
Rp43
sb.