(ifile_types
ParseObject
p0
(dp1
S'antagonists'
p2
c__builtin__
set
p3
((lp4
S"(29, u'\\\\bspiroxatrine')"
p5
atp6
Rp7
sS'methods'
p8
g3
((lp9
S'Method.AGONIST'
p10
atp11
Rp12
sS'topics'
p13
g3
((lp14
tp15
Rp16
sS'receptors'
p17
g3
((lp18
S'5ht1a'
p19
atp20
Rp21
sS'regions'
p22
g3
((lp23
tp24
Rp25
sS'year'
p26
V1994
p27
sS'agonists'
p28
g3
((lp29
S"(92, u'\\\\b8 ?oh ?dpat')"
p30
aS"(24, u'\\\\bbuspirone')"
p31
atp32
Rp33
sS'species'
p34
g3
((lp35
S"(4624, u'(?i)(apes|ape)')"
p36
aS"(5958, u'(?i)(rats|rat)')"
p37
aS"(5743, u'(?i)(bots|bot)')"
p38
aS"(81, u'(?i)(asps|asp)')"
p39
aS"(468, u'(?i)(oxen|ox)')"
p40
aS"(1055, u'(?i)(men|man)')"
p41
aS"(3726, u'(?i)(mates|mate)')"
p42
aS"(6215, u'(?i)(racers|racer)')"
p43
aS"(4979, u'(?i)(cats|cat)')"
p44
aS"(3550, u'(?i)(anis|ani)')"
p45
aS"(3812, u'(?i)(studs|stud)')"
p46
atp47
Rp48
sb.