(ifile_types
ParseObject
p0
(dp1
S'methods'
p2
c__builtin__
set
p3
((lp4
S'Method.AGONIST'
p5
atp6
Rp7
sS'topics'
p8
g3
((lp9
S"(31, u'\\\\brespiratory')"
p10
atp11
Rp12
sS'receptors'
p13
g3
((lp14
(S'5ht1a'
p15
I63
I69
tp16
a(S'5ht1a'
p17
I246
I252
tp18
atp19
Rp20
sS'raw_text_methods'
p21
g3
((lp22
S"(13, u'\\\\bagonist')"
p23
aS"(15, u'\\\\b8ohdpat')"
p24
atp25
Rp26
sS'regions'
p27
g3
((lp28
S"(14, u'(?i)\\\\b(caudals|caudal)\\\\b')"
p29
atp30
Rp31
sS'year'
p32
V1994
p33
sS'species'
p34
g3
((lp35
tp36
Rp37
sb.