(ifile_types
ParseObject
p0
(dp1
S'antagonists'
p2
c__builtin__
set
p3
((lp4
tp5
Rp6
sS'methods'
p7
g3
((lp8
S'Method.AGONIST'
p9
atp10
Rp11
sS'topics'
p12
g3
((lp13
S"(11, u'\\\\banxiolyt')"
p14
atp15
Rp16
sS'receptors'
p17
g3
((lp18
S'5ht1c'
p19
aS'5ht1b'
p20
aS'5ht1a'
p21
aS'5ht5'
p22
aS'5ht2'
p23
atp24
Rp25
sS'regions'
p26
g3
((lp27
tp28
Rp29
sS'year'
p30
V1990
p31
sS'agonists'
p32
g3
((lp33
S"(80, u'\\\\btandospirone')"
p34
aS"(67, u'\\\\bpyrimidinylpiperazine')"
p35
aS"(47, u'\\\\bgepirone')"
p36
aS"(24, u'\\\\bbuspirone')"
p37
aS"(92, u'\\\\b8 ?oh ?dpat')"
p38
aS"(50, u'\\\\bipsapirone')"
p39
aS"(155, u'\\\\bmem')"
p40
atp41
Rp42
sS'species'
p43
g3
((lp44
S"(1070, u'(?i)(pets|pet)')"
p45
aS"(5958, u'(?i)(rats|rat)')"
p46
aS"(6857, u'(?i)(ormers|ormer)')"
p47
aS"(867, u'(?i)(tits|tit)')"
p48
aS"(4163, u'(?i)(ermines|ermine)')"
p49
aS"(468, u'(?i)(oxen|ox)')"
p50
aS"(3404, u'(?i)(titis|titi)')"
p51
aS"(3726, u'(?i)(mates|mate)')"
p52
aS"(1054, u'(?i)(homoes|homo)')"
p53
aS"(6356, u'(?i)(ais|ai)')"
p54
aS"(6682, u'(?i)(tera|teras)')"
p55
aS"(3812, u'(?i)(studs|stud)')"
p56
aS"(1823, u'(?i)(merls|merl)')"
p57
atp58
Rp59
sb.