(ifile_types
ParseObject
p0
(dp1
S'methods'
p2
c__builtin__
set
p3
((lp4
S'Method.ANTAGONIST'
p5
aS'Method.AGONIST'
p6
atp7
Rp8
sS'topics'
p9
g3
((lp10
S"(26, u'\\\\bbehav')"
p11
aS"(2, u'\\\\bdisorder')"
p12
aS"(33, u'\\\\blocomot')"
p13
aS"(10, u'\\\\bocd')"
p14
aS"(4, u'\\\\btreatment')"
p15
aS"(3, u'\\\\bclinical')"
p16
atp17
Rp18
sS'receptors'
p19
g3
((lp20
(S'5ht1'
p21
I478
I483
tp22
a(S'5ht1a'
p23
I1035
I1043
tp24
a(S'5ht1b'
p25
I1035
I1041
tp26
a(S'5ht1b'
p27
I178
I189
tp28
a(S'5ht1'
p29
I201
I206
tp30
a(S'5ht1d'
p31
I1205
I1211
tp32
a(S'5ht1b'
p33
I71
I77
tp34
a(S'5ht1'
p35
I1782
I1787
tp36
a(S'5ht1'
p37
I613
I618
tp38
a(S'5ht1a'
p39
I1158
I1164
tp40
a(S'5ht1'
p41
I1823
I1828
tp42
a(S'5ht1'
p43
I818
I823
tp44
a(S'5ht1b'
p45
I1205
I1210
tp46
atp47
Rp48
sS'raw_text_methods'
p49
g3
((lp50
S"(13, u'\\\\bagonist')"
p51
aS"(8, u'\\\\bru24969')"
p52
aS"(11, u'\\\\bfluoxetine')"
p53
aS"(6, u'\\\\bgr127935')"
p54
aS"(51, u'\\\\bway100635')"
p55
aS"(12, u'\\\\bantagonist')"
p56
atp57
Rp58
sS'regions'
p59
g3
((lp60
S"(19, u'(?i)\\\\b(cortexes|cortex)\\\\b')"
p61
aS"(9, u'(?i)\\\\b(cerebellums|cerebellum)\\\\b')"
p62
atp63
Rp64
sS'year'
p65
V2016
p66
sS'species'
p67
g3
((lp68
S"(1, u'(?i)\\\\b(mice|mouse)\\\\b')"
p69
aS"(5, u'(?i)\\\\b(mices|mice)\\\\b')"
p70
atp71
Rp72
sb.