(ifile_types
ParseObject
p0
(dp1
S'methods'
p2
c__builtin__
set
p3
((lp4
tp5
Rp6
sS'topics'
p7
g3
((lp8
S"(22, u'\\\\bschizophreni')"
p9
aS"(1, u'\\\\bpatient')"
p10
aS"(23, u'\\\\bantipsychotic')"
p11
aS"(4, u'\\\\btreatment')"
p12
atp13
Rp14
sS'receptors'
p15
g3
((lp16
(S'5ht1a'
p17
I1193
I1199
tp18
a(S'5ht2a'
p19
I986
I992
tp20
a(S'5ht2c'
p21
I850
I857
tp22
a(S'5ht2a'
p23
I850
I856
tp24
a(S'5ht2c'
p25
I986
I993
tp26
a(S'5ht2'
p27
I1590
I1595
tp28
atp29
Rp30
sS'raw_text_methods'
p31
g3
((lp32
tp33
Rp34
sS'regions'
p35
g3
((lp36
S"(19, u'(?i)\\\\b(cortexes|cortex)\\\\b')"
p37
aS"(14, u'(?i)\\\\b(caudals|caudal)\\\\b')"
p38
atp39
Rp40
sS'year'
p41
V1997
p42
sS'species'
p43
g3
((lp44
tp45
Rp46
sb.