(ifile_types
ParseObject
p0
(dp1
S'antagonists'
p2
c__builtin__
set
p3
((lp4
tp5
Rp6
sS'methods'
p7
g3
((lp8
S'Method.AGONIST'
p9
atp10
Rp11
sS'topics'
p12
g3
((lp13
S"(11, u'\\\\banxiolyt')"
p14
atp15
Rp16
sS'receptors'
p17
g3
((lp18
S'5ht1a'
p19
atp20
Rp21
sS'regions'
p22
g3
((lp23
S"(318, u'(?i)(raphes|raphe)(-|\\\\s+)?(nuclei|nucleus)')"
p24
atp25
Rp26
sS'year'
p27
V1988
p28
sS'agonists'
p29
g3
((lp30
S"(47, u'\\\\bgepirone')"
p31
aS"(92, u'\\\\b8 ?oh ?dpat')"
p32
aS"(24, u'\\\\bbuspirone')"
p33
aS"(50, u'\\\\bipsapirone')"
p34
atp35
Rp36
sS'species'
p37
g3
((lp38
S"(2568, u'(?i)(hens|hen)')"
p39
aS"(5958, u'(?i)(rats|rat)')"
p40
aS"(6753, u'(?i)(da|das)')"
p41
aS"(6682, u'(?i)(tera|teras)')"
p42
aS"(468, u'(?i)(oxen|ox)')"
p43
aS"(1055, u'(?i)(men|man)')"
p44
aS"(6249, u'(?i)(ants|ant)')"
p45
aS"(1349, u'(?i)(rams|ram)')"
p46
aS"(4979, u'(?i)(cats|cat)')"
p47
aS"(3550, u'(?i)(anis|ani)')"
p48
aS"(3522, u'(?i)(tetras|tetra)')"
p49
aS"(6356, u'(?i)(ais|ai)')"
p50
aS"(6391, u'(?i)(asses|ass)')"
p51
atp52
Rp53
sb.