(ifile_types
ParseObject
p0
(dp1
S'methods'
p2
c__builtin__
set
p3
((lp4
S'Method.ANTAGONIST'
p5
aS'Method.AGONIST'
p6
atp7
Rp8
sS'topics'
p9
g3
((lp10
S"(23, u'\\\\bantipsychotic')"
p11
aS"(3, u'\\\\bclinical')"
p12
atp13
Rp14
sS'receptors'
p15
g3
((lp16
(S'5ht1b'
p17
I720
I728
tp18
a(S'5ht1a'
p19
I1475
I1481
tp20
a(S'5ht1a'
p21
I1352
I1358
tp22
a(S'5ht1a'
p23
I720
I726
tp24
a(S'5ht2a'
p25
I236
I242
tp26
a(S'5ht1a'
p27
I671
I677
tp28
a(S'5ht1'
p29
I720
I728
tp30
a(S'5ht1a'
p31
I205
I211
tp32
a(S'5ht1a'
p33
I414
I420
tp34
a(S'5ht5'
p35
I173
I183
tp36
atp37
Rp38
sS'raw_text_methods'
p39
g3
((lp40
S"(13, u'\\\\bagonist')"
p41
aS"(40, u'\\\\bclozapine')"
p42
aS"(21, u'\\\\bipsapirone')"
p43
aS"(12, u'\\\\bantagonist')"
p44
atp45
Rp46
sS'regions'
p47
g3
((lp48
tp49
Rp50
sS'year'
p51
V1999
p52
sS'species'
p53
g3
((lp54
S"(4, u'(?i)\\\\b(rats|rat)\\\\b')"
p55
atp56
Rp57
sb.