(ifile_types
ParseObject
p0
(dp1
S'methods'
p2
c__builtin__
set
p3
((lp4
S'Method.ANTAGONIST'
p5
atp6
Rp7
sS'topics'
p8
g3
((lp9
S"(5, u'\\\\btherap')"
p10
aS"(7, u'\\\\bdepressi')"
p11
aS"(23, u'\\\\bantipsychotic')"
p12
aS"(4, u'\\\\btreatment')"
p13
atp14
Rp15
sS'receptors'
p16
g3
((lp17
(S'5ht1a'
p18
I1275
I1281
tp19
a(S'5ht2a'
p20
I1639
I1645
tp21
a(S'5ht1a'
p22
I1607
I1613
tp23
atp24
Rp25
sS'raw_text_methods'
p26
g3
((lp27
S"(38, u'\\\\bssri')"
p28
aS"(12, u'\\\\bantagonist')"
p29
atp30
Rp31
sS'regions'
p32
g3
((lp33
S"(20, u'(?i)\\\\b(prefrontals|prefrontal)\\\\b')"
p34
aS"(21, u'(?i)\\\\b(mpfcs|mpfc)\\\\b')"
p35
aS"(19, u'(?i)\\\\b(cortexes|cortex)\\\\b')"
p36
atp37
Rp38
sS'year'
p39
V2006
p40
sS'species'
p41
g3
((lp42
S"(4, u'(?i)\\\\b(rats|rat)\\\\b')"
p43
atp44
Rp45
sb.