(ifile_types
ParseObject
p0
(dp1
S'methods'
p2
c__builtin__
set
p3
((lp4
S'Method.AGONIST'
p5
atp6
Rp7
sS'topics'
p8
g3
((lp9
S"(7, u'\\\\bdepressi')"
p10
aS"(4, u'\\\\btreatment')"
p11
atp12
Rp13
sS'receptors'
p14
g3
((lp15
(S'5ht1a'
p16
I1394
I1400
tp17
a(S'5ht1'
p18
I399
I404
tp19
a(S'5ht1'
p20
I202
I212
tp21
a(S'5ht1a'
p22
I432
I438
tp23
a(S'5ht1a'
p24
I148
I154
tp25
atp26
Rp27
sS'raw_text_methods'
p28
g3
((lp29
S"(13, u'\\\\bagonist')"
p30
atp31
Rp32
sS'regions'
p33
g3
((lp34
S"(19, u'(?i)\\\\b(cortexes|cortex)\\\\b')"
p35
aS"(7, u'(?i)\\\\b(entorhinals|entorhinal)\\\\b')"
p36
aS"(3, u'(?i)\\\\b(postsynaptics|postsynaptic)\\\\b')"
p37
atp38
Rp39
sS'year'
p40
V1997
p41
sS'species'
p42
g3
((lp43
S"(4, u'(?i)\\\\b(rats|rat)\\\\b')"
p44
atp45
Rp46
sb.