(ifile_types
ParseObject
p0
(dp1
S'methods'
p2
c__builtin__
set
p3
((lp4
S'Method.ANTAGONIST'
p5
aS'Method.AGONIST'
p6
atp7
Rp8
sS'topics'
p9
g3
((lp10
tp11
Rp12
sS'receptors'
p13
g3
((lp14
(S'5ht2'
p15
I1017
I1022
tp16
a(S'5ht1e'
p17
I1979
I1985
tp18
a(S'5ht6'
p19
I2002
I2007
tp20
a(S'5ht3'
p21
I1028
I1033
tp22
a(S'5ht5'
p23
I1995
I2000
tp24
a(S'5ht1'
p25
I1010
I1015
tp26
a(S'5ht4'
p27
I1202
I1207
tp28
a(S'5ht1f'
p29
I1987
I1993
tp30
a(S'5ht7'
p31
I2013
I2018
tp32
atp33
Rp34
sS'raw_text_methods'
p35
g3
((lp36
S"(13, u'\\\\bagonist')"
p37
aS"(12, u'\\\\bantagonist')"
p38
atp39
Rp40
sS'regions'
p41
g3
((lp42
tp43
Rp44
sS'year'
p45
V1994
p46
sS'species'
p47
g3
((lp48
tp49
Rp50
sb.