(ifile_types
ParseObject
p0
(dp1
S'antagonists'
p2
c__builtin__
set
p3
((lp4
S"(123, u'\\\\bclozapine')"
p5
aS"(61, u'\\\\bmdl ?100907')"
p6
aS"(142, u'\\\\bm1')"
p7
aS"(56, u'\\\\bclozapine')"
p8
atp9
Rp10
sS'methods'
p11
g3
((lp12
S'Method.STIMULATION'
p13
aS'Method.ANTAGONIST'
p14
atp15
Rp16
sS'topics'
p17
g3
((lp18
S"(6, u'\\\\bcognit')"
p19
atp20
Rp21
sS'receptors'
p22
g3
((lp23
S'5ht2a'
p24
atp25
Rp26
sS'regions'
p27
g3
((lp28
S"(254, u'(?i)(prefrontals|prefrontal)(-|\\\\s+)?(cortexes|cortex)')"
p29
aS"(255, u'(?i)(pres|pre)(-|\\\\s+)?(frontals|frontal)(-|\\\\s+)?(cortexes|cortex)')"
p30
aS"(34, u'(?i)(pon|pons)')"
p31
atp32
Rp33
sS'year'
p34
V1998
p35
sS'agonists'
p36
g3
((lp37
S"(27, u'\\\\bclozapine')"
p38
atp39
Rp40
sS'species'
p41
g3
((lp42
S"(5958, u'(?i)(rats|rat)')"
p43
aS"(6857, u'(?i)(ormers|ormer)')"
p44
aS"(6753, u'(?i)(da|das)')"
p45
aS"(81, u'(?i)(asps|asp)')"
p46
aS"(468, u'(?i)(oxen|ox)')"
p47
aS"(1055, u'(?i)(men|man)')"
p48
aS"(3726, u'(?i)(mates|mate)')"
p49
aS"(1349, u'(?i)(rams|ram)')"
p50
aS"(4979, u'(?i)(cats|cat)')"
p51
aS"(6249, u'(?i)(ants|ant)')"
p52
aS"(7094, u'(?i)(curs|cur)')"
p53
aS"(1961, u'(?i)(pens|pen)')"
p54
aS"(6356, u'(?i)(ais|ai)')"
p55
aS"(1823, u'(?i)(merls|merl)')"
p56
aS"(2809, u'(?i)(toms|tom)')"
p57
aS"(821, u'(?i)(lice|louse)')"
p58
aS"(7552, u'(?i)(bats|bat)')"
p59
atp60
Rp61
sb.