(ifile_types
ParseObject
p0
(dp1
S'methods'
p2
c__builtin__
set
p3
((lp4
S'Method.ANTAGONIST'
p5
atp6
Rp7
sS'topics'
p8
g3
((lp9
S"(1, u'\\\\bpatient')"
p10
aS"(32, u'\\\\bvomit')"
p11
aS"(5, u'\\\\btherap')"
p12
aS"(3, u'\\\\bclinical')"
p13
atp14
Rp15
sS'receptors'
p16
g3
((lp17
(S'5ht3'
p18
I289
I294
tp19
a(S'5ht3'
p20
I466
I471
tp21
a(S'5ht3'
p22
I2501
I2506
tp23
a(S'5ht3'
p24
I1031
I1036
tp25
atp26
Rp27
sS'raw_text_methods'
p28
g3
((lp29
S"(20, u'\\\\bondansetron')"
p30
aS"(12, u'\\\\bantagonist')"
p31
atp32
Rp33
sS'regions'
p34
g3
((lp35
tp36
Rp37
sS'year'
p38
V2007
p39
sS'species'
p40
g3
((lp41
tp42
Rp43
sb.