(ifile_types
ParseObject
p0
(dp1
S'antagonists'
p2
c__builtin__
set
p3
((lp4
tp5
Rp6
sS'methods'
p7
g3
((lp8
S'Method.AGONIST'
p9
atp10
Rp11
sS'topics'
p12
g3
((lp13
S"(4, u'\\\\blocomot')"
p14
atp15
Rp16
sS'receptors'
p17
g3
((lp18
S'5ht2c'
p19
atp20
Rp21
sS'regions'
p22
g3
((lp23
S"(230, u'(?i)\\\\b(ventrals|ventral)(-|\\\\s+)?(pallidums|pallidum)\\\\b')"
p24
aS"(94, u'(?i)\\\\b(dorsals|dorsal)(-|\\\\s+)?(raphes|raphe)(-|\\\\s+)?(nuclei|nucleus)\\\\b')"
p25
aS"(318, u'(?i)\\\\b(raphes|raphe)(-|\\\\s+)?(nuclei|nucleus)\\\\b')"
p26
atp27
Rp28
sS'year'
p29
V2013
p30
sS'agonists'
p31
g3
((lp32
S"(166, u'\\\\bmk ?212')"
p33
atp34
Rp35
sS'species'
p36
g3
((lp37
S"(5967, u'(?i)\\\\b(males|male)\\\\b')"
p38
aS"(4091, u'(?i)\\\\b(adults|adult)\\\\b')"
p39
aS"(5958, u'(?i)\\\\b(rats|rat)\\\\b')"
p40
atp41
Rp42
sb.