(ifile_types
ParseObject
p0
(dp1
S'antagonists'
p2
c__builtin__
set
p3
((lp4
S"(31, u'\\\\bway ?100135')"
p5
aS"(54, u'\\\\britanserin')"
p6
aS"(130, u'\\\\britanserin')"
p7
atp8
Rp9
sS'methods'
p10
g3
((lp11
S'Method.ANTAGONIST'
p12
aS'Method.AGONIST'
p13
atp14
Rp15
sS'topics'
p16
g3
((lp17
S"(29, u'\\\\bsex')"
p18
aS"(12, u'\\\\banxiogen')"
p19
aS"(11, u'\\\\banxiolyt')"
p20
aS"(10, u'\\\\banxiety')"
p21
atp22
Rp23
sS'receptors'
p24
g3
((lp25
S'5ht1a'
p26
aS'5ht2'
p27
aS'5ht2a'
p28
atp29
Rp30
sS'regions'
p31
g3
((lp32
tp33
Rp34
sS'year'
p35
V1996
p36
sS'agonists'
p37
g3
((lp38
S"(92, u'\\\\b8 ?oh ?dpat')"
p39
aS"(33, u'\\\\bdoi')"
p40
atp41
Rp42
sS'species'
p43
g3
((lp44
S"(2568, u'(?i)(hens|hen)')"
p45
aS"(6125, u'(?i)(females|female)')"
p46
aS"(702, u'(?i)(genets|genet)')"
p47
aS"(4979, u'(?i)(cats|cat)')"
p48
aS"(4091, u'(?i)(adults|adult)')"
p49
aS"(5967, u'(?i)(males|male)')"
p50
aS"(468, u'(?i)(oxen|ox)')"
p51
aS"(6249, u'(?i)(ants|ant)')"
p52
aS"(4964, u'(?i)(serins|serin)')"
p53
aS"(3550, u'(?i)(anis|ani)')"
p54
aS"(3522, u'(?i)(tetras|tetra)')"
p55
aS"(5958, u'(?i)(rats|rat)')"
p56
aS"(1961, u'(?i)(pens|pen)')"
p57
aS"(3812, u'(?i)(studs|stud)')"
p58
aS"(5743, u'(?i)(bots|bot)')"
p59
atp60
Rp61
sb.