(ifile_types
ParseObject
p0
(dp1
S'antagonists'
p2
c__builtin__
set
p3
((lp4
tp5
Rp6
sS'methods'
p7
g3
((lp8
tp9
Rp10
sS'topics'
p11
g3
((lp12
S"(6, u'\\\\bcognit')"
p13
aS"(35, u'\\\\bstress')"
p14
aS"(9, u'\\\\bdepress')"
p15
aS"(1, u'\\\\bmood')"
p16
atp17
Rp18
sS'receptors'
p19
g3
((lp20
S'5ht2c'
p21
aS'5ht2a'
p22
atp23
Rp24
sS'regions'
p25
g3
((lp26
tp27
Rp28
sS'year'
p29
V2013
p30
sS'agonists'
p31
g3
((lp32
tp33
Rp34
sS'species'
p35
g3
((lp36
S"(6753, u'(?i)\\\\b(da|das)\\\\b')"
p37
atp38
Rp39
sb.