(ifile_types
ParseObject
p0
(dp1
S'methods'
p2
c__builtin__
set
p3
((lp4
S'Method.ANTAGONIST'
p5
aS'Method.AGONIST'
p6
atp7
Rp8
sS'topics'
p9
g3
((lp10
S"(26, u'\\\\bbehav')"
p11
aS"(7, u'\\\\bdepressi')"
p12
aS"(13, u'\\\\bantidepress')"
p13
aS"(4, u'\\\\btreatment')"
p14
atp15
Rp16
sS'receptors'
p17
g3
((lp18
(S'5ht1a'
p19
I1508
I1514
tp20
a(S'5ht1a'
p21
I1750
I1756
tp22
a(S'5ht1a'
p23
I1224
I1230
tp24
atp25
Rp26
sS'raw_text_methods'
p27
g3
((lp28
S"(13, u'\\\\bagonist')"
p29
aS"(15, u'\\\\b8ohdpat')"
p30
aS"(4, u'\\\\bpcpa')"
p31
aS"(51, u'\\\\bway100635')"
p32
aS"(12, u'\\\\bantagonist')"
p33
atp34
Rp35
sS'regions'
p36
g3
((lp37
tp38
Rp39
sS'year'
p40
V2017
p41
sS'species'
p42
g3
((lp43
S"(1, u'(?i)\\\\b(mice|mouse)\\\\b')"
p44
aS"(5, u'(?i)\\\\b(mices|mice)\\\\b')"
p45
atp46
Rp47
sb.