(ifile_types
ParseObject
p0
(dp1
S'antagonists'
p2
c__builtin__
set
p3
((lp4
tp5
Rp6
sS'methods'
p7
g3
((lp8
S'Method.ANTAGONIST'
p9
atp10
Rp11
sS'topics'
p12
g3
((lp13
tp14
Rp15
sS'receptors'
p16
g3
((lp17
S'5ht3a'
p18
aS'5ht3'
p19
atp20
Rp21
sS'regions'
p22
g3
((lp23
S"(226, u'(?i)(nuclei|nucleus)(-|\\\\s+)?(accumben|accumbens)')"
p24
atp25
Rp26
sS'year'
p27
V1994
p28
sS'agonists'
p29
g3
((lp30
tp31
Rp32
sS'species'
p33
g3
((lp34
S"(3812, u'(?i)(studs|stud)')"
p35
aS"(6356, u'(?i)(ais|ai)')"
p36
aS"(4301, u'(?i)(hydras|hydra)')"
p37
aS"(5958, u'(?i)(rats|rat)')"
p38
aS"(6249, u'(?i)(ants|ant)')"
p39
atp40
Rp41
sb.