(ifile_types
ParseObject
p0
(dp1
S'antagonists'
p2
c__builtin__
set
p3
((lp4
S"(32, u'\\\\bway ?100635')"
p5
aS"(204, u'\\\\bsb ?269970')"
p6
aS"(39, u'\\\\bsb ?224289')"
p7
aS"(110, u'\\\\bsb ?242084')"
p8
aS"(61, u'\\\\bmdl ?100907')"
p9
aS"(185, u'\\\\bsb ?399885')"
p10
atp11
Rp12
sS'methods'
p13
g3
((lp14
S'Method.ANTAGONIST'
p15
atp16
Rp17
sS'topics'
p18
g3
((lp19
tp20
Rp21
sS'receptors'
p22
g3
((lp23
S'5ht7'
p24
aS'5ht1b'
p25
aS'5ht1a'
p26
aS'5ht2c'
p27
aS'5ht1'
p28
aS'5ht6'
p29
aS'5ht5'
p30
aS'5ht5a'
p31
atp32
Rp33
sS'regions'
p34
g3
((lp35
S"(34, u'(?i)(pon|pons)')"
p36
atp37
Rp38
sS'year'
p39
V2009
p40
sS'agonists'
p41
g3
((lp42
tp43
Rp44
sS'species'
p45
g3
((lp46
S"(6753, u'(?i)(da|das)')"
p47
aS"(6249, u'(?i)(ants|ant)')"
p48
aS"(5743, u'(?i)(bots|bot)')"
p49
aS"(479, u'(?i)(lings|ling)')"
p50
aS"(6682, u'(?i)(tera|teras)')"
p51
aS"(1349, u'(?i)(rams|ram)')"
p52
aS"(2334, u'(?i)(eels|eel)')"
p53
aS"(4979, u'(?i)(cats|cat)')"
p54
aS"(4099, u'(?i)(hamsters|hamster)')"
p55
aS"(3550, u'(?i)(anis|ani)')"
p56
aS"(3812, u'(?i)(studs|stud)')"
p57
aS"(6391, u'(?i)(asses|ass)')"
p58
aS"(6356, u'(?i)(ais|ai)')"
p59
atp60
Rp61
sb.