(ifile_types
ParseObject
p0
(dp1
S'methods'
p2
c__builtin__
set
p3
((lp4
S'Method.PET'
p5
atp6
Rp7
sS'topics'
p8
g3
((lp9
tp10
Rp11
sS'receptors'
p12
g3
((lp13
(S'5ht4'
p14
I1546
I1551
tp15
a(S'5ht4'
p16
I579
I584
tp17
a(S'5ht4'
p18
I822
I827
tp19
a(S'5ht4'
p20
I38
I43
tp21
a(S'5ht4'
p22
I1043
I1048
tp23
a(S'5ht4'
p24
I1248
I1253
tp25
a(S'5ht4'
p26
I1401
I1406
tp27
a(S'5ht4'
p28
I1320
I1325
tp29
a(S'5ht4'
p30
I546
I551
tp31
atp32
Rp33
sS'raw_text_methods'
p34
g3
((lp35
S"(17, u'\\\\bpet')"
p36
aS"(11, u'\\\\bfluoxetine')"
p37
aS"(18, u'\\\\bimaging')"
p38
aS"(19, u'\\\\bpositron emission tomography')"
p39
aS"(39, u'\\\\bselective serotonin reuptake inhibitor')"
p40
atp41
Rp42
sS'regions'
p43
g3
((lp44
tp45
Rp46
sS'year'
p47
V2014
p48
sS'species'
p49
g3
((lp50
tp51
Rp52
sb.