(ifile_types
ParseObject
p0
(dp1
S'methods'
p2
c__builtin__
set
p3
((lp4
tp5
Rp6
sS'topics'
p7
g3
((lp8
S"(26, u'\\\\bbehav')"
p9
aS"(4, u'\\\\btreatment')"
p10
atp11
Rp12
sS'receptors'
p13
g3
((lp14
(S'5ht2a'
p15
I2272
I2279
tp16
a(S'5ht2a'
p17
I1355
I1360
tp18
a(S'5ht2a'
p19
I1456
I1461
tp20
a(S'5ht1a'
p21
I2559
I2564
tp22
a(S'5ht2a'
p23
I56
I69
tp24
a(S'5ht2c'
p25
I1682
I1687
tp26
a(S'5ht2a'
p27
I2569
I2574
tp28
a(S'5ht1a'
p29
I811
I816
tp30
a(S'5ht2c'
p31
I2126
I2131
tp32
a(S'5ht2a'
p33
I1184
I1189
tp34
a(S'5ht1a'
p35
I717
I722
tp36
a(S'5ht2c'
p37
I2458
I2463
tp38
a(S'5ht2c'
p39
I1962
I1967
tp40
a(S'5ht1a'
p41
I923
I928
tp42
a(S'5ht1a'
p43
I1098
I1103
tp44
a(S'5ht2c'
p45
I1765
I1770
tp46
a(S'5ht1a'
p47
I208
I213
tp48
a(S'5ht2c'
p49
I1540
I1545
tp50
a(S'5ht1a'
p51
I56
I67
tp52
a(S'5ht1a'
p53
I2272
I2277
tp54
a(S'5ht2a'
p55
I208
I215
tp56
atp57
Rp58
sS'raw_text_methods'
p59
g3
((lp60
tp61
Rp62
sS'regions'
p63
g3
((lp64
tp65
Rp66
sS'year'
p67
V1999
p68
sS'species'
p69
g3
((lp70
S"(2, u'(?i)\\\\b(females|female)\\\\b')"
p71
atp72
Rp73
sb.