(ifile_types
ParseObject
p0
(dp1
S'antagonists'
p2
c__builtin__
set
p3
((lp4
tp5
Rp6
sS'methods'
p7
g3
((lp8
S'Method.AGONIST'
p9
atp10
Rp11
sS'topics'
p12
g3
((lp13
tp14
Rp15
sS'receptors'
p16
g3
((lp17
S'5ht1a'
p18
atp19
Rp20
sS'regions'
p21
g3
((lp22
tp23
Rp24
sS'year'
p25
V2002
p26
sS'agonists'
p27
g3
((lp28
S"(149, u'\\\\bmem')"
p29
aS"(85, u'\\\\b8 ?oh ?dpat')"
p30
atp31
Rp32
sS'species'
p33
g3
((lp34
S"(1057, u'(?i)\\\\b(humans|human)\\\\b')"
p35
aS"(3196, u'(?i)\\\\b(human|humans)\\\\b')"
p36
atp37
Rp38
sb.