(ifile_types
ParseObject
p0
(dp1
S'antagonists'
p2
c__builtin__
set
p3
((lp4
tp5
Rp6
sS'methods'
p7
g3
((lp8
S'Method.AGONIST'
p9
atp10
Rp11
sS'topics'
p12
g3
((lp13
tp14
Rp15
sS'receptors'
p16
g3
((lp17
S'5ht1a'
p18
atp19
Rp20
sS'regions'
p21
g3
((lp22
S"(34, u'(?i)(pon|pons)')"
p23
atp24
Rp25
sS'year'
p26
V2002
p27
sS'agonists'
p28
g3
((lp29
S"(92, u'\\\\b8 ?oh ?dpat')"
p30
aS"(155, u'\\\\bmem')"
p31
atp32
Rp33
sS'species'
p34
g3
((lp35
S"(2568, u'(?i)(hens|hen)')"
p36
aS"(6753, u'(?i)(da|das)')"
p37
aS"(4163, u'(?i)(ermines|ermine)')"
p38
aS"(1055, u'(?i)(men|man)')"
p39
aS"(6249, u'(?i)(ants|ant)')"
p40
aS"(6580, u'(?i)(dams|dam)')"
p41
aS"(5743, u'(?i)(bots|bot)')"
p42
aS"(7094, u'(?i)(curs|cur)')"
p43
aS"(5958, u'(?i)(rats|rat)')"
p44
aS"(1057, u'(?i)(humans|human)')"
p45
aS"(3812, u'(?i)(studs|stud)')"
p46
aS"(3196, u'(?i)(human|humans)')"
p47
aS"(6356, u'(?i)(ais|ai)')"
p48
atp49
Rp50
sb.