(ifile_types
ParseObject
p0
(dp1
S'antagonists'
p2
c__builtin__
set
p3
((lp4
tp5
Rp6
sS'methods'
p7
g3
((lp8
tp9
Rp10
sS'topics'
p11
g3
((lp12
S"(9, u'\\\\bdepress')"
p13
atp14
Rp15
sS'receptors'
p16
g3
((lp17
S'5ht1b'
p18
aS'5ht1a'
p19
aS'5ht2c'
p20
atp21
Rp22
sS'regions'
p23
g3
((lp24
tp25
Rp26
sS'year'
p27
V2007
p28
sS'agonists'
p29
g3
((lp30
tp31
Rp32
sS'species'
p33
g3
((lp34
S"(4624, u'(?i)(apes|ape)')"
p35
aS"(5958, u'(?i)(rats|rat)')"
p36
aS"(81, u'(?i)(asps|asp)')"
p37
aS"(468, u'(?i)(oxen|ox)')"
p38
aS"(1055, u'(?i)(men|man)')"
p39
aS"(5743, u'(?i)(bots|bot)')"
p40
aS"(1057, u'(?i)(humans|human)')"
p41
aS"(6356, u'(?i)(ais|ai)')"
p42
aS"(3196, u'(?i)(human|humans)')"
p43
atp44
Rp45
sb.