(ifile_types
ParseObject
p0
(dp1
S'antagonists'
p2
c__builtin__
set
p3
((lp4
S"(31, u'\\\\bway ?100135')"
p5
aS"(22, u'\\\\bpropranolol')"
p6
atp7
Rp8
sS'methods'
p9
g3
((lp10
S'Method.ANTAGONIST'
p11
aS'Method.AGONIST'
p12
atp13
Rp14
sS'topics'
p15
g3
((lp16
S"(11, u'\\\\banxiolyt')"
p17
atp18
Rp19
sS'receptors'
p20
g3
((lp21
S'5ht1a'
p22
atp23
Rp24
sS'regions'
p25
g3
((lp26
S"(362, u'(?i)(brains|brain)(-|\\\\s+)?(stems|stem)')"
p27
aS"(318, u'(?i)(raphes|raphe)(-|\\\\s+)?(nuclei|nucleus)')"
p28
aS"(94, u'(?i)(dorsals|dorsal)(-|\\\\s+)?(raphes|raphe)(-|\\\\s+)?(nuclei|nucleus)')"
p29
atp30
Rp31
sS'year'
p32
V1994
p33
sS'agonists'
p34
g3
((lp35
S"(96, u'\\\\blesopitron')"
p36
aS"(155, u'\\\\bmem')"
p37
atp38
Rp39
sS'species'
p40
g3
((lp41
S"(5537, u'(?i)(hippos|hippo)')"
p42
aS"(4301, u'(?i)(hydras|hydra)')"
p43
aS"(2568, u'(?i)(hens|hen)')"
p44
aS"(6356, u'(?i)(ais|ai)')"
p45
aS"(163, u'(?i)(mice|mouse)')"
p46
aS"(6753, u'(?i)(da|das)')"
p47
aS"(4163, u'(?i)(ermines|ermine)')"
p48
aS"(468, u'(?i)(oxen|ox)')"
p49
aS"(1349, u'(?i)(rams|ram)')"
p50
aS"(6249, u'(?i)(ants|ant)')"
p51
aS"(1055, u'(?i)(men|man)')"
p52
aS"(3812, u'(?i)(studs|stud)')"
p53
aS"(5958, u'(?i)(rats|rat)')"
p54
aS"(3522, u'(?i)(tetras|tetra)')"
p55
aS"(5799, u'(?i)(rodents|rodent)')"
p56
aS"(1414, u'(?i)(chars|char)')"
p57
aS"(2341, u'(?i)(monkeys|monkey)')"
p58
aS"(5743, u'(?i)(bots|bot)')"
p59
aS"(821, u'(?i)(lice|louse)')"
p60
aS"(6682, u'(?i)(tera|teras)')"
p61
atp62
Rp63
sb.