(ifile_types
ParseObject
p0
(dp1
S'antagonists'
p2
c__builtin__
set
p3
((lp4
S"(32, u'\\\\bway ?100635')"
p5
aS"(17, u'\\\\bnan ?190')"
p6
aS"(20, u'\\\\bpindobind')"
p7
atp8
Rp9
sS'methods'
p10
g3
((lp11
S'Method.ANTAGONIST'
p12
atp13
Rp14
sS'topics'
p15
g3
((lp16
S"(11, u'\\\\banxiolyt')"
p17
aS"(10, u'\\\\banxiety')"
p18
aS"(4, u'\\\\blocomot')"
p19
atp20
Rp21
sS'receptors'
p22
g3
((lp23
S'5ht1a'
p24
aS'5ht1'
p25
atp26
Rp27
sS'regions'
p28
g3
((lp29
S"(34, u'(?i)(pon|pons)')"
p30
atp31
Rp32
sS'year'
p33
V1999
p34
sS'agonists'
p35
g3
((lp36
tp37
Rp38
sS'species'
p39
g3
((lp40
S"(2323, u'(?i)(bees|bee)')"
p41
aS"(2670, u'(?i)(arabs|arab)')"
p42
aS"(6753, u'(?i)(da|das)')"
p43
aS"(2568, u'(?i)(hens|hen)')"
p44
aS"(163, u'(?i)(mice|mouse)')"
p45
aS"(4663, u'(?i)(nags|nag)')"
p46
aS"(1055, u'(?i)(men|man)')"
p47
aS"(6249, u'(?i)(ants|ant)')"
p48
aS"(4979, u'(?i)(cats|cat)')"
p49
aS"(5958, u'(?i)(rats|rat)')"
p50
aS"(3426, u'(?i)(hares|hare)')"
p51
aS"(3812, u'(?i)(studs|stud)')"
p52
aS"(6391, u'(?i)(asses|ass)')"
p53
aS"(4624, u'(?i)(apes|ape)')"
p54
aS"(6356, u'(?i)(ais|ai)')"
p55
aS"(7552, u'(?i)(bats|bat)')"
p56
atp57
Rp58
sb.