(ifile_types
ParseObject
p0
(dp1
S'methods'
p2
c__builtin__
set
p3
((lp4
S'Method.ANTAGONIST'
p5
atp6
Rp7
sS'topics'
p8
g3
((lp9
S"(22, u'\\\\bschizophreni')"
p10
aS"(23, u'\\\\bantipsychotic')"
p11
atp12
Rp13
sS'receptors'
p14
g3
((lp15
(S'5ht2a'
p16
I1188
I1194
tp17
a(S'5ht7'
p18
I1196
I1201
tp19
a(S'5ht1a'
p20
I1063
I1069
tp21
a(S'5ht1a'
p22
I1700
I1706
tp23
atp24
Rp25
sS'raw_text_methods'
p26
g3
((lp27
S"(41, u'\\\\bhaloperidol')"
p28
aS"(40, u'\\\\bclozapine')"
p29
aS"(5, u'\\\\bmk801')"
p30
aS"(12, u'\\\\bantagonist')"
p31
atp32
Rp33
sS'regions'
p34
g3
((lp35
tp36
Rp37
sS'year'
p38
V2015
p39
sS'species'
p40
g3
((lp41
S"(1, u'(?i)\\\\b(mice|mouse)\\\\b')"
p42
aS"(5, u'(?i)\\\\b(mices|mice)\\\\b')"
p43
aS"(4, u'(?i)\\\\b(rats|rat)\\\\b')"
p44
atp45
Rp46
sb.