(ifile_types
ParseObject
p0
(dp1
S'antagonists'
p2
c__builtin__
set
p3
((lp4
tp5
Rp6
sS'methods'
p7
g3
((lp8
S'Method.AGONIST'
p9
atp10
Rp11
sS'topics'
p12
g3
((lp13
S"(25, u'\\\\bvasoconstrict')"
p14
aS"(21, u'\\\\bpain')"
p15
aS"(9, u'\\\\bdepress')"
p16
atp17
Rp18
sS'receptors'
p19
g3
((lp20
S'5ht1b'
p21
aS'5ht1d'
p22
atp23
Rp24
sS'regions'
p25
g3
((lp26
S"(362, u'(?i)(brains|brain)(-|\\\\s+)?(stems|stem)')"
p27
aS"(34, u'(?i)(pon|pons)')"
p28
atp29
Rp30
sS'year'
p31
V1999
p32
sS'agonists'
p33
g3
((lp34
S"(103, u'\\\\bsumatriptan')"
p35
aS"(104, u'\\\\bzolmitriptan')"
p36
atp37
Rp38
sS'species'
p39
g3
((lp40
S"(2323, u'(?i)(bees|bee)')"
p41
aS"(2054, u'(?i)(heads|head)')"
p42
aS"(6753, u'(?i)(da|das)')"
p43
aS"(2568, u'(?i)(hens|hen)')"
p44
aS"(702, u'(?i)(genets|genet)')"
p45
aS"(3767, u'(?i)(olms|olm)')"
p46
aS"(5958, u'(?i)(rats|rat)')"
p47
aS"(1055, u'(?i)(men|man)')"
p48
aS"(6249, u'(?i)(ants|ant)')"
p49
aS"(6215, u'(?i)(racers|racer)')"
p50
aS"(853, u'(?i)(minas|mina)')"
p51
aS"(7094, u'(?i)(curs|cur)')"
p52
aS"(3550, u'(?i)(anis|ani)')"
p53
aS"(1057, u'(?i)(humans|human)')"
p54
aS"(6391, u'(?i)(asses|ass)')"
p55
aS"(6356, u'(?i)(ais|ai)')"
p56
aS"(3196, u'(?i)(human|humans)')"
p57
aS"(2809, u'(?i)(toms|tom)')"
p58
atp59
Rp60
sb.