(ifile_types
ParseObject
p0
(dp1
S'methods'
p2
c__builtin__
set
p3
((lp4
tp5
Rp6
sS'topics'
p7
g3
((lp8
S"(14, u'\\\\bcogniti')"
p9
aS"(5, u'\\\\btherap')"
p10
aS"(2, u'\\\\bdisorder')"
p11
atp12
Rp13
sS'receptors'
p14
g3
((lp15
(S'5ht3'
p16
I642
I647
tp17
a(S'5ht3'
p18
I1278
I1283
tp19
a(S'5ht3'
p20
I1448
I1453
tp21
a(S'5ht3a'
p22
I27
I33
tp23
a(S'5ht3'
p24
I1196
I1201
tp25
a(S'5ht3'
p26
I406
I411
tp27
a(S'5ht3'
p28
I389
I394
tp29
a(S'5ht3'
p30
I512
I517
tp31
atp32
Rp33
sS'raw_text_methods'
p34
g3
((lp35
tp36
Rp37
sS'regions'
p38
g3
((lp39
S"(19, u'(?i)\\\\b(cortexes|cortex)\\\\b')"
p40
atp41
Rp42
sS'year'
p43
V2016
p44
sS'species'
p45
g3
((lp46
S"(1, u'(?i)\\\\b(mice|mouse)\\\\b')"
p47
atp48
Rp49
sb.