(ifile_types
ParseObject
p0
(dp1
S'methods'
p2
c__builtin__
set
p3
((lp4
S'Method.ANTAGONIST'
p5
atp6
Rp7
sS'topics'
p8
g3
((lp9
S"(26, u'\\\\bbehav')"
p10
atp11
Rp12
sS'receptors'
p13
g3
((lp14
(S'5ht1d'
p15
I588
I594
tp16
a(S'5ht1d'
p17
I342
I348
tp18
a(S'5ht1d'
p19
I67
I73
tp20
atp21
Rp22
sS'raw_text_methods'
p23
g3
((lp24
S"(6, u'\\\\bgr127935')"
p25
aS"(12, u'\\\\bantagonist')"
p26
atp27
Rp28
sS'regions'
p29
g3
((lp30
S"(19, u'(?i)\\\\b(cortexes|cortex)\\\\b')"
p31
aS"(23, u'(?i)\\\\b(forebrains|forebrain)\\\\b')"
p32
atp33
Rp34
sS'year'
p35
V1995
p36
sS'species'
p37
g3
((lp38
S"(7, u'(?i)\\\\b(guineas|guinea)(-|\\\\s+)?(pigs|pig)\\\\b')"
p39
atp40
Rp41
sb.