(ifile_types
ParseObject
p0
(dp1
S'methods'
p2
c__builtin__
set
p3
((lp4
S'Method.AGONIST'
p5
atp6
Rp7
sS'topics'
p8
g3
((lp9
tp10
Rp11
sS'receptors'
p12
g3
((lp13
(S'5ht1b'
p14
I403
I409
tp15
a(S'5ht1a'
p16
I396
I402
tp17
a(S'5ht1b'
p18
I1531
I1537
tp19
a(S'5ht1b'
p20
I44
I50
tp21
a(S'5ht1b'
p22
I1379
I1385
tp23
a(S'5ht1b'
p24
I267
I273
tp25
a(S'5ht1b'
p26
I1227
I1233
tp27
a(S'5ht1b'
p28
I1295
I1301
tp29
atp30
Rp31
sS'raw_text_methods'
p32
g3
((lp33
S"(13, u'\\\\bagonist')"
p34
atp35
Rp36
sS'regions'
p37
g3
((lp38
tp39
Rp40
sS'year'
p41
V1991
p42
sS'species'
p43
g3
((lp44
S"(4, u'(?i)\\\\b(rats|rat)\\\\b')"
p45
atp46
Rp47
sb.