(ifile_types
ParseObject
p0
(dp1
S'antagonists'
p2
c__builtin__
set
p3
((lp4
S"(38, u'\\\\bsb ?224289')"
p5
aS"(31, u'\\\\bway ?100635')"
p6
aS"(52, u'\\\\bmdl ?100907')"
p7
aS"(198, u'\\\\bsb ?269970')"
p8
aS"(177, u'\\\\bsb ?399885')"
p9
aS"(99, u'\\\\bsb ?242084')"
p10
atp11
Rp12
sS'methods'
p13
g3
((lp14
S'Method.ANTAGONIST'
p15
atp16
Rp17
sS'topics'
p18
g3
((lp19
tp20
Rp21
sS'receptors'
p22
g3
((lp23
S'5ht7'
p24
aS'5ht1b'
p25
aS'5ht1a'
p26
aS'5ht2c'
p27
aS'5ht1'
p28
aS'5ht6'
p29
aS'5ht5a'
p30
atp31
Rp32
sS'regions'
p33
g3
((lp34
tp35
Rp36
sS'year'
p37
V2009
p38
sS'agonists'
p39
g3
((lp40
tp41
Rp42
sS'species'
p43
g3
((lp44
S"(4099, u'(?i)\\\\b(hamsters|hamster)\\\\b')"
p45
atp46
Rp47
sb.