(ifile_types
ParseObject
p0
(dp1
S'methods'
p2
c__builtin__
set
p3
((lp4
tp5
Rp6
sS'topics'
p7
g3
((lp8
S"(27, u'\\\\bdyskinesia')"
p9
aS"(26, u'\\\\bbehav')"
p10
aS"(4, u'\\\\btreatment')"
p11
atp12
Rp13
sS'receptors'
p14
g3
((lp15
(S'5ht2c'
p16
I1404
I1409
tp17
a(S'5ht5'
p18
I207
I211
tp19
atp20
Rp21
sS'raw_text_methods'
p22
g3
((lp23
S"(37, u'\\\\bpiperazine')"
p24
aS"(42, u'\\\\bneuroleptics')"
p25
aS"(33, u'\\\\bmcpp')"
p26
aS"(41, u'\\\\bhaloperidol')"
p27
atp28
Rp29
sS'regions'
p30
g3
((lp31
tp32
Rp33
sS'year'
p34
V2007
p35
sS'species'
p36
g3
((lp37
S"(4, u'(?i)\\\\b(rats|rat)\\\\b')"
p38
atp39
Rp40
sb.