(ifile_types
ParseObject
p0
(dp1
S'methods'
p2
c__builtin__
set
p3
((lp4
S'Method.ANTAGONIST'
p5
aS'Method.AGONIST'
p6
atp7
Rp8
sS'topics'
p9
g3
((lp10
S"(22, u'\\\\bschizophreni')"
p11
aS"(14, u'\\\\bcogniti')"
p12
aS"(23, u'\\\\bantipsychotic')"
p13
aS"(4, u'\\\\btreatment')"
p14
atp15
Rp16
sS'receptors'
p17
g3
((lp18
(S'5ht7'
p19
I1356
I1361
tp20
a(S'5ht1a'
p21
I1665
I1671
tp22
a(S'5ht7'
p23
I234
I239
tp24
a(S'5ht1a'
p25
I618
I624
tp26
a(S'5ht1a'
p27
I1298
I1304
tp28
a(S'5ht7'
p29
I38
I43
tp30
a(S'5ht7'
p31
I644
I649
tp32
a(S'5ht1a'
p33
I543
I549
tp34
a(S'5ht1a'
p35
I1119
I1125
tp36
a(S'5ht1a'
p37
I274
I280
tp38
a(S'5ht7'
p39
I562
I567
tp40
a(S'5ht7'
p41
I1684
I1689
tp42
a(S'5ht1a'
p43
I27
I33
tp44
atp45
Rp46
sS'raw_text_methods'
p47
g3
((lp48
S"(13, u'\\\\bagonist')"
p49
aS"(51, u'\\\\bway100635')"
p50
aS"(12, u'\\\\bantagonist')"
p51
atp52
Rp53
sS'regions'
p54
g3
((lp55
S"(20, u'(?i)\\\\b(prefrontals|prefrontal)\\\\b')"
p56
aS"(19, u'(?i)\\\\b(cortexes|cortex)\\\\b')"
p57
atp58
Rp59
sS'year'
p60
V2012
p61
sS'species'
p62
g3
((lp63
S"(4, u'(?i)\\\\b(rats|rat)\\\\b')"
p64
atp65
Rp66
sb.