(ifile_types
ParseObject
p0
(dp1
S'methods'
p2
c__builtin__
set
p3
((lp4
S'Method.ANTAGONIST'
p5
atp6
Rp7
sS'topics'
p8
g3
((lp9
tp10
Rp11
sS'receptors'
p12
g3
((lp13
(S'5ht3'
p14
I482
I487
tp15
a(S'5ht3'
p16
I1708
I1713
tp17
a(S'5ht3'
p18
I158
I163
tp19
a(S'5ht3'
p20
I808
I813
tp21
a(S'5ht3'
p22
I1300
I1305
tp23
a(S'5ht3'
p24
I949
I954
tp25
a(S'5ht3'
p26
I85
I90
tp27
a(S'5ht3'
p28
I736
I741
tp29
atp30
Rp31
sS'raw_text_methods'
p32
g3
((lp33
S"(20, u'\\\\bondansetron')"
p34
aS"(12, u'\\\\bantagonist')"
p35
atp36
Rp37
sS'regions'
p38
g3
((lp39
tp40
Rp41
sS'year'
p42
V1997
p43
sS'species'
p44
g3
((lp45
S"(7, u'(?i)\\\\b(guineas|guinea)(-|\\\\s+)?(pigs|pig)\\\\b')"
p46
aS"(4, u'(?i)\\\\b(rats|rat)\\\\b')"
p47
atp48
Rp49
sb.