(ifile_types
ParseObject
p0
(dp1
S'antagonists'
p2
c__builtin__
set
p3
((lp4
tp5
Rp6
sS'methods'
p7
g3
((lp8
S'Method.ANTAGONIST'
p9
aS'Method.AGONIST'
p10
atp11
Rp12
sS'topics'
p13
g3
((lp14
S"(9, u'\\\\bdepress')"
p15
aS"(3, u'\\\\bsleep')"
p16
aS"(2, u'\\\\bappetite')"
p17
aS"(10, u'\\\\banxiety')"
p18
aS"(1, u'\\\\bmood')"
p19
atp20
Rp21
sS'receptors'
p22
g3
((lp23
S'5ht7'
p24
aS'5ht1b'
p25
aS'5ht1a'
p26
aS'5ht3'
p27
atp28
Rp29
sS'regions'
p30
g3
((lp31
tp32
Rp33
sS'year'
p34
V2011
p35
sS'agonists'
p36
g3
((lp37
tp38
Rp39
sS'species'
p40
g3
((lp41
S"(1057, u'(?i)\\\\b(humans|human)\\\\b')"
p42
aS"(3196, u'(?i)\\\\b(human|humans)\\\\b')"
p43
atp44
Rp45
sb.