(ifile_types
ParseObject
p0
(dp1
S'antagonists'
p2
c__builtin__
set
p3
((lp4
S"(209, u'\\\\btfmpp')"
p5
aS"(17, u'\\\\bnan ?190')"
p6
atp7
Rp8
sS'methods'
p9
g3
((lp10
S'Method.ANTAGONIST'
p11
aS'Method.AGONIST'
p12
atp13
Rp14
sS'topics'
p15
g3
((lp16
tp17
Rp18
sS'receptors'
p19
g3
((lp20
S'5ht1b'
p21
aS'5ht1a'
p22
aS'5ht3'
p23
aS'5ht2'
p24
aS'5ht1'
p25
aS'5ht5'
p26
atp27
Rp28
sS'regions'
p29
g3
((lp30
S"(158, u'(?i)(suprachiasmatics|suprachiasmatic)(-|\\\\s+)?(nuclei|nucleus)')"
p31
aS"(34, u'(?i)(pon|pons)')"
p32
atp33
Rp34
sS'year'
p35
V1994
p36
sS'agonists'
p37
g3
((lp38
S"(92, u'\\\\b8 ?oh ?dpat')"
p39
aS"(196, u'\\\\bquipazine')"
p40
aS"(24, u'\\\\bbuspirone')"
p41
aS"(183, u'\\\\btfmpp')"
p42
atp43
Rp44
sS'species'
p45
g3
((lp46
S"(6753, u'(?i)(da|das)')"
p47
aS"(2568, u'(?i)(hens|hen)')"
p48
aS"(3137, u'(?i)(iguanids|iguanid)')"
p49
aS"(4979, u'(?i)(cats|cat)')"
p50
aS"(479, u'(?i)(lings|ling)')"
p51
aS"(6682, u'(?i)(tera|teras)')"
p52
aS"(1055, u'(?i)(men|man)')"
p53
aS"(6249, u'(?i)(ants|ant)')"
p54
aS"(3812, u'(?i)(studs|stud)')"
p55
aS"(4099, u'(?i)(hamsters|hamster)')"
p56
aS"(3550, u'(?i)(anis|ani)')"
p57
aS"(1414, u'(?i)(chars|char)')"
p58
aS"(6391, u'(?i)(asses|ass)')"
p59
aS"(391, u'(?i)(alli|allis)')"
p60
aS"(6878, u'(?i)(guans|guan)')"
p61
aS"(5743, u'(?i)(bots|bot)')"
p62
aS"(6356, u'(?i)(ais|ai)')"
p63
atp64
Rp65
sb.