(ifile_types
ParseObject
p0
(dp1
S'antagonists'
p2
c__builtin__
set
p3
((lp4
tp5
Rp6
sS'methods'
p7
g3
((lp8
tp9
Rp10
sS'topics'
p11
g3
((lp12
tp13
Rp14
sS'receptors'
p15
g3
((lp16
S'5ht3'
p17
atp18
Rp19
sS'regions'
p20
g3
((lp21
tp22
Rp23
sS'year'
p24
V2003
p25
sS'agonists'
p26
g3
((lp27
S"(176, u'\\\\bdom')"
p28
aS"(149, u'\\\\bmem')"
p29
atp30
Rp31
sS'species'
p32
g3
((lp33
S"(7540, u'(?i)\\\\b(mammalians|mammalian)\\\\b')"
p34
aS"(5156, u'(?i)\\\\b(invertebrates|invertebrate)\\\\b')"
p35
aS"(3196, u'(?i)\\\\b(human|humans)\\\\b')"
p36
aS"(2621, u'(?i)\\\\b(vertebrates|vertebrate)\\\\b')"
p37
aS"(1057, u'(?i)\\\\b(humans|human)\\\\b')"
p38
aS"(5958, u'(?i)\\\\b(rats|rat)\\\\b')"
p39
atp40
Rp41
sb.