(ifile_types
ParseObject
p0
(dp1
S'methods'
p2
c__builtin__
set
p3
((lp4
S'Method.ANTAGONIST'
p5
atp6
Rp7
sS'topics'
p8
g3
((lp9
tp10
Rp11
sS'receptors'
p12
g3
((lp13
(S'5ht6'
p14
I560
I565
tp15
a(S'5ht6'
p16
I56
I61
tp17
a(S'5ht6'
p18
I224
I229
tp19
a(S'5ht6'
p20
I126
I131
tp21
atp22
Rp23
sS'raw_text_methods'
p24
g3
((lp25
tp26
Rp27
sS'regions'
p28
g3
((lp29
tp30
Rp31
sS'year'
p32
V2010
p33
sS'species'
p34
g3
((lp35
tp36
Rp37
sb.