(ifile_types
ParseObject
p0
(dp1
S'antagonists'
p2
c__builtin__
set
p3
((lp4
S"(185, u'\\\\bsb ?399885')"
p5
atp6
Rp7
sS'methods'
p8
g3
((lp9
S'Method.ANTAGONIST'
p10
atp11
Rp12
sS'topics'
p13
g3
((lp14
S"(31, u'\\\\bobesity')"
p15
aS"(2, u'\\\\bappetite')"
p16
atp17
Rp18
sS'receptors'
p19
g3
((lp20
S'5ht6'
p21
aS'5ht2c'
p22
atp23
Rp24
sS'regions'
p25
g3
((lp26
S"(313, u'(?i)(solitaries|solitary)(-|\\\\s+)?(tracts|tract)')"
p27
aS"(159, u'(?i)(paraventriculars|paraventricular)(-|\\\\s+)?(nuclei|nucleus)')"
p28
aS"(126, u'(?i)(thalamuses|thalamus)')"
p29
aS"(34, u'(?i)(pon|pons)')"
p30
aS"(318, u'(?i)(raphes|raphe)(-|\\\\s+)?(nuclei|nucleus)')"
p31
aS"(94, u'(?i)(dorsals|dorsal)(-|\\\\s+)?(raphes|raphe)(-|\\\\s+)?(nuclei|nucleus)')"
p32
atp33
Rp34
sS'year'
p35
V2014
p36
sS'agonists'
p37
g3
((lp38
tp39
Rp40
sS'species'
p41
g3
((lp42
S"(1070, u'(?i)(pets|pet)')"
p43
aS"(6249, u'(?i)(ants|ant)')"
p44
aS"(867, u'(?i)(tits|tit)')"
p45
aS"(6753, u'(?i)(da|das)')"
p46
aS"(468, u'(?i)(oxen|ox)')"
p47
aS"(2183, u'(?i)(gars|gar)')"
p48
aS"(1055, u'(?i)(men|man)')"
p49
aS"(5131, u'(?i)(hags|hag)')"
p50
aS"(3404, u'(?i)(titis|titi)')"
p51
aS"(6356, u'(?i)(ais|ai)')"
p52
aS"(3550, u'(?i)(anis|ani)')"
p53
aS"(6391, u'(?i)(asses|ass)')"
p54
aS"(3592, u'(?i)(ravens|raven)')"
p55
aS"(3431, u'(?i)(roans|roan)')"
p56
aS"(2809, u'(?i)(toms|tom)')"
p57
atp58
Rp59
sb.