(ifile_types
ParseObject
p0
(dp1
S'methods'
p2
c__builtin__
set
p3
((lp4
S'Method.ANTAGONIST'
p5
aS'Method.AGONIST'
p6
atp7
Rp8
sS'topics'
p9
g3
((lp10
S"(14, u'\\\\bcogniti')"
p11
aS"(26, u'\\\\bbehav')"
p12
aS"(4, u'\\\\btreatment')"
p13
atp14
Rp15
sS'receptors'
p16
g3
((lp17
(S'5ht1a'
p18
I218
I224
tp19
a(S'5ht1a'
p20
I112
I123
tp21
a(S'5ht1a'
p22
I1055
I1061
tp23
a(S'5ht1a'
p24
I1844
I1850
tp25
a(S'5ht1a'
p26
I205
I216
tp27
a(S'5ht1a'
p28
I893
I899
tp29
a(S'5ht1a'
p30
I1691
I1697
tp31
atp32
Rp33
sS'raw_text_methods'
p34
g3
((lp35
S"(13, u'\\\\bagonist')"
p36
aS"(12, u'\\\\bantagonist')"
p37
atp38
Rp39
sS'regions'
p40
g3
((lp41
tp42
Rp43
sS'year'
p44
V2000
p45
sS'species'
p46
g3
((lp47
tp48
Rp49
sb.