(ifile_types
ParseObject
p0
(dp1
S'methods'
p2
c__builtin__
set
p3
((lp4
S'Method.AGONIST'
p5
atp6
Rp7
sS'topics'
p8
g3
((lp9
S"(24, u'\\\\banxiolytic')"
p10
aS"(8, u'\\\\banxi')"
p11
aS"(13, u'\\\\bantidepress')"
p12
aS"(4, u'\\\\btreatment')"
p13
atp14
Rp15
sS'receptors'
p16
g3
((lp17
(S'5ht1a'
p18
I1377
I1383
tp19
a(S'5ht1'
p20
I384
I389
tp21
a(S'5ht1a'
p22
I148
I154
tp23
a(S'5ht1'
p24
I1189
I1194
tp25
a(S'5ht1a'
p26
I371
I382
tp27
a(S'5ht1a'
p28
I498
I504
tp29
atp30
Rp31
sS'raw_text_methods'
p32
g3
((lp33
S"(13, u'\\\\bagonist')"
p34
aS"(15, u'\\\\b8ohdpat')"
p35
aS"(54, u'\\\\bautoradiography')"
p36
aS"(22, u'\\\\bbuspirone')"
p37
atp38
Rp39
sS'regions'
p40
g3
((lp41
tp42
Rp43
sS'year'
p44
V1997
p45
sS'species'
p46
g3
((lp47
S"(4, u'(?i)\\\\b(rats|rat)\\\\b')"
p48
atp49
Rp50
sb.