(ifile_types
ParseObject
p0
(dp1
S'methods'
p2
c__builtin__
set
p3
((lp4
S'Method.ANTAGONIST'
p5
aS'Method.AGONIST'
p6
atp7
Rp8
sS'topics'
p9
g3
((lp10
S"(26, u'\\\\bbehav')"
p11
aS"(7, u'\\\\bdepressi')"
p12
aS"(9, u'\\\\bstress')"
p13
atp14
Rp15
sS'receptors'
p16
g3
((lp17
(S'5ht1a'
p18
I470
I476
tp19
a(S'5ht1a'
p20
I502
I508
tp21
a(S'5ht1a'
p22
I250
I256
tp23
atp24
Rp25
sS'raw_text_methods'
p26
g3
((lp27
S"(13, u'\\\\bagonist')"
p28
aS"(15, u'\\\\b8ohdpat')"
p29
aS"(51, u'\\\\bway100635')"
p30
aS"(12, u'\\\\bantagonist')"
p31
atp32
Rp33
sS'regions'
p34
g3
((lp35
S"(12, u'(?i)\\\\b(amygdalas|amygdala)\\\\b')"
p36
atp37
Rp38
sS'year'
p39
V2005
p40
sS'species'
p41
g3
((lp42
S"(4, u'(?i)\\\\b(rats|rat)\\\\b')"
p43
atp44
Rp45
sb.