(ifile_types
ParseObject
p0
(dp1
S'antagonists'
p2
c__builtin__
set
p3
((lp4
S"(134, u'\\\\bgranisetron')"
p5
aS"(54, u'\\\\britanserin')"
p6
aS"(61, u'\\\\bmdl ?100907')"
p7
aS"(130, u'\\\\britanserin')"
p8
atp9
Rp10
sS'methods'
p11
g3
((lp12
S'Method.ANTAGONIST'
p13
aS'Method.AGONIST'
p14
atp15
Rp16
sS'topics'
p17
g3
((lp18
tp19
Rp20
sS'receptors'
p21
g3
((lp22
S'5ht3'
p23
aS'5ht1a'
p24
aS'5ht2c'
p25
aS'5ht5'
p26
aS'5ht2a'
p27
atp28
Rp29
sS'regions'
p30
g3
((lp31
S"(254, u'(?i)(prefrontals|prefrontal)(-|\\\\s+)?(cortexes|cortex)')"
p32
aS"(255, u'(?i)(pres|pre)(-|\\\\s+)?(frontals|frontal)(-|\\\\s+)?(cortexes|cortex)')"
p33
aS"(34, u'(?i)(pon|pons)')"
p34
atp35
Rp36
sS'year'
p37
V1994
p38
sS'agonists'
p39
g3
((lp40
S"(92, u'\\\\b8 ?oh ?dpat')"
p41
aS"(33, u'\\\\bdoi')"
p42
atp43
Rp44
sS'species'
p45
g3
((lp46
S"(2568, u'(?i)(hens|hen)')"
p47
aS"(5958, u'(?i)(rats|rat)')"
p48
aS"(4979, u'(?i)(cats|cat)')"
p49
aS"(6682, u'(?i)(tera|teras)')"
p50
aS"(6249, u'(?i)(ants|ant)')"
p51
aS"(468, u'(?i)(oxen|ox)')"
p52
aS"(3726, u'(?i)(mates|mate)')"
p53
aS"(4964, u'(?i)(serins|serin)')"
p54
aS"(3550, u'(?i)(anis|ani)')"
p55
aS"(3522, u'(?i)(tetras|tetra)')"
p56
aS"(7094, u'(?i)(curs|cur)')"
p57
aS"(1961, u'(?i)(pens|pen)')"
p58
aS"(3812, u'(?i)(studs|stud)')"
p59
atp60
Rp61
sb.