(ifile_types
ParseObject
p0
(dp1
S'methods'
p2
c__builtin__
set
p3
((lp4
S'Method.ANTAGONIST'
p5
atp6
Rp7
sS'topics'
p8
g3
((lp9
S"(24, u'\\\\banxiolytic')"
p10
aS"(8, u'\\\\banxi')"
p11
atp12
Rp13
sS'receptors'
p14
g3
((lp15
(S'5ht1b'
p16
I220
I228
tp17
a(S'5ht1c'
p18
I1127
I1134
tp19
a(S'5ht1a'
p20
I220
I226
tp21
a(S'5ht1b'
p22
I1431
I1437
tp23
a(S'5ht2'
p24
I1387
I1392
tp25
a(S'5ht2'
p26
I1127
I1132
tp27
atp28
Rp29
sS'raw_text_methods'
p30
g3
((lp31
S"(7, u'\\\\bpropranolol')"
p32
aS"(9, u'\\\\britanserin')"
p33
aS"(12, u'\\\\bantagonist')"
p34
atp35
Rp36
sS'regions'
p37
g3
((lp38
tp39
Rp40
sS'year'
p41
V1991
p42
sS'species'
p43
g3
((lp44
S"(4, u'(?i)\\\\b(rats|rat)\\\\b')"
p45
atp46
Rp47
sb.