(ifile_types
ParseObject
p0
(dp1
S'antagonists'
p2
c__builtin__
set
p3
((lp4
tp5
Rp6
sS'methods'
p7
g3
((lp8
S'Method.KNOCKOUT'
p9
atp10
Rp11
sS'topics'
p12
g3
((lp13
S"(3, u'\\\\bsleep')"
p14
aS"(9, u'\\\\bdepress')"
p15
aS"(1, u'\\\\bmood')"
p16
aS"(14, u'\\\\bpsychosis')"
p17
aS"(6, u'\\\\bcognit')"
p18
aS"(19, u'\\\\bimpulsiv')"
p19
aS"(10, u'\\\\banxiety')"
p20
atp21
Rp22
sS'receptors'
p23
g3
((lp24
S'5ht5'
p25
atp26
Rp27
sS'regions'
p28
g3
((lp29
S"(34, u'(?i)(pon|pons)')"
p30
atp31
Rp32
sS'year'
p33
V2003
p34
sS'agonists'
p35
g3
((lp36
tp37
Rp38
sS'species'
p39
g3
((lp40
S"(2323, u'(?i)(bees|bee)')"
p41
aS"(5176, u'(?i)(tegs|teg)')"
p42
aS"(2568, u'(?i)(hens|hen)')"
p43
aS"(702, u'(?i)(genets|genet)')"
p44
aS"(163, u'(?i)(mice|mouse)')"
p45
aS"(4091, u'(?i)(adults|adult)')"
p46
aS"(2183, u'(?i)(gars|gar)')"
p47
aS"(1055, u'(?i)(men|man)')"
p48
aS"(6249, u'(?i)(ants|ant)')"
p49
aS"(4979, u'(?i)(cats|cat)')"
p50
aS"(3550, u'(?i)(anis|ani)')"
p51
aS"(5958, u'(?i)(rats|rat)')"
p52
aS"(3812, u'(?i)(studs|stud)')"
p53
aS"(6356, u'(?i)(ais|ai)')"
p54
atp55
Rp56
sb.