(ifile_types
ParseObject
p0
(dp1
S'methods'
p2
c__builtin__
set
p3
((lp4
tp5
Rp6
sS'topics'
p7
g3
((lp8
tp9
Rp10
sS'receptors'
p11
g3
((lp12
(S'5ht1a'
p13
I44
I50
tp14
a(S'5ht2'
p15
I668
I672
tp16
a(S'5ht1b'
p17
I635
I640
tp18
a(S'5ht1a'
p19
I730
I735
tp20
a(S'5ht2'
p21
I774
I778
tp22
a(S'5ht1a'
p23
I600
I605
tp24
a(S'5ht1a'
p25
I696
I701
tp26
atp27
Rp28
sS'raw_text_methods'
p29
g3
((lp30
S"(53, u'\\\\bketanserin')"
p31
aS"(15, u'\\\\b8ohdpat')"
p32
aS"(11, u'\\\\bfluoxetine')"
p33
aS"(21, u'\\\\bipsapirone')"
p34
aS"(22, u'\\\\bbuspirone')"
p35
atp36
Rp37
sS'regions'
p38
g3
((lp39
tp40
Rp41
sS'year'
p42
V1988
p43
sS'species'
p44
g3
((lp45
tp46
Rp47
sb.