(ifile_types
ParseObject
p0
(dp1
S'methods'
p2
c__builtin__
set
p3
((lp4
S'Method.ANTAGONIST'
p5
atp6
Rp7
sS'topics'
p8
g3
((lp9
tp10
Rp11
sS'receptors'
p12
g3
((lp13
(S'5ht2c'
p14
I1110
I1116
tp15
a(S'5ht2a'
p16
I529
I535
tp17
a(S'5ht2a'
p18
I681
I687
tp19
a(S'5ht2c'
p20
I1074
I1080
tp21
a(S'5ht2a'
p22
I154
I160
tp23
a(S'5ht2a'
p24
I963
I969
tp25
a(S'5ht2c'
p26
I1526
I1532
tp27
a(S'5ht2a'
p28
I1100
I1106
tp29
a(S'5ht2c'
p30
I387
I393
tp31
a(S'5ht2c'
p32
I681
I689
tp33
a(S'5ht2c'
p34
I165
I171
tp35
a(S'5ht2a'
p36
I377
I383
tp37
a(S'5ht2a'
p38
I1515
I1521
tp39
atp40
Rp41
sS'raw_text_methods'
p42
g3
((lp43
S"(46, u'\\\\bspiperone')"
p44
aS"(23, u'\\\\bmdl')"
p45
aS"(12, u'\\\\bantagonist')"
p46
atp47
Rp48
sS'regions'
p49
g3
((lp50
tp51
Rp52
sS'year'
p53
V1995
p54
sS'species'
p55
g3
((lp56
S"(4, u'(?i)\\\\b(rats|rat)\\\\b')"
p57
atp58
Rp59
sb.