(ifile_types
ParseObject
p0
(dp1
S'methods'
p2
c__builtin__
set
p3
((lp4
tp5
Rp6
sS'topics'
p7
g3
((lp8
S"(6, u'\\\\baggressi')"
p9
aS"(26, u'\\\\bbehav')"
p10
aS"(33, u'\\\\blocomot')"
p11
atp12
Rp13
sS'receptors'
p14
g3
((lp15
(S'5ht1a'
p16
I1105
I1111
tp17
a(S'5ht1a'
p18
I1318
I1324
tp19
a(S'5ht1a'
p20
I1397
I1403
tp21
a(S'5ht1a'
p22
I516
I522
tp23
a(S'5ht1a'
p24
I800
I806
tp25
a(S'5ht1a'
p26
I619
I625
tp27
a(S'5ht1a'
p28
I1218
I1224
tp29
a(S'5ht1a'
p30
I54
I60
tp31
atp32
Rp33
sS'raw_text_methods'
p34
g3
((lp35
S"(54, u'\\\\bautoradiography')"
p36
atp37
Rp38
sS'regions'
p39
g3
((lp40
S"(23, u'(?i)\\\\b(forebrains|forebrain)\\\\b')"
p41
atp42
Rp43
sS'year'
p44
V2010
p45
sS'species'
p46
g3
((lp47
S"(1, u'(?i)\\\\b(mice|mouse)\\\\b')"
p48
aS"(5, u'(?i)\\\\b(mices|mice)\\\\b')"
p49
atp50
Rp51
sb.