(ifile_types
ParseObject
p0
(dp1
S'antagonists'
p2
c__builtin__
set
p3
((lp4
S"(45, u'\\\\bgr ?127935')"
p5
atp6
Rp7
sS'methods'
p8
g3
((lp9
S'Method.KNOCKOUT'
p10
aS'Method.ANTAGONIST'
p11
atp12
Rp13
sS'topics'
p14
g3
((lp15
tp16
Rp17
sS'receptors'
p18
g3
((lp19
S'5ht1b'
p20
aS'5ht5'
p21
aS'5ht1d'
p22
atp23
Rp24
sS'regions'
p25
g3
((lp26
tp27
Rp28
sS'year'
p29
V2001
p30
sS'agonists'
p31
g3
((lp32
tp33
Rp34
sS'species'
p35
g3
((lp36
S"(5537, u'(?i)(hippos|hippo)')"
p37
aS"(6753, u'(?i)(da|das)')"
p38
aS"(5958, u'(?i)(rats|rat)')"
p39
aS"(163, u'(?i)(mice|mouse)')"
p40
aS"(468, u'(?i)(oxen|ox)')"
p41
aS"(2183, u'(?i)(gars|gar)')"
p42
aS"(6249, u'(?i)(ants|ant)')"
p43
aS"(6215, u'(?i)(racers|racer)')"
p44
aS"(5176, u'(?i)(tegs|teg)')"
p45
aS"(2395, u'(?i)(mutants|mutant)')"
p46
aS"(3812, u'(?i)(studs|stud)')"
p47
atp48
Rp49
sb.