(ifile_types
ParseObject
p0
(dp1
S'antagonists'
p2
c__builtin__
set
p3
((lp4
S"(32, u'\\\\bway ?100635')"
p5
atp6
Rp7
sS'methods'
p8
g3
((lp9
S'Method.ANTAGONIST'
p10
aS'Method.AGONIST'
p11
atp12
Rp13
sS'topics'
p14
g3
((lp15
S"(33, u'\\\\balzheimers')"
p16
aS"(9, u'\\\\bdepress')"
p17
atp18
Rp19
sS'receptors'
p20
g3
((lp21
S'5ht1a'
p22
atp23
Rp24
sS'regions'
p25
g3
((lp26
tp27
Rp28
sS'year'
p29
V2007
p30
sS'agonists'
p31
g3
((lp32
S"(155, u'\\\\bmem')"
p33
atp34
Rp35
sS'species'
p36
g3
((lp37
S"(5537, u'(?i)(hippos|hippo)')"
p38
aS"(2568, u'(?i)(hens|hen)')"
p39
aS"(867, u'(?i)(tits|tit)')"
p40
aS"(6753, u'(?i)(da|das)')"
p41
aS"(479, u'(?i)(lings|ling)')"
p42
aS"(4091, u'(?i)(adults|adult)')"
p43
aS"(468, u'(?i)(oxen|ox)')"
p44
aS"(1055, u'(?i)(men|man)')"
p45
aS"(6249, u'(?i)(ants|ant)')"
p46
aS"(3152, u'(?i)(layers|layer)')"
p47
aS"(2942, u'(?i)(daws|daw)')"
p48
aS"(5958, u'(?i)(rats|rat)')"
p49
aS"(7094, u'(?i)(curs|cur)')"
p50
aS"(3812, u'(?i)(studs|stud)')"
p51
aS"(6391, u'(?i)(asses|ass)')"
p52
aS"(6356, u'(?i)(ais|ai)')"
p53
atp54
Rp55
sb.