(ifile_types
ParseObject
p0
(dp1
S'antagonists'
p2
c__builtin__
set
p3
((lp4
S"(6, u'\\\\bcyproheptadine')"
p5
aS"(21, u'\\\\bpindolol')"
p6
aS"(133, u'\\\\bmianserin')"
p7
aS"(53, u'\\\\bcyproheptadine')"
p8
aS"(117, u'\\\\bketanserin')"
p9
aS"(193, u'\\\\bmesulergine')"
p10
aS"(26, u'\\\\bspiperone')"
p11
atp12
Rp13
sS'methods'
p14
g3
((lp15
S'Method.ANTAGONIST'
p16
aS'Method.AGONIST'
p17
atp18
Rp19
sS'topics'
p20
g3
((lp21
S"(9, u'\\\\bdepress')"
p22
atp23
Rp24
sS'receptors'
p25
g3
((lp26
S'5ht1c'
p27
aS'5ht3'
p28
aS'5ht2'
p29
aS'5ht1'
p30
aS'5ht2a'
p31
aS'5ht6d'
p32
atp33
Rp34
sS'regions'
p35
g3
((lp36
tp37
Rp38
sS'year'
p39
V1993
p40
sS'agonists'
p41
g3
((lp42
S"(220, u'\\\\b5 ?methoxytryptamine')"
p43
aS"(96, u'\\\\bsumatriptan')"
p44
aS"(186, u'\\\\b2 ?methyl ?5 ?ht')"
p45
aS"(165, u'\\\\bmesulergine')"
p46
aS"(98, u'\\\\b5 ?carboxamidotryptamine')"
p47
aS"(85, u'\\\\b8 ?oh ?dpat')"
p48
atp49
Rp50
sS'species'
p51
g3
((lp52
S"(4749, u'(?i)\\\\b(blues|blue)\\\\b')"
p53
aS"(5958, u'(?i)\\\\b(rats|rat)\\\\b')"
p54
atp55
Rp56
sb.