(ifile_types
ParseObject
p0
(dp1
S'methods'
p2
c__builtin__
set
p3
((lp4
S'Method.ANTAGONIST'
p5
aS'Method.AGONIST'
p6
atp7
Rp8
sS'topics'
p9
g3
((lp10
S"(29, u'\\\\bhyperactiv')"
p11
aS"(26, u'\\\\bbehav')"
p12
atp13
Rp14
sS'receptors'
p15
g3
((lp16
(S'5ht1a'
p17
I1222
I1228
tp18
a(S'5ht1a'
p19
I1172
I1178
tp20
atp21
Rp22
sS'raw_text_methods'
p23
g3
((lp24
S"(13, u'\\\\bagonist')"
p25
aS"(16, u'\\\\bdiazepam')"
p26
aS"(11, u'\\\\bfluoxetine')"
p27
aS"(12, u'\\\\bantagonist')"
p28
atp29
Rp30
sS'regions'
p31
g3
((lp32
tp33
Rp34
sS'year'
p35
V2020
p36
sS'species'
p37
g3
((lp38
S"(4, u'(?i)\\\\b(rats|rat)\\\\b')"
p39
atp40
Rp41
sb.