(ifile_types
ParseObject
p0
(dp1
S'antagonists'
p2
c__builtin__
set
p3
((lp4
S"(54, u'\\\\britanserin')"
p5
aS"(130, u'\\\\britanserin')"
p6
atp7
Rp8
sS'methods'
p9
g3
((lp10
S'Method.ANTAGONIST'
p11
aS'Method.AGONIST'
p12
atp13
Rp14
sS'topics'
p15
g3
((lp16
S"(9, u'\\\\bdepress')"
p17
atp18
Rp19
sS'receptors'
p20
g3
((lp21
S'5ht1b'
p22
aS'5ht5'
p23
aS'5ht2c'
p24
aS'5ht2a'
p25
aS'5ht1d'
p26
aS'5ht2'
p27
atp28
Rp29
sS'regions'
p30
g3
((lp31
tp32
Rp33
sS'year'
p34
V1998
p35
sS'agonists'
p36
g3
((lp37
S"(103, u'\\\\bsumatriptan')"
p38
atp39
Rp40
sS'species'
p41
g3
((lp42
S"(5958, u'(?i)(rats|rat)')"
p43
aS"(4964, u'(?i)(serins|serin)')"
p44
aS"(5967, u'(?i)(males|male)')"
p45
aS"(468, u'(?i)(oxen|ox)')"
p46
aS"(3592, u'(?i)(ravens|raven)')"
p47
aS"(2453, u'(?i)(topis|topi)')"
p48
aS"(1055, u'(?i)(men|man)')"
p49
aS"(853, u'(?i)(minas|mina)')"
p50
aS"(6249, u'(?i)(ants|ant)')"
p51
aS"(3726, u'(?i)(mates|mate)')"
p52
aS"(6391, u'(?i)(asses|ass)')"
p53
aS"(6356, u'(?i)(ais|ai)')"
p54
aS"(1349, u'(?i)(rams|ram)')"
p55
aS"(4979, u'(?i)(cats|cat)')"
p56
atp57
Rp58
sb.