(ifile_types
ParseObject
p0
(dp1
S'antagonists'
p2
c__builtin__
set
p3
((lp4
S"(5, u'\\\\bcyanopindolol')"
p5
aS"(129, u'\\\\brenzapride')"
p6
aS"(117, u'\\\\bketanserin')"
p7
atp8
Rp9
sS'methods'
p10
g3
((lp11
S'Method.ANTAGONIST'
p12
aS'Method.AGONIST'
p13
atp14
Rp15
sS'topics'
p16
g3
((lp17
tp18
Rp19
sS'receptors'
p20
g3
((lp21
S'5ht1b'
p22
aS'5ht1a'
p23
aS'5ht4'
p24
aS'5ht2'
p25
aS'5ht4a'
p26
atp27
Rp28
sS'regions'
p29
g3
((lp30
tp31
Rp32
sS'year'
p33
V1996
p34
sS'agonists'
p35
g3
((lp36
S"(96, u'\\\\bsumatriptan')"
p37
aS"(149, u'\\\\bmem')"
p38
aS"(100, u'\\\\bcp ?93129')"
p39
aS"(67, u'\\\\bru ?24969')"
p40
aS"(203, u'\\\\brenzapride')"
p41
aS"(98, u'\\\\b5 ?carboxamidotryptamine')"
p42
aS"(85, u'\\\\b8 ?oh ?dpat')"
p43
atp44
Rp45
sS'species'
p46
g3
((lp47
S"(4099, u'(?i)\\\\b(hamsters|hamster)\\\\b')"
p48
atp49
Rp50
sb.