(ifile_types
ParseObject
p0
(dp1
S'antagonists'
p2
c__builtin__
set
p3
((lp4
S"(53, u'\\\\bketanserin')"
p5
aS"(128, u'\\\\bketanserin')"
p6
aS"(21, u'\\\\bpindolol')"
p7
aS"(117, u'\\\\bmianserin')"
p8
atp9
Rp10
sS'methods'
p11
g3
((lp12
S'Method.ANTAGONIST'
p13
aS'Method.AGONIST'
p14
atp15
Rp16
sS'topics'
p17
g3
((lp18
tp19
Rp20
sS'receptors'
p21
g3
((lp22
S'5ht1c'
p23
aS'5ht1b'
p24
aS'5ht5'
p25
aS'5ht3'
p26
aS'5ht2'
p27
aS'5ht2a'
p28
aS'5ht1a'
p29
atp30
Rp31
sS'regions'
p32
g3
((lp33
S"(390, u'(?i)(laterals|lateral)(-|\\\\s+)?(ventricle|ventricles)')"
p34
aS"(34, u'(?i)(pon|pons)')"
p35
atp36
Rp37
sS'year'
p38
V1992
p39
sS'agonists'
p40
g3
((lp41
S"(161, u'\\\\bmcpp')"
p42
atp43
Rp44
sS'species'
p45
g3
((lp46
S"(4624, u'(?i)(apes|ape)')"
p47
aS"(2568, u'(?i)(hens|hen)')"
p48
aS"(6753, u'(?i)(da|das)')"
p49
aS"(4163, u'(?i)(ermines|ermine)')"
p50
aS"(4091, u'(?i)(adults|adult)')"
p51
aS"(5967, u'(?i)(males|male)')"
p52
aS"(468, u'(?i)(oxen|ox)')"
p53
aS"(1055, u'(?i)(men|man)')"
p54
aS"(6249, u'(?i)(ants|ant)')"
p55
aS"(1349, u'(?i)(rams|ram)')"
p56
aS"(4964, u'(?i)(serins|serin)')"
p57
aS"(5958, u'(?i)(rats|rat)')"
p58
aS"(3522, u'(?i)(tetras|tetra)')"
p59
aS"(7094, u'(?i)(curs|cur)')"
p60
aS"(3812, u'(?i)(studs|stud)')"
p61
aS"(6391, u'(?i)(asses|ass)')"
p62
aS"(6356, u'(?i)(ais|ai)')"
p63
aS"(6682, u'(?i)(tera|teras)')"
p64
atp65
Rp66
sb.