(ifile_types
ParseObject
p0
(dp1
S'antagonists'
p2
c__builtin__
set
p3
((lp4
S"(5, u'\\\\bcyanopindolol')"
p5
aS"(14, u'\\\\bmethiothepin')"
p6
aS"(194, u'\\\\bmethysergide')"
p7
aS"(34, u'\\\\bmetergoline')"
p8
aS"(33, u'\\\\byohimbine')"
p9
aS"(22, u'\\\\bpropranolol')"
p10
atp11
Rp12
sS'methods'
p13
g3
((lp14
S'Method.ANTAGONIST'
p15
aS'Method.AGONIST'
p16
atp17
Rp18
sS'topics'
p19
g3
((lp20
tp21
Rp22
sS'receptors'
p23
g3
((lp24
S'5ht1b'
p25
aS'5ht1a'
p26
aS'5ht1d'
p27
atp28
Rp29
sS'regions'
p30
g3
((lp31
tp32
Rp33
sS'year'
p34
V1992
p35
sS'agonists'
p36
g3
((lp37
S"(98, u'\\\\b5 ?carboxamidotryptamine')"
p38
aS"(53, u'\\\\bmethysergide')"
p39
aS"(67, u'\\\\bru ?24969')"
p40
aS"(82, u'\\\\byohimbine')"
p41
atp42
Rp43
sS'species'
p44
g3
((lp45
S"(1057, u'(?i)\\\\b(humans|human)\\\\b')"
p46
aS"(5958, u'(?i)\\\\b(rats|rat)\\\\b')"
p47
aS"(3196, u'(?i)\\\\b(human|humans)\\\\b')"
p48
atp49
Rp50
sb.