(ifile_types
ParseObject
p0
(dp1
S'methods'
p2
c__builtin__
set
p3
((lp4
S'Method.ANTAGONIST'
p5
atp6
Rp7
sS'topics'
p8
g3
((lp9
S"(6, u'\\\\baggressi')"
p10
aS"(26, u'\\\\bbehav')"
p11
aS"(25, u'\\\\bsocial')"
p12
atp13
Rp14
sS'receptors'
p15
g3
((lp16
(S'5ht2a'
p17
I1028
I1034
tp18
a(S'5ht3a'
p19
I1687
I1693
tp20
a(S'5ht3a'
p21
I1042
I1048
tp22
a(S'5ht1a'
p23
I1320
I1326
tp24
a(S'5ht2a'
p25
I1676
I1682
tp26
a(S'5ht2a'
p27
I1208
I1214
tp28
a(S'5ht3a'
p29
I1219
I1225
tp30
atp31
Rp32
sS'raw_text_methods'
p33
g3
((lp34
S"(12, u'\\\\bantagonist')"
p35
atp36
Rp37
sS'regions'
p38
g3
((lp39
S"(12, u'(?i)\\\\b(amygdalas|amygdala)\\\\b')"
p40
atp41
Rp42
sS'year'
p43
V2019
p44
sS'species'
p45
g3
((lp46
S"(1, u'(?i)\\\\b(mice|mouse)\\\\b')"
p47
aS"(5, u'(?i)\\\\b(mices|mice)\\\\b')"
p48
atp49
Rp50
sb.