(ifile_types
ParseObject
p0
(dp1
S'methods'
p2
c__builtin__
set
p3
((lp4
S'Method.ANTAGONIST'
p5
aS'Method.AGONIST'
p6
atp7
Rp8
sS'topics'
p9
g3
((lp10
S"(9, u'\\\\bstress')"
p11
atp12
Rp13
sS'receptors'
p14
g3
((lp15
(S'5ht1a'
p16
I620
I626
tp17
a(S'5ht1b'
p18
I631
I637
tp19
a(S'5ht2'
p20
I875
I880
tp21
a(S'5ht1a'
p22
I740
I746
tp23
a(S'5ht2'
p24
I404
I409
tp25
a(S'5ht2'
p26
I101
I106
tp27
a(S'5ht2'
p28
I309
I314
tp29
atp30
Rp31
sS'raw_text_methods'
p32
g3
((lp33
S"(13, u'\\\\bagonist')"
p34
aS"(53, u'\\\\bketanserin')"
p35
aS"(9, u'\\\\britanserin')"
p36
aS"(12, u'\\\\bantagonist')"
p37
atp38
Rp39
sS'regions'
p40
g3
((lp41
tp42
Rp43
sS'year'
p44
V1993
p45
sS'species'
p46
g3
((lp47
S"(4, u'(?i)\\\\b(rats|rat)\\\\b')"
p48
atp49
Rp50
sb.