(ifile_types
ParseObject
p0
(dp1
S'antagonists'
p2
c__builtin__
set
p3
((lp4
S"(30, u'\\\\bway ?100135')"
p5
aS"(26, u'\\\\bspiperone')"
p6
aS"(17, u'\\\\bnan ?190')"
p7
aS"(4, u'\\\\bbmy ?7378')"
p8
aS"(25, u'\\\\bsdz ?216525')"
p9
atp10
Rp11
sS'methods'
p12
g3
((lp13
S'Method.ANTAGONIST'
p14
aS'Method.AGONIST'
p15
atp16
Rp17
sS'topics'
p18
g3
((lp19
tp20
Rp21
sS'receptors'
p22
g3
((lp23
S'5ht1a'
p24
atp25
Rp26
sS'regions'
p27
g3
((lp28
S"(94, u'(?i)\\\\b(dorsals|dorsal)(-|\\\\s+)?(raphes|raphe)(-|\\\\s+)?(nuclei|nucleus)\\\\b')"
p29
aS"(220, u'(?i)\\\\b(striatums|striatum)\\\\b')"
p30
aS"(318, u'(?i)\\\\b(raphes|raphe)(-|\\\\s+)?(nuclei|nucleus)\\\\b')"
p31
atp32
Rp33
sS'year'
p34
V1995
p35
sS'agonists'
p36
g3
((lp37
S"(83, u'\\\\bzalospirone')"
p38
aS"(68, u'\\\\bs ?15535')"
p39
aS"(60, u'\\\\bpyrimidinylpiperazine')"
p40
aS"(73, u'\\\\btandospirone')"
p41
aS"(39, u'\\\\bflesinoxan')"
p42
aS"(85, u'\\\\b8 ?oh ?dpat')"
p43
atp44
Rp45
sS'species'
p46
g3
((lp47
S"(6753, u'(?i)\\\\b(da|das)\\\\b')"
p48
aS"(5958, u'(?i)\\\\b(rats|rat)\\\\b')"
p49
atp50
Rp51
sb.