(ifile_types
ParseObject
p0
(dp1
S'methods'
p2
c__builtin__
set
p3
((lp4
tp5
Rp6
sS'topics'
p7
g3
((lp8
tp9
Rp10
sS'receptors'
p11
g3
((lp12
(S'5ht2a'
p13
I665
I671
tp14
a(S'5ht2a'
p15
I1097
I1103
tp16
a(S'5ht2a'
p17
I41
I47
tp18
a(S'5ht2a'
p19
I632
I638
tp20
a(S'5ht2a'
p21
I114
I120
tp22
a(S'5ht2a'
p23
I1195
I1201
tp24
atp25
Rp26
sS'raw_text_methods'
p27
g3
((lp28
tp29
Rp30
sS'regions'
p31
g3
((lp32
tp33
Rp34
sS'year'
p35
V2003
p36
sS'species'
p37
g3
((lp38
tp39
Rp40
sb.