(ifile_types
ParseObject
p0
(dp1
S'antagonists'
p2
c__builtin__
set
p3
((lp4
S"(31, u'\\\\bway ?100635')"
p5
atp6
Rp7
sS'methods'
p8
g3
((lp9
S'Method.ANTAGONIST'
p10
atp11
Rp12
sS'topics'
p13
g3
((lp14
S"(11, u'\\\\banxiolyt')"
p15
aS"(10, u'\\\\banxiety')"
p16
atp17
Rp18
sS'receptors'
p19
g3
((lp20
S'5ht1a'
p21
atp22
Rp23
sS'regions'
p24
g3
((lp25
S"(217, u'(?i)\\\\b(beds|bed)(-|\\\\s+)?(nuclei|nucleus)(-|\\\\s+)?(ofs|of)(-|\\\\s+)?(thes|the)(-|\\\\s+)?(strias|stria)(-|\\\\s+)?(terminali|terminalis)\\\\b')"
p26
aS"(216, u'(?i)\\\\b(strias|stria)(-|\\\\s+)?(terminali|terminalis)\\\\b')"
p27
atp28
Rp29
sS'year'
p30
V2011
p31
sS'agonists'
p32
g3
((lp33
S"(21, u'\\\\bcannabidiol')"
p34
atp35
Rp36
sS'species'
p37
g3
((lp38
S"(5799, u'(?i)\\\\b(rodents|rodent)\\\\b')"
p39
aS"(5967, u'(?i)\\\\b(males|male)\\\\b')"
p40
aS"(1057, u'(?i)\\\\b(humans|human)\\\\b')"
p41
aS"(5958, u'(?i)\\\\b(rats|rat)\\\\b')"
p42
aS"(3196, u'(?i)\\\\b(human|humans)\\\\b')"
p43
atp44
Rp45
sb.