(ifile_types
ParseObject
p0
(dp1
S'antagonists'
p2
c__builtin__
set
p3
((lp4
tp5
Rp6
sS'methods'
p7
g3
((lp8
S'Method.AGONIST'
p9
atp10
Rp11
sS'topics'
p12
g3
((lp13
S"(8, u'\\\\blearning')"
p14
atp15
Rp16
sS'receptors'
p17
g3
((lp18
S'5ht1a'
p19
atp20
Rp21
sS'regions'
p22
g3
((lp23
S"(291, u'(?i)(cingulates|cingulate)(-|\\\\s+)?(cortexes|cortex)')"
p24
aS"(293, u'(?i)(posteriors|posterior)(-|\\\\s+)?(cingulates|cingulate)')"
p25
aS"(254, u'(?i)(prefrontals|prefrontal)(-|\\\\s+)?(cortexes|cortex)')"
p26
aS"(174, u'(?i)(posteriors|posterior)')"
p27
aS"(276, u'(?i)(cuneuses|cuneus)')"
p28
aS"(255, u'(?i)(pres|pre)(-|\\\\s+)?(frontals|frontal)(-|\\\\s+)?(cortexes|cortex)')"
p29
atp30
Rp31
sS'year'
p32
V1992
p33
sS'agonists'
p34
g3
((lp35
S"(24, u'\\\\bbuspirone')"
p36
atp37
Rp38
sS'species'
p39
g3
((lp40
S"(5626, u'(?i)(posters|poster)')"
p41
aS"(5958, u'(?i)(rats|rat)')"
p42
aS"(3601, u'(?i)(efts|eft)')"
p43
aS"(6682, u'(?i)(tera|teras)')"
p44
aS"(1055, u'(?i)(men|man)')"
p45
aS"(5743, u'(?i)(bots|bot)')"
p46
aS"(3812, u'(?i)(studs|stud)')"
p47
aS"(6356, u'(?i)(ais|ai)')"
p48
atp49
Rp50
sb.