(ifile_types
ParseObject
p0
(dp1
S'antagonists'
p2
c__builtin__
set
p3
((lp4
tp5
Rp6
sS'methods'
p7
g3
((lp8
S'Method.AGONIST'
p9
atp10
Rp11
sS'topics'
p12
g3
((lp13
tp14
Rp15
sS'receptors'
p16
g3
((lp17
S'5ht7'
p18
aS'5ht1b'
p19
aS'5ht5'
p20
aS'5ht1'
p21
aS'5ht1d'
p22
aS'5ht1a'
p23
atp24
Rp25
sS'regions'
p26
g3
((lp27
S"(242, u'(?i)\\\\b(olfactories|olfactory)(-|\\\\s+)?(tracts|tract)\\\\b')"
p28
aS"(227, u'(?i)\\\\b(olfactories|olfactory)(-|\\\\s+)?(tubercles|tubercle)\\\\b')"
p29
aS"(232, u'(?i)\\\\b(anteriors|anterior)(-|\\\\s+)?(perforateds|perforated)(-|\\\\s+)?(substances|substance)\\\\b')"
p30
atp31
Rp32
sS'year'
p33
V2010
p34
sS'agonists'
p35
g3
((lp36
S"(98, u'\\\\b5 ?carboxamidotryptamine')"
p37
aS"(114, u'\\\\bl ?694247')"
p38
atp39
Rp40
sS'species'
p41
g3
((lp42
S"(3152, u'(?i)\\\\b(layers|layer)\\\\b')"
p43
aS"(7539, u'(?i)\\\\b(mammals|mammal)\\\\b')"
p44
aS"(1057, u'(?i)\\\\b(humans|human)\\\\b')"
p45
aS"(5958, u'(?i)\\\\b(rats|rat)\\\\b')"
p46
aS"(3196, u'(?i)\\\\b(human|humans)\\\\b')"
p47
atp48
Rp49
sb.