(ifile_types
ParseObject
p0
(dp1
S'methods'
p2
c__builtin__
set
p3
((lp4
S'Method.AGONIST'
p5
atp6
Rp7
sS'topics'
p8
g3
((lp9
tp10
Rp11
sS'receptors'
p12
g3
((lp13
(S'5ht1a'
p14
I1777
I1783
tp15
a(S'5ht1a'
p16
I2003
I2009
tp17
a(S'5ht1a'
p18
I677
I683
tp19
a(S'5ht1a'
p20
I162
I168
tp21
a(S'5ht1a'
p22
I320
I326
tp23
a(S'5ht1a'
p24
I741
I747
tp25
a(S'5ht1a'
p26
I1933
I1939
tp27
atp28
Rp29
sS'raw_text_methods'
p30
g3
((lp31
S"(13, u'\\\\bagonist')"
p32
aS"(15, u'\\\\b8ohdpat')"
p33
aS"(32, u'\\\\blesions')"
p34
atp35
Rp36
sS'regions'
p37
g3
((lp38
S"(15, u'(?i)\\\\b(substantias|substantia)(-|\\\\s+)?(nigras|nigra)\\\\b')"
p39
aS"(20, u'(?i)\\\\b(prefrontals|prefrontal)\\\\b')"
p40
aS"(21, u'(?i)\\\\b(mpfcs|mpfc)\\\\b')"
p41
aS"(19, u'(?i)\\\\b(cortexes|cortex)\\\\b')"
p42
atp43
Rp44
sS'year'
p45
V2011
p46
sS'species'
p47
g3
((lp48
S"(4, u'(?i)\\\\b(rats|rat)\\\\b')"
p49
atp50
Rp51
sb.