(ifile_types
ParseObject
p0
(dp1
S'methods'
p2
c__builtin__
set
p3
((lp4
S'Method.ANTAGONIST'
p5
atp6
Rp7
sS'topics'
p8
g3
((lp9
tp10
Rp11
sS'receptors'
p12
g3
((lp13
(S'5ht1'
p14
I1190
I1195
tp15
a(S'5ht1b'
p16
I1168
I1174
tp17
a(S'5ht1'
p18
I836
I841
tp19
a(S'5ht2'
p20
I700
I705
tp21
atp22
Rp23
sS'raw_text_methods'
p24
g3
((lp25
S"(12, u'\\\\bantagonist')"
p26
atp27
Rp28
sS'regions'
p29
g3
((lp30
S"(19, u'(?i)\\\\b(cortexes|cortex)\\\\b')"
p31
atp32
Rp33
sS'year'
p34
V1986
p35
sS'species'
p36
g3
((lp37
S"(4, u'(?i)\\\\b(rats|rat)\\\\b')"
p38
atp39
Rp40
sb.