(ifile_types
ParseObject
p0
(dp1
S'antagonists'
p2
c__builtin__
set
p3
((lp4
tp5
Rp6
sS'methods'
p7
g3
((lp8
S'Method.ANTAGONIST'
p9
aS'Method.AGONIST'
p10
atp11
Rp12
sS'topics'
p13
g3
((lp14
S"(15, u'\\\\bschizophreni')"
p15
aS"(11, u'\\\\banxiolyt')"
p16
atp17
Rp18
sS'receptors'
p19
g3
((lp20
S'5ht1c'
p21
aS'5ht1b'
p22
aS'5ht5'
p23
aS'5ht4'
p24
aS'5ht3'
p25
aS'5ht2'
p26
aS'5ht1'
p27
aS'5ht3b'
p28
aS'5ht1d'
p29
aS'5ht1a'
p30
aS'5ht4a'
p31
aS'5ht2a'
p32
aS'5ht3a'
p33
atp34
Rp35
sS'regions'
p36
g3
((lp37
S"(362, u'(?i)\\\\b(brains|brain)(-|\\\\s+)?(stems|stem)\\\\b')"
p38
aS"(318, u'(?i)\\\\b(raphes|raphe)(-|\\\\s+)?(nuclei|nucleus)\\\\b')"
p39
atp40
Rp41
sS'year'
p42
V1992
p43
sS'agonists'
p44
g3
((lp45
S"(149, u'\\\\bmem')"
p46
atp47
Rp48
sS'species'
p49
g3
((lp50
tp51
Rp52
sb.