(ifile_types
ParseObject
p0
(dp1
S'antagonists'
p2
c__builtin__
set
p3
((lp4
S"(32, u'\\\\bway ?100635')"
p5
aS"(60, u'\\\\basenapine')"
p6
atp7
Rp8
sS'methods'
p9
g3
((lp10
S'Method.ANTAGONIST'
p11
aS'Method.AGONIST'
p12
atp13
Rp14
sS'topics'
p15
g3
((lp16
S"(15, u'\\\\bschizophreni')"
p17
atp18
Rp19
sS'receptors'
p20
g3
((lp21
S'5ht2d'
p22
aS'5ht1a'
p23
aS'5ht5'
p24
aS'5ht1'
p25
aS'5ht2a'
p26
atp27
Rp28
sS'regions'
p29
g3
((lp30
S"(96, u'(?i)(ventrals|ventral)(-|\\\\s+)?(tegmentals|tegmental)(-|\\\\s+)?(areas|area)')"
p31
aS"(318, u'(?i)(raphes|raphe)(-|\\\\s+)?(nuclei|nucleus)')"
p32
aS"(49, u'(?i)(loci|locus)(-|\\\\s+)?(coeruleuses|coeruleus)')"
p33
aS"(94, u'(?i)(dorsals|dorsal)(-|\\\\s+)?(raphes|raphe)(-|\\\\s+)?(nuclei|nucleus)')"
p34
atp35
Rp36
sS'year'
p37
V2009
p38
sS'agonists'
p39
g3
((lp40
S"(33, u'\\\\bdoi')"
p41
aS"(17, u'\\\\basenapine')"
p42
atp43
Rp44
sS'species'
p45
g3
((lp46
S"(5537, u'(?i)(hippos|hippo)')"
p47
aS"(2568, u'(?i)(hens|hen)')"
p48
aS"(6356, u'(?i)(ais|ai)')"
p49
aS"(5176, u'(?i)(tegs|teg)')"
p50
aS"(1055, u'(?i)(men|man)')"
p51
aS"(6249, u'(?i)(ants|ant)')"
p52
aS"(3812, u'(?i)(studs|stud)')"
p53
aS"(5958, u'(?i)(rats|rat)')"
p54
aS"(1414, u'(?i)(chars|char)')"
p55
aS"(4979, u'(?i)(cats|cat)')"
p56
atp57
Rp58
sb.