(ifile_types
ParseObject
p0
(dp1
S'methods'
p2
c__builtin__
set
p3
((lp4
S'Method.ANTAGONIST'
p5
atp6
Rp7
sS'topics'
p8
g3
((lp9
S"(8, u'\\\\banxi')"
p10
aS"(26, u'\\\\bbehav')"
p11
aS"(9, u'\\\\bstress')"
p12
aS"(3, u'\\\\bclinical')"
p13
atp14
Rp15
sS'receptors'
p16
g3
((lp17
(S'5ht1a'
p18
I1331
I1337
tp19
a(S'5ht1a'
p20
I492
I498
tp21
a(S'5ht1a'
p22
I1080
I1086
tp23
a(S'5ht1a'
p24
I67
I73
tp25
a(S'5ht1a'
p26
I296
I302
tp27
atp28
Rp29
sS'raw_text_methods'
p30
g3
((lp31
S"(38, u'\\\\bssri')"
p32
aS"(12, u'\\\\bantagonist')"
p33
atp34
Rp35
sS'regions'
p36
g3
((lp37
tp38
Rp39
sS'year'
p40
V1997
p41
sS'species'
p42
g3
((lp43
tp44
Rp45
sb.