(ifile_types
ParseObject
p0
(dp1
S'methods'
p2
c__builtin__
set
p3
((lp4
S'Method.ANTAGONIST'
p5
atp6
Rp7
sS'topics'
p8
g3
((lp9
tp10
Rp11
sS'receptors'
p12
g3
((lp13
(S'5ht3'
p14
I554
I559
tp15
a(S'5ht3'
p16
I608
I613
tp17
a(S'5ht3'
p18
I923
I928
tp19
a(S'5ht3'
p20
I275
I280
tp21
a(S'5ht3'
p22
I728
I733
tp23
atp24
Rp25
sS'raw_text_methods'
p26
g3
((lp27
S"(28, u'\\\\bzacopride')"
p28
aS"(23, u'\\\\bmdl')"
p29
aS"(12, u'\\\\bantagonist')"
p30
atp31
Rp32
sS'regions'
p33
g3
((lp34
tp35
Rp36
sS'year'
p37
V1989
p38
sS'species'
p39
g3
((lp40
tp41
Rp42
sb.