(ifile_types
ParseObject
p0
(dp1
S'antagonists'
p2
c__builtin__
set
p3
((lp4
S"(5, u'\\\\bcyanopindolol')"
p5
aS"(53, u'\\\\bketanserin')"
p6
aS"(52, u'\\\\bmetergoline')"
p7
aS"(128, u'\\\\bketanserin')"
p8
aS"(200, u'\\\\bmesulergine')"
p9
aS"(22, u'\\\\bpropranolol')"
p10
aS"(35, u'\\\\bmetergoline')"
p11
atp12
Rp13
sS'methods'
p14
g3
((lp15
S'Method.ANTAGONIST'
p16
atp17
Rp18
sS'topics'
p19
g3
((lp20
tp21
Rp22
sS'receptors'
p23
g3
((lp24
S'5ht1b'
p25
aS'5ht5'
p26
aS'5ht2c'
p27
aS'5ht2a'
p28
aS'5ht1a'
p29
aS'5ht2'
p30
atp31
Rp32
sS'regions'
p33
g3
((lp34
S"(159, u'(?i)(paraventriculars|paraventricular)(-|\\\\s+)?(nuclei|nucleus)')"
p35
aS"(126, u'(?i)(thalamuses|thalamus)')"
p36
atp37
Rp38
sS'year'
p39
V1995
p40
sS'agonists'
p41
g3
((lp42
S"(171, u'\\\\bmesulergine')"
p43
atp44
Rp45
sS'species'
p46
g3
((lp47
S"(6249, u'(?i)(ants|ant)')"
p48
aS"(6682, u'(?i)(tera|teras)')"
p49
aS"(468, u'(?i)(oxen|ox)')"
p50
aS"(1349, u'(?i)(rams|ram)')"
p51
aS"(5131, u'(?i)(hags|hag)')"
p52
aS"(3592, u'(?i)(ravens|raven)')"
p53
aS"(4964, u'(?i)(serins|serin)')"
p54
atp55
Rp56
sb.