(ifile_types
ParseObject
p0
(dp1
S'methods'
p2
c__builtin__
set
p3
((lp4
S'Method.PET'
p5
atp6
Rp7
sS'topics'
p8
g3
((lp9
tp10
Rp11
sS'receptors'
p12
g3
((lp13
(S'5ht1a'
p14
I39
I45
tp15
a(S'5ht1a'
p16
I306
I312
tp17
atp18
Rp19
sS'raw_text_methods'
p20
g3
((lp21
S"(51, u'\\\\bway100635')"
p22
aS"(17, u'\\\\bpet')"
p23
aS"(18, u'\\\\bimaging')"
p24
atp25
Rp26
sS'regions'
p27
g3
((lp28
tp29
Rp30
sS'year'
p31
V2000
p32
sS'species'
p33
g3
((lp34
tp35
Rp36
sb.