(ifile_types
ParseObject
p0
(dp1
S'antagonists'
p2
c__builtin__
set
p3
((lp4
S"(53, u'\\\\bketanserin')"
p5
aS"(32, u'\\\\bway ?100635')"
p6
aS"(128, u'\\\\bketanserin')"
p7
atp8
Rp9
sS'methods'
p10
g3
((lp11
S'Method.ANTAGONIST'
p12
aS'Method.AGONIST'
p13
atp14
Rp15
sS'topics'
p16
g3
((lp17
S"(9, u'\\\\bdepress')"
p18
atp19
Rp20
sS'receptors'
p21
g3
((lp22
S'5ht5'
p23
aS'5ht2c'
p24
aS'5ht1a'
p25
aS'5ht2'
p26
aS'5ht2a'
p27
atp28
Rp29
sS'regions'
p30
g3
((lp31
S"(362, u'(?i)(brains|brain)(-|\\\\s+)?(stems|stem)')"
p32
aS"(34, u'(?i)(pon|pons)')"
p33
aS"(30, u'(?i)(nuclei|nucleus)(-|\\\\s+)?(ambiguuses|ambiguus)')"
p34
atp35
Rp36
sS'year'
p37
V2009
p38
sS'agonists'
p39
g3
((lp40
tp41
Rp42
sS'species'
p43
g3
((lp44
S"(2323, u'(?i)(bees|bee)')"
p45
aS"(1688, u'(?i)(ounces|ounce)')"
p46
aS"(5958, u'(?i)(rats|rat)')"
p47
aS"(867, u'(?i)(tits|tit)')"
p48
aS"(4964, u'(?i)(serins|serin)')"
p49
aS"(5967, u'(?i)(males|male)')"
p50
aS"(468, u'(?i)(oxen|ox)')"
p51
aS"(1349, u'(?i)(rams|ram)')"
p52
aS"(6249, u'(?i)(ants|ant)')"
p53
aS"(1055, u'(?i)(men|man)')"
p54
aS"(853, u'(?i)(minas|mina)')"
p55
aS"(7094, u'(?i)(curs|cur)')"
p56
aS"(3550, u'(?i)(anis|ani)')"
p57
aS"(3522, u'(?i)(tetras|tetra)')"
p58
aS"(4979, u'(?i)(cats|cat)')"
p59
aS"(6356, u'(?i)(ais|ai)')"
p60
aS"(821, u'(?i)(lice|louse)')"
p61
aS"(5949, u'(?i)(dogs|dog)')"
p62
atp63
Rp64
sb.