(ifile_types
ParseObject
p0
(dp1
S'antagonists'
p2
c__builtin__
set
p3
((lp4
tp5
Rp6
sS'methods'
p7
g3
((lp8
tp9
Rp10
sS'topics'
p11
g3
((lp12
tp13
Rp14
sS'receptors'
p15
g3
((lp16
S'5ht7'
p17
atp18
Rp19
sS'regions'
p20
g3
((lp21
S"(34, u'(?i)(pon|pons)')"
p22
atp23
Rp24
sS'year'
p25
V2007
p26
sS'agonists'
p27
g3
((lp28
S"(155, u'\\\\bmem')"
p29
atp30
Rp31
sS'species'
p32
g3
((lp33
S"(2323, u'(?i)(bees|bee)')"
p34
aS"(5176, u'(?i)(tegs|teg)')"
p35
aS"(5958, u'(?i)(rats|rat)')"
p36
aS"(702, u'(?i)(genets|genet)')"
p37
aS"(163, u'(?i)(mice|mouse)')"
p38
aS"(7539, u'(?i)(mammals|mammal)')"
p39
aS"(479, u'(?i)(lings|ling)')"
p40
aS"(1169, u'(?i)(grades|grade)')"
p41
aS"(7540, u'(?i)(mammalians|mammalian)')"
p42
aS"(7094, u'(?i)(curs|cur)')"
p43
aS"(853, u'(?i)(minas|mina)')"
p44
aS"(4979, u'(?i)(cats|cat)')"
p45
aS"(1961, u'(?i)(pens|pen)')"
p46
aS"(6356, u'(?i)(ais|ai)')"
p47
aS"(6391, u'(?i)(asses|ass)')"
p48
aS"(1628, u'(?i)(cod|cod)')"
p49
aS"(5743, u'(?i)(bots|bot)')"
p50
aS"(821, u'(?i)(lice|louse)')"
p51
aS"(7127, u'(?i)(monitors|monitor)')"
p52
atp53
Rp54
sb.