(ifile_types
ParseObject
p0
(dp1
S'methods'
p2
c__builtin__
set
p3
((lp4
S'Method.PET'
p5
atp6
Rp7
sS'topics'
p8
g3
((lp9
S"(13, u'\\\\bantidepress')"
p10
aS"(3, u'\\\\bclinical')"
p11
atp12
Rp13
sS'receptors'
p14
g3
((lp15
(S'5ht2a'
p16
I784
I790
tp17
a(S'5ht2a'
p18
I320
I331
tp19
a(S'5ht2a'
p20
I334
I340
tp21
a(S'5ht2a'
p22
I89
I95
tp23
atp24
Rp25
sS'raw_text_methods'
p26
g3
((lp27
S"(17, u'\\\\bpet')"
p28
aS"(19, u'\\\\bpositron emission tomography')"
p29
aS"(23, u'\\\\bmdl')"
p30
atp31
Rp32
sS'regions'
p33
g3
((lp34
S"(11, u'(?i)\\\\b(cerebrals|cerebral)\\\\b')"
p35
aS"(9, u'(?i)\\\\b(cerebellums|cerebellum)\\\\b')"
p36
atp37
Rp38
sS'year'
p39
V2007
p40
sS'species'
p41
g3
((lp42
tp43
Rp44
sb.