(ifile_types
ParseObject
p0
(dp1
S'antagonists'
p2
c__builtin__
set
p3
((lp4
S"(21, u'\\\\bpindolol')"
p5
atp6
Rp7
sS'methods'
p8
g3
((lp9
S'Method.ANTAGONIST'
p10
atp11
Rp12
sS'topics'
p13
g3
((lp14
S"(9, u'\\\\bdepress')"
p15
aS"(16, u'\\\\bfeed')"
p16
atp17
Rp18
sS'receptors'
p19
g3
((lp20
S'5ht1a'
p21
atp22
Rp23
sS'regions'
p24
g3
((lp25
S"(318, u'(?i)\\\\b(raphes|raphe)(-|\\\\s+)?(nuclei|nucleus)\\\\b')"
p26
atp27
Rp28
sS'year'
p29
V1996
p30
sS'agonists'
p31
g3
((lp32
tp33
Rp34
sS'species'
p35
g3
((lp36
S"(3527, u'(?i)\\\\b(permits|permit)\\\\b')"
p37
atp38
Rp39
sb.