(ifile_types
ParseObject
p0
(dp1
S'antagonists'
p2
c__builtin__
set
p3
((lp4
S"(5, u'\\\\bcyanopindolol')"
p5
aS"(53, u'\\\\bketanserin')"
p6
aS"(130, u'\\\\britanserin')"
p7
aS"(14, u'\\\\bmethiothepin')"
p8
aS"(105, u'\\\\bmethysergide')"
p9
aS"(128, u'\\\\bketanserin')"
p10
aS"(54, u'\\\\britanserin')"
p11
aS"(200, u'\\\\bmesulergine')"
p12
aS"(22, u'\\\\bpropranolol')"
p13
aS"(63, u'\\\\bpizotifen')"
p14
atp15
Rp16
sS'methods'
p17
g3
((lp18
S'Method.ANTAGONIST'
p19
aS'Method.AGONIST'
p20
atp21
Rp22
sS'topics'
p23
g3
((lp24
S"(25, u'\\\\bvasoconstrict')"
p25
atp26
Rp27
sS'receptors'
p28
g3
((lp29
S'5ht1c'
p30
aS'5ht1b'
p31
aS'5ht1a'
p32
aS'5ht3'
p33
aS'5ht2'
p34
aS'5ht1d'
p35
aS'5ht5'
p36
atp37
Rp38
sS'regions'
p39
g3
((lp40
S"(364, u'(?i)(middles|middle)(-|\\\\s+)?(cerebrals|cerebral)(-|\\\\s+)?(arteries|artery)')"
p41
aS"(34, u'(?i)(pon|pons)')"
p42
atp43
Rp44
sS'year'
p45
V1989
p46
sS'agonists'
p47
g3
((lp48
S"(74, u'\\\\bru ?24969')"
p49
aS"(105, u'\\\\b5 ?carboxamidotryptamine')"
p50
aS"(5, u'\\\\b5 ?ct')"
p51
aS"(29, u'\\\\bdihydroergotamine')"
p52
aS"(190, u'\\\\b2 ?methyl ?5 ?ht')"
p53
aS"(60, u'\\\\bmethysergide')"
p54
aS"(171, u'\\\\bmesulergine')"
p55
atp56
Rp57
sS'species'
p58
g3
((lp59
S"(7094, u'(?i)(curs|cur)')"
p60
aS"(6356, u'(?i)(ais|ai)')"
p61
aS"(6249, u'(?i)(ants|ant)')"
p62
aS"(3812, u'(?i)(studs|stud)')"
p63
aS"(6391, u'(?i)(asses|ass)')"
p64
aS"(1070, u'(?i)(pets|pet)')"
p65
aS"(4952, u'(?i)(felines|feline)')"
p66
aS"(7539, u'(?i)(mammals|mammal)')"
p67
aS"(468, u'(?i)(oxen|ox)')"
p68
aS"(3404, u'(?i)(titis|titi)')"
p69
aS"(5743, u'(?i)(bots|bot)')"
p70
aS"(3522, u'(?i)(tetras|tetra)')"
p71
aS"(3426, u'(?i)(hares|hare)')"
p72
aS"(5958, u'(?i)(rats|rat)')"
p73
aS"(867, u'(?i)(tits|tit)')"
p74
aS"(6682, u'(?i)(tera|teras)')"
p75
aS"(7488, u'(?i)(molas|mola)')"
p76
aS"(7540, u'(?i)(mammalians|mammalian)')"
p77
aS"(1055, u'(?i)(men|man)')"
p78
aS"(4979, u'(?i)(cats|cat)')"
p79
aS"(1414, u'(?i)(chars|char)')"
p80
aS"(4964, u'(?i)(serins|serin)')"
p81
atp82
Rp83
sb.