(ifile_types
ParseObject
p0
(dp1
S'methods'
p2
c__builtin__
set
p3
((lp4
S'Method.STIMULATION'
p5
aS'Method.ANTAGONIST'
p6
aS'Method.AGONIST'
p7
atp8
Rp9
sS'topics'
p10
g3
((lp11
S"(26, u'\\\\bbehav')"
p12
atp13
Rp14
sS'receptors'
p15
g3
((lp16
(S'5ht1a'
p17
I487
I493
tp18
a(S'5ht2'
p19
I130
I135
tp20
a(S'5ht1a'
p21
I1237
I1243
tp22
a(S'5ht2c'
p23
I500
I506
tp24
a(S'5ht2'
p25
I1930
I1935
tp26
a(S'5ht1a'
p27
I2088
I2094
tp28
a(S'5ht2c'
p29
I1663
I1669
tp30
a(S'5ht1a'
p31
I1407
I1413
tp32
a(S'5ht2'
p33
I2101
I2106
tp34
a(S'5ht1a'
p35
I119
I125
tp36
atp37
Rp38
sS'raw_text_methods'
p39
g3
((lp40
S"(13, u'\\\\bagonist')"
p41
aS"(15, u'\\\\b8ohdpat')"
p42
aS"(49, u'\\\\bdoi')"
p43
aS"(12, u'\\\\bantagonist')"
p44
atp45
Rp46
sS'regions'
p47
g3
((lp48
tp49
Rp50
sS'year'
p51
V2003
p52
sS'species'
p53
g3
((lp54
tp55
Rp56
sb.