(ifile_types
ParseObject
p0
(dp1
S'methods'
p2
c__builtin__
set
p3
((lp4
S'Method.ANTAGONIST'
p5
aS'Method.AGONIST'
p6
atp7
Rp8
sS'topics'
p9
g3
((lp10
S"(26, u'\\\\bbehav')"
p11
aS"(33, u'\\\\blocomot')"
p12
atp13
Rp14
sS'receptors'
p15
g3
((lp16
(S'5ht2c'
p17
I505
I511
tp18
a(S'5ht2c'
p19
I865
I871
tp20
a(S'5ht2c'
p21
I1318
I1324
tp22
a(S'5ht2c'
p23
I166
I172
tp24
a(S'5ht2c'
p25
I298
I304
tp26
a(S'5ht2c'
p27
I1765
I1771
tp28
atp29
Rp30
sS'raw_text_methods'
p31
g3
((lp32
S"(13, u'\\\\bagonist')"
p33
aS"(12, u'\\\\bantagonist')"
p34
atp35
Rp36
sS'regions'
p37
g3
((lp38
tp39
Rp40
sS'year'
p41
V2011
p42
sS'species'
p43
g3
((lp44
tp45
Rp46
sb.