(ifile_types
ParseObject
p0
(dp1
S'methods'
p2
c__builtin__
set
p3
((lp4
S'Method.STAINING'
p5
aS'Method.ANTAGONIST'
p6
atp7
Rp8
sS'topics'
p9
g3
((lp10
S"(14, u'\\\\bcogniti')"
p11
aS"(5, u'\\\\btherap')"
p12
aS"(17, u'\\\\balzheimer')"
p13
atp14
Rp15
sS'receptors'
p16
g3
((lp17
(S'5ht6'
p18
I37
I42
tp19
a(S'5ht6'
p20
I559
I564
tp21
a(S'5ht6'
p22
I307
I312
tp23
a(S'5ht6'
p24
I208
I213
tp25
a(S'5ht6'
p26
I358
I363
tp27
a(S'5ht6'
p28
I1509
I1514
tp29
a(S'5ht6'
p30
I693
I698
tp31
a(S'5ht6'
p32
I639
I644
tp33
a(S'5ht6'
p34
I957
I962
tp35
a(S'5ht6'
p36
I1403
I1408
tp37
atp38
Rp39
sS'raw_text_methods'
p40
g3
((lp41
S"(12, u'\\\\bantagonist')"
p42
atp43
Rp44
sS'regions'
p45
g3
((lp46
tp47
Rp48
sS'year'
p49
V2017
p50
sS'species'
p51
g3
((lp52
S"(1, u'(?i)\\\\b(mice|mouse)\\\\b')"
p53
aS"(5, u'(?i)\\\\b(mices|mice)\\\\b')"
p54
atp55
Rp56
sb.