(ifile_types
ParseObject
p0
(dp1
S'methods'
p2
c__builtin__
set
p3
((lp4
S'Method.ANTAGONIST'
p5
aS'Method.AGONIST'
p6
atp7
Rp8
sS'topics'
p9
g3
((lp10
tp11
Rp12
sS'receptors'
p13
g3
((lp14
(S'5ht1b'
p15
I636
I644
tp16
a(S'5ht3'
p17
I907
I912
tp18
a(S'5ht1a'
p19
I636
I642
tp20
a(S'5ht2'
p21
I1879
I1884
tp22
a(S'5ht1d'
p23
I636
I646
tp24
a(S'5ht1a'
p25
I792
I798
tp26
a(S'5ht1'
p27
I1830
I1835
tp28
a(S'5ht2'
p29
I839
I844
tp30
a(S'5ht1c'
p31
I828
I834
tp32
a(S'5ht3'
p33
I1888
I1893
tp34
a(S'5ht2'
p35
I2246
I2251
tp36
atp37
Rp38
sS'raw_text_methods'
p39
g3
((lp40
S"(53, u'\\\\bketanserin')"
p41
aS"(7, u'\\\\bpropranolol')"
p42
aS"(15, u'\\\\b8ohdpat')"
p43
aS"(34, u'\\\\b5ct')"
p44
aS"(13, u'\\\\bagonist')"
p45
aS"(12, u'\\\\bantagonist')"
p46
atp47
Rp48
sS'regions'
p49
g3
((lp50
tp51
Rp52
sS'year'
p53
V1993
p54
sS'species'
p55
g3
((lp56
S"(4, u'(?i)\\\\b(rats|rat)\\\\b')"
p57
atp58
Rp59
sb.