(ifile_types
ParseObject
p0
(dp1
S'antagonists'
p2
c__builtin__
set
p3
((lp4
S"(102, u'\\\\bfluoxetine')"
p5
aS"(117, u'\\\\bmianserin')"
p6
atp7
Rp8
sS'methods'
p9
g3
((lp10
S'Method.ANTAGONIST'
p11
aS'Method.AGONIST'
p12
atp13
Rp14
sS'topics'
p15
g3
((lp16
tp17
Rp18
sS'receptors'
p19
g3
((lp20
S'5ht1c'
p21
aS'5ht1b'
p22
aS'5ht5'
p23
aS'5ht1a'
p24
aS'5ht2a'
p25
atp26
Rp27
sS'regions'
p28
g3
((lp29
tp30
Rp31
sS'year'
p32
V1989
p33
sS'agonists'
p34
g3
((lp35
S"(92, u'\\\\b8 ?oh ?dpat')"
p36
atp37
Rp38
sS'species'
p39
g3
((lp40
S"(1070, u'(?i)(pets|pet)')"
p41
aS"(2568, u'(?i)(hens|hen)')"
p42
aS"(867, u'(?i)(tits|tit)')"
p43
aS"(468, u'(?i)(oxen|ox)')"
p44
aS"(3404, u'(?i)(titis|titi)')"
p45
aS"(7094, u'(?i)(curs|cur)')"
p46
aS"(7488, u'(?i)(molas|mola)')"
p47
aS"(4964, u'(?i)(serins|serin)')"
p48
aS"(6249, u'(?i)(ants|ant)')"
p49
aS"(1414, u'(?i)(chars|char)')"
p50
atp51
Rp52
sb.