(ifile_types
ParseObject
p0
(dp1
S'methods'
p2
c__builtin__
set
p3
((lp4
tp5
Rp6
sS'topics'
p7
g3
((lp8
S"(27, u'\\\\bdyskinesia')"
p9
aS"(4, u'\\\\btreatment')"
p10
aS"(3, u'\\\\bclinical')"
p11
atp12
Rp13
sS'receptors'
p14
g3
((lp15
(S'5ht2a'
p16
I1562
I1568
tp17
a(S'5ht2b'
p18
I1572
I1578
tp19
a(S'5ht1a'
p20
I1552
I1558
tp21
atp22
Rp23
sS'raw_text_methods'
p24
g3
((lp25
tp26
Rp27
sS'regions'
p28
g3
((lp29
S"(4, u'(?i)\\\\b(presynaptics|presynaptic)\\\\b')"
p30
aS"(23, u'(?i)\\\\b(forebrains|forebrain)\\\\b')"
p31
atp32
Rp33
sS'year'
p34
V2017
p35
sS'species'
p36
g3
((lp37
S"(4, u'(?i)\\\\b(rats|rat)\\\\b')"
p38
atp39
Rp40
sb.