(ifile_types
ParseObject
p0
(dp1
S'antagonists'
p2
c__builtin__
set
p3
((lp4
S"(85, u'\\\\blisuride')"
p5
atp6
Rp7
sS'methods'
p8
g3
((lp9
S'Method.AGONIST'
p10
atp11
Rp12
sS'topics'
p13
g3
((lp14
S"(6, u'\\\\bcognit')"
p15
aS"(1, u'\\\\bmood')"
p16
atp17
Rp18
sS'receptors'
p19
g3
((lp20
S'5ht2a'
p21
atp22
Rp23
sS'regions'
p24
g3
((lp25
S"(34, u'(?i)(pon|pons)')"
p26
atp27
Rp28
sS'year'
p29
V2007
p30
sS'agonists'
p31
g3
((lp32
S"(56, u'\\\\blsd')"
p33
aS"(55, u'\\\\blysergic acid diethylamide')"
p34
aS"(57, u'\\\\bmescaline')"
p35
aS"(70, u'\\\\bpsilocybin')"
p36
aS"(52, u'\\\\blisuride')"
p37
atp38
Rp39
sS'species'
p40
g3
((lp41
S"(2670, u'(?i)(arabs|arab)')"
p42
aS"(6356, u'(?i)(ais|ai)')"
p43
aS"(7609, u'(?i)(erns|ern)')"
p44
aS"(702, u'(?i)(genets|genet)')"
p45
aS"(479, u'(?i)(lings|ling)')"
p46
aS"(468, u'(?i)(oxen|ox)')"
p47
aS"(5743, u'(?i)(bots|bot)')"
p48
aS"(3550, u'(?i)(anis|ani)')"
p49
aS"(3812, u'(?i)(studs|stud)')"
p50
aS"(6391, u'(?i)(asses|ass)')"
p51
aS"(1683, u'(?i)(terns|tern)')"
p52
atp53
Rp54
sb.