(ifile_types
ParseObject
p0
(dp1
S'antagonists'
p2
c__builtin__
set
p3
((lp4
tp5
Rp6
sS'methods'
p7
g3
((lp8
S'Method.ANTAGONIST'
p9
atp10
Rp11
sS'topics'
p12
g3
((lp13
S"(32, u'\\\\bnausea')"
p14
aS"(28, u'\\\\bemesis')"
p15
atp16
Rp17
sS'receptors'
p18
g3
((lp19
S'5ht3a'
p20
aS'5ht3'
p21
atp22
Rp23
sS'regions'
p24
g3
((lp25
tp26
Rp27
sS'year'
p28
V2001
p29
sS'agonists'
p30
g3
((lp31
tp32
Rp33
sS'species'
p34
g3
((lp35
S"(2323, u'(?i)(bees|bee)')"
p36
aS"(4624, u'(?i)(apes|ape)')"
p37
aS"(5958, u'(?i)(rats|rat)')"
p38
aS"(867, u'(?i)(tits|tit)')"
p39
aS"(468, u'(?i)(oxen|ox)')"
p40
aS"(1055, u'(?i)(men|man)')"
p41
aS"(6249, u'(?i)(ants|ant)')"
p42
aS"(3404, u'(?i)(titis|titi)')"
p43
aS"(6753, u'(?i)(da|das)')"
p44
aS"(3550, u'(?i)(anis|ani)')"
p45
aS"(6981, u'(?i)(moths|moth)')"
p46
aS"(6468, u'(?i)(tuna|tuna)')"
p47
aS"(6391, u'(?i)(asses|ass)')"
p48
aS"(5674, u'(?i)(ewes|ewe)')"
p49
atp50
Rp51
sb.