(ifile_types
ParseObject
p0
(dp1
S'methods'
p2
c__builtin__
set
p3
((lp4
S'Method.ANTAGONIST'
p5
aS'Method.AGONIST'
p6
atp7
Rp8
sS'topics'
p9
g3
((lp10
S"(14, u'\\\\bcogniti')"
p11
aS"(23, u'\\\\bantipsychotic')"
p12
aS"(5, u'\\\\btherap')"
p13
aS"(8, u'\\\\banxi')"
p14
aS"(4, u'\\\\btreatment')"
p15
aS"(3, u'\\\\bclinical')"
p16
atp17
Rp18
sS'receptors'
p19
g3
((lp20
(S'5ht2c'
p21
I921
I927
tp22
a(S'5ht2c'
p23
I607
I613
tp24
a(S'5ht2a'
p25
I337
I343
tp26
a(S'5ht2c'
p27
I370
I376
tp28
a(S'5ht2c'
p29
I1527
I1533
tp30
a(S'5ht2c'
p31
I55
I61
tp32
a(S'5ht2c'
p33
I735
I741
tp34
a(S'5ht2c'
p35
I2232
I2238
tp36
a(S'5ht2c'
p37
I130
I136
tp38
a(S'5ht2c'
p39
I2010
I2016
tp40
a(S'5ht2c'
p41
I1367
I1373
tp42
a(S'5ht2c'
p43
I1625
I1631
tp44
a(S'5ht2c'
p45
I1158
I1164
tp46
a(S'5ht2c'
p47
I348
I354
tp48
a(S'5ht2c'
p49
I2078
I2084
tp50
a(S'5ht2c'
p51
I1852
I1858
tp52
a(S'5ht2c'
p53
I998
I1004
tp54
atp55
Rp56
sS'raw_text_methods'
p57
g3
((lp58
S"(13, u'\\\\bagonist')"
p59
aS"(40, u'\\\\bclozapine')"
p60
aS"(54, u'\\\\bautoradiography')"
p61
aS"(12, u'\\\\bantagonist')"
p62
atp63
Rp64
sS'regions'
p65
g3
((lp66
tp67
Rp68
sS'year'
p69
V2001
p70
sS'species'
p71
g3
((lp72
S"(4, u'(?i)\\\\b(rats|rat)\\\\b')"
p73
atp74
Rp75
sb.