(ifile_types
ParseObject
p0
(dp1
S'methods'
p2
c__builtin__
set
p3
((lp4
S'Method.ANTAGONIST'
p5
atp6
Rp7
sS'topics'
p8
g3
((lp9
S"(13, u'\\\\bantidepress')"
p10
aS"(26, u'\\\\bbehav')"
p11
aS"(7, u'\\\\bdepressi')"
p12
aS"(9, u'\\\\bstress')"
p13
aS"(29, u'\\\\bhyperactiv')"
p14
atp15
Rp16
sS'receptors'
p17
g3
((lp18
(S'5ht3'
p19
I66
I71
tp20
a(S'5ht3'
p21
I258
I263
tp22
a(S'5ht3'
p23
I1026
I1031
tp24
a(S'5ht3'
p25
I407
I412
tp26
a(S'5ht3'
p27
I1827
I1832
tp28
a(S'5ht3'
p29
I921
I926
tp30
atp31
Rp32
sS'raw_text_methods'
p33
g3
((lp34
S"(20, u'\\\\bondansetron')"
p35
aS"(11, u'\\\\bfluoxetine')"
p36
aS"(12, u'\\\\bantagonist')"
p37
atp38
Rp39
sS'regions'
p40
g3
((lp41
tp42
Rp43
sS'year'
p44
V2014
p45
sS'species'
p46
g3
((lp47
S"(1, u'(?i)\\\\b(mice|mouse)\\\\b')"
p48
aS"(5, u'(?i)\\\\b(mices|mice)\\\\b')"
p49
aS"(7, u'(?i)\\\\b(guineas|guinea)(-|\\\\s+)?(pigs|pig)\\\\b')"
p50
atp51
Rp52
sb.