(ifile_types
ParseObject
p0
(dp1
S'methods'
p2
c__builtin__
set
p3
((lp4
S'Method.ANTAGONIST'
p5
atp6
Rp7
sS'topics'
p8
g3
((lp9
S"(4, u'\\\\btreatment')"
p10
atp11
Rp12
sS'receptors'
p13
g3
((lp14
(S'5ht1a'
p15
I49
I55
tp16
a(S'5ht1a'
p17
I2313
I2319
tp18
a(S'5ht1a'
p19
I503
I509
tp20
a(S'5ht1a'
p21
I1313
I1319
tp22
a(S'5ht1a'
p23
I1834
I1840
tp24
a(S'5ht1a'
p25
I1472
I1478
tp26
a(S'5ht1a'
p27
I2161
I2167
tp28
a(S'5ht1a'
p29
I2363
I2369
tp30
a(S'5ht1a'
p31
I274
I280
tp32
a(S'5ht1a'
p33
I1645
I1651
tp34
atp35
Rp36
sS'raw_text_methods'
p37
g3
((lp38
S"(15, u'\\\\b8ohdpat')"
p39
aS"(51, u'\\\\bway100635')"
p40
aS"(12, u'\\\\bantagonist')"
p41
atp42
Rp43
sS'regions'
p44
g3
((lp45
tp46
Rp47
sS'year'
p48
V2005
p49
sS'species'
p50
g3
((lp51
S"(4, u'(?i)\\\\b(rats|rat)\\\\b')"
p52
atp53
Rp54
sb.