(ifile_types
ParseObject
p0
(dp1
S'methods'
p2
c__builtin__
set
p3
((lp4
tp5
Rp6
sS'topics'
p7
g3
((lp8
S"(13, u'\\\\bantidepress')"
p9
aS"(7, u'\\\\bdepressi')"
p10
aS"(29, u'\\\\bhyperactiv')"
p11
aS"(5, u'\\\\btherap')"
p12
aS"(26, u'\\\\bbehav')"
p13
aS"(4, u'\\\\btreatment')"
p14
atp15
Rp16
sS'receptors'
p17
g3
((lp18
(S'5ht1a'
p19
I2132
I2138
tp20
atp21
Rp22
sS'raw_text_methods'
p23
g3
((lp24
S"(15, u'\\\\b8ohdpat')"
p25
aS"(39, u'\\\\bselective serotonin reuptake inhibitor')"
p26
atp27
Rp28
sS'regions'
p29
g3
((lp30
S"(19, u'(?i)\\\\b(cortexes|cortex)\\\\b')"
p31
atp32
Rp33
sS'year'
p34
V1999
p35
sS'species'
p36
g3
((lp37
S"(4, u'(?i)\\\\b(rats|rat)\\\\b')"
p38
atp39
Rp40
sb.