(ifile_types
ParseObject
p0
(dp1
S'methods'
p2
c__builtin__
set
p3
((lp4
S'Method.PET'
p5
atp6
Rp7
sS'topics'
p8
g3
((lp9
S"(2, u'\\\\bdisorder')"
p10
atp11
Rp12
sS'receptors'
p13
g3
((lp14
(S'5ht7'
p15
I404
I409
tp16
a(S'5ht7'
p17
I570
I575
tp18
a(S'5ht7'
p19
I785
I790
tp20
a(S'5ht7'
p21
I118
I123
tp22
a(S'5ht7'
p23
I263
I268
tp24
a(S'5ht7'
p25
I640
I645
tp26
a(S'5ht7'
p27
I1008
I1013
tp28
a(S'5ht7'
p29
I530
I535
tp30
atp31
Rp32
sS'raw_text_methods'
p33
g3
((lp34
S"(17, u'\\\\bpet')"
p35
aS"(19, u'\\\\bpositron emission tomography')"
p36
aS"(18, u'\\\\bimaging')"
p37
atp38
Rp39
sS'regions'
p40
g3
((lp41
S"(11, u'(?i)\\\\b(cerebrals|cerebral)\\\\b')"
p42
atp43
Rp44
sS'year'
p45
V2012
p46
sS'species'
p47
g3
((lp48
tp49
Rp50
sb.