(ifile_types
ParseObject
p0
(dp1
S'methods'
p2
c__builtin__
set
p3
((lp4
S'Method.KNOCKOUT'
p5
aS'Method.AGONIST'
p6
atp7
Rp8
sS'topics'
p9
g3
((lp10
S"(22, u'\\\\bschizophreni')"
p11
aS"(26, u'\\\\bbehav')"
p12
aS"(19, u'\\\\bpsychosis')"
p13
aS"(33, u'\\\\blocomot')"
p14
aS"(23, u'\\\\bantipsychotic')"
p15
aS"(4, u'\\\\btreatment')"
p16
atp17
Rp18
sS'receptors'
p19
g3
((lp20
(S'5ht2a'
p21
I200
I206
tp22
a(S'5ht2a'
p23
I548
I554
tp24
a(S'5ht2a'
p25
I1889
I1895
tp26
a(S'5ht2a'
p27
I55
I61
tp28
atp29
Rp30
sS'raw_text_methods'
p31
g3
((lp32
S"(13, u'\\\\bagonist')"
p33
aS"(40, u'\\\\bclozapine')"
p34
aS"(5, u'\\\\bmk801')"
p35
atp36
Rp37
sS'regions'
p38
g3
((lp39
S"(19, u'(?i)\\\\b(cortexes|cortex)\\\\b')"
p40
atp41
Rp42
sS'year'
p43
V2018
p44
sS'species'
p45
g3
((lp46
S"(1, u'(?i)\\\\b(mice|mouse)\\\\b')"
p47
aS"(6, u'(?i)\\\\b(rodents|rodent)\\\\b')"
p48
aS"(5, u'(?i)\\\\b(mices|mice)\\\\b')"
p49
atp50
Rp51
sb.