(ifile_types
ParseObject
p0
(dp1
S'antagonists'
p2
c__builtin__
set
p3
((lp4
S"(27, u'\\\\bspiperone')"
p5
atp6
Rp7
sS'methods'
p8
g3
((lp9
S'Method.ANTAGONIST'
p10
aS'Method.AGONIST'
p11
atp12
Rp13
sS'topics'
p14
g3
((lp15
tp16
Rp17
sS'receptors'
p18
g3
((lp19
S'5ht1b'
p20
aS'5ht1a'
p21
aS'5ht2c'
p22
aS'5ht2'
p23
aS'5ht2a'
p24
atp25
Rp26
sS'regions'
p27
g3
((lp28
S"(126, u'(?i)(thalamuses|thalamus)')"
p29
atp30
Rp31
sS'year'
p32
V1996
p33
sS'agonists'
p34
g3
((lp35
S"(161, u'\\\\bmcpp')"
p36
aS"(74, u'\\\\bru ?24969')"
p37
aS"(33, u'\\\\bdoi')"
p38
atp39
Rp40
sS'species'
p41
g3
((lp42
S"(6249, u'(?i)(ants|ant)')"
p43
aS"(1349, u'(?i)(rams|ram)')"
p44
aS"(5131, u'(?i)(hags|hag)')"
p45
aS"(3592, u'(?i)(ravens|raven)')"
p46
aS"(6356, u'(?i)(ais|ai)')"
p47
aS"(3812, u'(?i)(studs|stud)')"
p48
atp49
Rp50
sb.