(ifile_types
ParseObject
p0
(dp1
S'methods'
p2
c__builtin__
set
p3
((lp4
S'Method.AGONIST'
p5
atp6
Rp7
sS'topics'
p8
g3
((lp9
tp10
Rp11
sS'receptors'
p12
g3
((lp13
(S'5ht1a'
p14
I2017
I2023
tp15
a(S'5ht1a'
p16
I1649
I1655
tp17
a(S'5ht1a'
p18
I2187
I2193
tp19
a(S'5ht1a'
p20
I939
I945
tp21
a(S'5ht1a'
p22
I562
I568
tp23
a(S'5ht1a'
p24
I1261
I1267
tp25
a(S'5ht1a'
p26
I2129
I2135
tp27
a(S'5ht1a'
p28
I79
I85
tp29
atp30
Rp31
sS'raw_text_methods'
p32
g3
((lp33
S"(13, u'\\\\bagonist')"
p34
aS"(46, u'\\\\bspiperone')"
p35
atp36
Rp37
sS'regions'
p38
g3
((lp39
tp40
Rp41
sS'year'
p42
V1999
p43
sS'species'
p44
g3
((lp45
S"(4, u'(?i)\\\\b(rats|rat)\\\\b')"
p46
atp47
Rp48
sb.