(ifile_types
ParseObject
p0
(dp1
S'methods'
p2
c__builtin__
set
p3
((lp4
S'Method.STIMULATION'
p5
aS'Method.STAINING'
p6
aS'Method.ANTAGONIST'
p7
atp8
Rp9
sS'topics'
p10
g3
((lp11
S"(28, u'\\\\bgastrointestin')"
p12
aS"(26, u'\\\\bbehav')"
p13
atp14
Rp15
sS'receptors'
p16
g3
((lp17
(S'5ht3'
p18
I1338
I1343
tp19
a(S'5ht3'
p20
I1586
I1591
tp21
a(S'5ht3'
p22
I1216
I1221
tp23
atp24
Rp25
sS'raw_text_methods'
p26
g3
((lp27
tp28
Rp29
sS'regions'
p30
g3
((lp31
S"(8, u'(?i)\\\\b(centrals|central)(-|\\\\s+)?(nervouses|nervous)(-|\\\\s+)?(systems|system)\\\\b')"
p32
atp33
Rp34
sS'year'
p35
V2011
p36
sS'species'
p37
g3
((lp38
S"(4, u'(?i)\\\\b(rats|rat)\\\\b')"
p39
atp40
Rp41
sb.