(ifile_types
ParseObject
p0
(dp1
S'methods'
p2
c__builtin__
set
p3
((lp4
S'Method.AGONIST'
p5
atp6
Rp7
sS'topics'
p8
g3
((lp9
S"(30, u'\\\\bpain')"
p10
aS"(3, u'\\\\bclinical')"
p11
aS"(4, u'\\\\btreatment')"
p12
aS"(2, u'\\\\bdisorder')"
p13
atp14
Rp15
sS'receptors'
p16
g3
((lp17
(S'5ht1d'
p18
I1276
I1282
tp19
a(S'5ht1'
p20
I1193
I1198
tp21
a(S'5ht2'
p22
I802
I808
tp23
a(S'5ht7'
p24
I277
I282
tp25
a(S'5ht2b'
p26
I802
I808
tp27
a(S'5ht7'
p28
I816
I821
tp29
a(S'5ht1f'
p30
I1779
I1785
tp31
a(S'5ht1b'
p32
I1626
I1632
tp33
a(S'5ht1'
p34
I1276
I1282
tp35
a(S'5ht3'
p36
I311
I316
tp37
a(S'5ht1'
p38
I1516
I1521
tp39
a(S'5ht1f'
p40
I1290
I1296
tp41
a(S'5ht1d'
p42
I1768
I1774
tp43
a(S'5ht1'
p44
I268
I273
tp45
atp46
Rp47
sS'raw_text_methods'
p48
g3
((lp49
S"(13, u'\\\\bagonist')"
p50
atp51
Rp52
sS'regions'
p53
g3
((lp54
S"(11, u'(?i)\\\\b(cerebrals|cerebral)\\\\b')"
p55
atp56
Rp57
sS'year'
p58
V1999
p59
sS'species'
p60
g3
((lp61
tp62
Rp63
sb.