(ifile_types
ParseObject
p0
(dp1
S'antagonists'
p2
c__builtin__
set
p3
((lp4
S"(129, u'\\\\brenzapride')"
p5
atp6
Rp7
sS'methods'
p8
g3
((lp9
S'Method.ANTAGONIST'
p10
aS'Method.AGONIST'
p11
atp12
Rp13
sS'topics'
p14
g3
((lp15
S"(5, u'\\\\bgastrointestin')"
p16
aS"(28, u'\\\\bemesis')"
p17
atp18
Rp19
sS'receptors'
p20
g3
((lp21
S'5ht1a'
p22
aS'5ht4'
p23
aS'5ht3a'
p24
aS'5ht2'
p25
aS'5ht1'
p26
aS'5ht4a'
p27
atp28
Rp29
sS'regions'
p30
g3
((lp31
tp32
Rp33
sS'year'
p34
V1993
p35
sS'agonists'
p36
g3
((lp37
S"(198, u'\\\\bcisapride')"
p38
aS"(203, u'\\\\brenzapride')"
p39
aS"(186, u'\\\\b2 ?methyl ?5 ?ht')"
p40
atp41
Rp42
sS'species'
p43
g3
((lp44
S"(3062, u'(?i)\\\\b(guineas|guinea)\\\\b')"
p45
aS"(5958, u'(?i)\\\\b(rats|rat)\\\\b')"
p46
aS"(4208, u'(?i)\\\\b(canines|canine)\\\\b')"
p47
aS"(5949, u'(?i)\\\\b(dogs|dog)\\\\b')"
p48
aS"(4480, u'(?i)\\\\b(guineas|guinea)(-|\\\\s+)?(pigs|pig)\\\\b')"
p49
aS"(3051, u'(?i)\\\\b(pigs|pig)\\\\b')"
p50
atp51
Rp52
sb.