(ifile_types
ParseObject
p0
(dp1
S'methods'
p2
c__builtin__
set
p3
((lp4
S'Method.STIMULATION'
p5
atp6
Rp7
sS'topics'
p8
g3
((lp9
S"(4, u'\\\\btreatment')"
p10
atp11
Rp12
sS'receptors'
p13
g3
((lp14
(S'5ht2a'
p15
I1060
I1066
tp16
a(S'5ht2c'
p17
I1177
I1183
tp18
a(S'5ht2a'
p19
I129
I135
tp20
a(S'5ht2a'
p21
I1166
I1172
tp22
a(S'5ht2c'
p23
I888
I894
tp24
a(S'5ht2a'
p25
I860
I866
tp26
a(S'5ht2a'
p27
I1344
I1350
tp28
a(S'5ht2c'
p29
I1016
I1022
tp30
a(S'5ht2c'
p31
I1333
I1339
tp32
a(S'5ht2c'
p33
I140
I146
tp34
atp35
Rp36
sS'raw_text_methods'
p37
g3
((lp38
S"(49, u'\\\\bdoi')"
p39
aS"(33, u'\\\\bmcpp')"
p40
atp41
Rp42
sS'regions'
p43
g3
((lp44
S"(19, u'(?i)\\\\b(cortexes|cortex)\\\\b')"
p45
atp46
Rp47
sS'year'
p48
V1995
p49
sS'species'
p50
g3
((lp51
tp52
Rp53
sb.