(ifile_types
ParseObject
p0
(dp1
S'methods'
p2
c__builtin__
set
p3
((lp4
S'Method.KNOCKOUT'
p5
aS'Method.ANTAGONIST'
p6
atp7
Rp8
sS'topics'
p9
g3
((lp10
tp11
Rp12
sS'receptors'
p13
g3
((lp14
(S'5ht7'
p15
I95
I100
tp16
a(S'5ht7'
p17
I155
I160
tp18
a(S'5ht7'
p19
I602
I607
tp20
a(S'5ht1b'
p21
I889
I895
tp22
a(S'5ht7'
p23
I1284
I1289
tp24
a(S'5ht1d'
p25
I889
I896
tp26
a(S'5ht7'
p27
I1176
I1181
tp28
a(S'5ht7'
p29
I721
I726
tp30
a(S'5ht7'
p31
I1057
I1062
tp32
a(S'5ht7'
p33
I349
I354
tp34
a(S'5ht7'
p35
I824
I829
tp36
atp37
Rp38
sS'raw_text_methods'
p39
g3
((lp40
S"(3, u'\\\\bimmunoreactiv')"
p41
aS"(34, u'\\\\b5ct')"
p42
aS"(6, u'\\\\bgr127935')"
p43
aS"(12, u'\\\\bantagonist')"
p44
atp45
Rp46
sS'regions'
p47
g3
((lp48
tp49
Rp50
sS'year'
p51
V2003
p52
sS'species'
p53
g3
((lp54
S"(1, u'(?i)\\\\b(mice|mouse)\\\\b')"
p55
aS"(5, u'(?i)\\\\b(mices|mice)\\\\b')"
p56
aS"(7, u'(?i)\\\\b(guineas|guinea)(-|\\\\s+)?(pigs|pig)\\\\b')"
p57
atp58
Rp59
sb.