(ifile_types
ParseObject
p0
(dp1
S'methods'
p2
c__builtin__
set
p3
((lp4
S'Method.ANTAGONIST'
p5
atp6
Rp7
sS'topics'
p8
g3
((lp9
S"(8, u'\\\\banxi')"
p10
aS"(15, u'\\\\bmemory')"
p11
aS"(20, u'\\\\bmood')"
p12
aS"(4, u'\\\\btreatment')"
p13
aS"(14, u'\\\\bcogniti')"
p14
atp15
Rp16
sS'receptors'
p17
g3
((lp18
(S'5ht1a'
p19
I465
I471
tp20
a(S'5ht1a'
p21
I762
I768
tp22
a(S'5ht1a'
p23
I622
I628
tp24
a(S'5ht1a'
p25
I1892
I1898
tp26
a(S'5ht1a'
p27
I45
I56
tp28
a(S'5ht2a'
p29
I386
I392
tp30
atp31
Rp32
sS'raw_text_methods'
p33
g3
((lp34
S"(48, u'\\\\bmdma')"
p35
aS"(12, u'\\\\bantagonist')"
p36
atp37
Rp38
sS'regions'
p39
g3
((lp40
tp41
Rp42
sS'year'
p43
V2009
p44
sS'species'
p45
g3
((lp46
S"(8, u'(?i)\\\\b(primates|primate)\\\\b')"
p47
aS"(3, u'(?i)\\\\b(males|male)\\\\b')"
p48
atp49
Rp50
sb.