(ifile_types
ParseObject
p0
(dp1
S'methods'
p2
c__builtin__
set
p3
((lp4
S'Method.STIMULATION'
p5
aS'Method.ANTAGONIST'
p6
aS'Method.AGONIST'
p7
atp8
Rp9
sS'topics'
p10
g3
((lp11
S"(30, u'\\\\bpain')"
p12
aS"(35, u'\\\\bnocicept')"
p13
atp14
Rp15
sS'receptors'
p16
g3
((lp17
(S'5ht3'
p18
I993
I998
tp19
a(S'5ht1a'
p20
I977
I983
tp21
a(S'5ht3'
p22
I127
I132
tp23
a(S'5ht1a'
p24
I108
I114
tp25
a(S'5ht1b'
p26
I1628
I1634
tp27
a(S'5ht1'
p28
I1628
I1634
tp29
a(S'5ht1a'
p30
I1620
I1626
tp31
a(S'5ht1b'
p32
I985
I991
tp33
a(S'5ht3'
p34
I1640
I1645
tp35
a(S'5ht1b'
p36
I116
I122
tp37
atp38
Rp39
sS'raw_text_methods'
p40
g3
((lp41
S"(13, u'\\\\bagonist')"
p42
aS"(12, u'\\\\bantagonist')"
p43
atp44
Rp45
sS'regions'
p46
g3
((lp47
tp48
Rp49
sS'year'
p50
V2005
p51
sS'species'
p52
g3
((lp53
S"(2, u'(?i)\\\\b(females|female)\\\\b')"
p54
aS"(4, u'(?i)\\\\b(rats|rat)\\\\b')"
p55
atp56
Rp57
sb.