(ifile_types
ParseObject
p0
(dp1
S'methods'
p2
c__builtin__
set
p3
((lp4
S'Method.STIMULATION'
p5
aS'Method.ANTAGONIST'
p6
atp7
Rp8
sS'topics'
p9
g3
((lp10
tp11
Rp12
sS'receptors'
p13
g3
((lp14
(S'5ht2'
p15
I960
I965
tp16
a(S'5ht1a'
p17
I950
I956
tp18
atp19
Rp20
sS'raw_text_methods'
p21
g3
((lp22
S"(12, u'\\\\bantagonist')"
p23
atp24
Rp25
sS'regions'
p26
g3
((lp27
S"(19, u'(?i)\\\\b(cortexes|cortex)\\\\b')"
p28
atp29
Rp30
sS'year'
p31
V2009
p32
sS'species'
p33
g3
((lp34
S"(4, u'(?i)\\\\b(rats|rat)\\\\b')"
p35
atp36
Rp37
sb.