(ifile_types
ParseObject
p0
(dp1
S'methods'
p2
c__builtin__
set
p3
((lp4
S'Method.ANTAGONIST'
p5
atp6
Rp7
sS'topics'
p8
g3
((lp9
tp10
Rp11
sS'receptors'
p12
g3
((lp13
(S'5ht3'
p14
I2010
I2015
tp15
a(S'5ht3'
p16
I1415
I1420
tp17
a(S'5ht3'
p18
I1294
I1299
tp19
a(S'5ht3'
p20
I1636
I1641
tp21
a(S'5ht3'
p22
I684
I689
tp23
a(S'5ht3'
p24
I1709
I1714
tp25
a(S'5ht3'
p26
I503
I508
tp27
a(S'5ht3'
p28
I997
I1002
tp29
a(S'5ht3'
p30
I179
I184
tp31
a(S'5ht3'
p32
I2144
I2149
tp33
atp34
Rp35
sS'raw_text_methods'
p36
g3
((lp37
S"(12, u'\\\\bantagonist')"
p38
atp39
Rp40
sS'regions'
p41
g3
((lp42
tp43
Rp44
sS'year'
p45
V2003
p46
sS'species'
p47
g3
((lp48
S"(4, u'(?i)\\\\b(rats|rat)\\\\b')"
p49
atp50
Rp51
sb.