(ifile_types
ParseObject
p0
(dp1
S'methods'
p2
c__builtin__
set
p3
((lp4
S'Method.ANTAGONIST'
p5
atp6
Rp7
sS'topics'
p8
g3
((lp9
S"(26, u'\\\\bbehav')"
p10
aS"(33, u'\\\\blocomot')"
p11
aS"(4, u'\\\\btreatment')"
p12
atp13
Rp14
sS'receptors'
p15
g3
((lp16
(S'5ht3'
p17
I1354
I1359
tp18
a(S'5ht3'
p19
I807
I813
tp20
a(S'5ht1'
p21
I216
I221
tp22
a(S'5ht3a'
p23
I1207
I1213
tp24
a(S'5ht3'
p25
I46
I51
tp26
a(S'5ht3a'
p27
I1457
I1463
tp28
a(S'5ht3'
p29
I780
I785
tp30
a(S'5ht3a'
p31
I957
I963
tp32
a(S'5ht3'
p33
I355
I360
tp34
a(S'5ht3a'
p35
I807
I813
tp36
a(S'5ht3'
p37
I552
I557
tp38
a(S'5ht3a'
p39
I821
I827
tp40
atp41
Rp42
sS'raw_text_methods'
p43
g3
((lp44
tp45
Rp46
sS'regions'
p47
g3
((lp48
tp49
Rp50
sS'year'
p51
V2008
p52
sS'species'
p53
g3
((lp54
S"(1, u'(?i)\\\\b(mice|mouse)\\\\b')"
p55
aS"(5, u'(?i)\\\\b(mices|mice)\\\\b')"
p56
atp57
Rp58
sb.