(ifile_types
ParseObject
p0
(dp1
S'methods'
p2
c__builtin__
set
p3
((lp4
S'Method.ANTAGONIST'
p5
aS'Method.AGONIST'
p6
atp7
Rp8
sS'topics'
p9
g3
((lp10
S"(8, u'\\\\banxi')"
p11
aS"(5, u'\\\\btherap')"
p12
aS"(26, u'\\\\bbehav')"
p13
aS"(25, u'\\\\bsocial')"
p14
atp15
Rp16
sS'receptors'
p17
g3
((lp18
(S'5ht2c'
p19
I319
I325
tp20
a(S'5ht2c'
p21
I1965
I1971
tp22
a(S'5ht2c'
p23
I762
I768
tp24
a(S'5ht2'
p25
I344
I349
tp26
atp27
Rp28
sS'raw_text_methods'
p29
g3
((lp30
S"(13, u'\\\\bagonist')"
p31
aS"(33, u'\\\\bmcpp')"
p32
aS"(18, u'\\\\bimaging')"
p33
aS"(12, u'\\\\bantagonist')"
p34
atp35
Rp36
sS'regions'
p37
g3
((lp38
S"(20, u'(?i)\\\\b(prefrontals|prefrontal)\\\\b')"
p39
aS"(19, u'(?i)\\\\b(cortexes|cortex)\\\\b')"
p40
aS"(12, u'(?i)\\\\b(amygdalas|amygdala)\\\\b')"
p41
atp42
Rp43
sS'year'
p44
V2007
p45
sS'species'
p46
g3
((lp47
S"(4, u'(?i)\\\\b(rats|rat)\\\\b')"
p48
atp49
Rp50
sb.