(ifile_types
ParseObject
p0
(dp1
S'methods'
p2
c__builtin__
set
p3
((lp4
S'Method.PET'
p5
atp6
Rp7
sS'topics'
p8
g3
((lp9
S"(14, u'\\\\bcogniti')"
p10
aS"(17, u'\\\\balzheimer')"
p11
aS"(7, u'\\\\bdepressi')"
p12
aS"(8, u'\\\\banxi')"
p13
aS"(1, u'\\\\bpatient')"
p14
aS"(3, u'\\\\bclinical')"
p15
atp16
Rp17
sS'receptors'
p18
g3
((lp19
(S'5ht2a'
p20
I917
I923
tp21
a(S'5ht2a'
p22
I549
I555
tp23
a(S'5ht2a'
p24
I837
I843
tp25
a(S'5ht2a'
p26
I259
I265
tp27
a(S'5ht2a'
p28
I44
I50
tp29
a(S'5ht2a'
p30
I245
I256
tp31
a(S'5ht2a'
p32
I464
I470
tp33
a(S'5ht2a'
p34
I1078
I1084
tp35
atp36
Rp37
sS'raw_text_methods'
p38
g3
((lp39
S"(17, u'\\\\bpet')"
p40
atp41
Rp42
sS'regions'
p43
g3
((lp44
S"(11, u'(?i)\\\\b(cerebrals|cerebral)\\\\b')"
p45
atp46
Rp47
sS'year'
p48
V2008
p49
sS'species'
p50
g3
((lp51
tp52
Rp53
sb.