(ifile_types
ParseObject
p0
(dp1
S'antagonists'
p2
c__builtin__
set
p3
((lp4
S"(113, u'\\\\bclomipramine')"
p5
atp6
Rp7
sS'methods'
p8
g3
((lp9
tp10
Rp11
sS'topics'
p12
g3
((lp13
S"(9, u'\\\\bdepress')"
p14
atp15
Rp16
sS'receptors'
p17
g3
((lp18
S'5ht1b'
p19
aS'5ht5'
p20
aS'5ht1a'
p21
atp22
Rp23
sS'regions'
p24
g3
((lp25
S"(318, u'(?i)(raphes|raphe)(-|\\\\s+)?(nuclei|nucleus)')"
p26
aS"(94, u'(?i)(dorsals|dorsal)(-|\\\\s+)?(raphes|raphe)(-|\\\\s+)?(nuclei|nucleus)')"
p27
atp28
Rp29
sS'year'
p30
V1998
p31
sS'agonists'
p32
g3
((lp33
tp34
Rp35
sS'species'
p36
g3
((lp37
S"(5537, u'(?i)(hippos|hippo)')"
p38
aS"(2568, u'(?i)(hens|hen)')"
p39
aS"(3601, u'(?i)(efts|eft)')"
p40
aS"(867, u'(?i)(tits|tit)')"
p41
aS"(6753, u'(?i)(da|das)')"
p42
aS"(468, u'(?i)(oxen|ox)')"
p43
aS"(4091, u'(?i)(adults|adult)')"
p44
aS"(2183, u'(?i)(gars|gar)')"
p45
aS"(1055, u'(?i)(men|man)')"
p46
aS"(6249, u'(?i)(ants|ant)')"
p47
aS"(1349, u'(?i)(rams|ram)')"
p48
aS"(5743, u'(?i)(bots|bot)')"
p49
aS"(3550, u'(?i)(anis|ani)')"
p50
aS"(6682, u'(?i)(tera|teras)')"
p51
aS"(5958, u'(?i)(rats|rat)')"
p52
aS"(6356, u'(?i)(ais|ai)')"
p53
aS"(6391, u'(?i)(asses|ass)')"
p54
aS"(1628, u'(?i)(cod|cod)')"
p55
atp56
Rp57
sb.