(ifile_types
ParseObject
p0
(dp1
S'antagonists'
p2
c__builtin__
set
p3
((lp4
S"(15, u'\\\\bmppf')"
p5
atp6
Rp7
sS'methods'
p8
g3
((lp9
S'Method.PET'
p10
aS'Method.ANTAGONIST'
p11
atp12
Rp13
sS'topics'
p14
g3
((lp15
tp16
Rp17
sS'receptors'
p18
g3
((lp19
S'5ht1a'
p20
atp21
Rp22
sS'regions'
p23
g3
((lp24
S"(260, u'(?i)\\\\b(inferiors|inferior)(-|\\\\s+)?(frontals|frontal)(-|\\\\s+)?(gyruses|gyrus)\\\\b')"
p25
aS"(282, u'(?i)\\\\b(superiors|superior)(-|\\\\s+)?(temporals|temporal)(-|\\\\s+)?(gyruses|gyrus)\\\\b')"
p26
atp27
Rp28
sS'year'
p29
V2008
p30
sS'agonists'
p31
g3
((lp32
tp33
Rp34
sS'species'
p35
g3
((lp36
S"(1070, u'(?i)\\\\b(pets|pet)\\\\b')"
p37
atp38
Rp39
sb.