(ifile_types
ParseObject
p0
(dp1
S'antagonists'
p2
c__builtin__
set
p3
((lp4
S"(32, u'\\\\bway ?100635')"
p5
aS"(21, u'\\\\bpindolol')"
p6
aS"(61, u'\\\\bmdl ?100907')"
p7
atp8
Rp9
sS'methods'
p10
g3
((lp11
S'Method.ANTAGONIST'
p12
aS'Method.AGONIST'
p13
atp14
Rp15
sS'topics'
p16
g3
((lp17
tp18
Rp19
sS'receptors'
p20
g3
((lp21
S'5ht1a'
p22
aS'5ht5'
p23
aS'5ht2a'
p24
atp25
Rp26
sS'regions'
p27
g3
((lp28
S"(49, u'(?i)(loci|locus)(-|\\\\s+)?(coeruleuses|coeruleus)')"
p29
aS"(34, u'(?i)(pon|pons)')"
p30
atp31
Rp32
sS'year'
p33
V1999
p34
sS'agonists'
p35
g3
((lp36
S"(56, u'\\\\blsd')"
p37
aS"(55, u'\\\\blysergic acid diethylamide')"
p38
aS"(92, u'\\\\b8 ?oh ?dpat')"
p39
atp40
Rp41
sS'species'
p42
g3
((lp43
S"(5958, u'(?i)(rats|rat)')"
p44
aS"(468, u'(?i)(oxen|ox)')"
p45
aS"(1349, u'(?i)(rams|ram)')"
p46
aS"(5743, u'(?i)(bots|bot)')"
p47
aS"(6249, u'(?i)(ants|ant)')"
p48
aS"(3522, u'(?i)(tetras|tetra)')"
p49
aS"(3812, u'(?i)(studs|stud)')"
p50
aS"(6391, u'(?i)(asses|ass)')"
p51
aS"(6356, u'(?i)(ais|ai)')"
p52
atp53
Rp54
sb.