(ifile_types
ParseObject
p0
(dp1
S'antagonists'
p2
c__builtin__
set
p3
((lp4
S"(53, u'\\\\bketanserin')"
p5
aS"(128, u'\\\\bketanserin')"
p6
aS"(98, u'\\\\bly ?272015')"
p7
atp8
Rp9
sS'methods'
p10
g3
((lp11
S'Method.ANTAGONIST'
p12
aS'Method.AGONIST'
p13
atp14
Rp15
sS'topics'
p16
g3
((lp17
tp18
Rp19
sS'receptors'
p20
g3
((lp21
S'5ht2c'
p22
aS'5ht2b'
p23
aS'5ht2'
p24
aS'5ht2a'
p25
atp26
Rp27
sS'regions'
p28
g3
((lp29
S"(13, u'(?i)(b(\\xf6|oe|[a-z])tzingers|b(\\xf6|oe|[a-z])tzinger)(-|\\\\s+)?(complexes|complex)')"
p30
aS"(12, u'(?i)(pres|pre)(-|\\\\s+)?(b(\\xf6|oe|[a-z])tzingers|b(\\xf6|oe|[a-z])tzinger)(-|\\\\s+)?(complexes|complex)')"
p31
atp32
Rp33
sS'year'
p34
V2006
p35
sS'agonists'
p36
g3
((lp37
S"(146, u'\\\\bbw ?723c86')"
p38
atp39
Rp40
sS'species'
p41
g3
((lp42
S"(2323, u'(?i)(bees|bee)')"
p43
aS"(6753, u'(?i)(da|das)')"
p44
aS"(5958, u'(?i)(rats|rat)')"
p45
aS"(4979, u'(?i)(cats|cat)')"
p46
aS"(163, u'(?i)(mice|mouse)')"
p47
aS"(7552, u'(?i)(bats|bat)')"
p48
aS"(4964, u'(?i)(serins|serin)')"
p49
aS"(6249, u'(?i)(ants|ant)')"
p50
aS"(3812, u'(?i)(studs|stud)')"
p51
aS"(5743, u'(?i)(bots|bot)')"
p52
aS"(821, u'(?i)(lice|louse)')"
p53
aS"(5949, u'(?i)(dogs|dog)')"
p54
atp55
Rp56
sb.