(ifile_types
ParseObject
p0
(dp1
S'antagonists'
p2
c__builtin__
set
p3
((lp4
tp5
Rp6
sS'methods'
p7
g3
((lp8
S'Method.AGONIST'
p9
atp10
Rp11
sS'topics'
p12
g3
((lp13
S"(16, u'\\\\bfeed')"
p14
aS"(11, u'\\\\banxiolyt')"
p15
atp16
Rp17
sS'receptors'
p18
g3
((lp19
S'5ht1a'
p20
atp21
Rp22
sS'regions'
p23
g3
((lp24
tp25
Rp26
sS'year'
p27
V1988
p28
sS'agonists'
p29
g3
((lp30
S"(47, u'\\\\bgepirone')"
p31
aS"(92, u'\\\\b8 ?oh ?dpat')"
p32
aS"(24, u'\\\\bbuspirone')"
p33
aS"(50, u'\\\\bipsapirone')"
p34
atp35
Rp36
sS'species'
p37
g3
((lp38
S"(6753, u'(?i)(da|das)')"
p39
aS"(2568, u'(?i)(hens|hen)')"
p40
aS"(5958, u'(?i)(rats|rat)')"
p41
aS"(5743, u'(?i)(bots|bot)')"
p42
aS"(468, u'(?i)(oxen|ox)')"
p43
aS"(1055, u'(?i)(men|man)')"
p44
aS"(4979, u'(?i)(cats|cat)')"
p45
aS"(3550, u'(?i)(anis|ani)')"
p46
aS"(3522, u'(?i)(tetras|tetra)')"
p47
aS"(6356, u'(?i)(ais|ai)')"
p48
aS"(1795, u'(?i)(mounts|mount)')"
p49
aS"(5497, u'(?i)(fices|fice)')"
p50
atp51
Rp52
sb.