(ifile_types
ParseObject
p0
(dp1
S'antagonists'
p2
c__builtin__
set
p3
((lp4
S"(123, u'\\\\bgranisetron')"
p5
atp6
Rp7
sS'methods'
p8
g3
((lp9
S'Method.AGONIST'
p10
aS'Method.IMMUNOHISTOCHEMISTRY'
p11
aS'Method.ANTAGONIST'
p12
atp13
Rp14
sS'topics'
p15
g3
((lp16
S"(21, u'\\\\bpain')"
p17
atp18
Rp19
sS'receptors'
p20
g3
((lp21
S'5ht3a'
p22
atp23
Rp24
sS'regions'
p25
g3
((lp26
S"(362, u'(?i)\\\\b(brains|brain)(-|\\\\s+)?(stems|stem)\\\\b')"
p27
atp28
Rp29
sS'year'
p30
V2009
p31
sS'agonists'
p32
g3
((lp33
tp34
Rp35
sS'species'
p36
g3
((lp37
S"(5958, u'(?i)\\\\b(rats|rat)\\\\b')"
p38
atp39
Rp40
sb.