(ifile_types
ParseObject
p0
(dp1
S'methods'
p2
c__builtin__
set
p3
((lp4
S'Method.KNOCKOUT'
p5
atp6
Rp7
sS'topics'
p8
g3
((lp9
S"(6, u'\\\\baggressi')"
p10
aS"(8, u'\\\\banxi')"
p11
aS"(26, u'\\\\bbehav')"
p12
aS"(14, u'\\\\bcogniti')"
p13
atp14
Rp15
sS'receptors'
p16
g3
((lp17
(S'5ht1a'
p18
I704
I710
tp19
a(S'5ht1b'
p20
I426
I432
tp21
a(S'5ht1'
p22
I1181
I1187
tp23
a(S'5ht1b'
p24
I166
I172
tp25
a(S'5ht1a'
p26
I1593
I1599
tp27
a(S'5ht1b'
p28
I629
I635
tp29
a(S'5ht1b'
p30
I972
I978
tp31
a(S'5ht1b'
p32
I1344
I1350
tp33
a(S'5ht1b'
p34
I724
I730
tp35
a(S'5ht1a'
p36
I215
I221
tp37
a(S'5ht1a'
p38
I1377
I1383
tp39
a(S'5ht1'
p40
I1377
I1383
tp41
a(S'5ht1b'
p42
I284
I290
tp43
a(S'5ht1'
p44
I1593
I1599
tp45
a(S'5ht1a'
p46
I415
I421
tp47
a(S'5ht1a'
p48
I1396
I1402
tp49
a(S'5ht1a'
p50
I1485
I1491
tp51
a(S'5ht1a'
p52
I680
I686
tp53
a(S'5ht1b'
p54
I1416
I1422
tp55
a(S'5ht1a'
p56
I97
I103
tp57
a(S'5ht1b'
p58
I1770
I1776
tp59
a(S'5ht1b'
p60
I108
I114
tp61
a(S'5ht1b'
p62
I2042
I2048
tp63
a(S'5ht1b'
p64
I1496
I1502
tp65
a(S'5ht1'
p66
I680
I686
tp67
a(S'5ht1b'
p68
I1181
I1187
tp69
atp70
Rp71
sS'raw_text_methods'
p72
g3
((lp73
tp74
Rp75
sS'regions'
p76
g3
((lp77
tp78
Rp79
sS'year'
p80
V2001
p81
sS'species'
p82
g3
((lp83
S"(1, u'(?i)\\\\b(mice|mouse)\\\\b')"
p84
aS"(5, u'(?i)\\\\b(mices|mice)\\\\b')"
p85
atp86
Rp87
sb.