(ifile_types
ParseObject
p0
(dp1
S'antagonists'
p2
c__builtin__
set
p3
((lp4
tp5
Rp6
sS'methods'
p7
g3
((lp8
S'Method.AGONIST'
p9
atp10
Rp11
sS'topics'
p12
g3
((lp13
tp14
Rp15
sS'receptors'
p16
g3
((lp17
S'5ht3a'
p18
aS'5ht3c'
p19
atp20
Rp21
sS'regions'
p22
g3
((lp23
S"(34, u'(?i)(pon|pons)')"
p24
atp25
Rp26
sS'year'
p27
V2010
p28
sS'agonists'
p29
g3
((lp30
tp31
Rp32
sS'species'
p33
g3
((lp34
S"(4624, u'(?i)(apes|ape)')"
p35
aS"(2568, u'(?i)(hens|hen)')"
p36
aS"(6356, u'(?i)(ais|ai)')"
p37
aS"(6753, u'(?i)(da|das)')"
p38
aS"(468, u'(?i)(oxen|ox)')"
p39
aS"(7094, u'(?i)(curs|cur)')"
p40
aS"(4979, u'(?i)(cats|cat)')"
p41
aS"(5958, u'(?i)(rats|rat)')"
p42
aS"(3812, u'(?i)(studs|stud)')"
p43
aS"(7609, u'(?i)(erns|ern)')"
p44
aS"(1628, u'(?i)(cod|cod)')"
p45
aS"(5685, u'(?i)(xenopuses|xenopus)(-|\\\\s+)?(laevi|laevis)')"
p46
atp47
Rp48
sb.