(ifile_types
ParseObject
p0
(dp1
S'antagonists'
p2
c__builtin__
set
p3
((lp4
tp5
Rp6
sS'methods'
p7
g3
((lp8
S'Method.AGONIST'
p9
atp10
Rp11
sS'topics'
p12
g3
((lp13
tp14
Rp15
sS'receptors'
p16
g3
((lp17
S'5ht1b'
p18
aS'5ht1'
p19
atp20
Rp21
sS'regions'
p22
g3
((lp23
S"(364, u'(?i)\\\\b(middles|middle)(-|\\\\s+)?(cerebrals|cerebral)(-|\\\\s+)?(arteries|artery)\\\\b')"
p24
aS"(368, u'(?i)\\\\b(basilars|basilar)(-|\\\\s+)?(arteries|artery)\\\\b')"
p25
aS"(174, u'(?i)\\\\b(posteriors|posterior)\\\\b')"
p26
atp27
Rp28
sS'year'
p29
V2003
p30
sS'agonists'
p31
g3
((lp32
tp33
Rp34
sS'species'
p35
g3
((lp36
S"(5958, u'(?i)\\\\b(rats|rat)\\\\b')"
p37
atp38
Rp39
sb.