(ifile_types
ParseObject
p0
(dp1
S'methods'
p2
c__builtin__
set
p3
((lp4
S'Method.ANTAGONIST'
p5
aS'Method.AGONIST'
p6
atp7
Rp8
sS'topics'
p9
g3
((lp10
S"(29, u'\\\\bhyperactiv')"
p11
aS"(26, u'\\\\bbehav')"
p12
aS"(33, u'\\\\blocomot')"
p13
atp14
Rp15
sS'receptors'
p16
g3
((lp17
(S'5ht2c'
p18
I1195
I1201
tp19
a(S'5ht2c'
p20
I1423
I1429
tp21
a(S'5ht2c'
p22
I1518
I1524
tp23
atp24
Rp25
sS'raw_text_methods'
p26
g3
((lp27
S"(13, u'\\\\bagonist')"
p28
aS"(12, u'\\\\bantagonist')"
p29
aS"(10, u'\\\\bmethamphetamine')"
p30
atp31
Rp32
sS'regions'
p33
g3
((lp34
S"(20, u'(?i)\\\\b(prefrontals|prefrontal)\\\\b')"
p35
aS"(21, u'(?i)\\\\b(mpfcs|mpfc)\\\\b')"
p36
aS"(19, u'(?i)\\\\b(cortexes|cortex)\\\\b')"
p37
atp38
Rp39
sS'year'
p40
V2009
p41
sS'species'
p42
g3
((lp43
S"(3, u'(?i)\\\\b(males|male)\\\\b')"
p44
aS"(4, u'(?i)\\\\b(rats|rat)\\\\b')"
p45
atp46
Rp47
sb.