(ifile_types
ParseObject
p0
(dp1
S'methods'
p2
c__builtin__
set
p3
((lp4
S'Method.AGONIST'
p5
atp6
Rp7
sS'topics'
p8
g3
((lp9
tp10
Rp11
sS'receptors'
p12
g3
((lp13
(S'5ht1'
p14
I1118
I1123
tp15
a(S'5ht1b'
p16
I1521
I1527
tp17
a(S'5ht7'
p18
I1157
I1162
tp19
a(S'5ht1'
p20
I1258
I1263
tp21
a(S'5ht5'
p22
I623
I633
tp23
a(S'5ht1'
p24
I1899
I1904
tp25
a(S'5ht1d'
p26
I1551
I1557
tp27
a(S'5ht5'
p28
I1136
I1141
tp29
a(S'5ht1d'
p30
I1531
I1537
tp31
atp32
Rp33
sS'raw_text_methods'
p34
g3
((lp35
S"(13, u'\\\\bagonist')"
p36
aS"(35, u'\\\\badenosine')"
p37
atp38
Rp39
sS'regions'
p40
g3
((lp41
S"(3, u'(?i)\\\\b(postsynaptics|postsynaptic)\\\\b')"
p42
atp43
Rp44
sS'year'
p45
V2010
p46
sS'species'
p47
g3
((lp48
S"(4, u'(?i)\\\\b(rats|rat)\\\\b')"
p49
atp50
Rp51
sb.