(ifile_types
ParseObject
p0
(dp1
S'methods'
p2
c__builtin__
set
p3
((lp4
S'Method.PET'
p5
atp6
Rp7
sS'topics'
p8
g3
((lp9
tp10
Rp11
sS'receptors'
p12
g3
((lp13
(S'5ht2a'
p14
I48
I54
tp15
a(S'5ht2a'
p16
I962
I968
tp17
a(S'5ht2a'
p18
I1713
I1719
tp19
a(S'5ht2a'
p20
I277
I283
tp21
atp22
Rp23
sS'raw_text_methods'
p24
g3
((lp25
S"(17, u'\\\\bpet')"
p26
aS"(18, u'\\\\bimaging')"
p27
atp28
Rp29
sS'regions'
p30
g3
((lp31
tp32
Rp33
sS'year'
p34
V2007
p35
sS'species'
p36
g3
((lp37
tp38
Rp39
sb.