(ifile_types
ParseObject
p0
(dp1
S'methods'
p2
c__builtin__
set
p3
((lp4
S'Method.ANTAGONIST'
p5
atp6
Rp7
sS'topics'
p8
g3
((lp9
S"(23, u'\\\\bantipsychotic')"
p10
atp11
Rp12
sS'receptors'
p13
g3
((lp14
(S'5ht2a'
p15
I502
I508
tp16
a(S'5ht2'
p17
I502
I508
tp18
a(S'5ht2a'
p19
I253
I259
tp20
atp21
Rp22
sS'raw_text_methods'
p23
g3
((lp24
S"(41, u'\\\\bhaloperidol')"
p25
aS"(40, u'\\\\bclozapine')"
p26
aS"(12, u'\\\\bantagonist')"
p27
atp28
Rp29
sS'regions'
p30
g3
((lp31
tp32
Rp33
sS'year'
p34
V1996
p35
sS'species'
p36
g3
((lp37
tp38
Rp39
sb.