(ifile_types
ParseObject
p0
(dp1
S'antagonists'
p2
c__builtin__
set
p3
((lp4
tp5
Rp6
sS'methods'
p7
g3
((lp8
S'Method.KNOCKOUT'
p9
aS'Method.ANTAGONIST'
p10
aS'Method.AGONIST'
p11
atp12
Rp13
sS'topics'
p14
g3
((lp15
tp16
Rp17
sS'receptors'
p18
g3
((lp19
S'5ht2c'
p20
atp21
Rp22
sS'regions'
p23
g3
((lp24
tp25
Rp26
sS'year'
p27
V2015
p28
sS'agonists'
p29
g3
((lp30
S"(170, u'\\\\blorcaserin')"
p31
atp32
Rp33
sS'species'
p34
g3
((lp35
S"(2323, u'(?i)(bees|bee)')"
p36
aS"(5799, u'(?i)(rodents|rodent)')"
p37
aS"(2568, u'(?i)(hens|hen)')"
p38
aS"(6356, u'(?i)(ais|ai)')"
p39
aS"(5958, u'(?i)(rats|rat)')"
p40
aS"(4201, u'(?i)(kines|kine)')"
p41
aS"(6753, u'(?i)(da|das)')"
p42
aS"(6682, u'(?i)(tera|teras)')"
p43
aS"(4663, u'(?i)(nags|nag)')"
p44
aS"(4163, u'(?i)(ermines|ermine)')"
p45
aS"(1055, u'(?i)(men|man)')"
p46
aS"(5131, u'(?i)(hags|hag)')"
p47
aS"(1349, u'(?i)(rams|ram)')"
p48
aS"(4964, u'(?i)(serins|serin)')"
p49
aS"(3550, u'(?i)(anis|ani)')"
p50
aS"(6016, u'(?i)(orcas|orca)')"
p51
aS"(3812, u'(?i)(studs|stud)')"
p52
aS"(6391, u'(?i)(asses|ass)')"
p53
aS"(5743, u'(?i)(bots|bot)')"
p54
aS"(6179, u'(?i)(ticks|tick)')"
p55
aS"(6249, u'(?i)(ants|ant)')"
p56
atp57
Rp58
sb.