(ifile_types
ParseObject
p0
(dp1
S'methods'
p2
c__builtin__
set
p3
((lp4
S'Method.ANTAGONIST'
p5
aS'Method.AGONIST'
p6
atp7
Rp8
sS'topics'
p9
g3
((lp10
S"(26, u'\\\\bbehav')"
p11
atp12
Rp13
sS'receptors'
p14
g3
((lp15
(S'5ht1a'
p16
I1738
I1744
tp17
a(S'5ht1a'
p18
I1794
I1800
tp19
a(S'5ht1c'
p20
I1919
I1926
tp21
a(S'5ht1a'
p22
I2150
I2156
tp23
a(S'5ht1'
p24
I1634
I1639
tp25
a(S'5ht5'
p26
I1314
I1319
tp27
a(S'5ht2'
p28
I1919
I1924
tp29
atp30
Rp31
sS'raw_text_methods'
p32
g3
((lp33
S"(53, u'\\\\bketanserin')"
p34
aS"(15, u'\\\\b8ohdpat')"
p35
aS"(34, u'\\\\b5ct')"
p36
aS"(13, u'\\\\bagonist')"
p37
aS"(37, u'\\\\bpiperazine')"
p38
aS"(12, u'\\\\bantagonist')"
p39
atp40
Rp41
sS'regions'
p42
g3
((lp43
tp44
Rp45
sS'year'
p46
V2005
p47
sS'species'
p48
g3
((lp49
S"(4, u'(?i)\\\\b(rats|rat)\\\\b')"
p50
atp51
Rp52
sb.