(ifile_types
ParseObject
p0
(dp1
S'antagonists'
p2
c__builtin__
set
p3
((lp4
tp5
Rp6
sS'methods'
p7
g3
((lp8
S'Method.PET'
p9
atp10
Rp11
sS'topics'
p12
g3
((lp13
tp14
Rp15
sS'receptors'
p16
g3
((lp17
S'5ht5'
p18
aS'5ht2a'
p19
atp20
Rp21
sS'regions'
p22
g3
((lp23
tp24
Rp25
sS'year'
p26
V2002
p27
sS'agonists'
p28
g3
((lp29
tp30
Rp31
sS'species'
p32
g3
((lp33
S"(1070, u'(?i)(pets|pet)')"
p34
aS"(2568, u'(?i)(hens|hen)')"
p35
aS"(867, u'(?i)(tits|tit)')"
p36
aS"(4163, u'(?i)(ermines|ermine)')"
p37
aS"(6356, u'(?i)(ais|ai)')"
p38
aS"(6391, u'(?i)(asses|ass)')"
p39
atp40
Rp41
sb.