(ifile_types
ParseObject
p0
(dp1
S'methods'
p2
c__builtin__
set
p3
((lp4
S'Method.ANTAGONIST'
p5
aS'Method.AGONIST'
p6
atp7
Rp8
sS'topics'
p9
g3
((lp10
S"(18, u'\\\\bavoidan')"
p11
aS"(16, u'\\\\blearning')"
p12
aS"(26, u'\\\\bbehav')"
p13
aS"(23, u'\\\\bantipsychotic')"
p14
aS"(15, u'\\\\bmemory')"
p15
atp16
Rp17
sS'receptors'
p18
g3
((lp19
(S'5ht7'
p20
I1851
I1856
tp21
a(S'5ht1a'
p22
I817
I823
tp23
a(S'5ht1a'
p24
I1863
I1869
tp25
a(S'5ht1a'
p26
I90
I96
tp27
a(S'5ht7'
p28
I805
I810
tp29
a(S'5ht7'
p30
I454
I459
tp31
a(S'5ht7'
p32
I80
I85
tp33
a(S'5ht1a'
p34
I477
I483
tp35
atp36
Rp37
sS'raw_text_methods'
p38
g3
((lp39
S"(13, u'\\\\bagonist')"
p40
aS"(51, u'\\\\bway100635')"
p41
aS"(5, u'\\\\bmk801')"
p42
aS"(12, u'\\\\bantagonist')"
p43
atp44
Rp45
sS'regions'
p46
g3
((lp47
tp48
Rp49
sS'year'
p50
V2011
p51
sS'species'
p52
g3
((lp53
S"(4, u'(?i)\\\\b(rats|rat)\\\\b')"
p54
atp55
Rp56
sb.