(ifile_types
ParseObject
p0
(dp1
S'antagonists'
p2
c__builtin__
set
p3
((lp4
S"(32, u'\\\\bway ?100635')"
p5
aS"(14, u'\\\\bmethiothepin')"
p6
aS"(45, u'\\\\bgr ?127935')"
p7
atp8
Rp9
sS'methods'
p10
g3
((lp11
S'Method.STIMULATION'
p12
atp13
Rp14
sS'topics'
p15
g3
((lp16
tp17
Rp18
sS'receptors'
p19
g3
((lp20
S'5ht1b'
p21
aS'5ht1d'
p22
atp23
Rp24
sS'regions'
p25
g3
((lp26
tp27
Rp28
sS'year'
p29
V1996
p30
sS'agonists'
p31
g3
((lp32
S"(103, u'\\\\bsumatriptan')"
p33
atp34
Rp35
sS'species'
p36
g3
((lp37
S"(6249, u'(?i)(ants|ant)')"
p38
aS"(6753, u'(?i)(da|das)')"
p39
aS"(1055, u'(?i)(men|man)')"
p40
aS"(5743, u'(?i)(bots|bot)')"
p41
aS"(5958, u'(?i)(rats|rat)')"
p42
aS"(1961, u'(?i)(pens|pen)')"
p43
aS"(6356, u'(?i)(ais|ai)')"
p44
aS"(821, u'(?i)(lice|louse)')"
p45
atp46
Rp47
sb.