(ifile_types
ParseObject
p0
(dp1
S'antagonists'
p2
c__builtin__
set
p3
((lp4
S"(96, u'\\\\brs ?102221')"
p5
atp6
Rp7
sS'methods'
p8
g3
((lp9
S'Method.ANTAGONIST'
p10
aS'Method.AGONIST'
p11
atp12
Rp13
sS'topics'
p14
g3
((lp15
S"(16, u'\\\\bfeed')"
p16
atp17
Rp18
sS'receptors'
p19
g3
((lp20
S'5ht2c'
p21
atp22
Rp23
sS'regions'
p24
g3
((lp25
S"(313, u'(?i)\\\\b(solitaries|solitary)(-|\\\\s+)?(tracts|tract)\\\\b')"
p26
atp27
Rp28
sS'year'
p29
V2017
p30
sS'agonists'
p31
g3
((lp32
S"(155, u'\\\\bmcpp')"
p33
atp34
Rp35
sS'species'
p36
g3
((lp37
S"(163, u'(?i)\\\\b(mice|mouse)\\\\b')"
p38
atp39
Rp40
sb.