(ifile_types
ParseObject
p0
(dp1
S'methods'
p2
c__builtin__
set
p3
((lp4
S'Method.KNOCKOUT'
p5
aS'Method.AGONIST'
p6
atp7
Rp8
sS'topics'
p9
g3
((lp10
S"(33, u'\\\\blocomot')"
p11
aS"(29, u'\\\\bhyperactiv')"
p12
aS"(9, u'\\\\bstress')"
p13
atp14
Rp15
sS'receptors'
p16
g3
((lp17
(S'5ht1a'
p18
I1313
I1319
tp19
a(S'5ht1a'
p20
I2070
I2076
tp21
a(S'5ht1a'
p22
I1242
I1248
tp23
a(S'5ht1a'
p24
I69
I75
tp25
a(S'5ht1a'
p26
I844
I850
tp27
a(S'5ht1a'
p28
I1456
I1462
tp29
a(S'5ht1a'
p30
I943
I949
tp31
a(S'5ht1a'
p32
I562
I568
tp33
a(S'5ht1a'
p34
I1886
I1892
tp35
a(S'5ht1a'
p36
I1579
I1585
tp37
atp38
Rp39
sS'raw_text_methods'
p40
g3
((lp41
S"(13, u'\\\\bagonist')"
p42
aS"(15, u'\\\\b8ohdpat')"
p43
aS"(54, u'\\\\bautoradiography')"
p44
atp45
Rp46
sS'regions'
p47
g3
((lp48
S"(3, u'(?i)\\\\b(postsynaptics|postsynaptic)\\\\b')"
p49
atp50
Rp51
sS'year'
p52
V2008
p53
sS'species'
p54
g3
((lp55
S"(4, u'(?i)\\\\b(rats|rat)\\\\b')"
p56
atp57
Rp58
sb.