(ifile_types
ParseObject
p0
(dp1
S'methods'
p2
c__builtin__
set
p3
((lp4
S'Method.ANTAGONIST'
p5
atp6
Rp7
sS'topics'
p8
g3
((lp9
S"(1, u'\\\\bpatient')"
p10
aS"(32, u'\\\\bvomit')"
p11
aS"(5, u'\\\\btherap')"
p12
aS"(4, u'\\\\btreatment')"
p13
aS"(3, u'\\\\bclinical')"
p14
atp15
Rp16
sS'receptors'
p17
g3
((lp18
(S'5ht3'
p19
I1142
I1147
tp20
a(S'5ht3'
p21
I1425
I1430
tp22
a(S'5ht3'
p23
I755
I760
tp24
a(S'5ht3'
p25
I1699
I1704
tp26
atp27
Rp28
sS'raw_text_methods'
p29
g3
((lp30
S"(12, u'\\\\bantagonist')"
p31
atp32
Rp33
sS'regions'
p34
g3
((lp35
tp36
Rp37
sS'year'
p38
V2003
p39
sS'species'
p40
g3
((lp41
tp42
Rp43
sb.