(ifile_types
ParseObject
p0
(dp1
S'antagonists'
p2
c__builtin__
set
p3
((lp4
S"(5, u'\\\\bcyanopindolol')"
p5
aS"(54, u'\\\\bpizotifen')"
p6
aS"(14, u'\\\\bmethiothepin')"
p7
aS"(117, u'\\\\bketanserin')"
p8
aS"(22, u'\\\\bpropranolol')"
p9
aS"(193, u'\\\\bmesulergine')"
p10
aS"(194, u'\\\\bmethysergide')"
p11
aS"(119, u'\\\\britanserin')"
p12
atp13
Rp14
sS'methods'
p15
g3
((lp16
S'Method.ANTAGONIST'
p17
aS'Method.AGONIST'
p18
atp19
Rp20
sS'topics'
p21
g3
((lp22
S"(25, u'\\\\bvasoconstrict')"
p23
atp24
Rp25
sS'receptors'
p26
g3
((lp27
S'5ht1c'
p28
aS'5ht1b'
p29
aS'5ht1a'
p30
aS'5ht3'
p31
aS'5ht2'
p32
aS'5ht1d'
p33
atp34
Rp35
sS'regions'
p36
g3
((lp37
S"(364, u'(?i)\\\\b(middles|middle)(-|\\\\s+)?(cerebrals|cerebral)(-|\\\\s+)?(arteries|artery)\\\\b')"
p38
atp39
Rp40
sS'year'
p41
V1989
p42
sS'agonists'
p43
g3
((lp44
S"(53, u'\\\\bmethysergide')"
p45
aS"(186, u'\\\\b2 ?methyl ?5 ?ht')"
p46
aS"(165, u'\\\\bmesulergine')"
p47
aS"(25, u'\\\\bdihydroergotamine')"
p48
aS"(98, u'\\\\b5 ?carboxamidotryptamine')"
p49
aS"(67, u'\\\\bru ?24969')"
p50
aS"(219, u'\\\\b5 ?ct')"
p51
atp52
Rp53
sS'species'
p54
g3
((lp55
S"(7540, u'(?i)\\\\b(mammalians|mammalian)\\\\b')"
p56
aS"(4952, u'(?i)\\\\b(felines|feline)\\\\b')"
p57
aS"(4979, u'(?i)\\\\b(cats|cat)\\\\b')"
p58
atp59
Rp60
sb.