(ifile_types
ParseObject
p0
(dp1
S'methods'
p2
c__builtin__
set
p3
((lp4
tp5
Rp6
sS'topics'
p7
g3
((lp8
S"(5, u'\\\\btherap')"
p9
aS"(13, u'\\\\bantidepress')"
p10
aS"(3, u'\\\\bclinical')"
p11
atp12
Rp13
sS'receptors'
p14
g3
((lp15
(S'5ht1a'
p16
I1481
I1487
tp17
a(S'5ht1b'
p18
I902
I908
tp19
a(S'5ht1b'
p20
I1233
I1239
tp21
a(S'5ht1a'
p22
I1221
I1227
tp23
a(S'5ht5'
p24
I505
I515
tp25
a(S'5ht1a'
p26
I669
I675
tp27
a(S'5ht1'
p28
I93
I98
tp29
atp30
Rp31
sS'raw_text_methods'
p32
g3
((lp33
S"(15, u'\\\\b8ohdpat')"
p34
atp35
Rp36
sS'regions'
p37
g3
((lp38
S"(19, u'(?i)\\\\b(cortexes|cortex)\\\\b')"
p39
aS"(3, u'(?i)\\\\b(postsynaptics|postsynaptic)\\\\b')"
p40
atp41
Rp42
sS'year'
p43
V2002
p44
sS'species'
p45
g3
((lp46
S"(4, u'(?i)\\\\b(rats|rat)\\\\b')"
p47
atp48
Rp49
sb.