(ifile_types
ParseObject
p0
(dp1
S'methods'
p2
c__builtin__
set
p3
((lp4
S'Method.AGONIST'
p5
atp6
Rp7
sS'topics'
p8
g3
((lp9
S"(17, u'\\\\balzheimer')"
p10
aS"(15, u'\\\\bmemory')"
p11
atp12
Rp13
sS'receptors'
p14
g3
((lp15
(S'5ht2a'
p16
I1845
I1851
tp17
a(S'5ht2a'
p18
I831
I837
tp19
a(S'5ht2a'
p20
I1065
I1071
tp21
a(S'5ht2a'
p22
I1126
I1132
tp23
a(S'5ht2a'
p24
I1479
I1485
tp25
a(S'5ht2a'
p26
I316
I322
tp27
a(S'5ht2a'
p28
I1405
I1411
tp29
a(S'5ht2a'
p30
I379
I385
tp31
a(S'5ht2a'
p32
I66
I72
tp33
a(S'5ht2a'
p34
I479
I485
tp35
atp36
Rp37
sS'raw_text_methods'
p38
g3
((lp39
S"(13, u'\\\\bagonist')"
p40
aS"(49, u'\\\\bdoi')"
p41
aS"(54, u'\\\\bautoradiography')"
p42
atp43
Rp44
sS'regions'
p45
g3
((lp46
S"(20, u'(?i)\\\\b(prefrontals|prefrontal)\\\\b')"
p47
aS"(21, u'(?i)\\\\b(mpfcs|mpfc)\\\\b')"
p48
aS"(19, u'(?i)\\\\b(cortexes|cortex)\\\\b')"
p49
atp50
Rp51
sS'year'
p52
V2010
p53
sS'species'
p54
g3
((lp55
S"(1, u'(?i)\\\\b(mice|mouse)\\\\b')"
p56
aS"(5, u'(?i)\\\\b(mices|mice)\\\\b')"
p57
aS"(4, u'(?i)\\\\b(rats|rat)\\\\b')"
p58
atp59
Rp60
sb.