(ifile_types
ParseObject
p0
(dp1
S'antagonists'
p2
c__builtin__
set
p3
((lp4
S"(111, u'\\\\bolanzapine')"
p5
aS"(113, u'\\\\brisperidone')"
p6
atp7
Rp8
sS'methods'
p9
g3
((lp10
S'Method.ANTAGONIST'
p11
atp12
Rp13
sS'topics'
p14
g3
((lp15
S"(33, u'\\\\balzheimers')"
p16
aS"(6, u'\\\\bcognit')"
p17
aS"(34, u'\\\\bdementia')"
p18
aS"(20, u'\\\\baggressi')"
p19
atp20
Rp21
sS'receptors'
p22
g3
((lp23
S'5ht6a'
p24
atp25
Rp26
sS'regions'
p27
g3
((lp28
tp29
Rp30
sS'year'
p31
V2004
p32
sS'agonists'
p33
g3
((lp34
S"(57, u'\\\\bolanzapine')"
p35
atp36
Rp37
sS'species'
p38
g3
((lp39
S"(1055, u'(?i)\\\\b(men|man)\\\\b')"
p40
atp41
Rp42
sb.