(ifile_types
ParseObject
p0
(dp1
S'methods'
p2
c__builtin__
set
p3
((lp4
S'Method.AGONIST'
p5
atp6
Rp7
sS'topics'
p8
g3
((lp9
S"(33, u'\\\\blocomot')"
p10
atp11
Rp12
sS'receptors'
p13
g3
((lp14
(S'5ht1c'
p15
I1069
I1075
tp16
a(S'5ht1b'
p17
I216
I222
tp18
a(S'5ht1a'
p19
I766
I772
tp20
a(S'5ht1b'
p21
I590
I596
tp22
a(S'5ht1b'
p23
I1048
I1054
tp24
a(S'5ht1a'
p25
I1085
I1091
tp26
a(S'5ht1c'
p27
I618
I624
tp28
atp29
Rp30
sS'raw_text_methods'
p31
g3
((lp32
S"(13, u'\\\\bagonist')"
p33
aS"(8, u'\\\\bru24969')"
p34
aS"(37, u'\\\\bpiperazine')"
p35
aS"(15, u'\\\\b8ohdpat')"
p36
atp37
Rp38
sS'regions'
p39
g3
((lp40
tp41
Rp42
sS'year'
p43
V1988
p44
sS'species'
p45
g3
((lp46
S"(4, u'(?i)\\\\b(rats|rat)\\\\b')"
p47
atp48
Rp49
sb.