(ifile_types
ParseObject
p0
(dp1
S'methods'
p2
c__builtin__
set
p3
((lp4
S'Method.AGONIST'
p5
atp6
Rp7
sS'topics'
p8
g3
((lp9
S"(15, u'\\\\bmemory')"
p10
aS"(17, u'\\\\balzheimer')"
p11
aS"(16, u'\\\\blearning')"
p12
aS"(4, u'\\\\btreatment')"
p13
aS"(2, u'\\\\bdisorder')"
p14
atp15
Rp16
sS'receptors'
p17
g3
((lp18
(S'5ht7'
p19
I56
I61
tp20
a(S'5ht7'
p21
I685
I690
tp22
a(S'5ht7'
p23
I1013
I1018
tp24
a(S'5ht7'
p25
I521
I526
tp26
a(S'5ht7'
p27
I1935
I1940
tp28
atp29
Rp30
sS'raw_text_methods'
p31
g3
((lp32
S"(13, u'\\\\bagonist')"
p33
aS"(2, u'\\\\blabeling')"
p34
atp35
Rp36
sS'regions'
p37
g3
((lp38
tp39
Rp40
sS'year'
p41
V2017
p42
sS'species'
p43
g3
((lp44
S"(3, u'(?i)\\\\b(males|male)\\\\b')"
p45
aS"(4, u'(?i)\\\\b(rats|rat)\\\\b')"
p46
atp47
Rp48
sb.