(ifile_types
ParseObject
p0
(dp1
S'antagonists'
p2
c__builtin__
set
p3
((lp4
tp5
Rp6
sS'methods'
p7
g3
((lp8
S'Method.IMMUNOHISTOCHEMISTRY'
p9
atp10
Rp11
sS'topics'
p12
g3
((lp13
S"(5, u'\\\\bgastrointestin')"
p14
aS"(32, u'\\\\bnausea')"
p15
aS"(28, u'\\\\bemesis')"
p16
atp17
Rp18
sS'receptors'
p19
g3
((lp20
S'5ht3'
p21
atp22
Rp23
sS'regions'
p24
g3
((lp25
S"(43, u'(?i)(vestibulars|vestibular)(-|\\\\s+)?(nuclei|nucleus)')"
p26
aS"(34, u'(?i)(pon|pons)')"
p27
aS"(313, u'(?i)(solitaries|solitary)(-|\\\\s+)?(tracts|tract)')"
p28
aS"(27, u'(?i)(areas|area)(-|\\\\s+)?(postremas|postrema)')"
p29
atp30
Rp31
sS'year'
p32
V2017
p33
sS'agonists'
p34
g3
((lp35
tp36
Rp37
sS'species'
p38
g3
((lp39
S"(6249, u'(?i)(ants|ant)')"
p40
aS"(1280, u'(?i)(shrews|shrew)')"
p41
aS"(6125, u'(?i)(females|female)')"
p42
aS"(5958, u'(?i)(rats|rat)')"
p43
aS"(163, u'(?i)(mice|mouse)')"
p44
aS"(479, u'(?i)(lings|ling)')"
p45
aS"(5967, u'(?i)(males|male)')"
p46
aS"(4163, u'(?i)(ermines|ermine)')"
p47
aS"(3726, u'(?i)(mates|mate)')"
p48
aS"(6215, u'(?i)(racers|racer)')"
p49
aS"(853, u'(?i)(minas|mina)')"
p50
aS"(3550, u'(?i)(anis|ani)')"
p51
aS"(5551, u'(?i)(owls|owl)')"
p52
aS"(3812, u'(?i)(studs|stud)')"
p53
aS"(6391, u'(?i)(asses|ass)')"
p54
aS"(6356, u'(?i)(ais|ai)')"
p55
aS"(2809, u'(?i)(toms|tom)')"
p56
aS"(6642, u'(?i)(lions|lion)')"
p57
aS"(4979, u'(?i)(cats|cat)')"
p58
aS"(5783, u'(?i)(hinds|hind)')"
p59
atp60
Rp61
sb.