(ifile_types
ParseObject
p0
(dp1
S'antagonists'
p2
c__builtin__
set
p3
((lp4
tp5
Rp6
sS'methods'
p7
g3
((lp8
S'Method.AGONIST'
p9
atp10
Rp11
sS'topics'
p12
g3
((lp13
S"(15, u'\\\\bschizophreni')"
p14
aS"(29, u'\\\\bsex')"
p15
atp16
Rp17
sS'receptors'
p18
g3
((lp19
S'5ht1a'
p20
atp21
Rp22
sS'regions'
p23
g3
((lp24
tp25
Rp26
sS'year'
p27
V2006
p28
sS'agonists'
p29
g3
((lp30
S"(24, u'\\\\bbuspirone')"
p31
atp32
Rp33
sS'species'
p34
g3
((lp35
S"(2323, u'(?i)(bees|bee)')"
p36
aS"(6249, u'(?i)(ants|ant)')"
p37
aS"(1055, u'(?i)(men|man)')"
p38
aS"(1349, u'(?i)(rams|ram)')"
p39
aS"(6356, u'(?i)(ais|ai)')"
p40
aS"(3812, u'(?i)(studs|stud)')"
p41
atp42
Rp43
sb.