(ifile_types
ParseObject
p0
(dp1
S'methods'
p2
c__builtin__
set
p3
((lp4
S'Method.PET'
p5
atp6
Rp7
sS'topics'
p8
g3
((lp9
S"(22, u'\\\\bschizophreni')"
p10
aS"(7, u'\\\\bdepressi')"
p11
aS"(20, u'\\\\bmood')"
p12
aS"(17, u'\\\\balzheimer')"
p13
aS"(2, u'\\\\bdisorder')"
p14
atp15
Rp16
sS'receptors'
p17
g3
((lp18
(S'5ht2a'
p19
I137
I143
tp20
a(S'5ht2a'
p21
I249
I255
tp22
a(S'5ht2a'
p23
I1017
I1023
tp24
a(S'5ht2a'
p25
I58
I64
tp26
a(S'5ht2a'
p27
I686
I692
tp28
a(S'5ht2a'
p29
I1095
I1101
tp30
a(S'5ht2a'
p31
I1217
I1223
tp32
atp33
Rp34
sS'raw_text_methods'
p35
g3
((lp36
S"(17, u'\\\\bpet')"
p37
aS"(19, u'\\\\bpositron emission tomography')"
p38
aS"(18, u'\\\\bimaging')"
p39
atp40
Rp41
sS'regions'
p42
g3
((lp43
S"(8, u'(?i)\\\\b(centrals|central)(-|\\\\s+)?(nervouses|nervous)(-|\\\\s+)?(systems|system)\\\\b')"
p44
atp45
Rp46
sS'year'
p47
V2018
p48
sS'species'
p49
g3
((lp50
tp51
Rp52
sb.