(ifile_types
ParseObject
p0
(dp1
S'antagonists'
p2
c__builtin__
set
p3
((lp4
tp5
Rp6
sS'methods'
p7
g3
((lp8
tp9
Rp10
sS'topics'
p11
g3
((lp12
S"(18, u'\\\\bpsychostim')"
p13
atp14
Rp15
sS'receptors'
p16
g3
((lp17
S'5ht1a'
p18
aS'5ht2a'
p19
atp20
Rp21
sS'regions'
p22
g3
((lp23
tp24
Rp25
sS'year'
p26
V2011
p27
sS'agonists'
p28
g3
((lp29
S"(49, u'\\\\blysergic acid diethylamide')"
p30
aS"(157, u'\\\\bdmt')"
p31
aS"(27, u'\\\\bdipt')"
p32
aS"(147, u'\\\\bmdma')"
p33
aS"(158, u'\\\\blsd')"
p34
aS"(26, u'\\\\bdimethyltryptamine')"
p35
aS"(176, u'\\\\bdom')"
p36
atp37
Rp38
sS'species'
p39
g3
((lp40
S"(5958, u'(?i)\\\\b(rats|rat)\\\\b')"
p41
atp42
Rp43
sb.