(ifile_types
ParseObject
p0
(dp1
S'antagonists'
p2
c__builtin__
set
p3
((lp4
S"(34, u'\\\\bmetergoline')"
p5
aS"(17, u'\\\\bnan ?190')"
p6
aS"(119, u'\\\\britanserin')"
p7
atp8
Rp9
sS'methods'
p10
g3
((lp11
S'Method.ANTAGONIST'
p12
atp13
Rp14
sS'topics'
p15
g3
((lp16
tp17
Rp18
sS'receptors'
p19
g3
((lp20
S'5ht7a'
p21
aS'5ht1a'
p22
aS'5ht2'
p23
atp24
Rp25
sS'regions'
p26
g3
((lp27
tp28
Rp29
sS'year'
p30
V1995
p31
sS'agonists'
p32
g3
((lp33
tp34
Rp35
sS'species'
p36
g3
((lp37
S"(7540, u'(?i)\\\\b(mammalians|mammalian)\\\\b')"
p38
aS"(5967, u'(?i)\\\\b(males|male)\\\\b')"
p39
aS"(4099, u'(?i)\\\\b(hamsters|hamster)\\\\b')"
p40
aS"(5217, u'(?i)\\\\b(syrians|syrian)(-|\\\\s+)?(hamsters|hamster)\\\\b')"
p41
atp42
Rp43
sb.