(ifile_types
ParseObject
p0
(dp1
S'antagonists'
p2
c__builtin__
set
p3
((lp4
S"(100, u'\\\\beltoprazine')"
p5
atp6
Rp7
sS'methods'
p8
g3
((lp9
S'Method.AGONIST'
p10
atp11
Rp12
sS'topics'
p13
g3
((lp14
S"(8, u'\\\\blearning')"
p15
aS"(6, u'\\\\bcognit')"
p16
aS"(30, u'\\\\bparkinsons')"
p17
aS"(4, u'\\\\blocomot')"
p18
atp19
Rp20
sS'receptors'
p21
g3
((lp22
S'5ht1b'
p23
aS'5ht1a'
p24
atp25
Rp26
sS'regions'
p27
g3
((lp28
S"(220, u'(?i)(striatums|striatum)')"
p29
atp30
Rp31
sS'year'
p32
V2016
p33
sS'agonists'
p34
g3
((lp35
S"(36, u'\\\\beltoprazine')"
p36
atp37
Rp38
sS'species'
p39
g3
((lp40
S"(4624, u'(?i)(apes|ape)')"
p41
aS"(1961, u'(?i)(pens|pen)')"
p42
aS"(6356, u'(?i)(ais|ai)')"
p43
aS"(6249, u'(?i)(ants|ant)')"
p44
aS"(5229, u'(?i)(moles|mole)')"
p45
aS"(3196, u'(?i)(human|humans)')"
p46
aS"(3812, u'(?i)(studs|stud)')"
p47
aS"(6391, u'(?i)(asses|ass)')"
p48
aS"(479, u'(?i)(lings|ling)')"
p49
aS"(468, u'(?i)(oxen|ox)')"
p50
aS"(3550, u'(?i)(anis|ani)')"
p51
aS"(5958, u'(?i)(rats|rat)')"
p52
aS"(4201, u'(?i)(kines|kine)')"
p53
aS"(1055, u'(?i)(men|man)')"
p54
aS"(6753, u'(?i)(da|das)')"
p55
aS"(1057, u'(?i)(humans|human)')"
p56
aS"(4371, u'(?i)(lizas|liza)')"
p57
aS"(2323, u'(?i)(bees|bee)')"
p58
aS"(2568, u'(?i)(hens|hen)')"
p59
aS"(4979, u'(?i)(cats|cat)')"
p60
aS"(7552, u'(?i)(bats|bat)')"
p61
aS"(5917, u'(?i)(roaches|roach)')"
p62
atp63
Rp64
sb.