(ifile_types
ParseObject
p0
(dp1
S'methods'
p2
c__builtin__
set
p3
((lp4
S'Method.ANTAGONIST'
p5
atp6
Rp7
sS'topics'
p8
g3
((lp9
tp10
Rp11
sS'receptors'
p12
g3
((lp13
(S'5ht1d'
p14
I225
I233
tp15
a(S'5ht1d'
p16
I1588
I1594
tp17
a(S'5ht1b'
p18
I225
I231
tp19
a(S'5ht1d'
p20
I1732
I1740
tp21
a(S'5ht1b'
p22
I58
I64
tp23
a(S'5ht1b'
p24
I1732
I1738
tp25
a(S'5ht1b'
p26
I1568
I1574
tp27
a(S'5ht1d'
p28
I58
I66
tp29
atp30
Rp31
sS'raw_text_methods'
p32
g3
((lp33
S"(53, u'\\\\bketanserin')"
p34
aS"(9, u'\\\\britanserin')"
p35
aS"(47, u'\\\\bsumatriptan')"
p36
aS"(12, u'\\\\bantagonist')"
p37
atp38
Rp39
sS'regions'
p40
g3
((lp41
S"(19, u'(?i)\\\\b(cortexes|cortex)\\\\b')"
p42
aS"(9, u'(?i)\\\\b(cerebellums|cerebellum)\\\\b')"
p43
atp44
Rp45
sS'year'
p46
V1997
p47
sS'species'
p48
g3
((lp49
S"(7, u'(?i)\\\\b(guineas|guinea)(-|\\\\s+)?(pigs|pig)\\\\b')"
p50
atp51
Rp52
sb.