(ifile_types
ParseObject
p0
(dp1
S'methods'
p2
c__builtin__
set
p3
((lp4
S'Method.ANTAGONIST'
p5
atp6
Rp7
sS'topics'
p8
g3
((lp9
S"(22, u'\\\\bschizophreni')"
p10
aS"(14, u'\\\\bcogniti')"
p11
aS"(25, u'\\\\bsocial')"
p12
aS"(23, u'\\\\bantipsychotic')"
p13
aS"(15, u'\\\\bmemory')"
p14
aS"(1, u'\\\\bpatient')"
p15
atp16
Rp17
sS'receptors'
p18
g3
((lp19
(S'5ht2c'
p20
I2169
I2175
tp21
a(S'5ht2c'
p22
I1232
I1238
tp23
a(S'5ht2a'
p24
I2158
I2164
tp25
a(S'5ht2a'
p26
I1221
I1227
tp27
a(S'5ht2'
p28
I996
I1001
tp29
atp30
Rp31
sS'raw_text_methods'
p32
g3
((lp33
S"(41, u'\\\\bhaloperidol')"
p34
aS"(40, u'\\\\bclozapine')"
p35
aS"(5, u'\\\\bmk801')"
p36
aS"(12, u'\\\\bantagonist')"
p37
atp38
Rp39
sS'regions'
p40
g3
((lp41
tp42
Rp43
sS'year'
p44
V2012
p45
sS'species'
p46
g3
((lp47
tp48
Rp49
sb.