(ifile_types
ParseObject
p0
(dp1
S'methods'
p2
c__builtin__
set
p3
((lp4
tp5
Rp6
sS'topics'
p7
g3
((lp8
S"(7, u'\\\\bdepressi')"
p9
aS"(3, u'\\\\bclinical')"
p10
aS"(13, u'\\\\bantidepress')"
p11
aS"(2, u'\\\\bdisorder')"
p12
atp13
Rp14
sS'receptors'
p15
g3
((lp16
(S'5ht1a'
p17
I898
I904
tp18
atp19
Rp20
sS'raw_text_methods'
p21
g3
((lp22
S"(38, u'\\\\bssri')"
p23
aS"(39, u'\\\\bselective serotonin reuptake inhibitor')"
p24
aS"(22, u'\\\\bbuspirone')"
p25
atp26
Rp27
sS'regions'
p28
g3
((lp29
tp30
Rp31
sS'year'
p32
V1996
p33
sS'species'
p34
g3
((lp35
S"(4, u'(?i)\\\\b(rats|rat)\\\\b')"
p36
atp37
Rp38
sb.