(ifile_types
ParseObject
p0
(dp1
S'methods'
p2
c__builtin__
set
p3
((lp4
S'Method.ANTAGONIST'
p5
aS'Method.AGONIST'
p6
atp7
Rp8
sS'topics'
p9
g3
((lp10
S"(26, u'\\\\bbehav')"
p11
atp12
Rp13
sS'receptors'
p14
g3
((lp15
(S'5ht1d'
p16
I145
I153
tp17
a(S'5ht1b'
p18
I696
I704
tp19
a(S'5ht1b'
p20
I145
I151
tp21
a(S'5ht1b'
p22
I920
I926
tp23
a(S'5ht1b'
p24
I278
I289
tp25
a(S'5ht1a'
p26
I696
I702
tp27
a(S'5ht1b'
p28
I45
I53
tp29
a(S'5ht1d'
p30
I920
I928
tp31
a(S'5ht1b'
p32
I411
I417
tp33
a(S'5ht1a'
p34
I45
I51
tp35
a(S'5ht1b'
p36
I1247
I1253
tp37
a(S'5ht1b'
p38
I1665
I1671
tp39
a(S'5ht1b'
p40
I292
I298
tp41
atp42
Rp43
sS'raw_text_methods'
p44
g3
((lp45
S"(13, u'\\\\bagonist')"
p46
aS"(12, u'\\\\bantagonist')"
p47
atp48
Rp49
sS'regions'
p50
g3
((lp51
tp52
Rp53
sS'year'
p54
V1999
p55
sS'species'
p56
g3
((lp57
S"(3, u'(?i)\\\\b(males|male)\\\\b')"
p58
aS"(4, u'(?i)\\\\b(rats|rat)\\\\b')"
p59
atp60
Rp61
sb.