(ifile_types
ParseObject
p0
(dp1
S'antagonists'
p2
c__builtin__
set
p3
((lp4
S"(81, u'\\\\bagomelatine')"
p5
atp6
Rp7
sS'methods'
p8
g3
((lp9
S'Method.ANTAGONIST'
p10
aS'Method.AGONIST'
p11
atp12
Rp13
sS'topics'
p14
g3
((lp15
S"(3, u'\\\\bsleep')"
p16
aS"(30, u'\\\\bparkinsons')"
p17
atp18
Rp19
sS'receptors'
p20
g3
((lp21
S'5ht2c'
p22
atp23
Rp24
sS'regions'
p25
g3
((lp26
S"(96, u'(?i)(ventrals|ventral)(-|\\\\s+)?(tegmentals|tegmental)(-|\\\\s+)?(areas|area)')"
p27
aS"(220, u'(?i)(striatums|striatum)')"
p28
aS"(103, u'(?i)(substantias|substantia)(-|\\\\s+)?(nigras|nigra)')"
p29
aS"(34, u'(?i)(pon|pons)')"
p30
atp31
Rp32
sS'year'
p33
V2019
p34
sS'agonists'
p35
g3
((lp36
tp37
Rp38
sS'species'
p39
g3
((lp40
S"(2323, u'(?i)(bees|bee)')"
p41
aS"(5967, u'(?i)(males|male)')"
p42
aS"(6753, u'(?i)(da|das)')"
p43
aS"(5958, u'(?i)(rats|rat)')"
p44
aS"(3601, u'(?i)(efts|eft)')"
p45
aS"(5176, u'(?i)(tegs|teg)')"
p46
aS"(81, u'(?i)(asps|asp)')"
p47
aS"(468, u'(?i)(oxen|ox)')"
p48
aS"(1055, u'(?i)(men|man)')"
p49
aS"(6249, u'(?i)(ants|ant)')"
p50
aS"(2942, u'(?i)(daws|daw)')"
p51
aS"(3550, u'(?i)(anis|ani)')"
p52
aS"(5229, u'(?i)(moles|mole)')"
p53
aS"(1961, u'(?i)(pens|pen)')"
p54
aS"(6356, u'(?i)(ais|ai)')"
p55
aS"(6391, u'(?i)(asses|ass)')"
p56
aS"(5743, u'(?i)(bots|bot)')"
p57
aS"(7552, u'(?i)(bats|bat)')"
p58
atp59
Rp60
sb.