(ifile_types
ParseObject
p0
(dp1
S'methods'
p2
c__builtin__
set
p3
((lp4
S'Method.ANTAGONIST'
p5
aS'Method.AGONIST'
p6
atp7
Rp8
sS'topics'
p9
g3
((lp10
tp11
Rp12
sS'receptors'
p13
g3
((lp14
(S'5ht1'
p15
I687
I692
tp16
a(S'5ht2'
p17
I2011
I2016
tp18
a(S'5ht1'
p19
I597
I602
tp20
a(S'5ht2'
p21
I1067
I1072
tp22
a(S'5ht1'
p23
I1635
I1640
tp24
a(S'5ht3'
p25
I1703
I1708
tp26
a(S'5ht1d'
p27
I1927
I1933
tp28
a(S'5ht1b'
p29
I1920
I1926
tp30
a(S'5ht1c'
p31
I1678
I1684
tp32
a(S'5ht1a'
p33
I854
I860
tp34
a(S'5ht3'
p35
I720
I725
tp36
atp37
Rp38
sS'raw_text_methods'
p39
g3
((lp40
S"(53, u'\\\\bketanserin')"
p41
aS"(7, u'\\\\bpropranolol')"
p42
aS"(23, u'\\\\bmdl')"
p43
aS"(34, u'\\\\b5ct')"
p44
aS"(13, u'\\\\bagonist')"
p45
aS"(30, u'\\\\b2methyl')"
p46
aS"(9, u'\\\\britanserin')"
p47
aS"(12, u'\\\\bantagonist')"
p48
atp49
Rp50
sS'regions'
p51
g3
((lp52
S"(11, u'(?i)\\\\b(cerebrals|cerebral)\\\\b')"
p53
atp54
Rp55
sS'year'
p56
V1989
p57
sS'species'
p58
g3
((lp59
tp60
Rp61
sb.