(ifile_types
ParseObject
p0
(dp1
S'methods'
p2
c__builtin__
set
p3
((lp4
S'Method.ANTAGONIST'
p5
aS'Method.AGONIST'
p6
atp7
Rp8
sS'topics'
p9
g3
((lp10
S"(26, u'\\\\bbehav')"
p11
aS"(35, u'\\\\bnocicept')"
p12
atp13
Rp14
sS'receptors'
p15
g3
((lp16
(S'5ht1a'
p17
I1485
I1491
tp18
a(S'5ht1a'
p19
I1317
I1323
tp20
a(S'5ht1a'
p21
I242
I253
tp22
a(S'5ht1a'
p23
I440
I446
tp24
a(S'5ht1a'
p25
I946
I952
tp26
a(S'5ht1a'
p27
I685
I691
tp28
a(S'5ht1a'
p29
I256
I262
tp30
a(S'5ht1a'
p31
I42
I53
tp32
atp33
Rp34
sS'raw_text_methods'
p35
g3
((lp36
S"(13, u'\\\\bagonist')"
p37
aS"(15, u'\\\\b8ohdpat')"
p38
aS"(12, u'\\\\bantagonist')"
p39
atp40
Rp41
sS'regions'
p42
g3
((lp43
S"(19, u'(?i)\\\\b(cortexes|cortex)\\\\b')"
p44
aS"(4, u'(?i)\\\\b(presynaptics|presynaptic)\\\\b')"
p45
aS"(3, u'(?i)\\\\b(postsynaptics|postsynaptic)\\\\b')"
p46
atp47
Rp48
sS'year'
p49
V2010
p50
sS'species'
p51
g3
((lp52
S"(4, u'(?i)\\\\b(rats|rat)\\\\b')"
p53
atp54
Rp55
sb.