(ifile_types
ParseObject
p0
(dp1
S'antagonists'
p2
c__builtin__
set
p3
((lp4
tp5
Rp6
sS'methods'
p7
g3
((lp8
S'Method.AGONIST'
p9
atp10
Rp11
sS'topics'
p12
g3
((lp13
tp14
Rp15
sS'receptors'
p16
g3
((lp17
S'5ht1b'
p18
aS'5ht1'
p19
atp20
Rp21
sS'regions'
p22
g3
((lp23
S"(364, u'(?i)(middles|middle)(-|\\\\s+)?(cerebrals|cerebral)(-|\\\\s+)?(arteries|artery)')"
p24
aS"(174, u'(?i)(posteriors|posterior)')"
p25
aS"(368, u'(?i)(basilars|basilar)(-|\\\\s+)?(arteries|artery)')"
p26
aS"(34, u'(?i)(pon|pons)')"
p27
atp28
Rp29
sS'year'
p30
V2003
p31
sS'agonists'
p32
g3
((lp33
tp34
Rp35
sS'species'
p36
g3
((lp37
S"(6249, u'(?i)(ants|ant)')"
p38
aS"(5626, u'(?i)(posters|poster)')"
p39
aS"(4163, u'(?i)(ermines|ermine)')"
p40
aS"(2568, u'(?i)(hens|hen)')"
p41
aS"(867, u'(?i)(tits|tit)')"
p42
aS"(5743, u'(?i)(bots|bot)')"
p43
aS"(6753, u'(?i)(da|das)')"
p44
aS"(2183, u'(?i)(gars|gar)')"
p45
aS"(5131, u'(?i)(hags|hag)')"
p46
aS"(468, u'(?i)(oxen|ox)')"
p47
aS"(1055, u'(?i)(men|man)')"
p48
aS"(3726, u'(?i)(mates|mate)')"
p49
aS"(745, u'(?i)(arachnoids|arachnoid)')"
p50
aS"(4979, u'(?i)(cats|cat)')"
p51
aS"(3550, u'(?i)(anis|ani)')"
p52
aS"(107, u'(?i)(stags|stag)')"
p53
aS"(5229, u'(?i)(moles|mole)')"
p54
aS"(6356, u'(?i)(ais|ai)')"
p55
aS"(1628, u'(?i)(cod|cod)')"
p56
aS"(5958, u'(?i)(rats|rat)')"
p57
atp58
Rp59
sb.