(ifile_types
ParseObject
p0
(dp1
S'methods'
p2
c__builtin__
set
p3
((lp4
S'Method.ANTAGONIST'
p5
aS'Method.AGONIST'
p6
atp7
Rp8
sS'topics'
p9
g3
((lp10
S"(14, u'\\\\bcogniti')"
p11
aS"(2, u'\\\\bdisorder')"
p12
aS"(7, u'\\\\bdepressi')"
p13
aS"(30, u'\\\\bpain')"
p14
aS"(8, u'\\\\banxi')"
p15
aS"(4, u'\\\\btreatment')"
p16
atp17
Rp18
sS'receptors'
p19
g3
((lp20
(S'5ht1a'
p21
I572
I578
tp22
a(S'5ht1a'
p23
I373
I379
tp24
a(S'5ht1'
p25
I1186
I1191
tp26
a(S'5ht1a'
p27
I176
I182
tp28
a(S'5ht1a'
p29
I700
I705
tp30
a(S'5ht1a'
p31
I943
I949
tp32
a(S'5ht1a'
p33
I290
I296
tp34
atp35
Rp36
sS'raw_text_methods'
p37
g3
((lp38
S"(13, u'\\\\bagonist')"
p39
aS"(12, u'\\\\bantagonist')"
p40
atp41
Rp42
sS'regions'
p43
g3
((lp44
tp45
Rp46
sS'year'
p47
V2017
p48
sS'species'
p49
g3
((lp50
tp51
Rp52
sb.