(ifile_types
ParseObject
p0
(dp1
S'antagonists'
p2
c__builtin__
set
p3
((lp4
S"(103, u'\\\\bfr ?260010')"
p5
atp6
Rp7
sS'methods'
p8
g3
((lp9
S'Method.ANTAGONIST'
p10
atp11
Rp12
sS'topics'
p13
g3
((lp14
S"(35, u'\\\\bstress')"
p15
aS"(16, u'\\\\bfeed')"
p16
aS"(10, u'\\\\banxiety')"
p17
atp18
Rp19
sS'receptors'
p20
g3
((lp21
S'5ht5'
p22
aS'5ht2c'
p23
atp24
Rp25
sS'regions'
p26
g3
((lp27
S"(292, u'(?i)(anteriors|anterior)(-|\\\\s+)?(cingulates|cingulate)')"
p28
aS"(291, u'(?i)(cingulates|cingulate)(-|\\\\s+)?(cortexes|cortex)')"
p29
aS"(209, u'(?i)(amygdalas|amygdala)')"
p30
aS"(34, u'(?i)(pon|pons)')"
p31
atp32
Rp33
sS'year'
p34
V2008
p35
sS'agonists'
p36
g3
((lp37
tp38
Rp39
sS'species'
p40
g3
((lp41
S"(4624, u'(?i)(apes|ape)')"
p42
aS"(5537, u'(?i)(hippos|hippo)')"
p43
aS"(2568, u'(?i)(hens|hen)')"
p44
aS"(6753, u'(?i)(da|das)')"
p45
aS"(468, u'(?i)(oxen|ox)')"
p46
aS"(1055, u'(?i)(men|man)')"
p47
aS"(6249, u'(?i)(ants|ant)')"
p48
aS"(2665, u'(?i)(rays|ray)')"
p49
aS"(6356, u'(?i)(ais|ai)')"
p50
aS"(5958, u'(?i)(rats|rat)')"
p51
aS"(5229, u'(?i)(moles|mole)')"
p52
aS"(1961, u'(?i)(pens|pen)')"
p53
aS"(3812, u'(?i)(studs|stud)')"
p54
atp55
Rp56
sb.