(ifile_types
ParseObject
p0
(dp1
S'methods'
p2
c__builtin__
set
p3
((lp4
S'Method.ANTAGONIST'
p5
aS'Method.AGONIST'
p6
atp7
Rp8
sS'topics'
p9
g3
((lp10
tp11
Rp12
sS'receptors'
p13
g3
((lp14
(S'5ht3'
p15
I450
I455
tp16
a(S'5ht3'
p17
I538
I543
tp18
a(S'5ht3'
p19
I1410
I1415
tp20
a(S'5ht3'
p21
I830
I835
tp22
a(S'5ht3'
p23
I1240
I1245
tp24
a(S'5ht3'
p25
I276
I281
tp26
a(S'5ht3'
p27
I626
I631
tp28
a(S'5ht3'
p29
I32
I37
tp30
atp31
Rp32
sS'raw_text_methods'
p33
g3
((lp34
S"(53, u'\\\\bketanserin')"
p35
aS"(23, u'\\\\bmdl')"
p36
aS"(26, u'\\\\bmdl72222')"
p37
aS"(13, u'\\\\bagonist')"
p38
aS"(30, u'\\\\b2methyl')"
p39
aS"(54, u'\\\\bautoradiography')"
p40
aS"(12, u'\\\\bantagonist')"
p41
atp42
Rp43
sS'regions'
p44
g3
((lp45
tp46
Rp47
sS'year'
p48
V1989
p49
sS'species'
p50
g3
((lp51
tp52
Rp53
sb.