(ifile_types
ParseObject
p0
(dp1
S'methods'
p2
c__builtin__
set
p3
((lp4
tp5
Rp6
sS'topics'
p7
g3
((lp8
S"(30, u'\\\\bpain')"
p9
aS"(5, u'\\\\btherap')"
p10
aS"(35, u'\\\\bnocicept')"
p11
aS"(4, u'\\\\btreatment')"
p12
atp13
Rp14
sS'receptors'
p15
g3
((lp16
(S'5ht1a'
p17
I23
I34
tp18
a(S'5ht5'
p19
I1123
I1133
tp20
a(S'5ht1a'
p21
I1155
I1161
tp22
a(S'5ht1a'
p23
I1622
I1628
tp24
atp25
Rp26
sS'raw_text_methods'
p27
g3
((lp28
tp29
Rp30
sS'regions'
p31
g3
((lp32
tp33
Rp34
sS'year'
p35
V2018
p36
sS'species'
p37
g3
((lp38
tp39
Rp40
sb.