(ifile_types
ParseObject
p0
(dp1
S'antagonists'
p2
c__builtin__
set
p3
((lp4
S"(198, u'\\\\bsb ?269970')"
p5
aS"(117, u'\\\\bketanserin')"
p6
aS"(31, u'\\\\bway ?100635')"
p7
aS"(58, u'\\\\bhaloperidol')"
p8
atp9
Rp10
sS'methods'
p11
g3
((lp12
S'Method.ANTAGONIST'
p13
aS'Method.AGONIST'
p14
atp15
Rp16
sS'topics'
p17
g3
((lp18
S"(15, u'\\\\bschizophreni')"
p19
atp20
Rp21
sS'receptors'
p22
g3
((lp23
S'5ht7'
p24
aS'5ht5'
p25
aS'5ht2c'
p26
aS'5ht2a'
p27
aS'5ht1a'
p28
aS'5ht2'
p29
atp30
Rp31
sS'regions'
p32
g3
((lp33
tp34
Rp35
sS'year'
p36
V2010
p37
sS'agonists'
p38
g3
((lp39
S"(85, u'\\\\b8 ?oh ?dpat')"
p40
aS"(43, u'\\\\bhaloperidol')"
p41
atp42
Rp43
sS'species'
p44
g3
((lp45
S"(5958, u'(?i)\\\\b(rats|rat)\\\\b')"
p46
aS"(6125, u'(?i)\\\\b(females|female)\\\\b')"
p47
atp48
Rp49
sb.