(ifile_types
ParseObject
p0
(dp1
S'methods'
p2
c__builtin__
set
p3
((lp4
S'Method.IMMUNOHISTOCHEMISTRY'
p5
atp6
Rp7
sS'topics'
p8
g3
((lp9
S"(6, u'\\\\baggressi')"
p10
aS"(26, u'\\\\bbehav')"
p11
aS"(25, u'\\\\bsocial')"
p12
atp13
Rp14
sS'receptors'
p15
g3
((lp16
(S'5ht5'
p17
I149
I159
tp18
atp19
Rp20
sS'raw_text_methods'
p21
g3
((lp22
tp23
Rp24
sS'regions'
p25
g3
((lp26
tp27
Rp28
sS'year'
p29
V2017
p30
sS'species'
p31
g3
((lp32
S"(3, u'(?i)\\\\b(males|male)\\\\b')"
p33
atp34
Rp35
sb.