(ifile_types
ParseObject
p0
(dp1
S'methods'
p2
c__builtin__
set
p3
((lp4
S'Method.AGONIST'
p5
atp6
Rp7
sS'topics'
p8
g3
((lp9
tp10
Rp11
sS'receptors'
p12
g3
((lp13
(S'5ht1a'
p14
I1741
I1747
tp15
atp16
Rp17
sS'raw_text_methods'
p18
g3
((lp19
S"(13, u'\\\\bagonist')"
p20
atp21
Rp22
sS'regions'
p23
g3
((lp24
S"(19, u'(?i)\\\\b(cortexes|cortex)\\\\b')"
p25
aS"(11, u'(?i)\\\\b(cerebrals|cerebral)\\\\b')"
p26
aS"(8, u'(?i)\\\\b(centrals|central)(-|\\\\s+)?(nervouses|nervous)(-|\\\\s+)?(systems|system)\\\\b')"
p27
aS"(13, u'(?i)\\\\b(septums|septum)\\\\b')"
p28
aS"(3, u'(?i)\\\\b(postsynaptics|postsynaptic)\\\\b')"
p29
atp30
Rp31
sS'year'
p32
V1986
p33
sS'species'
p34
g3
((lp35
S"(4, u'(?i)\\\\b(rats|rat)\\\\b')"
p36
atp37
Rp38
sb.