(ifile_types
ParseObject
p0
(dp1
S'methods'
p2
c__builtin__
set
p3
((lp4
S'Method.AGONIST'
p5
atp6
Rp7
sS'topics'
p8
g3
((lp9
S"(1, u'\\\\bpatient')"
p10
aS"(13, u'\\\\bantidepress')"
p11
aS"(4, u'\\\\btreatment')"
p12
aS"(3, u'\\\\bclinical')"
p13
atp14
Rp15
sS'receptors'
p16
g3
((lp17
(S'5ht1a'
p18
I447
I453
tp19
a(S'5ht1a'
p20
I920
I926
tp21
atp22
Rp23
sS'raw_text_methods'
p24
g3
((lp25
S"(13, u'\\\\bagonist')"
p26
aS"(11, u'\\\\bfluoxetine')"
p27
aS"(38, u'\\\\bssri')"
p28
atp29
Rp30
sS'regions'
p31
g3
((lp32
S"(3, u'(?i)\\\\b(postsynaptics|postsynaptic)\\\\b')"
p33
atp34
Rp35
sS'year'
p36
V2005
p37
sS'species'
p38
g3
((lp39
tp40
Rp41
sb.