(ifile_types
ParseObject
p0
(dp1
S'antagonists'
p2
c__builtin__
set
p3
((lp4
tp5
Rp6
sS'methods'
p7
g3
((lp8
tp9
Rp10
sS'topics'
p11
g3
((lp12
tp13
Rp14
sS'receptors'
p15
g3
((lp16
S'5ht1b'
p17
aS'5ht5'
p18
aS'5ht1'
p19
atp20
Rp21
sS'regions'
p22
g3
((lp23
S"(34, u'(?i)(pon|pons)')"
p24
atp25
Rp26
sS'year'
p27
V2002
p28
sS'agonists'
p29
g3
((lp30
S"(193, u'\\\\bethanol')"
p31
atp32
Rp33
sS'species'
p34
g3
((lp35
S"(2323, u'(?i)(bees|bee)')"
p36
aS"(5799, u'(?i)(rodents|rodent)')"
p37
aS"(949, u'(?i)(cohoes|coho)')"
p38
aS"(6753, u'(?i)(da|das)')"
p39
aS"(702, u'(?i)(genets|genet)')"
p40
aS"(163, u'(?i)(mice|mouse)')"
p41
aS"(5743, u'(?i)(bots|bot)')"
p42
aS"(5967, u'(?i)(males|male)')"
p43
aS"(6682, u'(?i)(tera|teras)')"
p44
aS"(1055, u'(?i)(men|man)')"
p45
aS"(853, u'(?i)(minas|mina)')"
p46
aS"(5958, u'(?i)(rats|rat)')"
p47
aS"(1057, u'(?i)(humans|human)')"
p48
aS"(1961, u'(?i)(pens|pen)')"
p49
aS"(6356, u'(?i)(ais|ai)')"
p50
aS"(3196, u'(?i)(human|humans)')"
p51
aS"(6391, u'(?i)(asses|ass)')"
p52
aS"(4074, u'(?i)(bulls|bull)')"
p53
atp54
Rp55
sb.