(ifile_types
ParseObject
p0
(dp1
S'methods'
p2
c__builtin__
set
p3
((lp4
S'Method.ANTAGONIST'
p5
aS'Method.AGONIST'
p6
atp7
Rp8
sS'topics'
p9
g3
((lp10
S"(5, u'\\\\btherap')"
p11
aS"(26, u'\\\\bbehav')"
p12
aS"(29, u'\\\\bhyperactiv')"
p13
aS"(4, u'\\\\btreatment')"
p14
aS"(2, u'\\\\bdisorder')"
p15
atp16
Rp17
sS'receptors'
p18
g3
((lp19
(S'5ht3'
p20
I227
I232
tp21
a(S'5ht3'
p22
I1964
I1969
tp23
a(S'5ht3'
p24
I40
I45
tp25
a(S'5ht3'
p26
I1880
I1885
tp27
a(S'5ht3'
p28
I907
I912
tp29
atp30
Rp31
sS'raw_text_methods'
p32
g3
((lp33
S"(13, u'\\\\bagonist')"
p34
aS"(20, u'\\\\bondansetron')"
p35
aS"(23, u'\\\\bmdl')"
p36
aS"(12, u'\\\\bantagonist')"
p37
atp38
Rp39
sS'regions'
p40
g3
((lp41
S"(19, u'(?i)\\\\b(cortexes|cortex)\\\\b')"
p42
aS"(12, u'(?i)\\\\b(amygdalas|amygdala)\\\\b')"
p43
aS"(23, u'(?i)\\\\b(forebrains|forebrain)\\\\b')"
p44
atp45
Rp46
sS'year'
p47
V1990
p48
sS'species'
p49
g3
((lp50
S"(4, u'(?i)\\\\b(rats|rat)\\\\b')"
p51
atp52
Rp53
sb.