(ifile_types
ParseObject
p0
(dp1
S'antagonists'
p2
c__builtin__
set
p3
((lp4
S"(31, u'\\\\bway ?100635')"
p5
atp6
Rp7
sS'methods'
p8
g3
((lp9
S'Method.STAINING'
p10
aS'Method.AGONIST'
p11
aS'Method.ANTAGONIST'
p12
atp13
Rp14
sS'topics'
p15
g3
((lp16
tp17
Rp18
sS'receptors'
p19
g3
((lp20
S'5ht1a'
p21
atp22
Rp23
sS'regions'
p24
g3
((lp25
S"(203, u'(?i)\\\\b(dentates|dentate)(-|\\\\s+)?(gyruses|gyrus)\\\\b')"
p26
atp27
Rp28
sS'year'
p29
V2005
p30
sS'agonists'
p31
g3
((lp32
S"(45, u'\\\\bipsapirone')"
p33
atp34
Rp35
sS'species'
p36
g3
((lp37
S"(3152, u'(?i)\\\\b(layers|layer)\\\\b')"
p38
aS"(5958, u'(?i)\\\\b(rats|rat)\\\\b')"
p39
aS"(6125, u'(?i)\\\\b(females|female)\\\\b')"
p40
aS"(5967, u'(?i)\\\\b(males|male)\\\\b')"
p41
atp42
Rp43
sb.