(ifile_types
ParseObject
p0
(dp1
S'methods'
p2
c__builtin__
set
p3
((lp4
S'Method.ANTAGONIST'
p5
aS'Method.AGONIST'
p6
atp7
Rp8
sS'topics'
p9
g3
((lp10
S"(22, u'\\\\bschizophreni')"
p11
aS"(26, u'\\\\bbehav')"
p12
aS"(16, u'\\\\blearning')"
p13
aS"(23, u'\\\\bantipsychotic')"
p14
aS"(15, u'\\\\bmemory')"
p15
aS"(18, u'\\\\bavoidan')"
p16
aS"(1, u'\\\\bpatient')"
p17
atp18
Rp19
sS'receptors'
p20
g3
((lp21
(S'5ht7'
p22
I396
I401
tp23
a(S'5ht7'
p24
I784
I789
tp25
a(S'5ht7'
p26
I42
I47
tp27
a(S'5ht2a'
p28
I1365
I1371
tp29
a(S'5ht2a'
p30
I321
I327
tp31
a(S'5ht2a'
p32
I1572
I1578
tp33
a(S'5ht7'
p34
I311
I316
tp35
a(S'5ht7'
p36
I1674
I1679
tp37
a(S'5ht7'
p38
I1256
I1261
tp39
a(S'5ht7'
p40
I628
I633
tp41
a(S'5ht7'
p42
I1004
I1009
tp43
atp44
Rp45
sS'raw_text_methods'
p46
g3
((lp47
S"(13, u'\\\\bagonist')"
p48
aS"(53, u'\\\\bketanserin')"
p49
aS"(5, u'\\\\bmk801')"
p50
aS"(12, u'\\\\bantagonist')"
p51
atp52
Rp53
sS'regions'
p54
g3
((lp55
tp56
Rp57
sS'year'
p58
V2013
p59
sS'species'
p60
g3
((lp61
S"(4, u'(?i)\\\\b(rats|rat)\\\\b')"
p62
atp63
Rp64
sb.