(ifile_types
ParseObject
p0
(dp1
S'antagonists'
p2
c__builtin__
set
p3
((lp4
S"(23, u'\\\\brisperidone')"
p5
aS"(130, u'\\\\britanserin')"
p6
aS"(207, u'\\\\bsertindole')"
p7
aS"(123, u'\\\\bclozapine')"
p8
aS"(56, u'\\\\bclozapine')"
p9
aS"(57, u'\\\\bolanzapine')"
p10
aS"(41, u'\\\\bziprasidone')"
p11
aS"(188, u'\\\\bsertindole')"
p12
aS"(120, u'\\\\bfluphenazine')"
p13
aS"(124, u'\\\\bolanzapine')"
p14
aS"(59, u'\\\\brisperidone')"
p15
aS"(67, u'\\\\bhaloperidol')"
p16
aS"(54, u'\\\\britanserin')"
p17
atp18
Rp19
sS'methods'
p20
g3
((lp21
S'Method.ANTAGONIST'
p22
atp23
Rp24
sS'topics'
p25
g3
((lp26
S"(4, u'\\\\blocomot')"
p27
atp28
Rp29
sS'receptors'
p30
g3
((lp31
S'5ht2c'
p32
aS'5ht2'
p33
aS'5ht2a'
p34
atp35
Rp36
sS'regions'
p37
g3
((lp38
S"(34, u'(?i)(pon|pons)')"
p39
atp40
Rp41
sS'year'
p42
V1995
p43
sS'agonists'
p44
g3
((lp45
S"(91, u'\\\\bziprasidone')"
p46
aS"(64, u'\\\\bolanzapine')"
p47
aS"(48, u'\\\\bhaloperidol')"
p48
aS"(27, u'\\\\bclozapine')"
p49
atp50
Rp51
sS'species'
p52
g3
((lp53
S"(2323, u'(?i)(bees|bee)')"
p54
aS"(2568, u'(?i)(hens|hen)')"
p55
aS"(4979, u'(?i)(cats|cat)')"
p56
aS"(6682, u'(?i)(tera|teras)')"
p57
aS"(468, u'(?i)(oxen|ox)')"
p58
aS"(1349, u'(?i)(rams|ram)')"
p59
aS"(6249, u'(?i)(ants|ant)')"
p60
aS"(4964, u'(?i)(serins|serin)')"
p61
aS"(5958, u'(?i)(rats|rat)')"
p62
aS"(1961, u'(?i)(pens|pen)')"
p63
aS"(3812, u'(?i)(studs|stud)')"
p64
aS"(6391, u'(?i)(asses|ass)')"
p65
aS"(5743, u'(?i)(bots|bot)')"
p66
aS"(5674, u'(?i)(ewes|ewe)')"
p67
atp68
Rp69
sb.