(ifile_types
ParseObject
p0
(dp1
S'methods'
p2
c__builtin__
set
p3
((lp4
S'Method.ANTAGONIST'
p5
atp6
Rp7
sS'topics'
p8
g3
((lp9
S"(30, u'\\\\bpain')"
p10
aS"(35, u'\\\\bnocicept')"
p11
atp12
Rp13
sS'receptors'
p14
g3
((lp15
(S'5ht1b'
p16
I822
I828
tp17
a(S'5ht1d'
p18
I822
I830
tp19
atp20
Rp21
sS'raw_text_methods'
p22
g3
((lp23
S"(47, u'\\\\bsumatriptan')"
p24
aS"(12, u'\\\\bantagonist')"
p25
atp26
Rp27
sS'regions'
p28
g3
((lp29
S"(19, u'(?i)\\\\b(cortexes|cortex)\\\\b')"
p30
aS"(17, u'(?i)\\\\b(caudates|caudate)\\\\b')"
p31
atp32
Rp33
sS'year'
p34
V2016
p35
sS'species'
p36
g3
((lp37
tp38
Rp39
sb.