(ifile_types
ParseObject
p0
(dp1
S'antagonists'
p2
c__builtin__
set
p3
((lp4
S"(32, u'\\\\bway ?100635')"
p5
aS"(102, u'\\\\bfluoxetine')"
p6
atp7
Rp8
sS'methods'
p9
g3
((lp10
S'Method.ANTAGONIST'
p11
aS'Method.AGONIST'
p12
atp13
Rp14
sS'topics'
p15
g3
((lp16
S"(18, u'\\\\bpsychostim')"
p17
atp18
Rp19
sS'receptors'
p20
g3
((lp21
S'5ht1a'
p22
atp23
Rp24
sS'regions'
p25
g3
((lp26
tp27
Rp28
sS'year'
p29
V2007
p30
sS'agonists'
p31
g3
((lp32
S"(153, u'\\\\bmdma')"
p33
aS"(92, u'\\\\b8 ?oh ?dpat')"
p34
aS"(5, u'\\\\b5 ?ct')"
p35
aS"(14, u'\\\\bamphetamine')"
p36
aS"(155, u'\\\\bmem')"
p37
atp38
Rp39
sS'species'
p40
g3
((lp41
S"(1070, u'(?i)(pets|pet)')"
p42
aS"(5537, u'(?i)(hippos|hippo)')"
p43
aS"(4163, u'(?i)(ermines|ermine)')"
p44
aS"(5958, u'(?i)(rats|rat)')"
p45
aS"(6356, u'(?i)(ais|ai)')"
p46
aS"(7609, u'(?i)(erns|ern)')"
p47
aS"(867, u'(?i)(tits|tit)')"
p48
aS"(6753, u'(?i)(da|das)')"
p49
aS"(479, u'(?i)(lings|ling)')"
p50
aS"(468, u'(?i)(oxen|ox)')"
p51
aS"(1055, u'(?i)(men|man)')"
p52
aS"(6249, u'(?i)(ants|ant)')"
p53
aS"(3404, u'(?i)(titis|titi)')"
p54
aS"(4979, u'(?i)(cats|cat)')"
p55
aS"(3550, u'(?i)(anis|ani)')"
p56
aS"(3522, u'(?i)(tetras|tetra)')"
p57
aS"(3812, u'(?i)(studs|stud)')"
p58
aS"(6391, u'(?i)(asses|ass)')"
p59
aS"(6878, u'(?i)(guans|guan)')"
p60
aS"(1683, u'(?i)(terns|tern)')"
p61
atp62
Rp63
sb.