(ifile_types
ParseObject
p0
(dp1
S'antagonists'
p2
c__builtin__
set
p3
((lp4
tp5
Rp6
sS'methods'
p7
g3
((lp8
S'Method.AGONIST'
p9
atp10
Rp11
sS'topics'
p12
g3
((lp13
S"(31, u'\\\\bobesity')"
p14
aS"(2, u'\\\\bappetite')"
p15
atp16
Rp17
sS'receptors'
p18
g3
((lp19
S'5ht5'
p20
aS'5ht2c'
p21
atp22
Rp23
sS'regions'
p24
g3
((lp25
S"(171, u'(?i)\\\\b(arcuates|arcuate)(-|\\\\s+)?(nuclei|nucleus)\\\\b')"
p26
atp27
Rp28
sS'year'
p29
V2016
p30
sS'agonists'
p31
g3
((lp32
S"(164, u'\\\\blorcaserin')"
p33
atp34
Rp35
sS'species'
p36
g3
((lp37
S"(163, u'(?i)\\\\b(mice|mouse)\\\\b')"
p38
atp39
Rp40
sb.