(ifile_types
ParseObject
p0
(dp1
S'antagonists'
p2
c__builtin__
set
p3
((lp4
S"(102, u'\\\\bfluoxetine')"
p5
atp6
Rp7
sS'methods'
p8
g3
((lp9
S'Method.AGONIST'
p10
atp11
Rp12
sS'topics'
p13
g3
((lp14
tp15
Rp16
sS'receptors'
p17
g3
((lp18
S'5ht1a'
p19
aS'5ht5'
p20
atp21
Rp22
sS'regions'
p23
g3
((lp24
S"(318, u'(?i)(raphes|raphe)(-|\\\\s+)?(nuclei|nucleus)')"
p25
aS"(94, u'(?i)(dorsals|dorsal)(-|\\\\s+)?(raphes|raphe)(-|\\\\s+)?(nuclei|nucleus)')"
p26
atp27
Rp28
sS'year'
p29
V2013
p30
sS'agonists'
p31
g3
((lp32
S"(92, u'\\\\b8 ?oh ?dpat')"
p33
aS"(87, u'\\\\bvilazodone')"
p34
atp35
Rp36
sS'species'
p37
g3
((lp38
S"(5958, u'(?i)(rats|rat)')"
p39
aS"(4163, u'(?i)(ermines|ermine)')"
p40
aS"(468, u'(?i)(oxen|ox)')"
p41
aS"(3592, u'(?i)(ravens|raven)')"
p42
aS"(7094, u'(?i)(curs|cur)')"
p43
aS"(1055, u'(?i)(men|man)')"
p44
aS"(6753, u'(?i)(da|das)')"
p45
aS"(6249, u'(?i)(ants|ant)')"
p46
aS"(3522, u'(?i)(tetras|tetra)')"
p47
aS"(6391, u'(?i)(asses|ass)')"
p48
aS"(3812, u'(?i)(studs|stud)')"
p49
aS"(1349, u'(?i)(rams|ram)')"
p50
aS"(6682, u'(?i)(tera|teras)')"
p51
atp52
Rp53
sb.