(ifile_types
ParseObject
p0
(dp1
S'antagonists'
p2
c__builtin__
set
p3
((lp4
tp5
Rp6
sS'methods'
p7
g3
((lp8
S'Method.KNOCKOUT'
p9
atp10
Rp11
sS'topics'
p12
g3
((lp13
S"(11, u'\\\\banxiolyt')"
p14
aS"(10, u'\\\\banxiety')"
p15
aS"(16, u'\\\\bfeed')"
p16
atp17
Rp18
sS'receptors'
p19
g3
((lp20
S'5ht1b'
p21
aS'5ht1a'
p22
aS'5ht5'
p23
aS'5ht1'
p24
atp25
Rp26
sS'regions'
p27
g3
((lp28
S"(318, u'(?i)(raphes|raphe)(-|\\\\s+)?(nuclei|nucleus)')"
p29
aS"(94, u'(?i)(dorsals|dorsal)(-|\\\\s+)?(raphes|raphe)(-|\\\\s+)?(nuclei|nucleus)')"
p30
aS"(34, u'(?i)(pon|pons)')"
p31
atp32
Rp33
sS'year'
p34
V2011
p35
sS'agonists'
p36
g3
((lp37
tp38
Rp39
sS'species'
p40
g3
((lp41
S"(5958, u'(?i)(rats|rat)')"
p42
aS"(163, u'(?i)(mice|mouse)')"
p43
aS"(6391, u'(?i)(asses|ass)')"
p44
aS"(6249, u'(?i)(ants|ant)')"
p45
aS"(468, u'(?i)(oxen|ox)')"
p46
aS"(1055, u'(?i)(men|man)')"
p47
aS"(3726, u'(?i)(mates|mate)')"
p48
aS"(3812, u'(?i)(studs|stud)')"
p49
aS"(3550, u'(?i)(anis|ani)')"
p50
aS"(1057, u'(?i)(humans|human)')"
p51
aS"(1961, u'(?i)(pens|pen)')"
p52
aS"(1414, u'(?i)(chars|char)')"
p53
aS"(3196, u'(?i)(human|humans)')"
p54
aS"(5743, u'(?i)(bots|bot)')"
p55
aS"(6356, u'(?i)(ais|ai)')"
p56
atp57
Rp58
sb.