(ifile_types
ParseObject
p0
(dp1
S'antagonists'
p2
c__builtin__
set
p3
((lp4
S"(54, u'\\\\britanserin')"
p5
aS"(130, u'\\\\britanserin')"
p6
atp7
Rp8
sS'methods'
p9
g3
((lp10
S'Method.ANTAGONIST'
p11
atp12
Rp13
sS'topics'
p14
g3
((lp15
tp16
Rp17
sS'receptors'
p18
g3
((lp19
S'5ht2c'
p20
aS'5ht2a'
p21
atp22
Rp23
sS'regions'
p24
g3
((lp25
S"(220, u'(?i)(striatums|striatum)')"
p26
atp27
Rp28
sS'year'
p29
V1999
p30
sS'agonists'
p31
g3
((lp32
tp33
Rp34
sS'species'
p35
g3
((lp36
S"(5958, u'(?i)(rats|rat)')"
p37
aS"(4979, u'(?i)(cats|cat)')"
p38
aS"(1055, u'(?i)(men|man)')"
p39
aS"(4964, u'(?i)(serins|serin)')"
p40
aS"(6249, u'(?i)(ants|ant)')"
p41
aS"(6356, u'(?i)(ais|ai)')"
p42
atp43
Rp44
sb.