(ifile_types
ParseObject
p0
(dp1
S'antagonists'
p2
c__builtin__
set
p3
((lp4
tp5
Rp6
sS'methods'
p7
g3
((lp8
tp9
Rp10
sS'topics'
p11
g3
((lp12
S"(19, u'\\\\bimpulsiv')"
p13
aS"(9, u'\\\\bdepress')"
p14
aS"(2, u'\\\\bappetite')"
p15
aS"(10, u'\\\\banxiety')"
p16
aS"(16, u'\\\\bfeed')"
p17
atp18
Rp19
sS'receptors'
p20
g3
((lp21
S'5ht1a'
p22
atp23
Rp24
sS'regions'
p25
g3
((lp26
tp27
Rp28
sS'year'
p29
V2012
p30
sS'agonists'
p31
g3
((lp32
tp33
Rp34
sS'species'
p35
g3
((lp36
S"(1070, u'(?i)(pets|pet)')"
p37
aS"(2568, u'(?i)(hens|hen)')"
p38
aS"(702, u'(?i)(genets|genet)')"
p39
aS"(867, u'(?i)(tits|tit)')"
p40
aS"(468, u'(?i)(oxen|ox)')"
p41
aS"(1055, u'(?i)(men|man)')"
p42
aS"(5131, u'(?i)(hags|hag)')"
p43
aS"(5743, u'(?i)(bots|bot)')"
p44
aS"(5958, u'(?i)(rats|rat)')"
p45
aS"(7094, u'(?i)(curs|cur)')"
p46
aS"(1961, u'(?i)(pens|pen)')"
p47
aS"(3247, u'(?i)(youngs|young)')"
p48
aS"(3048, u'(?i)(hogs|hog)')"
p49
aS"(6356, u'(?i)(ais|ai)')"
p50
atp51
Rp52
sb.