(ifile_types
ParseObject
p0
(dp1
S'antagonists'
p2
c__builtin__
set
p3
((lp4
S"(95, u'\\\\bsb ?206553')"
p5
aS"(61, u'\\\\bmdl ?100907')"
p6
aS"(123, u'\\\\bclozapine')"
p7
aS"(56, u'\\\\bclozapine')"
p8
atp9
Rp10
sS'methods'
p11
g3
((lp12
S'Method.ANTAGONIST'
p13
atp14
Rp15
sS'topics'
p16
g3
((lp17
S"(3, u'\\\\bsleep')"
p18
atp19
Rp20
sS'receptors'
p21
g3
((lp22
S'5ht2d'
p23
aS'5ht2b'
p24
aS'5ht2'
p25
aS'5ht2a'
p26
atp27
Rp28
sS'regions'
p29
g3
((lp30
S"(34, u'(?i)(pon|pons)')"
p31
atp32
Rp33
sS'year'
p34
V2016
p35
sS'agonists'
p36
g3
((lp37
S"(27, u'\\\\bclozapine')"
p38
atp39
Rp40
sS'species'
p41
g3
((lp42
S"(6753, u'(?i)(da|das)')"
p43
aS"(2568, u'(?i)(hens|hen)')"
p44
aS"(5958, u'(?i)(rats|rat)')"
p45
aS"(163, u'(?i)(mice|mouse)')"
p46
aS"(479, u'(?i)(lings|ling)')"
p47
aS"(1349, u'(?i)(rams|ram)')"
p48
aS"(6249, u'(?i)(ants|ant)')"
p49
aS"(1055, u'(?i)(men|man)')"
p50
aS"(5743, u'(?i)(bots|bot)')"
p51
aS"(3550, u'(?i)(anis|ani)')"
p52
aS"(663, u'(?i)(cocks|cock)')"
p53
aS"(3812, u'(?i)(studs|stud)')"
p54
aS"(6391, u'(?i)(asses|ass)')"
p55
aS"(6356, u'(?i)(ais|ai)')"
p56
atp57
Rp58
sb.