(ifile_types
ParseObject
p0
(dp1
S'antagonists'
p2
c__builtin__
set
p3
((lp4
tp5
Rp6
sS'methods'
p7
g3
((lp8
S'Method.AGONIST'
p9
atp10
Rp11
sS'topics'
p12
g3
((lp13
S"(22, u'\\\\bsuicide')"
p14
aS"(9, u'\\\\bdepress')"
p15
aS"(19, u'\\\\bimpulsiv')"
p16
atp17
Rp18
sS'receptors'
p19
g3
((lp20
S'5ht1a'
p21
atp22
Rp23
sS'regions'
p24
g3
((lp25
tp26
Rp27
sS'year'
p28
V2002
p29
sS'agonists'
p30
g3
((lp31
S"(39, u'\\\\bflesinoxan')"
p32
aS"(155, u'\\\\bmcpp')"
p33
aS"(163, u'\\\\bfenfluramine')"
p34
atp35
Rp36
sS'species'
p37
g3
((lp38
tp39
Rp40
sb.