(ifile_types
ParseObject
p0
(dp1
S'methods'
p2
c__builtin__
set
p3
((lp4
S'Method.AGONIST'
p5
atp6
Rp7
sS'topics'
p8
g3
((lp9
S"(14, u'\\\\bcogniti')"
p10
aS"(26, u'\\\\bbehav')"
p11
aS"(17, u'\\\\balzheimer')"
p12
aS"(4, u'\\\\btreatment')"
p13
atp14
Rp15
sS'receptors'
p16
g3
((lp17
(S'5ht4'
p18
I27
I32
tp19
a(S'5ht4'
p20
I380
I385
tp21
a(S'5ht4'
p22
I1177
I1182
tp23
a(S'5ht4'
p24
I133
I138
tp25
atp26
Rp27
sS'raw_text_methods'
p28
g3
((lp29
S"(13, u'\\\\bagonist')"
p30
atp31
Rp32
sS'regions'
p33
g3
((lp34
tp35
Rp36
sS'year'
p37
V2008
p38
sS'species'
p39
g3
((lp40
S"(4, u'(?i)\\\\b(rats|rat)\\\\b')"
p41
atp42
Rp43
sb.