(ifile_types
ParseObject
p0
(dp1
S'antagonists'
p2
c__builtin__
set
p3
((lp4
S"(21, u'\\\\bpindolol')"
p5
aS"(31, u'\\\\bway ?100635')"
p6
atp7
Rp8
sS'methods'
p9
g3
((lp10
S'Method.PET'
p11
aS'Method.ANTAGONIST'
p12
atp13
Rp14
sS'topics'
p15
g3
((lp16
tp17
Rp18
sS'receptors'
p19
g3
((lp20
S'5ht1a'
p21
atp22
Rp23
sS'regions'
p24
g3
((lp25
S"(71, u'(?i)\\\\b(cerebellums|cerebellum)\\\\b')"
p26
aS"(209, u'(?i)\\\\b(amygdalas|amygdala)\\\\b')"
p27
aS"(318, u'(?i)\\\\b(raphes|raphe)(-|\\\\s+)?(nuclei|nucleus)\\\\b')"
p28
aS"(362, u'(?i)\\\\b(brains|brain)(-|\\\\s+)?(stems|stem)\\\\b')"
p29
aS"(223, u'(?i)\\\\b(putamens|putamen)\\\\b')"
p30
aS"(218, u'(?i)\\\\b(claustrums|claustrum)\\\\b')"
p31
atp32
Rp33
sS'year'
p34
V1997
p35
sS'agonists'
p36
g3
((lp37
S"(20, u'\\\\bbuspirone')"
p38
aS"(85, u'\\\\b8 ?oh ?dpat')"
p39
atp40
Rp41
sS'species'
p42
g3
((lp43
S"(3152, u'(?i)\\\\b(layers|layer)\\\\b')"
p44
aS"(1057, u'(?i)\\\\b(humans|human)\\\\b')"
p45
aS"(1070, u'(?i)\\\\b(pets|pet)\\\\b')"
p46
aS"(3196, u'(?i)\\\\b(human|humans)\\\\b')"
p47
atp48
Rp49
sb.