(ifile_types
ParseObject
p0
(dp1
S'antagonists'
p2
c__builtin__
set
p3
((lp4
S"(140, u'\\\\brenzapride')"
p5
atp6
Rp7
sS'methods'
p8
g3
((lp9
S'Method.ANTAGONIST'
p10
aS'Method.AGONIST'
p11
atp12
Rp13
sS'topics'
p14
g3
((lp15
S"(5, u'\\\\bgastrointestin')"
p16
aS"(28, u'\\\\bemesis')"
p17
atp18
Rp19
sS'receptors'
p20
g3
((lp21
S'5ht5'
p22
aS'5ht4'
p23
aS'5ht3a'
p24
aS'5ht2'
p25
aS'5ht1'
p26
aS'5ht1a'
p27
aS'5ht4a'
p28
atp29
Rp30
sS'regions'
p31
g3
((lp32
S"(34, u'(?i)(pon|pons)')"
p33
atp34
Rp35
sS'year'
p36
V1993
p37
sS'agonists'
p38
g3
((lp39
S"(207, u'\\\\brenzapride')"
p40
aS"(202, u'\\\\bcisapride')"
p41
aS"(190, u'\\\\b2 ?methyl ?5 ?ht')"
p42
atp43
Rp44
sS'species'
p45
g3
((lp46
S"(4624, u'(?i)(apes|ape)')"
p47
aS"(4163, u'(?i)(ermines|ermine)')"
p48
aS"(5958, u'(?i)(rats|rat)')"
p49
aS"(4201, u'(?i)(kines|kine)')"
p50
aS"(6249, u'(?i)(ants|ant)')"
p51
aS"(479, u'(?i)(lings|ling)')"
p52
aS"(3051, u'(?i)(pigs|pig)')"
p53
aS"(468, u'(?i)(oxen|ox)')"
p54
aS"(1055, u'(?i)(men|man)')"
p55
aS"(5131, u'(?i)(hags|hag)')"
p56
aS"(3062, u'(?i)(guineas|guinea)')"
p57
aS"(5054, u'(?i)(gulls|gull)')"
p58
aS"(4208, u'(?i)(canines|canine)')"
p59
aS"(3550, u'(?i)(anis|ani)')"
p60
aS"(6356, u'(?i)(ais|ai)')"
p61
aS"(4480, u'(?i)(guineas|guinea)(-|\\\\s+)?(pigs|pig)')"
p62
aS"(5949, u'(?i)(dogs|dog)')"
p63
aS"(4133, u'(?i)(pikes|pike)')"
p64
atp65
Rp66
sb.