(ifile_types
ParseObject
p0
(dp1
S'methods'
p2
c__builtin__
set
p3
((lp4
S'Method.AGONIST'
p5
atp6
Rp7
sS'topics'
p8
g3
((lp9
tp10
Rp11
sS'receptors'
p12
g3
((lp13
(S'5ht1a'
p14
I1012
I1018
tp15
a(S'5ht1a'
p16
I67
I73
tp17
a(S'5ht1a'
p18
I192
I198
tp19
atp20
Rp21
sS'raw_text_methods'
p22
g3
((lp23
S"(13, u'\\\\bagonist')"
p24
aS"(15, u'\\\\b8ohdpat')"
p25
aS"(4, u'\\\\bpcpa')"
p26
atp27
Rp28
sS'regions'
p29
g3
((lp30
S"(4, u'(?i)\\\\b(presynaptics|presynaptic)\\\\b')"
p31
aS"(3, u'(?i)\\\\b(postsynaptics|postsynaptic)\\\\b')"
p32
atp33
Rp34
sS'year'
p35
V1987
p36
sS'species'
p37
g3
((lp38
S"(4, u'(?i)\\\\b(rats|rat)\\\\b')"
p39
atp40
Rp41
sb.