(ifile_types
ParseObject
p0
(dp1
S'methods'
p2
c__builtin__
set
p3
((lp4
S'Method.ANTAGONIST'
p5
aS'Method.AGONIST'
p6
atp7
Rp8
sS'topics'
p9
g3
((lp10
S"(9, u'\\\\bstress')"
p11
atp12
Rp13
sS'receptors'
p14
g3
((lp15
(S'5ht3'
p16
I73
I78
tp17
a(S'5ht2'
p18
I1746
I1751
tp19
a(S'5ht1'
p20
I1732
I1737
tp21
a(S'5ht3'
p22
I1756
I1761
tp23
a(S'5ht1a'
p24
I1871
I1877
tp25
a(S'5ht1'
p26
I212
I217
tp27
a(S'5ht2'
p28
I219
I224
tp29
a(S'5ht3'
p30
I965
I970
tp31
a(S'5ht1'
p32
I52
I57
tp33
a(S'5ht2'
p34
I903
I908
tp35
a(S'5ht3'
p36
I229
I234
tp37
a(S'5ht2'
p38
I61
I66
tp39
a(S'5ht1a'
p40
I1099
I1105
tp41
atp42
Rp43
sS'raw_text_methods'
p44
g3
((lp45
S"(53, u'\\\\bketanserin')"
p46
aS"(22, u'\\\\bbuspirone')"
p47
aS"(15, u'\\\\b8ohdpat')"
p48
aS"(36, u'\\\\bbenzodiazepine')"
p49
aS"(13, u'\\\\bagonist')"
p50
aS"(12, u'\\\\bantagonist')"
p51
atp52
Rp53
sS'regions'
p54
g3
((lp55
tp56
Rp57
sS'year'
p58
V1993
p59
sS'species'
p60
g3
((lp61
S"(4, u'(?i)\\\\b(rats|rat)\\\\b')"
p62
atp63
Rp64
sb.