(ifile_types
ParseObject
p0
(dp1
S'antagonists'
p2
c__builtin__
set
p3
((lp4
tp5
Rp6
sS'methods'
p7
g3
((lp8
S'Method.ANTAGONIST'
p9
aS'Method.AGONIST'
p10
atp11
Rp12
sS'topics'
p13
g3
((lp14
S"(21, u'\\\\bpain')"
p15
aS"(6, u'\\\\bcognit')"
p16
aS"(9, u'\\\\bdepress')"
p17
aS"(10, u'\\\\banxiety')"
p18
atp19
Rp20
sS'receptors'
p21
g3
((lp22
S'5ht1a'
p23
atp24
Rp25
sS'regions'
p26
g3
((lp27
tp28
Rp29
sS'year'
p30
V2017
p31
sS'agonists'
p32
g3
((lp33
tp34
Rp35
sS'species'
p36
g3
((lp37
S"(2323, u'(?i)(bees|bee)')"
p38
aS"(5958, u'(?i)(rats|rat)')"
p39
aS"(867, u'(?i)(tits|tit)')"
p40
aS"(6753, u'(?i)(da|das)')"
p41
aS"(1928, u'(?i)(bears|bear)')"
p42
aS"(479, u'(?i)(lings|ling)')"
p43
aS"(468, u'(?i)(oxen|ox)')"
p44
aS"(1055, u'(?i)(men|man)')"
p45
aS"(3404, u'(?i)(titis|titi)')"
p46
aS"(4979, u'(?i)(cats|cat)')"
p47
aS"(6249, u'(?i)(ants|ant)')"
p48
aS"(5229, u'(?i)(moles|mole)')"
p49
aS"(3812, u'(?i)(studs|stud)')"
p50
aS"(6356, u'(?i)(ais|ai)')"
p51
atp52
Rp53
sb.