(ifile_types
ParseObject
p0
(dp1
S'methods'
p2
c__builtin__
set
p3
((lp4
S'Method.ANTAGONIST'
p5
aS'Method.AGONIST'
p6
atp7
Rp8
sS'topics'
p9
g3
((lp10
tp11
Rp12
sS'receptors'
p13
g3
((lp14
(S'5ht1a'
p15
I91
I102
tp16
a(S'5ht1a'
p17
I1123
I1129
tp18
a(S'5ht1a'
p19
I1253
I1259
tp20
a(S'5ht1a'
p21
I1358
I1364
tp22
a(S'5ht1a'
p23
I477
I483
tp24
a(S'5ht1a'
p25
I188
I199
tp26
atp27
Rp28
sS'raw_text_methods'
p29
g3
((lp30
S"(13, u'\\\\bagonist')"
p31
aS"(12, u'\\\\bantagonist')"
p32
atp33
Rp34
sS'regions'
p35
g3
((lp36
tp37
Rp38
sS'year'
p39
V2000
p40
sS'species'
p41
g3
((lp42
tp43
Rp44
sb.