(ifile_types
ParseObject
p0
(dp1
S'methods'
p2
c__builtin__
set
p3
((lp4
S'Method.AGONIST'
p5
atp6
Rp7
sS'topics'
p8
g3
((lp9
S"(16, u'\\\\blearning')"
p10
aS"(4, u'\\\\btreatment')"
p11
aS"(15, u'\\\\bmemory')"
p12
atp13
Rp14
sS'receptors'
p15
g3
((lp16
(S'5ht4'
p17
I455
I460
tp18
atp19
Rp20
sS'raw_text_methods'
p21
g3
((lp22
S"(13, u'\\\\bagonist')"
p23
aS"(35, u'\\\\badenosine')"
p24
atp25
Rp26
sS'regions'
p27
g3
((lp28
S"(20, u'(?i)\\\\b(prefrontals|prefrontal)\\\\b')"
p29
aS"(19, u'(?i)\\\\b(cortexes|cortex)\\\\b')"
p30
atp31
Rp32
sS'year'
p33
V2012
p34
sS'species'
p35
g3
((lp36
S"(4, u'(?i)\\\\b(rats|rat)\\\\b')"
p37
atp38
Rp39
sb.