(ifile_types
ParseObject
p0
(dp1
S'antagonists'
p2
c__builtin__
set
p3
((lp4
tp5
Rp6
sS'methods'
p7
g3
((lp8
S'Method.STAINING'
p9
atp10
Rp11
sS'topics'
p12
g3
((lp13
S"(35, u'\\\\bstress')"
p14
aS"(16, u'\\\\bfeed')"
p15
atp16
Rp17
sS'receptors'
p18
g3
((lp19
S'5ht1a'
p20
atp21
Rp22
sS'regions'
p23
g3
((lp24
S"(203, u'(?i)\\\\b(dentates|dentate)(-|\\\\s+)?(gyruses|gyrus)\\\\b')"
p25
atp26
Rp27
sS'year'
p28
V2014
p29
sS'agonists'
p30
g3
((lp31
S"(85, u'\\\\b8 ?oh ?dpat')"
p32
atp33
Rp34
sS'species'
p35
g3
((lp36
S"(5967, u'(?i)\\\\b(males|male)\\\\b')"
p37
aS"(4091, u'(?i)\\\\b(adults|adult)\\\\b')"
p38
aS"(163, u'(?i)\\\\b(mice|mouse)\\\\b')"
p39
atp40
Rp41
sb.