(ifile_types
ParseObject
p0
(dp1
S'methods'
p2
c__builtin__
set
p3
((lp4
S'Method.ANTAGONIST'
p5
aS'Method.AGONIST'
p6
atp7
Rp8
sS'topics'
p9
g3
((lp10
tp11
Rp12
sS'receptors'
p13
g3
((lp14
(S'5ht1a'
p15
I865
I871
tp16
a(S'5ht1a'
p17
I686
I692
tp18
a(S'5ht1a'
p19
I956
I962
tp20
a(S'5ht1a'
p21
I50
I56
tp22
atp23
Rp24
sS'raw_text_methods'
p25
g3
((lp26
S"(23, u'\\\\bmdl')"
p27
aS"(22, u'\\\\bbuspirone')"
p28
aS"(15, u'\\\\b8ohdpat')"
p29
aS"(13, u'\\\\bagonist')"
p30
aS"(3, u'\\\\bimmunoreactiv')"
p31
aS"(12, u'\\\\bantagonist')"
p32
atp33
Rp34
sS'regions'
p35
g3
((lp36
S"(20, u'(?i)\\\\b(prefrontals|prefrontal)\\\\b')"
p37
aS"(19, u'(?i)\\\\b(cortexes|cortex)\\\\b')"
p38
aS"(23, u'(?i)\\\\b(forebrains|forebrain)\\\\b')"
p39
aS"(3, u'(?i)\\\\b(postsynaptics|postsynaptic)\\\\b')"
p40
atp41
Rp42
sS'year'
p43
V1999
p44
sS'species'
p45
g3
((lp46
S"(4, u'(?i)\\\\b(rats|rat)\\\\b')"
p47
atp48
Rp49
sb.