(ifile_types
ParseObject
p0
(dp1
S'antagonists'
p2
c__builtin__
set
p3
((lp4
S"(14, u'\\\\bmethiothepin')"
p5
aS"(21, u'\\\\bpindolol')"
p6
aS"(193, u'\\\\bmesulergine')"
p7
aS"(22, u'\\\\bpropranolol')"
p8
aS"(34, u'\\\\bmetergoline')"
p9
aS"(124, u'\\\\bondansetron')"
p10
aS"(33, u'\\\\byohimbine')"
p11
aS"(26, u'\\\\bspiperone')"
p12
aS"(194, u'\\\\bmethysergide')"
p13
atp14
Rp15
sS'methods'
p16
g3
((lp17
S'Method.ANTAGONIST'
p18
aS'Method.AGONIST'
p19
atp20
Rp21
sS'topics'
p22
g3
((lp23
tp24
Rp25
sS'receptors'
p26
g3
((lp27
S'5ht2'
p28
aS'5ht1d'
p29
atp30
Rp31
sS'regions'
p32
g3
((lp33
tp34
Rp35
sS'year'
p36
V1992
p37
sS'agonists'
p38
g3
((lp39
S"(96, u'\\\\bsumatriptan')"
p40
aS"(186, u'\\\\b2 ?methyl ?5 ?ht')"
p41
aS"(165, u'\\\\bmesulergine')"
p42
aS"(65, u'\\\\brauwolscine')"
p43
aS"(82, u'\\\\byohimbine')"
p44
aS"(53, u'\\\\bmethysergide')"
p45
aS"(98, u'\\\\b5 ?carboxamidotryptamine')"
p46
aS"(85, u'\\\\b8 ?oh ?dpat')"
p47
aS"(219, u'\\\\b5 ?ct')"
p48
atp49
Rp50
sS'species'
p51
g3
((lp52
S"(3051, u'(?i)\\\\b(pigs|pig)\\\\b')"
p53
aS"(4480, u'(?i)\\\\b(guineas|guinea)(-|\\\\s+)?(pigs|pig)\\\\b')"
p54
aS"(3062, u'(?i)\\\\b(guineas|guinea)\\\\b')"
p55
atp56
Rp57
sb.