(ifile_types
ParseObject
p0
(dp1
S'methods'
p2
c__builtin__
set
p3
((lp4
tp5
Rp6
sS'topics'
p7
g3
((lp8
S"(5, u'\\\\btherap')"
p9
aS"(7, u'\\\\bdepressi')"
p10
aS"(13, u'\\\\bantidepress')"
p11
aS"(4, u'\\\\btreatment')"
p12
atp13
Rp14
sS'receptors'
p15
g3
((lp16
(S'5ht1a'
p17
I1131
I1137
tp18
a(S'5ht1a'
p19
I315
I321
tp20
a(S'5ht1a'
p21
I78
I84
tp22
atp23
Rp24
sS'raw_text_methods'
p25
g3
((lp26
S"(15, u'\\\\b8ohdpat')"
p27
aS"(38, u'\\\\bssri')"
p28
aS"(39, u'\\\\bselective serotonin reuptake inhibitor')"
p29
atp30
Rp31
sS'regions'
p32
g3
((lp33
tp34
Rp35
sS'year'
p36
V2004
p37
sS'species'
p38
g3
((lp39
S"(4, u'(?i)\\\\b(rats|rat)\\\\b')"
p40
atp41
Rp42
sb.