(ifile_types
ParseObject
p0
(dp1
S'antagonists'
p2
c__builtin__
set
p3
((lp4
S"(40, u'\\\\bergotamine')"
p5
aS"(14, u'\\\\bmethiothepin')"
p6
atp7
Rp8
sS'methods'
p9
g3
((lp10
S'Method.ANTAGONIST'
p11
atp12
Rp13
sS'topics'
p14
g3
((lp15
tp16
Rp17
sS'receptors'
p18
g3
((lp19
S'5ht7'
p20
aS'5ht7c'
p21
atp22
Rp23
sS'regions'
p24
g3
((lp25
S"(209, u'(?i)\\\\b(amygdalas|amygdala)\\\\b')"
p26
aS"(126, u'(?i)\\\\b(thalamuses|thalamus)\\\\b')"
p27
aS"(103, u'(?i)\\\\b(substantias|substantia)(-|\\\\s+)?(nigras|nigra)\\\\b')"
p28
aS"(157, u'(?i)\\\\b(limbics|limbic)(-|\\\\s+)?(systems|system)\\\\b')"
p29
atp30
Rp31
sS'year'
p32
V1996
p33
sS'agonists'
p34
g3
((lp35
S"(33, u'\\\\bergotamine')"
p36
aS"(219, u'\\\\b5 ?ct')"
p37
atp38
Rp39
sS'species'
p40
g3
((lp41
S"(3152, u'(?i)\\\\b(layers|layer)\\\\b')"
p42
aS"(4177, u'(?i)\\\\b(grays|gray)\\\\b')"
p43
aS"(5958, u'(?i)\\\\b(rats|rat)\\\\b')"
p44
atp45
Rp46
sb.