(ifile_types
ParseObject
p0
(dp1
S'antagonists'
p2
c__builtin__
set
p3
((lp4
S"(204, u'\\\\bsb ?269970')"
p5
atp6
Rp7
sS'methods'
p8
g3
((lp9
S'Method.ANTAGONIST'
p10
aS'Method.AGONIST'
p11
atp12
Rp13
sS'topics'
p14
g3
((lp15
S"(9, u'\\\\bdepress')"
p16
aS"(30, u'\\\\bparkinsons')"
p17
atp18
Rp19
sS'receptors'
p20
g3
((lp21
S'5ht7'
p22
atp23
Rp24
sS'regions'
p25
g3
((lp26
S"(121, u'(?i)(habenulars|habenular)(-|\\\\s+)?(nuclei|nucleus)')"
p27
aS"(254, u'(?i)(prefrontals|prefrontal)(-|\\\\s+)?(cortexes|cortex)')"
p28
aS"(255, u'(?i)(pres|pre)(-|\\\\s+)?(frontals|frontal)(-|\\\\s+)?(cortexes|cortex)')"
p29
aS"(34, u'(?i)(pon|pons)')"
p30
aS"(104, u'(?i)(par|pars)(-|\\\\s+)?(compactas|compacta)')"
p31
aS"(103, u'(?i)(substantias|substantia)(-|\\\\s+)?(nigras|nigra)')"
p32
atp33
Rp34
sS'year'
p35
V2016
p36
sS'agonists'
p37
g3
((lp38
S"(226, u'\\\\bas ?19')"
p39
atp40
Rp41
sS'species'
p42
g3
((lp43
S"(5537, u'(?i)(hippos|hippo)')"
p44
aS"(2568, u'(?i)(hens|hen)')"
p45
aS"(6682, u'(?i)(tera|teras)')"
p46
aS"(6249, u'(?i)(ants|ant)')"
p47
aS"(468, u'(?i)(oxen|ox)')"
p48
aS"(3726, u'(?i)(mates|mate)')"
p49
aS"(4979, u'(?i)(cats|cat)')"
p50
aS"(5958, u'(?i)(rats|rat)')"
p51
aS"(3812, u'(?i)(studs|stud)')"
p52
aS"(2809, u'(?i)(toms|tom)')"
p53
aS"(6356, u'(?i)(ais|ai)')"
p54
atp55
Rp56
sb.