(ifile_types
ParseObject
p0
(dp1
S'antagonists'
p2
c__builtin__
set
p3
((lp4
S"(140, u'\\\\brenzapride')"
p5
aS"(31, u'\\\\bway ?100135')"
p6
aS"(136, u'\\\\btropisetron')"
p7
aS"(4, u'\\\\bbmy ?7378')"
p8
atp9
Rp10
sS'methods'
p11
g3
((lp12
S'Method.STIMULATION'
p13
aS'Method.ANTAGONIST'
p14
aS'Method.AGONIST'
p15
atp16
Rp17
sS'topics'
p18
g3
((lp19
tp20
Rp21
sS'receptors'
p22
g3
((lp23
S'5ht1a'
p24
aS'5ht3'
p25
aS'5ht2'
p26
aS'5ht5'
p27
aS'5ht4a'
p28
aS'5ht3a'
p29
atp30
Rp31
sS'regions'
p32
g3
((lp33
tp34
Rp35
sS'year'
p36
V1995
p37
sS'agonists'
p38
g3
((lp39
S"(207, u'\\\\brenzapride')"
p40
aS"(92, u'\\\\b8 ?oh ?dpat')"
p41
aS"(190, u'\\\\b2 ?methyl ?5 ?ht')"
p42
atp43
Rp44
sS'species'
p45
g3
((lp46
S"(5537, u'(?i)(hippos|hippo)')"
p47
aS"(6753, u'(?i)(da|das)')"
p48
aS"(5958, u'(?i)(rats|rat)')"
p49
aS"(5743, u'(?i)(bots|bot)')"
p50
aS"(3592, u'(?i)(ravens|raven)')"
p51
aS"(7094, u'(?i)(curs|cur)')"
p52
aS"(1055, u'(?i)(men|man)')"
p53
aS"(4979, u'(?i)(cats|cat)')"
p54
aS"(6249, u'(?i)(ants|ant)')"
p55
aS"(1961, u'(?i)(pens|pen)')"
p56
aS"(6356, u'(?i)(ais|ai)')"
p57
aS"(1349, u'(?i)(rams|ram)')"
p58
aS"(821, u'(?i)(lice|louse)')"
p59
atp60
Rp61
sb.