(ifile_types
ParseObject
p0
(dp1
S'methods'
p2
c__builtin__
set
p3
((lp4
S'Method.AGONIST'
p5
atp6
Rp7
sS'topics'
p8
g3
((lp9
S"(13, u'\\\\bantidepress')"
p10
aS"(26, u'\\\\bbehav')"
p11
aS"(4, u'\\\\btreatment')"
p12
atp13
Rp14
sS'receptors'
p15
g3
((lp16
(S'5ht1a'
p17
I73
I84
tp18
a(S'5ht1'
p19
I2017
I2022
tp20
a(S'5ht1a'
p21
I2074
I2080
tp22
a(S'5ht1a'
p23
I736
I742
tp24
a(S'5ht1'
p25
I626
I631
tp26
a(S'5ht1a'
p27
I379
I385
tp28
a(S'5ht1a'
p29
I343
I354
tp30
a(S'5ht1a'
p31
I525
I531
tp32
a(S'5ht1a'
p33
I2870
I2876
tp34
a(S'5ht1'
p35
I2685
I2690
tp36
a(S'5ht1a'
p37
I1227
I1233
tp38
atp39
Rp40
sS'raw_text_methods'
p41
g3
((lp42
S"(54, u'\\\\bautoradiography')"
p43
atp44
Rp45
sS'regions'
p46
g3
((lp47
tp48
Rp49
sS'year'
p50
V1991
p51
sS'species'
p52
g3
((lp53
S"(4, u'(?i)\\\\b(rats|rat)\\\\b')"
p54
atp55
Rp56
sb.