(ifile_types
ParseObject
p0
(dp1
S'methods'
p2
c__builtin__
set
p3
((lp4
S'Method.ANTAGONIST'
p5
atp6
Rp7
sS'topics'
p8
g3
((lp9
S"(22, u'\\\\bschizophreni')"
p10
aS"(14, u'\\\\bcogniti')"
p11
aS"(2, u'\\\\bdisorder')"
p12
aS"(20, u'\\\\bmood')"
p13
aS"(23, u'\\\\bantipsychotic')"
p14
aS"(1, u'\\\\bpatient')"
p15
aS"(3, u'\\\\bclinical')"
p16
atp17
Rp18
sS'receptors'
p19
g3
((lp20
(S'5ht1a'
p21
I1237
I1243
tp22
a(S'5ht1a'
p23
I1867
I1873
tp24
a(S'5ht1a'
p25
I748
I754
tp26
atp27
Rp28
sS'raw_text_methods'
p29
g3
((lp30
S"(41, u'\\\\bhaloperidol')"
p31
aS"(40, u'\\\\bclozapine')"
p32
aS"(51, u'\\\\bway100635')"
p33
aS"(12, u'\\\\bantagonist')"
p34
atp35
Rp36
sS'regions'
p37
g3
((lp38
S"(20, u'(?i)\\\\b(prefrontals|prefrontal)\\\\b')"
p39
aS"(21, u'(?i)\\\\b(mpfcs|mpfc)\\\\b')"
p40
aS"(19, u'(?i)\\\\b(cortexes|cortex)\\\\b')"
p41
atp42
Rp43
sS'year'
p44
V2005
p45
sS'species'
p46
g3
((lp47
S"(4, u'(?i)\\\\b(rats|rat)\\\\b')"
p48
atp49
Rp50
sb.