(ifile_types
ParseObject
p0
(dp1
S'methods'
p2
c__builtin__
set
p3
((lp4
tp5
Rp6
sS'topics'
p7
g3
((lp8
S"(7, u'\\\\bdepressi')"
p9
aS"(4, u'\\\\btreatment')"
p10
atp11
Rp12
sS'receptors'
p13
g3
((lp14
(S'5ht2'
p15
I1870
I1875
tp16
a(S'5ht2'
p17
I2856
I2861
tp18
a(S'5ht2'
p19
I984
I989
tp20
a(S'5ht2a'
p21
I342
I348
tp22
a(S'5ht2'
p23
I360
I365
tp24
atp25
Rp26
sS'raw_text_methods'
p27
g3
((lp28
tp29
Rp30
sS'regions'
p31
g3
((lp32
tp33
Rp34
sS'year'
p35
V2016
p36
sS'species'
p37
g3
((lp38
S"(4, u'(?i)\\\\b(rats|rat)\\\\b')"
p39
atp40
Rp41
sb.