(ifile_types
ParseObject
p0
(dp1
S'methods'
p2
c__builtin__
set
p3
((lp4
S'Method.ANTAGONIST'
p5
atp6
Rp7
sS'topics'
p8
g3
((lp9
S"(29, u'\\\\bhyperactiv')"
p10
aS"(33, u'\\\\blocomot')"
p11
atp12
Rp13
sS'receptors'
p14
g3
((lp15
(S'5ht2a'
p16
I1538
I1544
tp17
a(S'5ht2a'
p18
I37
I48
tp19
a(S'5ht2a'
p20
I714
I720
tp21
a(S'5ht2a'
p22
I701
I712
tp23
atp24
Rp25
sS'raw_text_methods'
p26
g3
((lp27
S"(12, u'\\\\bantagonist')"
p28
atp29
Rp30
sS'regions'
p31
g3
((lp32
S"(20, u'(?i)\\\\b(prefrontals|prefrontal)\\\\b')"
p33
aS"(19, u'(?i)\\\\b(cortexes|cortex)\\\\b')"
p34
atp35
Rp36
sS'year'
p37
V2004
p38
sS'species'
p39
g3
((lp40
S"(6, u'(?i)\\\\b(rodents|rodent)\\\\b')"
p41
atp42
Rp43
sb.