(ifile_types
ParseObject
p0
(dp1
S'methods'
p2
c__builtin__
set
p3
((lp4
S'Method.ANTAGONIST'
p5
aS'Method.AGONIST'
p6
atp7
Rp8
sS'topics'
p9
g3
((lp10
tp11
Rp12
sS'receptors'
p13
g3
((lp14
(S'5ht1a'
p15
I67
I73
tp16
a(S'5ht1a'
p17
I1738
I1744
tp18
a(S'5ht1a'
p19
I860
I866
tp20
a(S'5ht1a'
p21
I648
I654
tp22
a(S'5ht1a'
p23
I1842
I1848
tp24
a(S'5ht1a'
p25
I254
I260
tp26
atp27
Rp28
sS'raw_text_methods'
p29
g3
((lp30
S"(13, u'\\\\bagonist')"
p31
aS"(15, u'\\\\b8ohdpat')"
p32
aS"(12, u'\\\\bantagonist')"
p33
atp34
Rp35
sS'regions'
p36
g3
((lp37
S"(20, u'(?i)\\\\b(prefrontals|prefrontal)\\\\b')"
p38
aS"(21, u'(?i)\\\\b(mpfcs|mpfc)\\\\b')"
p39
aS"(19, u'(?i)\\\\b(cortexes|cortex)\\\\b')"
p40
aS"(16, u'(?i)\\\\b(drns|drn)\\\\b')"
p41
aS"(3, u'(?i)\\\\b(postsynaptics|postsynaptic)\\\\b')"
p42
atp43
Rp44
sS'year'
p45
V1999
p46
sS'species'
p47
g3
((lp48
S"(4, u'(?i)\\\\b(rats|rat)\\\\b')"
p49
atp50
Rp51
sb.