(ifile_types
ParseObject
p0
(dp1
S'methods'
p2
c__builtin__
set
p3
((lp4
tp5
Rp6
sS'topics'
p7
g3
((lp8
tp9
Rp10
sS'receptors'
p11
g3
((lp12
(S'5ht2'
p13
I505
I510
tp14
a(S'5ht2'
p15
I1082
I1087
tp16
a(S'5ht2'
p17
I409
I414
tp18
a(S'5ht2'
p19
I273
I278
tp20
a(S'5ht2'
p21
I670
I675
tp22
a(S'5ht2'
p23
I1126
I1131
tp24
a(S'5ht2'
p25
I1212
I1217
tp26
a(S'5ht2'
p27
I1023
I1028
tp28
a(S'5ht2'
p29
I891
I896
tp30
a(S'5ht2'
p31
I646
I651
tp32
atp33
Rp34
sS'raw_text_methods'
p35
g3
((lp36
tp37
Rp38
sS'regions'
p39
g3
((lp40
S"(12, u'(?i)\\\\b(amygdalas|amygdala)\\\\b')"
p41
aS"(17, u'(?i)\\\\b(caudates|caudate)\\\\b')"
p42
atp43
Rp44
sS'year'
p45
V2000
p46
sS'species'
p47
g3
((lp48
tp49
Rp50
sb.