(ifile_types
ParseObject
p0
(dp1
S'methods'
p2
c__builtin__
set
p3
((lp4
S'Method.ANTAGONIST'
p5
aS'Method.AGONIST'
p6
atp7
Rp8
sS'topics'
p9
g3
((lp10
tp11
Rp12
sS'receptors'
p13
g3
((lp14
(S'5ht1a'
p15
I273
I279
tp16
a(S'5ht1b'
p17
I306
I312
tp18
a(S'5ht1a'
p19
I858
I864
tp20
a(S'5ht1a'
p21
I69
I75
tp22
a(S'5ht1a'
p23
I587
I593
tp24
a(S'5ht1b'
p25
I80
I86
tp26
atp27
Rp28
sS'raw_text_methods'
p29
g3
((lp30
S"(13, u'\\\\bagonist')"
p31
aS"(15, u'\\\\b8ohdpat')"
p32
aS"(12, u'\\\\bantagonist')"
p33
atp34
Rp35
sS'regions'
p36
g3
((lp37
tp38
Rp39
sS'year'
p40
V2000
p41
sS'species'
p42
g3
((lp43
S"(4, u'(?i)\\\\b(rats|rat)\\\\b')"
p44
atp45
Rp46
sb.