(ifile_types
ParseObject
p0
(dp1
S'methods'
p2
c__builtin__
set
p3
((lp4
tp5
Rp6
sS'topics'
p7
g3
((lp8
S"(26, u'\\\\bbehav')"
p9
atp10
Rp11
sS'receptors'
p12
g3
((lp13
(S'5ht1a'
p14
I36
I42
tp15
atp16
Rp17
sS'raw_text_methods'
p18
g3
((lp19
S"(15, u'\\\\b8ohdpat')"
p20
atp21
Rp22
sS'regions'
p23
g3
((lp24
tp25
Rp26
sS'year'
p27
V2004
p28
sS'species'
p29
g3
((lp30
S"(2, u'(?i)\\\\b(females|female)\\\\b')"
p31
aS"(4, u'(?i)\\\\b(rats|rat)\\\\b')"
p32
atp33
Rp34
sb.