(ifile_types
ParseObject
p0
(dp1
S'antagonists'
p2
c__builtin__
set
p3
((lp4
S"(53, u'\\\\bketanserin')"
p5
aS"(200, u'\\\\bmesulergine')"
p6
aS"(52, u'\\\\bmetergoline')"
p7
aS"(105, u'\\\\bmethysergide')"
p8
aS"(128, u'\\\\bketanserin')"
p9
aS"(22, u'\\\\bpropranolol')"
p10
aS"(14, u'\\\\bmethiothepin')"
p11
aS"(117, u'\\\\bmianserin')"
p12
aS"(35, u'\\\\bmetergoline')"
p13
atp14
Rp15
sS'methods'
p16
g3
((lp17
S'Method.ANTAGONIST'
p18
aS'Method.AGONIST'
p19
atp20
Rp21
sS'topics'
p22
g3
((lp23
S"(25, u'\\\\bvasoconstrict')"
p24
atp25
Rp26
sS'receptors'
p27
g3
((lp28
S'5ht1c'
p29
aS'5ht1b'
p30
aS'5ht5'
p31
aS'5ht3'
p32
aS'5ht2'
p33
aS'5ht1'
p34
aS'5ht1d'
p35
aS'5ht2a'
p36
atp37
Rp38
sS'regions'
p39
g3
((lp40
S"(34, u'(?i)(pon|pons)')"
p41
atp42
Rp43
sS'year'
p44
V1991
p45
sS'agonists'
p46
g3
((lp47
S"(74, u'\\\\bru ?24969')"
p48
aS"(105, u'\\\\b5 ?carboxamidotryptamine')"
p49
aS"(5, u'\\\\b5 ?ct')"
p50
aS"(190, u'\\\\b2 ?methyl ?5 ?ht')"
p51
aS"(60, u'\\\\bmethysergide')"
p52
aS"(171, u'\\\\bmesulergine')"
p53
aS"(92, u'\\\\b8 ?oh ?dpat')"
p54
aS"(155, u'\\\\bmem')"
p55
atp56
Rp57
sS'species'
p58
g3
((lp59
S"(2323, u'(?i)(bees|bee)')"
p60
aS"(2670, u'(?i)(arabs|arab)')"
p61
aS"(5958, u'(?i)(rats|rat)')"
p62
aS"(6753, u'(?i)(da|das)')"
p63
aS"(468, u'(?i)(oxen|ox)')"
p64
aS"(1055, u'(?i)(men|man)')"
p65
aS"(4964, u'(?i)(serins|serin)')"
p66
aS"(6249, u'(?i)(ants|ant)')"
p67
aS"(3522, u'(?i)(tetras|tetra)')"
p68
aS"(1057, u'(?i)(humans|human)')"
p69
aS"(1414, u'(?i)(chars|char)')"
p70
aS"(3196, u'(?i)(human|humans)')"
p71
aS"(6325, u'(?i)(caudates|caudate)')"
p72
aS"(3426, u'(?i)(hares|hare)')"
p73
atp74
Rp75
sb.