(ifile_types
ParseObject
p0
(dp1
S'antagonists'
p2
c__builtin__
set
p3
((lp4
S"(32, u'\\\\bway ?100635')"
p5
atp6
Rp7
sS'methods'
p8
g3
((lp9
S'Method.ANTAGONIST'
p10
aS'Method.AGONIST'
p11
atp12
Rp13
sS'topics'
p14
g3
((lp15
tp16
Rp17
sS'receptors'
p18
g3
((lp19
S'5ht1a'
p20
atp21
Rp22
sS'regions'
p23
g3
((lp24
S"(34, u'(?i)(pon|pons)')"
p25
atp26
Rp27
sS'year'
p28
V1996
p29
sS'agonists'
p30
g3
((lp31
S"(92, u'\\\\b8 ?oh ?dpat')"
p32
atp33
Rp34
sS'species'
p35
g3
((lp36
S"(5537, u'(?i)(hippos|hippo)')"
p37
aS"(2568, u'(?i)(hens|hen)')"
p38
aS"(6753, u'(?i)(da|das)')"
p39
aS"(468, u'(?i)(oxen|ox)')"
p40
aS"(6249, u'(?i)(ants|ant)')"
p41
aS"(5743, u'(?i)(bots|bot)')"
p42
aS"(5958, u'(?i)(rats|rat)')"
p43
aS"(3522, u'(?i)(tetras|tetra)')"
p44
aS"(6391, u'(?i)(asses|ass)')"
p45
atp46
Rp47
sb.