(ifile_types
ParseObject
p0
(dp1
S'methods'
p2
c__builtin__
set
p3
((lp4
S'Method.ANTAGONIST'
p5
atp6
Rp7
sS'topics'
p8
g3
((lp9
tp10
Rp11
sS'receptors'
p12
g3
((lp13
(S'5ht1a'
p14
I1112
I1118
tp15
a(S'5ht1a'
p16
I132
I138
tp17
a(S'5ht1a'
p18
I216
I222
tp19
a(S'5ht1a'
p20
I406
I412
tp21
a(S'5ht1a'
p22
I578
I584
tp23
a(S'5ht1a'
p24
I445
I451
tp25
a(S'5ht1a'
p26
I872
I878
tp27
atp28
Rp29
sS'raw_text_methods'
p30
g3
((lp31
S"(12, u'\\\\bantagonist')"
p32
atp33
Rp34
sS'regions'
p35
g3
((lp36
S"(20, u'(?i)\\\\b(prefrontals|prefrontal)\\\\b')"
p37
aS"(19, u'(?i)\\\\b(cortexes|cortex)\\\\b')"
p38
aS"(4, u'(?i)\\\\b(presynaptics|presynaptic)\\\\b')"
p39
aS"(3, u'(?i)\\\\b(postsynaptics|postsynaptic)\\\\b')"
p40
atp41
Rp42
sS'year'
p43
V2001
p44
sS'species'
p45
g3
((lp46
S"(4, u'(?i)\\\\b(rats|rat)\\\\b')"
p47
atp48
Rp49
sb.