(ifile_types
ParseObject
p0
(dp1
S'antagonists'
p2
c__builtin__
set
p3
((lp4
S"(209, u'\\\\btfmpp')"
p5
aS"(17, u'\\\\bnan ?190')"
p6
atp7
Rp8
sS'methods'
p9
g3
((lp10
S'Method.ANTAGONIST'
p11
aS'Method.AGONIST'
p12
atp13
Rp14
sS'topics'
p15
g3
((lp16
S"(11, u'\\\\banxiolyt')"
p17
atp18
Rp19
sS'receptors'
p20
g3
((lp21
S'5ht5'
p22
aS'5ht1a'
p23
aS'5ht1'
p24
atp25
Rp26
sS'regions'
p27
g3
((lp28
S"(389, u'(?i)(cerebrospinals|cerebrospinal)(-|\\\\s+)?(fluids|fluid)')"
p29
atp30
Rp31
sS'year'
p32
V1992
p33
sS'agonists'
p34
g3
((lp35
S"(161, u'\\\\bmcpp')"
p36
aS"(74, u'\\\\bru ?24969')"
p37
aS"(92, u'\\\\b8 ?oh ?dpat')"
p38
aS"(183, u'\\\\btfmpp')"
p39
atp40
Rp41
sS'species'
p42
g3
((lp43
S"(2568, u'(?i)(hens|hen)')"
p44
aS"(3051, u'(?i)(pigs|pig)')"
p45
aS"(468, u'(?i)(oxen|ox)')"
p46
aS"(7094, u'(?i)(curs|cur)')"
p47
aS"(4979, u'(?i)(cats|cat)')"
p48
aS"(6249, u'(?i)(ants|ant)')"
p49
aS"(3522, u'(?i)(tetras|tetra)')"
p50
aS"(6391, u'(?i)(asses|ass)')"
p51
aS"(1312, u'(?i)(pigeons|pigeon)')"
p52
atp53
Rp54
sb.