(ifile_types
ParseObject
p0
(dp1
S'methods'
p2
c__builtin__
set
p3
((lp4
S'Method.ANTAGONIST'
p5
aS'Method.AGONIST'
p6
atp7
Rp8
sS'topics'
p9
g3
((lp10
S"(26, u'\\\\bbehav')"
p11
aS"(7, u'\\\\bdepressi')"
p12
aS"(13, u'\\\\bantidepress')"
p13
aS"(34, u'\\\\bparkinson')"
p14
atp15
Rp16
sS'receptors'
p17
g3
((lp18
(S'5ht1a'
p19
I407
I413
tp20
a(S'5ht1a'
p21
I1798
I1804
tp22
a(S'5ht1a'
p23
I1610
I1616
tp24
a(S'5ht1a'
p25
I1019
I1024
tp26
a(S'5ht1a'
p27
I664
I670
tp28
a(S'5ht1a'
p29
I1278
I1283
tp30
a(S'5ht1a'
p31
I52
I58
tp32
a(S'5ht1a'
p33
I742
I748
tp34
atp35
Rp36
sS'raw_text_methods'
p37
g3
((lp38
S"(13, u'\\\\bagonist')"
p39
aS"(15, u'\\\\b8ohdpat')"
p40
aS"(32, u'\\\\blesions')"
p41
aS"(51, u'\\\\bway100635')"
p42
aS"(12, u'\\\\bantagonist')"
p43
atp44
Rp45
sS'regions'
p46
g3
((lp47
S"(20, u'(?i)\\\\b(prefrontals|prefrontal)\\\\b')"
p48
aS"(19, u'(?i)\\\\b(cortexes|cortex)\\\\b')"
p49
aS"(23, u'(?i)\\\\b(forebrains|forebrain)\\\\b')"
p50
atp51
Rp52
sS'year'
p53
V2014
p54
sS'species'
p55
g3
((lp56
S"(4, u'(?i)\\\\b(rats|rat)\\\\b')"
p57
atp58
Rp59
sb.