(ifile_types
ParseObject
p0
(dp1
S'methods'
p2
c__builtin__
set
p3
((lp4
S'Method.PET'
p5
atp6
Rp7
sS'topics'
p8
g3
((lp9
S"(18, u'\\\\bavoidan')"
p10
aS"(8, u'\\\\banxi')"
p11
atp12
Rp13
sS'receptors'
p14
g3
((lp15
(S'5ht1a'
p16
I1842
I1848
tp17
a(S'5ht1a'
p18
I950
I956
tp19
a(S'5ht1a'
p20
I1408
I1414
tp21
a(S'5ht1a'
p22
I112
I118
tp23
atp24
Rp25
sS'raw_text_methods'
p26
g3
((lp27
S"(17, u'\\\\bpet')"
p28
atp29
Rp30
sS'regions'
p31
g3
((lp32
S"(22, u'(?i)\\\\b(anteriors|anterior)(-|\\\\s+)?(cingulates|cingulate)\\\\b')"
p33
aS"(19, u'(?i)\\\\b(cortexes|cortex)\\\\b')"
p34
aS"(12, u'(?i)\\\\b(amygdalas|amygdala)\\\\b')"
p35
atp36
Rp37
sS'year'
p38
V2013
p39
sS'species'
p40
g3
((lp41
S"(2, u'(?i)\\\\b(females|female)\\\\b')"
p42
atp43
Rp44
sb.