(ifile_types
ParseObject
p0
(dp1
S'methods'
p2
c__builtin__
set
p3
((lp4
S'Method.ANTAGONIST'
p5
atp6
Rp7
sS'topics'
p8
g3
((lp9
S"(8, u'\\\\banxi')"
p10
aS"(3, u'\\\\bclinical')"
p11
aS"(4, u'\\\\btreatment')"
p12
aS"(2, u'\\\\bdisorder')"
p13
atp14
Rp15
sS'receptors'
p16
g3
((lp17
(S'5ht2c'
p18
I726
I734
tp19
a(S'5ht2a'
p20
I726
I732
tp21
a(S'5ht5'
p22
I241
I251
tp23
a(S'5ht1a'
p24
I626
I632
tp25
atp26
Rp27
sS'raw_text_methods'
p28
g3
((lp29
S"(39, u'\\\\bselective serotonin reuptake inhibitor')"
p30
aS"(12, u'\\\\bantagonist')"
p31
atp32
Rp33
sS'regions'
p34
g3
((lp35
tp36
Rp37
sS'year'
p38
V1996
p39
sS'species'
p40
g3
((lp41
tp42
Rp43
sb.