(ifile_types
ParseObject
p0
(dp1
S'antagonists'
p2
c__builtin__
set
p3
((lp4
tp5
Rp6
sS'methods'
p7
g3
((lp8
S'Method.KNOCKOUT'
p9
aS'Method.ANTAGONIST'
p10
atp11
Rp12
sS'topics'
p13
g3
((lp14
S"(9, u'\\\\bdepress')"
p15
aS"(3, u'\\\\bsleep')"
p16
aS"(16, u'\\\\bfeed')"
p17
aS"(11, u'\\\\banxiolyt')"
p18
atp19
Rp20
sS'receptors'
p21
g3
((lp22
S'5ht1b'
p23
aS'5ht1a'
p24
atp25
Rp26
sS'regions'
p27
g3
((lp28
tp29
Rp30
sS'year'
p31
V2005
p32
sS'agonists'
p33
g3
((lp34
S"(33, u'\\\\bdoi')"
p35
atp36
Rp37
sS'species'
p38
g3
((lp39
S"(4624, u'(?i)(apes|ape)')"
p40
aS"(2183, u'(?i)(gars|gar)')"
p41
aS"(7094, u'(?i)(curs|cur)')"
p42
aS"(6356, u'(?i)(ais|ai)')"
p43
aS"(6249, u'(?i)(ants|ant)')"
p44
aS"(5229, u'(?i)(moles|mole)')"
p45
aS"(3812, u'(?i)(studs|stud)')"
p46
aS"(6391, u'(?i)(asses|ass)')"
p47
aS"(702, u'(?i)(genets|genet)')"
p48
aS"(479, u'(?i)(lings|ling)')"
p49
aS"(468, u'(?i)(oxen|ox)')"
p50
aS"(3550, u'(?i)(anis|ani)')"
p51
aS"(2809, u'(?i)(toms|tom)')"
p52
aS"(5537, u'(?i)(hippos|hippo)')"
p53
aS"(5958, u'(?i)(rats|rat)')"
p54
aS"(867, u'(?i)(tits|tit)')"
p55
aS"(163, u'(?i)(mice|mouse)')"
p56
aS"(6682, u'(?i)(tera|teras)')"
p57
aS"(1055, u'(?i)(men|man)')"
p58
aS"(2334, u'(?i)(eels|eel)')"
p59
aS"(5176, u'(?i)(tegs|teg)')"
p60
aS"(2323, u'(?i)(bees|bee)')"
p61
aS"(6215, u'(?i)(racers|racer)')"
p62
aS"(853, u'(?i)(minas|mina)')"
p63
aS"(1054, u'(?i)(homoes|homo)')"
p64
aS"(5917, u'(?i)(roaches|roach)')"
p65
atp66
Rp67
sb.