(ifile_types
ParseObject
p0
(dp1
S'methods'
p2
c__builtin__
set
p3
((lp4
S'Method.ANTAGONIST'
p5
aS'Method.AGONIST'
p6
atp7
Rp8
sS'topics'
p9
g3
((lp10
S"(28, u'\\\\bgastrointestin')"
p11
aS"(13, u'\\\\bantidepress')"
p12
aS"(2, u'\\\\bdisorder')"
p13
aS"(27, u'\\\\bdyskinesia')"
p14
aS"(32, u'\\\\bvomit')"
p15
aS"(30, u'\\\\bpain')"
p16
aS"(1, u'\\\\bpatient')"
p17
aS"(4, u'\\\\btreatment')"
p18
aS"(3, u'\\\\bclinical')"
p19
atp20
Rp21
sS'receptors'
p22
g3
((lp23
(S'5ht3'
p24
I1538
I1543
tp25
a(S'5ht4'
p26
I1564
I1569
tp27
atp28
Rp29
sS'raw_text_methods'
p30
g3
((lp31
S"(13, u'\\\\bagonist')"
p32
aS"(12, u'\\\\bantagonist')"
p33
atp34
Rp35
sS'regions'
p36
g3
((lp37
tp38
Rp39
sS'year'
p40
V2016
p41
sS'species'
p42
g3
((lp43
tp44
Rp45
sb.