(ifile_types
ParseObject
p0
(dp1
S'antagonists'
p2
c__builtin__
set
p3
((lp4
S"(53, u'\\\\bketanserin')"
p5
aS"(128, u'\\\\bketanserin')"
p6
atp7
Rp8
sS'methods'
p9
g3
((lp10
S'Method.ANTAGONIST'
p11
aS'Method.AGONIST'
p12
atp13
Rp14
sS'topics'
p15
g3
((lp16
S"(29, u'\\\\bsex')"
p17
atp18
Rp19
sS'receptors'
p20
g3
((lp21
S'5ht1a'
p22
aS'5ht2'
p23
aS'5ht2a'
p24
atp25
Rp26
sS'regions'
p27
g3
((lp28
S"(190, u'(?i)(zonas|zona)(-|\\\\s+)?(incertas|incerta)')"
p29
aS"(126, u'(?i)(thalamuses|thalamus)')"
p30
aS"(171, u'(?i)(arcuates|arcuate)(-|\\\\s+)?(nuclei|nucleus)')"
p31
aS"(170, u'(?i)(ventromedials|ventromedial)(-|\\\\s+)?(nuclei|nucleus)')"
p32
atp33
Rp34
sS'year'
p35
V1997
p36
sS'agonists'
p37
g3
((lp38
S"(92, u'\\\\b8 ?oh ?dpat')"
p39
atp40
Rp41
sS'species'
p42
g3
((lp43
S"(2323, u'(?i)(bees|bee)')"
p44
aS"(2568, u'(?i)(hens|hen)')"
p45
aS"(6125, u'(?i)(females|female)')"
p46
aS"(5958, u'(?i)(rats|rat)')"
p47
aS"(4979, u'(?i)(cats|cat)')"
p48
aS"(5967, u'(?i)(males|male)')"
p49
aS"(468, u'(?i)(oxen|ox)')"
p50
aS"(1055, u'(?i)(men|man)')"
p51
aS"(3726, u'(?i)(mates|mate)')"
p52
aS"(4964, u'(?i)(serins|serin)')"
p53
aS"(3550, u'(?i)(anis|ani)')"
p54
aS"(3522, u'(?i)(tetras|tetra)')"
p55
aS"(3812, u'(?i)(studs|stud)')"
p56
aS"(2809, u'(?i)(toms|tom)')"
p57
aS"(5743, u'(?i)(bots|bot)')"
p58
aS"(6356, u'(?i)(ais|ai)')"
p59
aS"(6249, u'(?i)(ants|ant)')"
p60
atp61
Rp62
sb.