(ifile_types
ParseObject
p0
(dp1
S'methods'
p2
c__builtin__
set
p3
((lp4
S'Method.AGONIST'
p5
atp6
Rp7
sS'topics'
p8
g3
((lp9
S"(6, u'\\\\baggressi')"
p10
aS"(16, u'\\\\blearning')"
p11
aS"(26, u'\\\\bbehav')"
p12
aS"(15, u'\\\\bmemory')"
p13
atp14
Rp15
sS'receptors'
p16
g3
((lp17
(S'5ht2a'
p18
I1444
I1450
tp19
a(S'5ht7'
p20
I2024
I2029
tp21
a(S'5ht1a'
p22
I1436
I1442
tp23
a(S'5ht2'
p24
I1444
I1450
tp25
a(S'5ht1a'
p26
I348
I354
tp27
a(S'5ht7'
p28
I1456
I1461
tp29
a(S'5ht1a'
p30
I1979
I1985
tp31
a(S'5ht1a'
p32
I76
I87
tp33
atp34
Rp35
sS'raw_text_methods'
p36
g3
((lp37
S"(13, u'\\\\bagonist')"
p38
aS"(15, u'\\\\b8ohdpat')"
p39
atp40
Rp41
sS'regions'
p42
g3
((lp43
S"(20, u'(?i)\\\\b(prefrontals|prefrontal)\\\\b')"
p44
aS"(21, u'(?i)\\\\b(mpfcs|mpfc)\\\\b')"
p45
aS"(19, u'(?i)\\\\b(cortexes|cortex)\\\\b')"
p46
aS"(16, u'(?i)\\\\b(drns|drn)\\\\b')"
p47
atp48
Rp49
sS'year'
p50
V2013
p51
sS'species'
p52
g3
((lp53
S"(2, u'(?i)\\\\b(females|female)\\\\b')"
p54
aS"(3, u'(?i)\\\\b(males|male)\\\\b')"
p55
atp56
Rp57
sb.