(ifile_types
ParseObject
p0
(dp1
S'methods'
p2
c__builtin__
set
p3
((lp4
S'Method.ANTAGONIST'
p5
aS'Method.AGONIST'
p6
atp7
Rp8
sS'topics'
p9
g3
((lp10
S"(20, u'\\\\bmood')"
p11
aS"(23, u'\\\\bantipsychotic')"
p12
atp13
Rp14
sS'receptors'
p15
g3
((lp16
(S'5ht1a'
p17
I145
I151
tp18
a(S'5ht1a'
p19
I2007
I2013
tp20
a(S'5ht1a'
p21
I561
I567
tp22
a(S'5ht2a'
p23
I1575
I1581
tp24
a(S'5ht1a'
p25
I1054
I1060
tp26
a(S'5ht2a'
p27
I1964
I1970
tp28
a(S'5ht1a'
p29
I1851
I1857
tp30
a(S'5ht1a'
p31
I1922
I1928
tp32
atp33
Rp34
sS'raw_text_methods'
p35
g3
((lp36
S"(51, u'\\\\bway100635')"
p37
aS"(40, u'\\\\bclozapine')"
p38
aS"(50, u'\\\\bm100907')"
p39
aS"(12, u'\\\\bantagonist')"
p40
atp41
Rp42
sS'regions'
p43
g3
((lp44
S"(20, u'(?i)\\\\b(prefrontals|prefrontal)\\\\b')"
p45
aS"(21, u'(?i)\\\\b(mpfcs|mpfc)\\\\b')"
p46
aS"(19, u'(?i)\\\\b(cortexes|cortex)\\\\b')"
p47
atp48
Rp49
sS'year'
p50
V2005
p51
sS'species'
p52
g3
((lp53
S"(4, u'(?i)\\\\b(rats|rat)\\\\b')"
p54
atp55
Rp56
sb.