(ifile_types
ParseObject
p0
(dp1
S'antagonists'
p2
c__builtin__
set
p3
((lp4
S"(84, u'\\\\bsb ?206553')"
p5
aS"(99, u'\\\\bsb ?242084')"
p6
atp7
Rp8
sS'methods'
p9
g3
((lp10
S'Method.ANTAGONIST'
p11
aS'Method.AGONIST'
p12
atp13
Rp14
sS'topics'
p15
g3
((lp16
S"(37, u'\\\\baddict')"
p17
aS"(18, u'\\\\bpsychostim')"
p18
atp19
Rp20
sS'receptors'
p21
g3
((lp22
S'5ht2c'
p23
atp24
Rp25
sS'regions'
p26
g3
((lp27
S"(226, u'(?i)\\\\b(nuclei|nucleus)(-|\\\\s+)?(accumben|accumbens)\\\\b')"
p28
atp29
Rp30
sS'year'
p31
V2015
p32
sS'agonists'
p33
g3
((lp34
tp35
Rp36
sS'species'
p37
g3
((lp38
S"(5958, u'(?i)\\\\b(rats|rat)\\\\b')"
p39
atp40
Rp41
sb.