(ifile_types
ParseObject
p0
(dp1
S'methods'
p2
c__builtin__
set
p3
((lp4
S'Method.ANTAGONIST'
p5
aS'Method.IMMUNOHISTOCHEMISTRY'
p6
atp7
Rp8
sS'topics'
p9
g3
((lp10
tp11
Rp12
sS'receptors'
p13
g3
((lp14
(S'5ht3'
p15
I1282
I1287
tp16
a(S'5ht1a'
p17
I1793
I1799
tp18
a(S'5ht2'
p19
I1344
I1349
tp20
a(S'5ht2c'
p21
I1652
I1658
tp22
a(S'5ht2c'
p23
I1407
I1413
tp24
a(S'5ht1a'
p25
I1567
I1573
tp26
atp27
Rp28
sS'raw_text_methods'
p29
g3
((lp30
S"(18, u'\\\\bimaging')"
p31
atp32
Rp33
sS'regions'
p34
g3
((lp35
tp36
Rp37
sS'year'
p38
V2017
p39
sS'species'
p40
g3
((lp41
S"(1, u'(?i)\\\\b(mice|mouse)\\\\b')"
p42
aS"(5, u'(?i)\\\\b(mices|mice)\\\\b')"
p43
atp44
Rp45
sb.