(ifile_types
ParseObject
p0
(dp1
S'methods'
p2
c__builtin__
set
p3
((lp4
S'Method.PET'
p5
atp6
Rp7
sS'topics'
p8
g3
((lp9
tp10
Rp11
sS'receptors'
p12
g3
((lp13
(S'5ht1a'
p14
I1515
I1521
tp15
a(S'5ht1a'
p16
I1045
I1051
tp17
a(S'5ht1a'
p18
I1922
I1928
tp19
a(S'5ht1a'
p20
I1166
I1172
tp21
a(S'5ht1a'
p22
I1726
I1732
tp23
a(S'5ht1a'
p24
I411
I417
tp25
a(S'5ht1a'
p26
I1364
I1370
tp27
a(S'5ht1a'
p28
I1640
I1646
tp29
a(S'5ht1a'
p30
I86
I97
tp31
a(S'5ht1a'
p32
I607
I613
tp33
atp34
Rp35
sS'raw_text_methods'
p36
g3
((lp37
S"(1, u'\\\\bneuroimag')"
p38
aS"(17, u'\\\\bpet')"
p39
atp40
Rp41
sS'regions'
p42
g3
((lp43
S"(9, u'(?i)\\\\b(cerebellums|cerebellum)\\\\b')"
p44
atp45
Rp46
sS'year'
p47
V2014
p48
sS'species'
p49
g3
((lp50
S"(8, u'(?i)\\\\b(primates|primate)\\\\b')"
p51
atp52
Rp53
sb.