(ifile_types
ParseObject
p0
(dp1
S'methods'
p2
c__builtin__
set
p3
((lp4
S'Method.ANTAGONIST'
p5
aS'Method.AGONIST'
p6
atp7
Rp8
sS'topics'
p9
g3
((lp10
S"(22, u'\\\\bschizophreni')"
p11
aS"(14, u'\\\\bcogniti')"
p12
aS"(23, u'\\\\bantipsychotic')"
p13
aS"(4, u'\\\\btreatment')"
p14
atp15
Rp16
sS'receptors'
p17
g3
((lp18
(S'5ht2a'
p19
I1682
I1688
tp20
atp21
Rp22
sS'raw_text_methods'
p23
g3
((lp24
S"(40, u'\\\\bclozapine')"
p25
atp26
Rp27
sS'regions'
p28
g3
((lp29
S"(20, u'(?i)\\\\b(prefrontals|prefrontal)\\\\b')"
p30
aS"(19, u'(?i)\\\\b(cortexes|cortex)\\\\b')"
p31
aS"(4, u'(?i)\\\\b(presynaptics|presynaptic)\\\\b')"
p32
aS"(3, u'(?i)\\\\b(postsynaptics|postsynaptic)\\\\b')"
p33
atp34
Rp35
sS'year'
p36
V2006
p37
sS'species'
p38
g3
((lp39
tp40
Rp41
sb.