(ifile_types
ParseObject
p0
(dp1
S'methods'
p2
c__builtin__
set
p3
((lp4
S'Method.ANTAGONIST'
p5
aS'Method.AGONIST'
p6
atp7
Rp8
sS'topics'
p9
g3
((lp10
S"(23, u'\\\\bantipsychotic')"
p11
atp12
Rp13
sS'receptors'
p14
g3
((lp15
(S'5ht1a'
p16
I213
I219
tp17
a(S'5ht2a'
p18
I983
I989
tp19
a(S'5ht1a'
p20
I398
I404
tp21
a(S'5ht2'
p22
I983
I989
tp23
a(S'5ht2a'
p24
I1474
I1480
tp25
a(S'5ht2a'
p26
I1816
I1822
tp27
a(S'5ht1a'
p28
I749
I755
tp29
a(S'5ht1a'
p30
I1648
I1654
tp31
a(S'5ht1a'
p32
I54
I65
tp33
atp34
Rp35
sS'raw_text_methods'
p36
g3
((lp37
S"(41, u'\\\\bhaloperidol')"
p38
aS"(40, u'\\\\bclozapine')"
p39
aS"(13, u'\\\\bagonist')"
p40
aS"(50, u'\\\\bm100907')"
p41
aS"(51, u'\\\\bway100635')"
p42
aS"(12, u'\\\\bantagonist')"
p43
atp44
Rp45
sS'regions'
p46
g3
((lp47
tp48
Rp49
sS'year'
p50
V2000
p51
sS'species'
p52
g3
((lp53
S"(4, u'(?i)\\\\b(rats|rat)\\\\b')"
p54
atp55
Rp56
sb.