(ifile_types
ParseObject
p0
(dp1
S'antagonists'
p2
c__builtin__
set
p3
((lp4
S"(128, u'\\\\bmetoclopramide')"
p5
aS"(124, u'\\\\bondansetron')"
p6
aS"(125, u'\\\\btropisetron')"
p7
aS"(130, u'\\\\bzacopride')"
p8
atp9
Rp10
sS'methods'
p11
g3
((lp12
S'Method.ANTAGONIST'
p13
aS'Method.AGONIST'
p14
atp15
Rp16
sS'topics'
p17
g3
((lp18
tp19
Rp20
sS'receptors'
p21
g3
((lp22
S'5ht1b'
p23
aS'5ht1a'
p24
aS'5ht3'
p25
aS'5ht1'
p26
aS'5ht1d'
p27
atp28
Rp29
sS'regions'
p30
g3
((lp31
tp32
Rp33
sS'year'
p34
V1995
p35
sS'agonists'
p36
g3
((lp37
S"(209, u'\\\\bmetoclopramide')"
p38
aS"(208, u'\\\\bzacopride')"
p39
aS"(176, u'\\\\bdom')"
p40
aS"(149, u'\\\\bmem')"
p41
aS"(191, u'\\\\bphenylbiguanide')"
p42
atp43
Rp44
sS'species'
p45
g3
((lp46
S"(3051, u'(?i)\\\\b(pigs|pig)\\\\b')"
p47
aS"(5958, u'(?i)\\\\b(rats|rat)\\\\b')"
p48
atp49
Rp50
sb.