(ifile_types
ParseObject
p0
(dp1
S'antagonists'
p2
c__builtin__
set
p3
((lp4
tp5
Rp6
sS'methods'
p7
g3
((lp8
S'Method.ANTAGONIST'
p9
atp10
Rp11
sS'topics'
p12
g3
((lp13
S"(9, u'\\\\bdepress')"
p14
atp15
Rp16
sS'receptors'
p17
g3
((lp18
S'5ht1a'
p19
aS'5ht5'
p20
atp21
Rp22
sS'regions'
p23
g3
((lp24
S"(318, u'(?i)(raphes|raphe)(-|\\\\s+)?(nuclei|nucleus)')"
p25
atp26
Rp27
sS'year'
p28
V1996
p29
sS'agonists'
p30
g3
((lp31
tp32
Rp33
sS'species'
p34
g3
((lp35
S"(2323, u'(?i)(bees|bee)')"
p36
aS"(2670, u'(?i)(arabs|arab)')"
p37
aS"(2568, u'(?i)(hens|hen)')"
p38
aS"(6356, u'(?i)(ais|ai)')"
p39
aS"(5958, u'(?i)(rats|rat)')"
p40
aS"(6753, u'(?i)(da|das)')"
p41
aS"(479, u'(?i)(lings|ling)')"
p42
aS"(468, u'(?i)(oxen|ox)')"
p43
aS"(1055, u'(?i)(men|man)')"
p44
aS"(6249, u'(?i)(ants|ant)')"
p45
aS"(6580, u'(?i)(dams|dam)')"
p46
aS"(853, u'(?i)(minas|mina)')"
p47
aS"(3550, u'(?i)(anis|ani)')"
p48
aS"(7094, u'(?i)(curs|cur)')"
p49
aS"(1961, u'(?i)(pens|pen)')"
p50
aS"(3812, u'(?i)(studs|stud)')"
p51
aS"(6391, u'(?i)(asses|ass)')"
p52
aS"(4624, u'(?i)(apes|ape)')"
p53
aS"(2183, u'(?i)(gars|gar)')"
p54
aS"(5949, u'(?i)(dogs|dog)')"
p55
atp56
Rp57
sb.