(ifile_types
ParseObject
p0
(dp1
S'methods'
p2
c__builtin__
set
p3
((lp4
S'Method.PET'
p5
atp6
Rp7
sS'topics'
p8
g3
((lp9
S"(8, u'\\\\banxi')"
p10
aS"(5, u'\\\\btherap')"
p11
aS"(7, u'\\\\bdepressi')"
p12
aS"(9, u'\\\\bstress')"
p13
aS"(2, u'\\\\bdisorder')"
p14
atp15
Rp16
sS'receptors'
p17
g3
((lp18
(S'5ht2a'
p19
I660
I666
tp20
a(S'5ht7'
p21
I706
I711
tp22
a(S'5ht3a'
p23
I676
I682
tp24
a(S'5ht5a'
p25
I691
I697
tp26
a(S'5ht6'
p27
I699
I704
tp28
a(S'5ht1b'
p29
I652
I658
tp30
a(S'5ht1a'
p31
I644
I650
tp32
a(S'5ht2c'
p33
I668
I674
tp34
a(S'5ht4'
p35
I684
I689
tp36
atp37
Rp38
sS'raw_text_methods'
p39
g3
((lp40
S"(17, u'\\\\bpet')"
p41
atp42
Rp43
sS'regions'
p44
g3
((lp45
S"(20, u'(?i)\\\\b(prefrontals|prefrontal)\\\\b')"
p46
aS"(19, u'(?i)\\\\b(cortexes|cortex)\\\\b')"
p47
aS"(4, u'(?i)\\\\b(presynaptics|presynaptic)\\\\b')"
p48
aS"(3, u'(?i)\\\\b(postsynaptics|postsynaptic)\\\\b')"
p49
aS"(12, u'(?i)\\\\b(amygdalas|amygdala)\\\\b')"
p50
atp51
Rp52
sS'year'
p53
V2008
p54
sS'species'
p55
g3
((lp56
S"(1, u'(?i)\\\\b(mice|mouse)\\\\b')"
p57
aS"(6, u'(?i)\\\\b(rodents|rodent)\\\\b')"
p58
aS"(5, u'(?i)\\\\b(mices|mice)\\\\b')"
p59
atp60
Rp61
sb.