(ifile_types
ParseObject
p0
(dp1
S'methods'
p2
c__builtin__
set
p3
((lp4
S'Method.AGONIST'
p5
atp6
Rp7
sS'topics'
p8
g3
((lp9
S"(24, u'\\\\banxiolytic')"
p10
aS"(8, u'\\\\banxi')"
p11
atp12
Rp13
sS'receptors'
p14
g3
((lp15
(S'5ht1b'
p16
I649
I655
tp17
a(S'5ht1a'
p18
I348
I354
tp19
a(S'5ht1a'
p20
I1378
I1384
tp21
a(S'5ht1a'
p22
I1146
I1152
tp23
a(S'5ht1a'
p24
I984
I990
tp25
a(S'5ht1c'
p26
I485
I491
tp27
a(S'5ht1'
p28
I485
I491
tp29
a(S'5ht1a'
p30
I1268
I1274
tp31
a(S'5ht2'
p32
I478
I483
tp33
atp34
Rp35
sS'raw_text_methods'
p36
g3
((lp37
S"(21, u'\\\\bipsapirone')"
p38
aS"(22, u'\\\\bbuspirone')"
p39
aS"(15, u'\\\\b8ohdpat')"
p40
aS"(36, u'\\\\bbenzodiazepine')"
p41
aS"(13, u'\\\\bagonist')"
p42
aS"(24, u'\\\\bgepirone')"
p43
atp44
Rp45
sS'regions'
p46
g3
((lp47
tp48
Rp49
sS'year'
p50
V1990
p51
sS'species'
p52
g3
((lp53
S"(4, u'(?i)\\\\b(rats|rat)\\\\b')"
p54
atp55
Rp56
sb.