(ifile_types
ParseObject
p0
(dp1
S'methods'
p2
c__builtin__
set
p3
((lp4
S'Method.IMMUNOHISTOCHEMISTRY'
p5
atp6
Rp7
sS'topics'
p8
g3
((lp9
tp10
Rp11
sS'receptors'
p12
g3
((lp13
(S'5ht2a'
p14
I944
I950
tp15
a(S'5ht2a'
p16
I393
I399
tp17
a(S'5ht2a'
p18
I97
I103
tp19
atp20
Rp21
sS'raw_text_methods'
p22
g3
((lp23
tp24
Rp25
sS'regions'
p26
g3
((lp27
S"(18, u'(?i)\\\\b(putamens|putamen)\\\\b')"
p28
atp29
Rp30
sS'year'
p31
V2012
p32
sS'species'
p33
g3
((lp34
tp35
Rp36
sb.