(ifile_types
ParseObject
p0
(dp1
S'methods'
p2
c__builtin__
set
p3
((lp4
S'Method.PET'
p5
atp6
Rp7
sS'topics'
p8
g3
((lp9
S"(1, u'\\\\bpatient')"
p10
aS"(10, u'\\\\bocd')"
p11
aS"(4, u'\\\\btreatment')"
p12
aS"(2, u'\\\\bdisorder')"
p13
atp14
Rp15
sS'receptors'
p16
g3
((lp17
(S'5ht2a'
p18
I532
I538
tp19
a(S'5ht2a'
p20
I1719
I1725
tp21
a(S'5ht2a'
p22
I1609
I1615
tp23
a(S'5ht2a'
p24
I1567
I1573
tp25
a(S'5ht2a'
p26
I89
I95
tp27
atp28
Rp29
sS'raw_text_methods'
p30
g3
((lp31
S"(1, u'\\\\bneuroimag')"
p32
aS"(17, u'\\\\bpet')"
p33
aS"(18, u'\\\\bimaging')"
p34
aS"(19, u'\\\\bpositron emission tomography')"
p35
aS"(38, u'\\\\bssri')"
p36
aS"(39, u'\\\\bselective serotonin reuptake inhibitor')"
p37
atp38
Rp39
sS'regions'
p40
g3
((lp41
S"(11, u'(?i)\\\\b(cerebrals|cerebral)\\\\b')"
p42
aS"(19, u'(?i)\\\\b(cortexes|cortex)\\\\b')"
p43
aS"(17, u'(?i)\\\\b(caudates|caudate)\\\\b')"
p44
atp45
Rp46
sS'year'
p47
V2005
p48
sS'species'
p49
g3
((lp50
tp51
Rp52
sb.