(ifile_types
ParseObject
p0
(dp1
S'methods'
p2
c__builtin__
set
p3
((lp4
S'Method.PET'
p5
atp6
Rp7
sS'topics'
p8
g3
((lp9
tp10
Rp11
sS'receptors'
p12
g3
((lp13
(S'5ht2a'
p14
I1429
I1435
tp15
a(S'5ht2a'
p16
I1460
I1466
tp17
a(S'5ht2a'
p18
I36
I47
tp19
a(S'5ht2a'
p20
I1257
I1263
tp21
a(S'5ht2a'
p22
I217
I223
tp23
a(S'5ht2a'
p24
I729
I735
tp25
a(S'5ht2a'
p26
I455
I461
tp27
a(S'5ht2a'
p28
I1216
I1222
tp29
a(S'5ht2a'
p30
I203
I214
tp31
a(S'5ht2a'
p32
I552
I558
tp33
a(S'5ht2a'
p34
I1087
I1093
tp35
atp36
Rp37
sS'raw_text_methods'
p38
g3
((lp39
S"(53, u'\\\\bketanserin')"
p40
aS"(17, u'\\\\bpet')"
p41
aS"(19, u'\\\\bpositron emission tomography')"
p42
aS"(18, u'\\\\bimaging')"
p43
atp44
Rp45
sS'regions'
p46
g3
((lp47
S"(19, u'(?i)\\\\b(cortexes|cortex)\\\\b')"
p48
aS"(12, u'(?i)\\\\b(amygdalas|amygdala)\\\\b')"
p49
atp50
Rp51
sS'year'
p52
V2013
p53
sS'species'
p54
g3
((lp55
tp56
Rp57
sb.