(ifile_types
ParseObject
p0
(dp1
S'methods'
p2
c__builtin__
set
p3
((lp4
S'Method.PET'
p5
aS'Method.ANTAGONIST'
p6
atp7
Rp8
sS'topics'
p9
g3
((lp10
S"(26, u'\\\\bbehav')"
p11
atp12
Rp13
sS'receptors'
p14
g3
((lp15
(S'5ht1a'
p16
I1665
I1671
tp17
a(S'5ht1a'
p18
I1171
I1177
tp19
a(S'5ht1a'
p20
I1578
I1584
tp21
a(S'5ht1a'
p22
I1464
I1470
tp23
a(S'5ht1'
p24
I2389
I2394
tp25
a(S'5ht1a'
p26
I1094
I1100
tp27
a(S'5ht1a'
p28
I895
I901
tp29
a(S'5ht1a'
p30
I324
I330
tp31
a(S'5ht1a'
p32
I2253
I2259
tp33
a(S'5ht1a'
p34
I206
I212
tp35
a(S'5ht1a'
p36
I59
I65
tp37
atp38
Rp39
sS'raw_text_methods'
p40
g3
((lp41
S"(17, u'\\\\bpet')"
p42
aS"(22, u'\\\\bbuspirone')"
p43
aS"(2, u'\\\\blabeling')"
p44
aS"(54, u'\\\\bautoradiography')"
p45
aS"(15, u'\\\\b8ohdpat')"
p46
aS"(51, u'\\\\bway100635')"
p47
aS"(19, u'\\\\bpositron emission tomography')"
p48
aS"(12, u'\\\\bantagonist')"
p49
atp50
Rp51
sS'regions'
p52
g3
((lp53
S"(13, u'(?i)\\\\b(septums|septum)\\\\b')"
p54
aS"(1, u'(?i)\\\\b(neocortexes|neocortex)\\\\b')"
p55
aS"(9, u'(?i)\\\\b(cerebellums|cerebellum)\\\\b')"
p56
aS"(12, u'(?i)\\\\b(amygdalas|amygdala)\\\\b')"
p57
aS"(18, u'(?i)\\\\b(putamens|putamen)\\\\b')"
p58
atp59
Rp60
sS'year'
p61
V1997
p62
sS'species'
p63
g3
((lp64
tp65
Rp66
sb.