(ifile_types
ParseObject
p0
(dp1
S'antagonists'
p2
c__builtin__
set
p3
((lp4
S"(134, u'\\\\bgranisetron')"
p5
atp6
Rp7
sS'methods'
p8
g3
((lp9
S'Method.ANTAGONIST'
p10
atp11
Rp12
sS'topics'
p13
g3
((lp14
S"(28, u'\\\\bemesis')"
p15
atp16
Rp17
sS'receptors'
p18
g3
((lp19
S'5ht3'
p20
atp21
Rp22
sS'regions'
p23
g3
((lp24
S"(34, u'(?i)(pon|pons)')"
p25
atp26
Rp27
sS'year'
p28
V2000
p29
sS'agonists'
p30
g3
((lp31
tp32
Rp33
sS'species'
p34
g3
((lp35
S"(4624, u'(?i)(apes|ape)')"
p36
aS"(5958, u'(?i)(rats|rat)')"
p37
aS"(7609, u'(?i)(erns|ern)')"
p38
aS"(3072, u'(?i)(piglets|piglet)')"
p39
aS"(6753, u'(?i)(da|das)')"
p40
aS"(6682, u'(?i)(tera|teras)')"
p41
aS"(3051, u'(?i)(pigs|pig)')"
p42
aS"(468, u'(?i)(oxen|ox)')"
p43
aS"(1055, u'(?i)(men|man)')"
p44
aS"(6249, u'(?i)(ants|ant)')"
p45
aS"(107, u'(?i)(stags|stag)')"
p46
aS"(6356, u'(?i)(ais|ai)')"
p47
aS"(3550, u'(?i)(anis|ani)')"
p48
aS"(1961, u'(?i)(pens|pen)')"
p49
aS"(1414, u'(?i)(chars|char)')"
p50
aS"(3592, u'(?i)(ravens|raven)')"
p51
aS"(2809, u'(?i)(toms|tom)')"
p52
aS"(1683, u'(?i)(terns|tern)')"
p53
atp54
Rp55
sb.