(ifile_types
ParseObject
p0
(dp1
S'antagonists'
p2
c__builtin__
set
p3
((lp4
S"(91, u'\\\\bfluoxetine')"
p5
atp6
Rp7
sS'methods'
p8
g3
((lp9
S'Method.KNOCKOUT'
p10
atp11
Rp12
sS'topics'
p13
g3
((lp14
S"(16, u'\\\\bfeed')"
p15
aS"(1, u'\\\\bmood')"
p16
atp17
Rp18
sS'receptors'
p19
g3
((lp20
S'5ht1a'
p21
aS'5ht2c'
p22
atp23
Rp24
sS'regions'
p25
g3
((lp26
S"(226, u'(?i)\\\\b(nuclei|nucleus)(-|\\\\s+)?(accumben|accumbens)\\\\b')"
p27
aS"(254, u'(?i)\\\\b(prefrontals|prefrontal)(-|\\\\s+)?(cortexes|cortex)\\\\b')"
p28
aS"(318, u'(?i)\\\\b(raphes|raphe)(-|\\\\s+)?(nuclei|nucleus)\\\\b')"
p29
aS"(159, u'(?i)\\\\b(paraventriculars|paraventricular)(-|\\\\s+)?(nuclei|nucleus)\\\\b')"
p30
aS"(94, u'(?i)\\\\b(dorsals|dorsal)(-|\\\\s+)?(raphes|raphe)(-|\\\\s+)?(nuclei|nucleus)\\\\b')"
p31
aS"(255, u'(?i)\\\\b(pres|pre)(-|\\\\s+)?(frontals|frontal)(-|\\\\s+)?(cortexes|cortex)\\\\b')"
p32
atp33
Rp34
sS'year'
p35
V2009
p36
sS'agonists'
p37
g3
((lp38
tp39
Rp40
sS'species'
p41
g3
((lp42
S"(163, u'(?i)\\\\b(mice|mouse)\\\\b')"
p43
atp44
Rp45
sb.