(ifile_types
ParseObject
p0
(dp1
S'methods'
p2
c__builtin__
set
p3
((lp4
S'Method.ANTAGONIST'
p5
aS'Method.AGONIST'
p6
atp7
Rp8
sS'topics'
p9
g3
((lp10
S"(7, u'\\\\bdepressi')"
p11
atp12
Rp13
sS'receptors'
p14
g3
((lp15
(S'5ht2'
p16
I2178
I2185
tp17
a(S'5ht1c'
p18
I2178
I2184
tp19
a(S'5ht1c'
p20
I1711
I1717
tp21
a(S'5ht2'
p22
I47
I54
tp23
a(S'5ht1c'
p24
I47
I53
tp25
a(S'5ht3'
p26
I1932
I1937
tp27
a(S'5ht2'
p28
I1750
I1757
tp29
a(S'5ht1a'
p30
I1750
I1756
tp31
a(S'5ht1a'
p32
I1883
I1889
tp33
a(S'5ht2'
p34
I1711
I1718
tp35
atp36
Rp37
sS'raw_text_methods'
p38
g3
((lp39
S"(53, u'\\\\bketanserin')"
p40
aS"(23, u'\\\\bmdl')"
p41
aS"(13, u'\\\\bagonist')"
p42
aS"(44, u'\\\\btetrodotoxin')"
p43
aS"(46, u'\\\\bspiperone')"
p44
aS"(12, u'\\\\bantagonist')"
p45
atp46
Rp47
sS'regions'
p48
g3
((lp49
S"(3, u'(?i)\\\\b(postsynaptics|postsynaptic)\\\\b')"
p50
atp51
Rp52
sS'year'
p53
V1992
p54
sS'species'
p55
g3
((lp56
tp57
Rp58
sb.