(ifile_types
ParseObject
p0
(dp1
S'antagonists'
p2
c__builtin__
set
p3
((lp4
S"(136, u'\\\\btropisetron')"
p5
atp6
Rp7
sS'methods'
p8
g3
((lp9
S'Method.ANTAGONIST'
p10
atp11
Rp12
sS'topics'
p13
g3
((lp14
S"(9, u'\\\\bdepress')"
p15
aS"(35, u'\\\\bstress')"
p16
aS"(1, u'\\\\bmood')"
p17
atp18
Rp19
sS'receptors'
p20
g3
((lp21
S'5ht3'
p22
atp23
Rp24
sS'regions'
p25
g3
((lp26
S"(248, u'(?i)(cerebrals|cerebral)(-|\\\\s+)?(cortexes|cortex)')"
p27
aS"(34, u'(?i)(pon|pons)')"
p28
atp29
Rp30
sS'year'
p31
V2016
p32
sS'agonists'
p33
g3
((lp34
tp35
Rp36
sS'species'
p37
g3
((lp38
S"(2323, u'(?i)(bees|bee)')"
p39
aS"(6753, u'(?i)(da|das)')"
p40
aS"(5958, u'(?i)(rats|rat)')"
p41
aS"(163, u'(?i)(mice|mouse)')"
p42
aS"(5551, u'(?i)(owls|owl)')"
p43
aS"(5967, u'(?i)(males|male)')"
p44
aS"(468, u'(?i)(oxen|ox)')"
p45
aS"(1055, u'(?i)(men|man)')"
p46
aS"(6249, u'(?i)(ants|ant)')"
p47
aS"(6356, u'(?i)(ais|ai)')"
p48
aS"(3550, u'(?i)(anis|ani)')"
p49
aS"(7094, u'(?i)(curs|cur)')"
p50
aS"(3812, u'(?i)(studs|stud)')"
p51
aS"(6391, u'(?i)(asses|ass)')"
p52
aS"(6878, u'(?i)(guans|guan)')"
p53
aS"(4074, u'(?i)(bulls|bull)')"
p54
atp55
Rp56
sb.