(ifile_types
ParseObject
p0
(dp1
S'methods'
p2
c__builtin__
set
p3
((lp4
S'Method.ANTAGONIST'
p5
atp6
Rp7
sS'topics'
p8
g3
((lp9
S"(7, u'\\\\bdepressi')"
p10
aS"(13, u'\\\\bantidepress')"
p11
aS"(4, u'\\\\btreatment')"
p12
aS"(2, u'\\\\bdisorder')"
p13
atp14
Rp15
sS'receptors'
p16
g3
((lp17
(S'5ht1a'
p18
I2372
I2377
tp19
a(S'5ht2a'
p20
I2379
I2384
tp21
a(S'5ht3'
p22
I1918
I1923
tp23
a(S'5ht2a'
p24
I1882
I1888
tp25
a(S'5ht2'
p26
I2379
I2384
tp27
a(S'5ht3'
p28
I2435
I2439
tp29
a(S'5ht3'
p30
I2390
I2394
tp31
atp32
Rp33
sS'raw_text_methods'
p34
g3
((lp35
S"(53, u'\\\\bketanserin')"
p36
aS"(41, u'\\\\bhaloperidol')"
p37
aS"(11, u'\\\\bfluoxetine')"
p38
aS"(20, u'\\\\bondansetron')"
p39
aS"(4, u'\\\\bpcpa')"
p40
aS"(51, u'\\\\bway100635')"
p41
aS"(12, u'\\\\bantagonist')"
p42
atp43
Rp44
sS'regions'
p45
g3
((lp46
tp47
Rp48
sS'year'
p49
V2018
p50
sS'species'
p51
g3
((lp52
S"(1, u'(?i)\\\\b(mice|mouse)\\\\b')"
p53
aS"(5, u'(?i)\\\\b(mices|mice)\\\\b')"
p54
atp55
Rp56
sb.