(ifile_types
ParseObject
p0
(dp1
S'antagonists'
p2
c__builtin__
set
p3
((lp4
tp5
Rp6
sS'methods'
p7
g3
((lp8
S'Method.ANTAGONIST'
p9
aS'Method.AGONIST'
p10
atp11
Rp12
sS'topics'
p13
g3
((lp14
tp15
Rp16
sS'receptors'
p17
g3
((lp18
S'5ht1b'
p19
aS'5ht1f'
p20
aS'5ht1d'
p21
atp22
Rp23
sS'regions'
p24
g3
((lp25
S"(389, u'(?i)(cerebrospinals|cerebrospinal)(-|\\\\s+)?(fluids|fluid)')"
p26
aS"(34, u'(?i)(pon|pons)')"
p27
atp28
Rp29
sS'year'
p30
V2002
p31
sS'agonists'
p32
g3
((lp33
S"(104, u'\\\\bzolmitriptan')"
p34
atp35
Rp36
sS'species'
p37
g3
((lp38
S"(4624, u'(?i)(apes|ape)')"
p39
aS"(2054, u'(?i)(heads|head)')"
p40
aS"(6753, u'(?i)(da|das)')"
p41
aS"(5958, u'(?i)(rats|rat)')"
p42
aS"(163, u'(?i)(mice|mouse)')"
p43
aS"(3767, u'(?i)(olms|olm)')"
p44
aS"(1055, u'(?i)(men|man)')"
p45
aS"(6249, u'(?i)(ants|ant)')"
p46
aS"(3534, u'(?i)(scads|scad)')"
p47
aS"(853, u'(?i)(minas|mina)')"
p48
aS"(3550, u'(?i)(anis|ani)')"
p49
aS"(5917, u'(?i)(roaches|roach)')"
p50
aS"(1961, u'(?i)(pens|pen)')"
p51
aS"(6356, u'(?i)(ais|ai)')"
p52
aS"(6391, u'(?i)(asses|ass)')"
p53
atp54
Rp55
sb.