(ifile_types
ParseObject
p0
(dp1
S'antagonists'
p2
c__builtin__
set
p3
((lp4
S"(32, u'\\\\bway ?100635')"
p5
atp6
Rp7
sS'methods'
p8
g3
((lp9
S'Method.ANTAGONIST'
p10
atp11
Rp12
sS'topics'
p13
g3
((lp14
S"(15, u'\\\\bschizophreni')"
p15
aS"(9, u'\\\\bdepress')"
p16
aS"(10, u'\\\\banxiety')"
p17
aS"(20, u'\\\\baggressi')"
p18
atp19
Rp20
sS'receptors'
p21
g3
((lp22
S'5ht1a'
p23
atp24
Rp25
sS'regions'
p26
g3
((lp27
tp28
Rp29
sS'year'
p30
V2013
p31
sS'agonists'
p32
g3
((lp33
tp34
Rp35
sS'species'
p36
g3
((lp37
S"(4624, u'(?i)(apes|ape)')"
p38
aS"(4163, u'(?i)(ermines|ermine)')"
p39
aS"(7094, u'(?i)(curs|cur)')"
p40
aS"(6356, u'(?i)(ais|ai)')"
p41
aS"(6249, u'(?i)(ants|ant)')"
p42
aS"(3196, u'(?i)(human|humans)')"
p43
aS"(3812, u'(?i)(studs|stud)')"
p44
aS"(6391, u'(?i)(asses|ass)')"
p45
aS"(1795, u'(?i)(mounts|mount)')"
p46
aS"(479, u'(?i)(lings|ling)')"
p47
aS"(468, u'(?i)(oxen|ox)')"
p48
aS"(3404, u'(?i)(titis|titi)')"
p49
aS"(3550, u'(?i)(anis|ani)')"
p50
aS"(5537, u'(?i)(hippos|hippo)')"
p51
aS"(5958, u'(?i)(rats|rat)')"
p52
aS"(867, u'(?i)(tits|tit)')"
p53
aS"(1055, u'(?i)(men|man)')"
p54
aS"(4979, u'(?i)(cats|cat)')"
p55
aS"(1057, u'(?i)(humans|human)')"
p56
aS"(1414, u'(?i)(chars|char)')"
p57
aS"(2323, u'(?i)(bees|bee)')"
p58
aS"(2568, u'(?i)(hens|hen)')"
p59
aS"(6753, u'(?i)(da|das)')"
p60
atp61
Rp62
sb.