(ifile_types
ParseObject
p0
(dp1
S'methods'
p2
c__builtin__
set
p3
((lp4
S'Method.AGONIST'
p5
atp6
Rp7
sS'topics'
p8
g3
((lp9
S"(1, u'\\\\bpatient')"
p10
aS"(27, u'\\\\bdyskinesia')"
p11
aS"(34, u'\\\\bparkinson')"
p12
aS"(4, u'\\\\btreatment')"
p13
atp14
Rp15
sS'receptors'
p16
g3
((lp17
(S'5ht1a'
p18
I553
I559
tp19
a(S'5ht1a'
p20
I1907
I1913
tp21
a(S'5ht1a'
p22
I2171
I2177
tp23
a(S'5ht1a'
p24
I2014
I2020
tp25
a(S'5ht1a'
p26
I875
I881
tp27
a(S'5ht1a'
p28
I2390
I2396
tp29
a(S'5ht1a'
p30
I64
I70
tp31
a(S'5ht1a'
p32
I787
I793
tp33
atp34
Rp35
sS'raw_text_methods'
p36
g3
((lp37
S"(13, u'\\\\bagonist')"
p38
aS"(15, u'\\\\b8ohdpat')"
p39
atp40
Rp41
sS'regions'
p42
g3
((lp43
tp44
Rp45
sS'year'
p46
V2002
p47
sS'species'
p48
g3
((lp49
S"(4, u'(?i)\\\\b(rats|rat)\\\\b')"
p50
atp51
Rp52
sb.