(ifile_types
ParseObject
p0
(dp1
S'methods'
p2
c__builtin__
set
p3
((lp4
S'Method.STIMULATION'
p5
aS'Method.ANTAGONIST'
p6
aS'Method.AGONIST'
p7
atp8
Rp9
sS'topics'
p10
g3
((lp11
S"(30, u'\\\\bpain')"
p12
aS"(5, u'\\\\btherap')"
p13
atp14
Rp15
sS'receptors'
p16
g3
((lp17
(S'5ht2b'
p18
I1267
I1273
tp19
a(S'5ht2'
p20
I506
I511
tp21
a(S'5ht2b'
p22
I143
I149
tp23
a(S'5ht1'
p24
I820
I825
tp25
a(S'5ht2b'
p26
I1006
I1012
tp27
a(S'5ht2b'
p28
I1205
I1211
tp29
a(S'5ht2'
p30
I597
I602
tp31
a(S'5ht2b'
p32
I730
I736
tp33
a(S'5ht2b'
p34
I645
I651
tp35
atp36
Rp37
sS'raw_text_methods'
p38
g3
((lp39
S"(13, u'\\\\bagonist')"
p40
aS"(33, u'\\\\bmcpp')"
p41
aS"(47, u'\\\\bsumatriptan')"
p42
aS"(12, u'\\\\bantagonist')"
p43
atp44
Rp45
sS'regions'
p46
g3
((lp47
tp48
Rp49
sS'year'
p50
V2003
p51
sS'species'
p52
g3
((lp53
S"(7, u'(?i)\\\\b(guineas|guinea)(-|\\\\s+)?(pigs|pig)\\\\b')"
p54
atp55
Rp56
sb.