(ifile_types
ParseObject
p0
(dp1
S'antagonists'
p2
c__builtin__
set
p3
((lp4
S"(119, u'\\\\britanserin')"
p5
aS"(110, u'\\\\bclozapine')"
p6
aS"(58, u'\\\\bhaloperidol')"
p7
atp8
Rp9
sS'methods'
p10
g3
((lp11
S'Method.ANTAGONIST'
p12
aS'Method.AGONIST'
p13
atp14
Rp15
sS'topics'
p16
g3
((lp17
tp18
Rp19
sS'receptors'
p20
g3
((lp21
S'5ht1a'
p22
aS'5ht2c'
p23
aS'5ht2a'
p24
atp25
Rp26
sS'regions'
p27
g3
((lp28
S"(220, u'(?i)\\\\b(striatums|striatum)\\\\b')"
p29
atp30
Rp31
sS'year'
p32
V1998
p33
sS'agonists'
p34
g3
((lp35
S"(166, u'\\\\bmk ?212')"
p36
aS"(23, u'\\\\bclozapine')"
p37
aS"(85, u'\\\\b8 ?oh ?dpat')"
p38
aS"(43, u'\\\\bhaloperidol')"
p39
atp40
Rp41
sS'species'
p42
g3
((lp43
S"(5958, u'(?i)\\\\b(rats|rat)\\\\b')"
p44
atp45
Rp46
sb.