(ifile_types
ParseObject
p0
(dp1
S'antagonists'
p2
c__builtin__
set
p3
((lp4
S"(175, u'\\\\bsb ?271046')"
p5
aS"(177, u'\\\\bsb ?399885')"
p6
atp7
Rp8
sS'methods'
p9
g3
((lp10
S'Method.ANTAGONIST'
p11
atp12
Rp13
sS'topics'
p14
g3
((lp15
S"(33, u'\\\\balzheimers')"
p16
aS"(6, u'\\\\bcognit')"
p17
aS"(1, u'\\\\bmood')"
p18
atp19
Rp20
sS'receptors'
p21
g3
((lp22
S'5ht6'
p23
aS'5ht6a'
p24
atp25
Rp26
sS'regions'
p27
g3
((lp28
tp29
Rp30
sS'year'
p31
V2009
p32
sS'agonists'
p33
g3
((lp34
tp35
Rp36
sS'species'
p37
g3
((lp38
S"(1057, u'(?i)\\\\b(humans|human)\\\\b')"
p39
aS"(5958, u'(?i)\\\\b(rats|rat)\\\\b')"
p40
aS"(3196, u'(?i)\\\\b(human|humans)\\\\b')"
p41
atp42
Rp43
sb.