(ifile_types
ParseObject
p0
(dp1
S'antagonists'
p2
c__builtin__
set
p3
((lp4
tp5
Rp6
sS'methods'
p7
g3
((lp8
tp9
Rp10
sS'topics'
p11
g3
((lp12
S"(6, u'\\\\bcognit')"
p13
aS"(9, u'\\\\bdepress')"
p14
aS"(10, u'\\\\banxiety')"
p15
atp16
Rp17
sS'receptors'
p18
g3
((lp19
tp20
Rp21
sS'regions'
p22
g3
((lp23
tp24
Rp25
sS'year'
p26
V2006
p27
sS'agonists'
p28
g3
((lp29
tp30
Rp31
sS'species'
p32
g3
((lp33
S"(5799, u'(?i)\\\\b(rodents|rodent)\\\\b')"
p34
aS"(1057, u'(?i)\\\\b(humans|human)\\\\b')"
p35
aS"(3196, u'(?i)\\\\b(human|humans)\\\\b')"
p36
atp37
Rp38
sb.