(ifile_types
ParseObject
p0
(dp1
S'methods'
p2
c__builtin__
set
p3
((lp4
S'Method.ANTAGONIST'
p5
aS'Method.AGONIST'
p6
atp7
Rp8
sS'topics'
p9
g3
((lp10
S"(24, u'\\\\banxiolytic')"
p11
aS"(13, u'\\\\bantidepress')"
p12
aS"(2, u'\\\\bdisorder')"
p13
aS"(7, u'\\\\bdepressi')"
p14
aS"(20, u'\\\\bmood')"
p15
aS"(5, u'\\\\btherap')"
p16
aS"(26, u'\\\\bbehav')"
p17
aS"(8, u'\\\\banxi')"
p18
aS"(3, u'\\\\bclinical')"
p19
atp20
Rp21
sS'receptors'
p22
g3
((lp23
(S'5ht1a'
p24
I215
I221
tp25
a(S'5ht1a'
p26
I2220
I2226
tp27
a(S'5ht1a'
p28
I1717
I1723
tp29
a(S'5ht1a'
p30
I406
I412
tp31
a(S'5ht1a'
p32
I1343
I1349
tp33
a(S'5ht1a'
p34
I930
I936
tp35
a(S'5ht1a'
p36
I62
I68
tp37
atp38
Rp39
sS'raw_text_methods'
p40
g3
((lp41
S"(22, u'\\\\bbuspirone')"
p42
aS"(15, u'\\\\b8ohdpat')"
p43
aS"(13, u'\\\\bagonist')"
p44
aS"(51, u'\\\\bway100635')"
p45
aS"(18, u'\\\\bimaging')"
p46
aS"(12, u'\\\\bantagonist')"
p47
atp48
Rp49
sS'regions'
p50
g3
((lp51
tp52
Rp53
sS'year'
p54
V2018
p55
sS'species'
p56
g3
((lp57
S"(4, u'(?i)\\\\b(rats|rat)\\\\b')"
p58
atp59
Rp60
sb.