(ifile_types
ParseObject
p0
(dp1
S'methods'
p2
c__builtin__
set
p3
((lp4
tp5
Rp6
sS'topics'
p7
g3
((lp8
S"(14, u'\\\\bcogniti')"
p9
aS"(7, u'\\\\bdepressi')"
p10
aS"(9, u'\\\\bstress')"
p11
aS"(16, u'\\\\blearning')"
p12
aS"(2, u'\\\\bdisorder')"
p13
atp14
Rp15
sS'receptors'
p16
g3
((lp17
(S'5ht1a'
p18
I59
I70
tp19
a(S'5ht1a'
p20
I757
I763
tp21
a(S'5ht1a'
p22
I1597
I1603
tp23
a(S'5ht1a'
p24
I1317
I1323
tp25
a(S'5ht1a'
p26
I932
I938
tp27
atp28
Rp29
sS'raw_text_methods'
p30
g3
((lp31
tp32
Rp33
sS'regions'
p34
g3
((lp35
S"(20, u'(?i)\\\\b(prefrontals|prefrontal)\\\\b')"
p36
aS"(19, u'(?i)\\\\b(cortexes|cortex)\\\\b')"
p37
atp38
Rp39
sS'year'
p40
V2009
p41
sS'species'
p42
g3
((lp43
S"(3, u'(?i)\\\\b(males|male)\\\\b')"
p44
aS"(4, u'(?i)\\\\b(rats|rat)\\\\b')"
p45
atp46
Rp47
sb.