(ifile_types
ParseObject
p0
(dp1
S'antagonists'
p2
c__builtin__
set
p3
((lp4
tp5
Rp6
sS'methods'
p7
g3
((lp8
S'Method.PET'
p9
aS'Method.ANTAGONIST'
p10
atp11
Rp12
sS'topics'
p13
g3
((lp14
tp15
Rp16
sS'receptors'
p17
g3
((lp18
S'5ht1b'
p19
aS'5ht5'
p20
atp21
Rp22
sS'regions'
p23
g3
((lp24
tp25
Rp26
sS'year'
p27
V2010
p28
sS'agonists'
p29
g3
((lp30
tp31
Rp32
sS'species'
p33
g3
((lp34
S"(2323, u'(?i)(bees|bee)')"
p35
aS"(5799, u'(?i)(rodents|rodent)')"
p36
aS"(949, u'(?i)(cohoes|coho)')"
p37
aS"(3527, u'(?i)(permits|permit)')"
p38
aS"(5958, u'(?i)(rats|rat)')"
p39
aS"(6753, u'(?i)(da|das)')"
p40
aS"(6391, u'(?i)(asses|ass)')"
p41
aS"(1055, u'(?i)(men|man)')"
p42
aS"(6249, u'(?i)(ants|ant)')"
p43
aS"(6215, u'(?i)(racers|racer)')"
p44
aS"(4979, u'(?i)(cats|cat)')"
p45
aS"(3550, u'(?i)(anis|ani)')"
p46
aS"(1057, u'(?i)(humans|human)')"
p47
aS"(1961, u'(?i)(pens|pen)')"
p48
aS"(3812, u'(?i)(studs|stud)')"
p49
aS"(3196, u'(?i)(human|humans)')"
p50
aS"(2809, u'(?i)(toms|tom)')"
p51
aS"(1795, u'(?i)(mounts|mount)')"
p52
atp53
Rp54
sb.