(ifile_types
ParseObject
p0
(dp1
S'antagonists'
p2
c__builtin__
set
p3
((lp4
S"(53, u'\\\\bketanserin')"
p5
aS"(129, u'\\\\bly ?53857')"
p6
aS"(52, u'\\\\bmetergoline')"
p7
aS"(21, u'\\\\bpindolol')"
p8
aS"(128, u'\\\\bketanserin')"
p9
aS"(209, u'\\\\btfmpp')"
p10
aS"(35, u'\\\\bmetergoline')"
p11
atp12
Rp13
sS'methods'
p14
g3
((lp15
S'Method.ANTAGONIST'
p16
aS'Method.AGONIST'
p17
atp18
Rp19
sS'topics'
p20
g3
((lp21
tp22
Rp23
sS'receptors'
p24
g3
((lp25
S'5ht5'
p26
aS'5ht1a'
p27
atp28
Rp29
sS'regions'
p30
g3
((lp31
S"(126, u'(?i)(thalamuses|thalamus)')"
p32
aS"(2, u'(?i)(medullas|medulla)(-|\\\\s+)?(oblongatas|oblongata)')"
p33
atp34
Rp35
sS'year'
p36
V1995
p37
sS'agonists'
p38
g3
((lp39
S"(92, u'\\\\b8 ?oh ?dpat')"
p40
aS"(196, u'\\\\bquipazine')"
p41
aS"(183, u'\\\\btfmpp')"
p42
atp43
Rp44
sS'species'
p45
g3
((lp46
S"(2568, u'(?i)(hens|hen)')"
p47
aS"(6753, u'(?i)(da|das)')"
p48
aS"(468, u'(?i)(oxen|ox)')"
p49
aS"(1055, u'(?i)(men|man)')"
p50
aS"(6249, u'(?i)(ants|ant)')"
p51
aS"(1349, u'(?i)(rams|ram)')"
p52
aS"(4964, u'(?i)(serins|serin)')"
p53
aS"(5958, u'(?i)(rats|rat)')"
p54
aS"(3522, u'(?i)(tetras|tetra)')"
p55
aS"(1961, u'(?i)(pens|pen)')"
p56
aS"(6356, u'(?i)(ais|ai)')"
p57
atp58
Rp59
sb.