(ifile_types
ParseObject
p0
(dp1
S'methods'
p2
c__builtin__
set
p3
((lp4
S'Method.ANTAGONIST'
p5
aS'Method.AGONIST'
p6
atp7
Rp8
sS'topics'
p9
g3
((lp10
S"(26, u'\\\\bbehav')"
p11
aS"(33, u'\\\\blocomot')"
p12
aS"(15, u'\\\\bmemory')"
p13
atp14
Rp15
sS'receptors'
p16
g3
((lp17
(S'5ht4'
p18
I607
I612
tp19
a(S'5ht4'
p20
I1442
I1447
tp21
a(S'5ht4'
p22
I64
I69
tp23
a(S'5ht4'
p24
I818
I823
tp25
a(S'5ht4'
p26
I246
I251
tp27
atp28
Rp29
sS'raw_text_methods'
p30
g3
((lp31
S"(13, u'\\\\bagonist')"
p32
aS"(12, u'\\\\bantagonist')"
p33
atp34
Rp35
sS'regions'
p36
g3
((lp37
tp38
Rp39
sS'year'
p40
V2016
p41
sS'species'
p42
g3
((lp43
S"(3, u'(?i)\\\\b(males|male)\\\\b')"
p44
aS"(4, u'(?i)\\\\b(rats|rat)\\\\b')"
p45
atp46
Rp47
sb.