(ifile_types
ParseObject
p0
(dp1
S'methods'
p2
c__builtin__
set
p3
((lp4
tp5
Rp6
sS'topics'
p7
g3
((lp8
S"(33, u'\\\\blocomot')"
p9
atp10
Rp11
sS'receptors'
p12
g3
((lp13
(S'5ht7'
p14
I1044
I1049
tp15
a(S'5ht7a'
p16
I1044
I1050
tp17
a(S'5ht1b'
p18
I1031
I1037
tp19
atp20
Rp21
sS'raw_text_methods'
p22
g3
((lp23
tp24
Rp25
sS'regions'
p26
g3
((lp27
tp28
Rp29
sS'year'
p30
V2012
p31
sS'species'
p32
g3
((lp33
tp34
Rp35
sb.