(ifile_types
ParseObject
p0
(dp1
S'methods'
p2
c__builtin__
set
p3
((lp4
S'Method.KNOCKOUT'
p5
aS'Method.ANTAGONIST'
p6
atp7
Rp8
sS'topics'
p9
g3
((lp10
S"(5, u'\\\\btherap')"
p11
aS"(34, u'\\\\bparkinson')"
p12
atp13
Rp14
sS'receptors'
p15
g3
((lp16
(S'5ht5'
p17
I374
I384
tp18
a(S'5ht2a'
p19
I511
I516
tp20
a(S'5ht2a'
p21
I1237
I1242
tp22
a(S'5ht2a'
p23
I761
I766
tp24
a(S'5ht2a'
p25
I88
I93
tp26
a(S'5ht2a'
p27
I663
I668
tp28
atp29
Rp30
sS'raw_text_methods'
p31
g3
((lp32
S"(12, u'\\\\bantagonist')"
p33
atp34
Rp35
sS'regions'
p36
g3
((lp37
tp38
Rp39
sS'year'
p40
V2020
p41
sS'species'
p42
g3
((lp43
S"(1, u'(?i)\\\\b(mice|mouse)\\\\b')"
p44
aS"(5, u'(?i)\\\\b(mices|mice)\\\\b')"
p45
atp46
Rp47
sb.