(ifile_types
ParseObject
p0
(dp1
S'methods'
p2
c__builtin__
set
p3
((lp4
S'Method.ANTAGONIST'
p5
aS'Method.AGONIST'
p6
atp7
Rp8
sS'topics'
p9
g3
((lp10
tp11
Rp12
sS'receptors'
p13
g3
((lp14
(S'5ht3'
p15
I1825
I1830
tp16
a(S'5ht3'
p17
I2010
I2015
tp18
a(S'5ht3'
p19
I1375
I1380
tp20
a(S'5ht3'
p21
I382
I387
tp22
a(S'5ht3'
p23
I468
I473
tp24
a(S'5ht3'
p25
I2098
I2103
tp26
a(S'5ht3'
p27
I679
I684
tp28
a(S'5ht3'
p29
I40
I45
tp30
atp31
Rp32
sS'raw_text_methods'
p33
g3
((lp34
S"(13, u'\\\\bagonist')"
p35
aS"(12, u'\\\\bantagonist')"
p36
atp37
Rp38
sS'regions'
p39
g3
((lp40
S"(4, u'(?i)\\\\b(presynaptics|presynaptic)\\\\b')"
p41
aS"(3, u'(?i)\\\\b(postsynaptics|postsynaptic)\\\\b')"
p42
aS"(12, u'(?i)\\\\b(amygdalas|amygdala)\\\\b')"
p43
atp44
Rp45
sS'year'
p46
V2000
p47
sS'species'
p48
g3
((lp49
S"(4, u'(?i)\\\\b(rats|rat)\\\\b')"
p50
atp51
Rp52
sb.