(ifile_types
ParseObject
p0
(dp1
S'methods'
p2
c__builtin__
set
p3
((lp4
S'Method.ANTAGONIST'
p5
atp6
Rp7
sS'topics'
p8
g3
((lp9
S"(18, u'\\\\bavoidan')"
p10
aS"(33, u'\\\\blocomot')"
p11
aS"(13, u'\\\\bantidepress')"
p12
aS"(26, u'\\\\bbehav')"
p13
aS"(15, u'\\\\bmemory')"
p14
atp15
Rp16
sS'receptors'
p17
g3
((lp18
(S'5ht1a'
p19
I1321
I1327
tp20
a(S'5ht1a'
p21
I863
I869
tp22
a(S'5ht1'
p23
I1321
I1327
tp24
atp25
Rp26
sS'raw_text_methods'
p27
g3
((lp28
S"(45, u'\\\\bmetergoline')"
p29
aS"(12, u'\\\\bantagonist')"
p30
atp31
Rp32
sS'regions'
p33
g3
((lp34
tp35
Rp36
sS'year'
p37
V2009
p38
sS'species'
p39
g3
((lp40
S"(1, u'(?i)\\\\b(mice|mouse)\\\\b')"
p41
aS"(5, u'(?i)\\\\b(mices|mice)\\\\b')"
p42
atp43
Rp44
sb.