(ifile_types
ParseObject
p0
(dp1
S'methods'
p2
c__builtin__
set
p3
((lp4
S'Method.AGONIST'
p5
atp6
Rp7
sS'topics'
p8
g3
((lp9
S"(9, u'\\\\bstress')"
p10
aS"(4, u'\\\\btreatment')"
p11
atp12
Rp13
sS'receptors'
p14
g3
((lp15
(S'5ht1b'
p16
I907
I913
tp17
a(S'5ht1a'
p18
I899
I905
tp19
a(S'5ht2a'
p20
I1025
I1031
tp21
a(S'5ht2c'
p22
I1291
I1297
tp23
a(S'5ht2a'
p24
I915
I921
tp25
a(S'5ht2c'
p26
I1958
I1964
tp27
a(S'5ht2a'
p28
I1283
I1289
tp29
a(S'5ht2c'
p30
I926
I932
tp31
a(S'5ht2'
p32
I2031
I2036
tp33
a(S'5ht3'
p34
I1302
I1307
tp35
a(S'5ht1b'
p36
I1939
I1945
tp37
a(S'5ht2a'
p38
I1947
I1953
tp39
a(S'5ht1a'
p40
I1931
I1937
tp41
atp42
Rp43
sS'raw_text_methods'
p44
g3
((lp45
S"(13, u'\\\\bagonist')"
p46
aS"(11, u'\\\\bfluoxetine')"
p47
atp48
Rp49
sS'regions'
p50
g3
((lp51
tp52
Rp53
sS'year'
p54
V2003
p55
sS'species'
p56
g3
((lp57
S"(3, u'(?i)\\\\b(males|male)\\\\b')"
p58
aS"(4, u'(?i)\\\\b(rats|rat)\\\\b')"
p59
atp60
Rp61
sb.