(ifile_types
ParseObject
p0
(dp1
S'methods'
p2
c__builtin__
set
p3
((lp4
S'Method.AGONIST'
p5
atp6
Rp7
sS'topics'
p8
g3
((lp9
tp10
Rp11
sS'receptors'
p12
g3
((lp13
(S'5ht2'
p14
I1281
I1286
tp15
a(S'5ht1a'
p16
I1461
I1467
tp17
a(S'5ht1a'
p18
I1724
I1730
tp19
a(S'5ht1a'
p20
I702
I708
tp21
a(S'5ht1a'
p22
I303
I309
tp23
a(S'5ht1a'
p24
I36
I42
tp25
a(S'5ht1a'
p26
I616
I622
tp27
atp28
Rp29
sS'raw_text_methods'
p30
g3
((lp31
S"(13, u'\\\\bagonist')"
p32
aS"(15, u'\\\\b8ohdpat')"
p33
aS"(54, u'\\\\bautoradiography')"
p34
atp35
Rp36
sS'regions'
p37
g3
((lp38
S"(19, u'(?i)\\\\b(cortexes|cortex)\\\\b')"
p39
atp40
Rp41
sS'year'
p42
V1998
p43
sS'species'
p44
g3
((lp45
S"(4, u'(?i)\\\\b(rats|rat)\\\\b')"
p46
atp47
Rp48
sb.