(ifile_types
ParseObject
p0
(dp1
S'antagonists'
p2
c__builtin__
set
p3
((lp4
S"(91, u'\\\\bfluoxetine')"
p5
aS"(125, u'\\\\btropisetron')"
p6
atp7
Rp8
sS'methods'
p9
g3
((lp10
S'Method.ANTAGONIST'
p11
aS'Method.AGONIST'
p12
atp13
Rp14
sS'topics'
p15
g3
((lp16
tp17
Rp18
sS'receptors'
p19
g3
((lp20
S'5ht3'
p21
atp22
Rp23
sS'regions'
p24
g3
((lp25
S"(223, u'(?i)\\\\b(putamens|putamen)\\\\b')"
p26
aS"(226, u'(?i)\\\\b(nuclei|nucleus)(-|\\\\s+)?(accumben|accumbens)\\\\b')"
p27
atp28
Rp29
sS'year'
p30
V1998
p31
sS'agonists'
p32
g3
((lp33
tp34
Rp35
sS'species'
p36
g3
((lp37
S"(6325, u'(?i)\\\\b(caudates|caudate)\\\\b')"
p38
aS"(5958, u'(?i)\\\\b(rats|rat)\\\\b')"
p39
atp40
Rp41
sb.