(ifile_types
ParseObject
p0
(dp1
S'antagonists'
p2
c__builtin__
set
p3
((lp4
S"(117, u'\\\\bketanserin')"
p5
aS"(31, u'\\\\bway ?100635')"
p6
atp7
Rp8
sS'methods'
p9
g3
((lp10
S'Method.ANTAGONIST'
p11
aS'Method.AGONIST'
p12
atp13
Rp14
sS'topics'
p15
g3
((lp16
S"(4, u'\\\\blocomot')"
p17
aS"(9, u'\\\\bdepress')"
p18
aS"(16, u'\\\\bfeed')"
p19
aS"(34, u'\\\\bdementia')"
p20
aS"(33, u'\\\\balzheimers')"
p21
aS"(6, u'\\\\bcognit')"
p22
atp23
Rp24
sS'receptors'
p25
g3
((lp26
S'5ht1a'
p27
aS'5ht2a'
p28
atp29
Rp30
sS'regions'
p31
g3
((lp32
tp33
Rp34
sS'year'
p35
V2014
p36
sS'agonists'
p37
g3
((lp38
tp39
Rp40
sS'species'
p41
g3
((lp42
S"(163, u'(?i)\\\\b(mice|mouse)\\\\b')"
p43
atp44
Rp45
sb.