(ifile_types
ParseObject
p0
(dp1
S'methods'
p2
c__builtin__
set
p3
((lp4
S'Method.AGONIST'
p5
atp6
Rp7
sS'topics'
p8
g3
((lp9
S"(26, u'\\\\bbehav')"
p10
atp11
Rp12
sS'receptors'
p13
g3
((lp14
(S'5ht1a'
p15
I1007
I1013
tp16
a(S'5ht5'
p17
I199
I209
tp18
a(S'5ht1a'
p19
I756
I762
tp20
a(S'5ht1a'
p21
I27
I33
tp22
a(S'5ht1a'
p23
I241
I247
tp24
atp25
Rp26
sS'raw_text_methods'
p27
g3
((lp28
S"(13, u'\\\\bagonist')"
p29
aS"(15, u'\\\\b8ohdpat')"
p30
atp31
Rp32
sS'regions'
p33
g3
((lp34
tp35
Rp36
sS'year'
p37
V1994
p38
sS'species'
p39
g3
((lp40
tp41
Rp42
sb.