(ifile_types
ParseObject
p0
(dp1
S'methods'
p2
c__builtin__
set
p3
((lp4
S'Method.ANTAGONIST'
p5
aS'Method.AGONIST'
p6
atp7
Rp8
sS'topics'
p9
g3
((lp10
tp11
Rp12
sS'receptors'
p13
g3
((lp14
(S'5ht1a'
p15
I1849
I1855
tp16
a(S'5ht1b'
p17
I1545
I1551
tp18
a(S'5ht2'
p19
I1760
I1765
tp20
a(S'5ht1a'
p21
I1279
I1285
tp22
a(S'5ht1a'
p23
I820
I826
tp24
a(S'5ht1a'
p25
I31
I37
tp26
atp27
Rp28
sS'raw_text_methods'
p29
g3
((lp30
S"(13, u'\\\\bagonist')"
p31
aS"(15, u'\\\\b8ohdpat')"
p32
aS"(33, u'\\\\bmcpp')"
p33
aS"(49, u'\\\\bdoi')"
p34
aS"(12, u'\\\\bantagonist')"
p35
atp36
Rp37
sS'regions'
p38
g3
((lp39
tp40
Rp41
sS'year'
p42
V1994
p43
sS'species'
p44
g3
((lp45
tp46
Rp47
sb.