(ifile_types
ParseObject
p0
(dp1
S'antagonists'
p2
c__builtin__
set
p3
((lp4
tp5
Rp6
sS'methods'
p7
g3
((lp8
S'Method.AGONIST'
p9
aS'Method.IMMUNOHISTOCHEMISTRY'
p10
atp11
Rp12
sS'topics'
p13
g3
((lp14
tp15
Rp16
sS'receptors'
p17
g3
((lp18
S'5ht2c'
p19
aS'5ht2a'
p20
atp21
Rp22
sS'regions'
p23
g3
((lp24
S"(220, u'(?i)(striatums|striatum)')"
p25
atp26
Rp27
sS'year'
p28
V2017
p29
sS'agonists'
p30
g3
((lp31
S"(33, u'\\\\bdoi')"
p32
atp33
Rp34
sS'species'
p35
g3
((lp36
S"(2568, u'(?i)(hens|hen)')"
p37
aS"(7609, u'(?i)(erns|ern)')"
p38
aS"(4201, u'(?i)(kines|kine)')"
p39
aS"(468, u'(?i)(oxen|ox)')"
p40
aS"(1055, u'(?i)(men|man)')"
p41
aS"(6249, u'(?i)(ants|ant)')"
p42
aS"(6356, u'(?i)(ais|ai)')"
p43
aS"(5958, u'(?i)(rats|rat)')"
p44
aS"(3812, u'(?i)(studs|stud)')"
p45
aS"(6391, u'(?i)(asses|ass)')"
p46
aS"(1683, u'(?i)(terns|tern)')"
p47
atp48
Rp49
sb.