(ifile_types
ParseObject
p0
(dp1
S'antagonists'
p2
c__builtin__
set
p3
((lp4
tp5
Rp6
sS'methods'
p7
g3
((lp8
S'Method.AGONIST'
p9
atp10
Rp11
sS'topics'
p12
g3
((lp13
S"(29, u'\\\\bsex')"
p14
aS"(10, u'\\\\banxiety')"
p15
aS"(20, u'\\\\baggressi')"
p16
atp17
Rp18
sS'receptors'
p19
g3
((lp20
S'5ht1a'
p21
aS'5ht2c'
p22
aS'5ht2a'
p23
atp24
Rp25
sS'regions'
p26
g3
((lp27
S"(34, u'(?i)(pon|pons)')"
p28
atp29
Rp30
sS'year'
p31
V2002
p32
sS'agonists'
p33
g3
((lp34
S"(92, u'\\\\b8 ?oh ?dpat')"
p35
aS"(193, u'\\\\bethanol')"
p36
aS"(33, u'\\\\bdoi')"
p37
atp38
Rp39
sS'species'
p40
g3
((lp41
S"(3248, u'(?i)(offspring|offspring)')"
p42
aS"(4462, u'(?i)(monals|monal)')"
p43
aS"(6580, u'(?i)(dams|dam)')"
p44
aS"(6356, u'(?i)(ais|ai)')"
p45
aS"(5958, u'(?i)(rats|rat)')"
p46
aS"(3812, u'(?i)(studs|stud)')"
p47
aS"(6125, u'(?i)(females|female)')"
p48
aS"(4091, u'(?i)(adults|adult)')"
p49
aS"(5967, u'(?i)(males|male)')"
p50
aS"(468, u'(?i)(oxen|ox)')"
p51
aS"(3550, u'(?i)(anis|ani)')"
p52
aS"(3522, u'(?i)(tetras|tetra)')"
p53
aS"(6249, u'(?i)(ants|ant)')"
p54
aS"(6682, u'(?i)(tera|teras)')"
p55
aS"(1055, u'(?i)(men|man)')"
p56
aS"(6753, u'(?i)(da|das)')"
p57
aS"(7058, u'(?i)(does|doe)')"
p58
aS"(5949, u'(?i)(dogs|dog)')"
p59
aS"(2054, u'(?i)(heads|head)')"
p60
aS"(2568, u'(?i)(hens|hen)')"
p61
aS"(4979, u'(?i)(cats|cat)')"
p62
aS"(5568, u'(?i)(hakes|hake)')"
p63
atp64
Rp65
sb.