(ifile_types
ParseObject
p0
(dp1
S'antagonists'
p2
c__builtin__
set
p3
((lp4
tp5
Rp6
sS'methods'
p7
g3
((lp8
tp9
Rp10
sS'topics'
p11
g3
((lp12
tp13
Rp14
sS'receptors'
p15
g3
((lp16
S'5ht1c'
p17
aS'5ht5f'
p18
aS'5ht5'
p19
aS'5ht2'
p20
aS'5ht2a'
p21
atp22
Rp23
sS'regions'
p24
g3
((lp25
S"(241, u'(?i)(olfactories|olfactory)(-|\\\\s+)?(bulbs|bulb)')"
p26
aS"(362, u'(?i)(brains|brain)(-|\\\\s+)?(stems|stem)')"
p27
aS"(318, u'(?i)(raphes|raphe)(-|\\\\s+)?(nuclei|nucleus)')"
p28
aS"(34, u'(?i)(pon|pons)')"
p29
atp30
Rp31
sS'year'
p32
V2017
p33
sS'agonists'
p34
g3
((lp35
S"(155, u'\\\\bmem')"
p36
atp37
Rp38
sS'species'
p39
g3
((lp40
S"(2323, u'(?i)(bees|bee)')"
p41
aS"(6753, u'(?i)(da|das)')"
p42
aS"(5958, u'(?i)(rats|rat)')"
p43
aS"(7609, u'(?i)(erns|ern)')"
p44
aS"(5917, u'(?i)(roaches|roach)')"
p45
aS"(867, u'(?i)(tits|tit)')"
p46
aS"(163, u'(?i)(mice|mouse)')"
p47
aS"(4201, u'(?i)(kines|kine)')"
p48
aS"(3404, u'(?i)(titis|titi)')"
p49
aS"(4979, u'(?i)(cats|cat)')"
p50
aS"(821, u'(?i)(lice|louse)')"
p51
aS"(5229, u'(?i)(moles|mole)')"
p52
aS"(6356, u'(?i)(ais|ai)')"
p53
aS"(6391, u'(?i)(asses|ass)')"
p54
aS"(7610, u'(?i)(ernes|erne)')"
p55
aS"(1683, u'(?i)(terns|tern)')"
p56
atp57
Rp58
sb.