(ifile_types
ParseObject
p0
(dp1
S'methods'
p2
c__builtin__
set
p3
((lp4
tp5
Rp6
sS'topics'
p7
g3
((lp8
tp9
Rp10
sS'receptors'
p11
g3
((lp12
(S'5ht1a'
p13
I395
I401
tp14
atp15
Rp16
sS'raw_text_methods'
p17
g3
((lp18
S"(15, u'\\\\b8ohdpat')"
p19
atp20
Rp21
sS'regions'
p22
g3
((lp23
S"(3, u'(?i)\\\\b(postsynaptics|postsynaptic)\\\\b')"
p24
atp25
Rp26
sS'year'
p27
V1997
p28
sS'species'
p29
g3
((lp30
tp31
Rp32
sb.