(ifile_types
ParseObject
p0
(dp1
S'methods'
p2
c__builtin__
set
p3
((lp4
S'Method.AGONIST'
p5
atp6
Rp7
sS'topics'
p8
g3
((lp9
S"(4, u'\\\\btreatment')"
p10
atp11
Rp12
sS'receptors'
p13
g3
((lp14
(S'5ht1a'
p15
I1049
I1055
tp16
a(S'5ht1a'
p17
I355
I361
tp18
a(S'5ht2a'
p19
I1073
I1079
tp20
a(S'5ht1a'
p21
I150
I156
tp22
a(S'5ht2a'
p23
I492
I498
tp24
a(S'5ht1a'
p25
I341
I352
tp26
a(S'5ht1a'
p27
I34
I40
tp28
a(S'5ht2a'
p29
I96
I102
tp30
a(S'5ht1a'
p31
I984
I990
tp32
atp33
Rp34
sS'raw_text_methods'
p35
g3
((lp36
S"(13, u'\\\\bagonist')"
p37
aS"(15, u'\\\\b8ohdpat')"
p38
aS"(49, u'\\\\bdoi')"
p39
atp40
Rp41
sS'regions'
p42
g3
((lp43
tp44
Rp45
sS'year'
p46
V2007
p47
sS'species'
p48
g3
((lp49
S"(4, u'(?i)\\\\b(rats|rat)\\\\b')"
p50
atp51
Rp52
sb.