(ifile_types
ParseObject
p0
(dp1
S'antagonists'
p2
c__builtin__
set
p3
((lp4
S"(131, u'\\\\bm1')"
p5
aS"(124, u'\\\\bondansetron')"
p6
aS"(123, u'\\\\bgranisetron')"
p7
aS"(128, u'\\\\bmetoclopramide')"
p8
atp9
Rp10
sS'methods'
p11
g3
((lp12
S'Method.ANTAGONIST'
p13
atp14
Rp15
sS'topics'
p16
g3
((lp17
tp18
Rp19
sS'receptors'
p20
g3
((lp21
S'5ht3'
p22
aS'5ht1'
p23
atp24
Rp25
sS'regions'
p26
g3
((lp27
tp28
Rp29
sS'year'
p30
V1996
p31
sS'agonists'
p32
g3
((lp33
S"(209, u'\\\\bmetoclopramide')"
p34
aS"(149, u'\\\\bmem')"
p35
aS"(191, u'\\\\bphenylbiguanide')"
p36
aS"(186, u'\\\\b2 ?methyl ?5 ?ht')"
p37
atp38
Rp39
sS'species'
p40
g3
((lp41
S"(1057, u'(?i)\\\\b(humans|human)\\\\b')"
p42
aS"(3196, u'(?i)\\\\b(human|humans)\\\\b')"
p43
atp44
Rp45
sb.