(ifile_types
ParseObject
p0
(dp1
S'methods'
p2
c__builtin__
set
p3
((lp4
tp5
Rp6
sS'topics'
p7
g3
((lp8
tp9
Rp10
sS'receptors'
p11
g3
((lp12
(S'5ht1a'
p13
I1340
I1346
tp14
a(S'5ht2'
p15
I1264
I1269
tp16
atp17
Rp18
sS'raw_text_methods'
p19
g3
((lp20
tp21
Rp22
sS'regions'
p23
g3
((lp24
S"(19, u'(?i)\\\\b(cortexes|cortex)\\\\b')"
p25
aS"(3, u'(?i)\\\\b(postsynaptics|postsynaptic)\\\\b')"
p26
atp27
Rp28
sS'year'
p29
V2015
p30
sS'species'
p31
g3
((lp32
S"(4, u'(?i)\\\\b(rats|rat)\\\\b')"
p33
atp34
Rp35
sb.