(ifile_types
ParseObject
p0
(dp1
S'methods'
p2
c__builtin__
set
p3
((lp4
S'Method.AGONIST'
p5
atp6
Rp7
sS'topics'
p8
g3
((lp9
S"(14, u'\\\\bcogniti')"
p10
aS"(7, u'\\\\bdepressi')"
p11
aS"(13, u'\\\\bantidepress')"
p12
aS"(3, u'\\\\bclinical')"
p13
atp14
Rp15
sS'receptors'
p16
g3
((lp17
(S'5ht1a'
p18
I88
I94
tp19
atp20
Rp21
sS'raw_text_methods'
p22
g3
((lp23
S"(13, u'\\\\bagonist')"
p24
aS"(22, u'\\\\bbuspirone')"
p25
atp26
Rp27
sS'regions'
p28
g3
((lp29
tp30
Rp31
sS'year'
p32
V1997
p33
sS'species'
p34
g3
((lp35
S"(3, u'(?i)\\\\b(males|male)\\\\b')"
p36
atp37
Rp38
sb.