(ifile_types
ParseObject
p0
(dp1
S'methods'
p2
c__builtin__
set
p3
((lp4
S'Method.AGONIST'
p5
atp6
Rp7
sS'topics'
p8
g3
((lp9
tp10
Rp11
sS'receptors'
p12
g3
((lp13
(S'5ht3'
p14
I278
I283
tp15
a(S'5ht3'
p16
I753
I758
tp17
a(S'5ht3'
p18
I1364
I1369
tp19
a(S'5ht3'
p20
I438
I443
tp21
a(S'5ht2a'
p22
I1257
I1263
tp23
a(S'5ht1a'
p24
I929
I935
tp25
a(S'5ht3'
p26
I381
I386
tp27
a(S'5ht3'
p28
I1296
I1301
tp29
a(S'5ht2a'
p30
I1178
I1184
tp31
a(S'5ht1a'
p32
I1664
I1670
tp33
a(S'5ht2a'
p34
I104
I110
tp35
a(S'5ht3'
p36
I1586
I1591
tp37
a(S'5ht3'
p38
I67
I72
tp39
a(S'5ht1a'
p40
I763
I769
tp41
a(S'5ht1'
p42
I1371
I1377
tp43
a(S'5ht3'
p44
I86
I91
tp45
a(S'5ht1a'
p46
I93
I99
tp47
a(S'5ht3'
p48
I557
I562
tp49
a(S'5ht3'
p50
I864
I869
tp51
a(S'5ht3'
p52
I1641
I1646
tp53
a(S'5ht1a'
p54
I1371
I1377
tp55
atp56
Rp57
sS'raw_text_methods'
p58
g3
((lp59
S"(13, u'\\\\bagonist')"
p60
atp61
Rp62
sS'regions'
p63
g3
((lp64
S"(19, u'(?i)\\\\b(cortexes|cortex)\\\\b')"
p65
aS"(3, u'(?i)\\\\b(postsynaptics|postsynaptic)\\\\b')"
p66
atp67
Rp68
sS'year'
p69
V2012
p70
sS'species'
p71
g3
((lp72
S"(1, u'(?i)\\\\b(mice|mouse)\\\\b')"
p73
aS"(5, u'(?i)\\\\b(mices|mice)\\\\b')"
p74
atp75
Rp76
sb.