(ifile_types
ParseObject
p0
(dp1
S'methods'
p2
c__builtin__
set
p3
((lp4
S'Method.ANTAGONIST'
p5
aS'Method.AGONIST'
p6
atp7
Rp8
sS'topics'
p9
g3
((lp10
tp11
Rp12
sS'receptors'
p13
g3
((lp14
(S'5ht1'
p15
I1585
I1592
tp16
a(S'5ht1b'
p17
I199
I205
tp18
a(S'5ht1b'
p19
I1585
I1591
tp20
a(S'5ht1d'
p21
I199
I207
tp22
a(S'5ht1d'
p23
I655
I663
tp24
a(S'5ht1d'
p25
I52
I60
tp26
a(S'5ht1b'
p27
I655
I661
tp28
a(S'5ht1b'
p29
I52
I58
tp30
atp31
Rp32
sS'raw_text_methods'
p33
g3
((lp34
S"(13, u'\\\\bagonist')"
p35
aS"(12, u'\\\\bantagonist')"
p36
atp37
Rp38
sS'regions'
p39
g3
((lp40
tp41
Rp42
sS'year'
p43
V2000
p44
sS'species'
p45
g3
((lp46
tp47
Rp48
sb.