(ifile_types
ParseObject
p0
(dp1
S'methods'
p2
c__builtin__
set
p3
((lp4
tp5
Rp6
sS'topics'
p7
g3
((lp8
S"(4, u'\\\\btreatment')"
p9
atp10
Rp11
sS'receptors'
p12
g3
((lp13
(S'5ht1a'
p14
I699
I705
tp15
a(S'5ht1a'
p16
I200
I206
tp17
atp18
Rp19
sS'raw_text_methods'
p20
g3
((lp21
S"(15, u'\\\\b8ohdpat')"
p22
aS"(4, u'\\\\bpcpa')"
p23
aS"(21, u'\\\\bipsapirone')"
p24
atp25
Rp26
sS'regions'
p27
g3
((lp28
tp29
Rp30
sS'year'
p31
V1990
p32
sS'species'
p33
g3
((lp34
S"(4, u'(?i)\\\\b(rats|rat)\\\\b')"
p35
atp36
Rp37
sb.