(ifile_types
ParseObject
p0
(dp1
S'antagonists'
p2
c__builtin__
set
p3
((lp4
S"(43, u'\\\\bgr ?127935')"
p5
aS"(113, u'\\\\brisperidone')"
p6
aS"(52, u'\\\\bmdl ?100907')"
p7
atp8
Rp9
sS'methods'
p10
g3
((lp11
S'Method.ANTAGONIST'
p12
aS'Method.AGONIST'
p13
atp14
Rp15
sS'topics'
p16
g3
((lp17
tp18
Rp19
sS'receptors'
p20
g3
((lp21
S'5ht1b'
p22
aS'5ht2a'
p23
aS'5ht1d'
p24
atp25
Rp26
sS'regions'
p27
g3
((lp28
S"(94, u'(?i)\\\\b(dorsals|dorsal)(-|\\\\s+)?(raphes|raphe)(-|\\\\s+)?(nuclei|nucleus)\\\\b')"
p29
aS"(318, u'(?i)\\\\b(raphes|raphe)(-|\\\\s+)?(nuclei|nucleus)\\\\b')"
p30
atp31
Rp32
sS'year'
p33
V2001
p34
sS'agonists'
p35
g3
((lp36
S"(103, u'\\\\bcp ?135807')"
p37
atp38
Rp39
sS'species'
p40
g3
((lp41
S"(5958, u'(?i)\\\\b(rats|rat)\\\\b')"
p42
atp43
Rp44
sb.