(ifile_types
ParseObject
p0
(dp1
S'methods'
p2
c__builtin__
set
p3
((lp4
tp5
Rp6
sS'topics'
p7
g3
((lp8
S"(14, u'\\\\bcogniti')"
p9
aS"(17, u'\\\\balzheimer')"
p10
atp11
Rp12
sS'receptors'
p13
g3
((lp14
(S'5ht1a'
p15
I73
I79
tp16
a(S'5ht1a'
p17
I812
I818
tp18
a(S'5ht1a'
p19
I494
I500
tp20
a(S'5ht1a'
p21
I346
I352
tp22
atp23
Rp24
sS'raw_text_methods'
p25
g3
((lp26
tp27
Rp28
sS'regions'
p29
g3
((lp30
S"(19, u'(?i)\\\\b(cortexes|cortex)\\\\b')"
p31
aS"(12, u'(?i)\\\\b(amygdalas|amygdala)\\\\b')"
p32
atp33
Rp34
sS'year'
p35
V1996
p36
sS'species'
p37
g3
((lp38
S"(2, u'(?i)\\\\b(females|female)\\\\b')"
p39
aS"(4, u'(?i)\\\\b(rats|rat)\\\\b')"
p40
atp41
Rp42
sb.