(ifile_types
ParseObject
p0
(dp1
S'antagonists'
p2
c__builtin__
set
p3
((lp4
S"(32, u'\\\\bway ?100635')"
p5
atp6
Rp7
sS'methods'
p8
g3
((lp9
S'Method.ANTAGONIST'
p10
aS'Method.AGONIST'
p11
atp12
Rp13
sS'topics'
p14
g3
((lp15
S"(26, u'\\\\bcardiovascular')"
p16
aS"(35, u'\\\\bstress')"
p17
atp18
Rp19
sS'receptors'
p20
g3
((lp21
S'5ht1a'
p22
atp23
Rp24
sS'regions'
p25
g3
((lp26
S"(362, u'(?i)(brains|brain)(-|\\\\s+)?(stems|stem)')"
p27
aS"(126, u'(?i)(thalamuses|thalamus)')"
p28
aS"(6, u'(?i)(rostrals|rostral)(-|\\\\s+)?(ventrolaterals|ventrolateral)(-|\\\\s+)?(medullas|medulla)')"
p29
aS"(34, u'(?i)(pon|pons)')"
p30
atp31
Rp32
sS'year'
p33
V2008
p34
sS'agonists'
p35
g3
((lp36
S"(92, u'\\\\b8 ?oh ?dpat')"
p37
atp38
Rp39
sS'species'
p40
g3
((lp41
S"(2568, u'(?i)(hens|hen)')"
p42
aS"(6356, u'(?i)(ais|ai)')"
p43
aS"(6682, u'(?i)(tera|teras)')"
p44
aS"(6249, u'(?i)(ants|ant)')"
p45
aS"(468, u'(?i)(oxen|ox)')"
p46
aS"(3592, u'(?i)(ravens|raven)')"
p47
aS"(937, u'(?i)(kids|kid)')"
p48
aS"(5176, u'(?i)(tegs|teg)')"
p49
aS"(5958, u'(?i)(rats|rat)')"
p50
aS"(3522, u'(?i)(tetras|tetra)')"
p51
aS"(3812, u'(?i)(studs|stud)')"
p52
aS"(7609, u'(?i)(erns|ern)')"
p53
aS"(1683, u'(?i)(terns|tern)')"
p54
atp55
Rp56
sb.