(ifile_types
ParseObject
p0
(dp1
S'methods'
p2
c__builtin__
set
p3
((lp4
S'Method.PET'
p5
atp6
Rp7
sS'topics'
p8
g3
((lp9
tp10
Rp11
sS'receptors'
p12
g3
((lp13
(S'5ht2a'
p14
I1417
I1423
tp15
a(S'5ht2a'
p16
I269
I275
tp17
a(S'5ht2a'
p18
I533
I539
tp19
a(S'5ht2a'
p20
I90
I96
tp21
a(S'5ht2a'
p22
I915
I921
tp23
a(S'5ht5'
p24
I212
I222
tp25
a(S'5ht2'
p26
I915
I921
tp27
a(S'5ht2a'
p28
I1122
I1128
tp29
atp30
Rp31
sS'raw_text_methods'
p32
g3
((lp33
S"(17, u'\\\\bpet')"
p34
aS"(19, u'\\\\bpositron emission tomography')"
p35
aS"(23, u'\\\\bmdl')"
p36
atp37
Rp38
sS'regions'
p39
g3
((lp40
S"(11, u'(?i)\\\\b(cerebrals|cerebral)\\\\b')"
p41
aS"(9, u'(?i)\\\\b(cerebellums|cerebellum)\\\\b')"
p42
atp43
Rp44
sS'year'
p45
V2000
p46
sS'species'
p47
g3
((lp48
tp49
Rp50
sb.