(ifile_types
ParseObject
p0
(dp1
S'methods'
p2
c__builtin__
set
p3
((lp4
S'Method.ANTAGONIST'
p5
atp6
Rp7
sS'topics'
p8
g3
((lp9
tp10
Rp11
sS'receptors'
p12
g3
((lp13
(S'5ht2a'
p14
I1536
I1542
tp15
a(S'5ht2c'
p16
I1536
I1544
tp17
a(S'5ht2'
p18
I819
I824
tp19
atp20
Rp21
sS'raw_text_methods'
p22
g3
((lp23
S"(39, u'\\\\bselective serotonin reuptake inhibitor')"
p24
aS"(12, u'\\\\bantagonist')"
p25
atp26
Rp27
sS'regions'
p28
g3
((lp29
tp30
Rp31
sS'year'
p32
V2003
p33
sS'species'
p34
g3
((lp35
tp36
Rp37
sb.