(ifile_types
ParseObject
p0
(dp1
S'methods'
p2
c__builtin__
set
p3
((lp4
S'Method.STAINING'
p5
aS'Method.IMMUNOHISTOCHEMISTRY'
p6
atp7
Rp8
sS'topics'
p9
g3
((lp10
tp11
Rp12
sS'receptors'
p13
g3
((lp14
(S'5ht1a'
p15
I219
I230
tp16
a(S'5ht1a'
p17
I2339
I2350
tp18
a(S'5ht1a'
p19
I986
I997
tp20
a(S'5ht1a'
p21
I1711
I1722
tp22
a(S'5ht1a'
p23
I948
I959
tp24
a(S'5ht1a'
p25
I2220
I2231
tp26
a(S'5ht1a'
p27
I509
I520
tp28
a(S'5ht1a'
p29
I2380
I2391
tp30
a(S'5ht1a'
p31
I63
I74
tp32
a(S'5ht1a'
p33
I1512
I1523
tp34
a(S'5ht1a'
p35
I2112
I2123
tp36
atp37
Rp38
sS'raw_text_methods'
p39
g3
((lp40
S"(3, u'\\\\bimmunoreactiv')"
p41
atp42
Rp43
sS'regions'
p44
g3
((lp45
S"(9, u'(?i)\\\\b(cerebellums|cerebellum)\\\\b')"
p46
aS"(18, u'(?i)\\\\b(putamens|putamen)\\\\b')"
p47
aS"(15, u'(?i)\\\\b(substantias|substantia)(-|\\\\s+)?(nigras|nigra)\\\\b')"
p48
aS"(1, u'(?i)\\\\b(neocortexes|neocortex)\\\\b')"
p49
aS"(7, u'(?i)\\\\b(entorhinals|entorhinal)\\\\b')"
p50
aS"(8, u'(?i)\\\\b(centrals|central)(-|\\\\s+)?(nervouses|nervous)(-|\\\\s+)?(systems|system)\\\\b')"
p51
aS"(13, u'(?i)\\\\b(septums|septum)\\\\b')"
p52
aS"(17, u'(?i)\\\\b(caudates|caudate)\\\\b')"
p53
atp54
Rp55
sS'year'
p56
V1996
p57
sS'species'
p58
g3
((lp59
S"(4, u'(?i)\\\\b(rats|rat)\\\\b')"
p60
atp61
Rp62
sb.