(ifile_types
ParseObject
p0
(dp1
S'antagonists'
p2
c__builtin__
set
p3
((lp4
S"(34, u'\\\\bmetergoline')"
p5
aS"(133, u'\\\\bmianserin')"
p6
aS"(22, u'\\\\bpropranolol')"
p7
aS"(193, u'\\\\bmesulergine')"
p8
aS"(26, u'\\\\bspiperone')"
p9
aS"(119, u'\\\\britanserin')"
p10
atp11
Rp12
sS'methods'
p13
g3
((lp14
S'Method.ANTAGONIST'
p15
atp16
Rp17
sS'topics'
p18
g3
((lp19
tp20
Rp21
sS'receptors'
p22
g3
((lp23
S'5ht1c'
p24
aS'5ht1b'
p25
aS'5ht1a'
p26
aS'5ht3a'
p27
aS'5ht2'
p28
aS'5ht1'
p29
aS'5ht1d'
p30
aS'5ht2a'
p31
aS'5ht2d'
p32
atp33
Rp34
sS'regions'
p35
g3
((lp36
tp37
Rp38
sS'year'
p39
V1992
p40
sS'agonists'
p41
g3
((lp42
S"(165, u'\\\\bmesulergine')"
p43
aS"(155, u'\\\\bmcpp')"
p44
aS"(175, u'\\\\bdoi')"
p45
atp46
Rp47
sS'species'
p48
g3
((lp49
S"(5958, u'(?i)\\\\b(rats|rat)\\\\b')"
p50
aS"(736, u'(?i)\\\\b(fawns|fawn)\\\\b')"
p51
atp52
Rp53
sb.