(ifile_types
ParseObject
p0
(dp1
S'methods'
p2
c__builtin__
set
p3
((lp4
S'Method.AGONIST'
p5
atp6
Rp7
sS'topics'
p8
g3
((lp9
S"(24, u'\\\\banxiolytic')"
p10
aS"(26, u'\\\\bbehav')"
p11
aS"(2, u'\\\\bdisorder')"
p12
aS"(13, u'\\\\bantidepress')"
p13
aS"(8, u'\\\\banxi')"
p14
aS"(4, u'\\\\btreatment')"
p15
atp16
Rp17
sS'receptors'
p18
g3
((lp19
(S'5ht4'
p20
I1099
I1104
tp21
a(S'5ht4'
p22
I722
I727
tp23
a(S'5ht4'
p24
I908
I913
tp25
atp26
Rp27
sS'raw_text_methods'
p28
g3
((lp29
S"(13, u'\\\\bagonist')"
p30
atp31
Rp32
sS'regions'
p33
g3
((lp34
tp35
Rp36
sS'year'
p37
V2020
p38
sS'species'
p39
g3
((lp40
S"(1, u'(?i)\\\\b(mice|mouse)\\\\b')"
p41
atp42
Rp43
sb.