(ifile_types
ParseObject
p0
(dp1
S'methods'
p2
c__builtin__
set
p3
((lp4
S'Method.ANTAGONIST'
p5
atp6
Rp7
sS'topics'
p8
g3
((lp9
S"(13, u'\\\\bantidepress')"
p10
atp11
Rp12
sS'receptors'
p13
g3
((lp14
(S'5ht5'
p15
I550
I560
tp16
a(S'5ht1a'
p17
I179
I185
tp18
a(S'5ht2a'
p19
I483
I489
tp20
a(S'5ht1a'
p21
I1462
I1468
tp22
a(S'5ht1a'
p23
I430
I436
tp24
a(S'5ht1a'
p25
I1150
I1156
tp26
atp27
Rp28
sS'raw_text_methods'
p29
g3
((lp30
S"(51, u'\\\\bway100635')"
p31
aS"(12, u'\\\\bantagonist')"
p32
atp33
Rp34
sS'regions'
p35
g3
((lp36
S"(20, u'(?i)\\\\b(prefrontals|prefrontal)\\\\b')"
p37
aS"(19, u'(?i)\\\\b(cortexes|cortex)\\\\b')"
p38
atp39
Rp40
sS'year'
p41
V2003
p42
sS'species'
p43
g3
((lp44
S"(4, u'(?i)\\\\b(rats|rat)\\\\b')"
p45
atp46
Rp47
sb.