(ifile_types
ParseObject
p0
(dp1
S'methods'
p2
c__builtin__
set
p3
((lp4
tp5
Rp6
sS'topics'
p7
g3
((lp8
S"(13, u'\\\\bantidepress')"
p9
aS"(4, u'\\\\btreatment')"
p10
atp11
Rp12
sS'receptors'
p13
g3
((lp14
(S'5ht2'
p15
I826
I831
tp16
a(S'5ht2'
p17
I426
I431
tp18
a(S'5ht2'
p19
I656
I661
tp20
a(S'5ht2'
p21
I616
I621
tp22
a(S'5ht2'
p23
I1117
I1122
tp24
a(S'5ht2a'
p25
I991
I997
tp26
a(S'5ht2'
p27
I847
I852
tp28
a(S'5ht2'
p29
I393
I398
tp30
a(S'5ht2'
p31
I194
I199
tp32
atp33
Rp34
sS'raw_text_methods'
p35
g3
((lp36
S"(49, u'\\\\bdoi')"
p37
atp38
Rp39
sS'regions'
p40
g3
((lp41
S"(19, u'(?i)\\\\b(cortexes|cortex)\\\\b')"
p42
aS"(4, u'(?i)\\\\b(presynaptics|presynaptic)\\\\b')"
p43
atp44
Rp45
sS'year'
p46
V2008
p47
sS'species'
p48
g3
((lp49
S"(4, u'(?i)\\\\b(rats|rat)\\\\b')"
p50
atp51
Rp52
sb.