(ifile_types
ParseObject
p0
(dp1
S'antagonists'
p2
c__builtin__
set
p3
((lp4
tp5
Rp6
sS'methods'
p7
g3
((lp8
S'Method.KNOCKOUT'
p9
atp10
Rp11
sS'topics'
p12
g3
((lp13
S"(22, u'\\\\bsuicide')"
p14
aS"(9, u'\\\\bdepress')"
p15
aS"(20, u'\\\\baggressi')"
p16
atp17
Rp18
sS'receptors'
p19
g3
((lp20
S'5ht1b'
p21
atp22
Rp23
sS'regions'
p24
g3
((lp25
S"(254, u'(?i)\\\\b(prefrontals|prefrontal)(-|\\\\s+)?(cortexes|cortex)\\\\b')"
p26
aS"(255, u'(?i)\\\\b(pres|pre)(-|\\\\s+)?(frontals|frontal)(-|\\\\s+)?(cortexes|cortex)\\\\b')"
p27
atp28
Rp29
sS'year'
p30
V1999
p31
sS'agonists'
p32
g3
((lp33
tp34
Rp35
sS'species'
p36
g3
((lp37
S"(1057, u'(?i)\\\\b(humans|human)\\\\b')"
p38
aS"(163, u'(?i)\\\\b(mice|mouse)\\\\b')"
p39
aS"(3196, u'(?i)\\\\b(human|humans)\\\\b')"
p40
atp41
Rp42
sb.