(ifile_types
ParseObject
p0
(dp1
S'antagonists'
p2
c__builtin__
set
p3
((lp4
S"(32, u'\\\\bway ?100635')"
p5
aS"(67, u'\\\\bhaloperidol')"
p6
atp7
Rp8
sS'methods'
p9
g3
((lp10
S'Method.ANTAGONIST'
p11
aS'Method.AGONIST'
p12
atp13
Rp14
sS'topics'
p15
g3
((lp16
S"(35, u'\\\\bstress')"
p17
aS"(30, u'\\\\bparkinsons')"
p18
aS"(11, u'\\\\banxiolyt')"
p19
atp20
Rp21
sS'receptors'
p22
g3
((lp23
S'5ht1a'
p24
atp25
Rp26
sS'regions'
p27
g3
((lp28
S"(220, u'(?i)(striatums|striatum)')"
p29
aS"(221, u'(?i)(dorsals|dorsal)(-|\\\\s+)?(striatums|striatum)')"
p30
aS"(34, u'(?i)(pon|pons)')"
p31
atp32
Rp33
sS'year'
p34
V2015
p35
sS'agonists'
p36
g3
((lp37
S"(48, u'\\\\bhaloperidol')"
p38
aS"(20, u'\\\\bbefiradol')"
p39
atp40
Rp41
sS'species'
p42
g3
((lp43
S"(4624, u'(?i)(apes|ape)')"
p44
aS"(5176, u'(?i)(tegs|teg)')"
p45
aS"(5958, u'(?i)(rats|rat)')"
p46
aS"(4201, u'(?i)(kines|kine)')"
p47
aS"(6753, u'(?i)(da|das)')"
p48
aS"(6682, u'(?i)(tera|teras)')"
p49
aS"(1055, u'(?i)(men|man)')"
p50
aS"(853, u'(?i)(minas|mina)')"
p51
aS"(6249, u'(?i)(ants|ant)')"
p52
aS"(4371, u'(?i)(lizas|liza)')"
p53
aS"(6356, u'(?i)(ais|ai)')"
p54
aS"(6391, u'(?i)(asses|ass)')"
p55
aS"(2809, u'(?i)(toms|tom)')"
p56
aS"(4979, u'(?i)(cats|cat)')"
p57
atp58
Rp59
sb.