(ifile_types
ParseObject
p0
(dp1
S'methods'
p2
c__builtin__
set
p3
((lp4
S'Method.ANTAGONIST'
p5
atp6
Rp7
sS'topics'
p8
g3
((lp9
tp10
Rp11
sS'receptors'
p12
g3
((lp13
(S'5ht7'
p14
I580
I585
tp15
a(S'5ht7'
p16
I49
I54
tp17
a(S'5ht7'
p18
I1124
I1129
tp19
a(S'5ht2c'
p20
I911
I918
tp21
a(S'5ht7'
p22
I400
I405
tp23
a(S'5ht7'
p24
I1338
I1343
tp25
a(S'5ht2a'
p26
I911
I917
tp27
atp28
Rp29
sS'raw_text_methods'
p30
g3
((lp31
S"(12, u'\\\\bantagonist')"
p32
atp33
Rp34
sS'regions'
p35
g3
((lp36
tp37
Rp38
sS'year'
p39
V2002
p40
sS'species'
p41
g3
((lp42
S"(4, u'(?i)\\\\b(rats|rat)\\\\b')"
p43
atp44
Rp45
sb.