(ifile_types
ParseObject
p0
(dp1
S'methods'
p2
c__builtin__
set
p3
((lp4
S'Method.ANTAGONIST'
p5
atp6
Rp7
sS'topics'
p8
g3
((lp9
tp10
Rp11
sS'receptors'
p12
g3
((lp13
(S'5ht2'
p14
I1560
I1565
tp15
a(S'5ht1b'
p16
I562
I568
tp17
a(S'5ht1c'
p18
I77
I83
tp19
a(S'5ht1b'
p20
I1307
I1313
tp21
a(S'5ht1a'
p22
I1299
I1305
tp23
a(S'5ht1d'
p24
I1317
I1323
tp25
a(S'5ht1a'
p26
I554
I560
tp27
a(S'5ht1c'
p28
I1279
I1285
tp29
a(S'5ht1c'
p30
I528
I534
tp31
a(S'5ht2'
p32
I698
I703
tp33
a(S'5ht2'
p34
I1020
I1025
tp35
a(S'5ht1d'
p36
I572
I578
tp37
a(S'5ht1c'
p38
I1491
I1497
tp39
a(S'5ht1c'
p40
I837
I843
tp41
a(S'5ht2'
p42
I1365
I1370
tp43
a(S'5ht1a'
p44
I821
I827
tp45
a(S'5ht2'
p46
I803
I808
tp47
a(S'5ht1b'
p48
I829
I835
tp49
a(S'5ht1d'
p50
I847
I853
tp51
a(S'5ht2'
p52
I547
I552
tp53
atp54
Rp55
sS'raw_text_methods'
p56
g3
((lp57
S"(33, u'\\\\bmcpp')"
p58
aS"(12, u'\\\\bantagonist')"
p59
atp60
Rp61
sS'regions'
p62
g3
((lp63
tp64
Rp65
sS'year'
p66
V1991
p67
sS'species'
p68
g3
((lp69
S"(4, u'(?i)\\\\b(rats|rat)\\\\b')"
p70
atp71
Rp72
sb.