(ifile_types
ParseObject
p0
(dp1
S'antagonists'
p2
c__builtin__
set
p3
((lp4
S"(53, u'\\\\bketanserin')"
p5
aS"(128, u'\\\\bketanserin')"
p6
aS"(61, u'\\\\bmdl ?100907')"
p7
atp8
Rp9
sS'methods'
p10
g3
((lp11
S'Method.PET'
p12
aS'Method.ANTAGONIST'
p13
atp14
Rp15
sS'topics'
p16
g3
((lp17
tp18
Rp19
sS'receptors'
p20
g3
((lp21
S'5ht2c'
p22
aS'5ht2a'
p23
atp24
Rp25
sS'regions'
p26
g3
((lp27
S"(71, u'(?i)(cerebellums|cerebellum)')"
p28
aS"(34, u'(?i)(pon|pons)')"
p29
atp30
Rp31
sS'year'
p32
V2003
p33
sS'agonists'
p34
g3
((lp35
S"(169, u'\\\\bfenfluramine')"
p36
atp37
Rp38
sS'species'
p39
g3
((lp40
S"(1070, u'(?i)(pets|pet)')"
p41
aS"(6753, u'(?i)(da|das)')"
p42
aS"(5958, u'(?i)(rats|rat)')"
p43
aS"(5743, u'(?i)(bots|bot)')"
p44
aS"(6249, u'(?i)(ants|ant)')"
p45
aS"(1349, u'(?i)(rams|ram)')"
p46
aS"(3726, u'(?i)(mates|mate)')"
p47
aS"(4964, u'(?i)(serins|serin)')"
p48
aS"(3550, u'(?i)(anis|ani)')"
p49
aS"(7058, u'(?i)(does|doe)')"
p50
aS"(3812, u'(?i)(studs|stud)')"
p51
aS"(7127, u'(?i)(monitors|monitor)')"
p52
aS"(2809, u'(?i)(toms|tom)')"
p53
aS"(6356, u'(?i)(ais|ai)')"
p54
aS"(5949, u'(?i)(dogs|dog)')"
p55
atp56
Rp57
sb.