(ifile_types
ParseObject
p0
(dp1
S'methods'
p2
c__builtin__
set
p3
((lp4
S'Method.PET'
p5
aS'Method.ANTAGONIST'
p6
atp7
Rp8
sS'topics'
p9
g3
((lp10
S"(18, u'\\\\bavoidan')"
p11
aS"(8, u'\\\\banxi')"
p12
aS"(26, u'\\\\bbehav')"
p13
aS"(2, u'\\\\bdisorder')"
p14
atp15
Rp16
sS'receptors'
p17
g3
((lp18
(S'5ht1a'
p19
I1191
I1197
tp20
a(S'5ht1a'
p21
I1276
I1282
tp22
a(S'5ht1a'
p23
I2357
I2363
tp24
a(S'5ht1a'
p25
I1096
I1102
tp26
a(S'5ht1a'
p27
I514
I520
tp28
a(S'5ht1a'
p29
I2077
I2083
tp30
a(S'5ht1a'
p31
I2247
I2253
tp32
a(S'5ht1a'
p33
I55
I61
tp34
atp35
Rp36
sS'raw_text_methods'
p37
g3
((lp38
S"(19, u'\\\\bpositron emission tomography')"
p39
aS"(18, u'\\\\bimaging')"
p40
aS"(12, u'\\\\bantagonist')"
p41
atp42
Rp43
sS'regions'
p44
g3
((lp45
S"(20, u'(?i)\\\\b(prefrontals|prefrontal)\\\\b')"
p46
aS"(9, u'(?i)\\\\b(cerebellums|cerebellum)\\\\b')"
p47
aS"(3, u'(?i)\\\\b(postsynaptics|postsynaptic)\\\\b')"
p48
atp49
Rp50
sS'year'
p51
V2005
p52
sS'species'
p53
g3
((lp54
tp55
Rp56
sb.