(ifile_types
ParseObject
p0
(dp1
S'methods'
p2
c__builtin__
set
p3
((lp4
tp5
Rp6
sS'topics'
p7
g3
((lp8
S"(8, u'\\\\banxi')"
p9
aS"(1, u'\\\\bpatient')"
p10
aS"(26, u'\\\\bbehav')"
p11
aS"(4, u'\\\\btreatment')"
p12
aS"(2, u'\\\\bdisorder')"
p13
atp14
Rp15
sS'receptors'
p16
g3
((lp17
(S'5ht1'
p18
I1514
I1519
tp19
a(S'5ht1'
p20
I810
I815
tp21
a(S'5ht1a'
p22
I91
I97
tp23
a(S'5ht1'
p24
I1272
I1277
tp25
atp26
Rp27
sS'raw_text_methods'
p28
g3
((lp29
S"(36, u'\\\\bbenzodiazepine')"
p30
aS"(31, u'\\\\bbenzodiazepines')"
p31
atp32
Rp33
sS'regions'
p34
g3
((lp35
tp36
Rp37
sS'year'
p38
V2004
p39
sS'species'
p40
g3
((lp41
S"(1, u'(?i)\\\\b(mice|mouse)\\\\b')"
p42
aS"(5, u'(?i)\\\\b(mices|mice)\\\\b')"
p43
atp44
Rp45
sb.