(ifile_types
ParseObject
p0
(dp1
S'antagonists'
p2
c__builtin__
set
p3
((lp4
S"(23, u'\\\\brisperidone')"
p5
aS"(32, u'\\\\bway ?100635')"
p6
aS"(123, u'\\\\bclozapine')"
p7
aS"(56, u'\\\\bclozapine')"
p8
aS"(57, u'\\\\bolanzapine')"
p9
aS"(41, u'\\\\bziprasidone')"
p10
aS"(122, u'\\\\bthioridazine')"
p11
aS"(124, u'\\\\bolanzapine')"
p12
aS"(59, u'\\\\brisperidone')"
p13
aS"(142, u'\\\\bm1')"
p14
aS"(67, u'\\\\bhaloperidol')"
p15
atp16
Rp17
sS'methods'
p18
g3
((lp19
S'Method.ANTAGONIST'
p20
aS'Method.AGONIST'
p21
atp22
Rp23
sS'topics'
p24
g3
((lp25
tp26
Rp27
sS'receptors'
p28
g3
((lp29
S'5ht1a'
p30
aS'5ht2c'
p31
aS'5ht2a'
p32
atp33
Rp34
sS'regions'
p35
g3
((lp36
S"(220, u'(?i)(striatums|striatum)')"
p37
aS"(254, u'(?i)(prefrontals|prefrontal)(-|\\\\s+)?(cortexes|cortex)')"
p38
aS"(226, u'(?i)(nuclei|nucleus)(-|\\\\s+)?(accumben|accumbens)')"
p39
aS"(255, u'(?i)(pres|pre)(-|\\\\s+)?(frontals|frontal)(-|\\\\s+)?(cortexes|cortex)')"
p40
aS"(34, u'(?i)(pon|pons)')"
p41
atp42
Rp43
sS'year'
p44
V2002
p45
sS'agonists'
p46
g3
((lp47
S"(64, u'\\\\bolanzapine')"
p48
aS"(91, u'\\\\bziprasidone')"
p49
aS"(33, u'\\\\bdoi')"
p50
aS"(48, u'\\\\bhaloperidol')"
p51
aS"(27, u'\\\\bclozapine')"
p52
atp53
Rp54
sS'species'
p55
g3
((lp56
S"(2323, u'(?i)(bees|bee)')"
p57
aS"(5958, u'(?i)(rats|rat)')"
p58
aS"(6753, u'(?i)(da|das)')"
p59
aS"(6356, u'(?i)(ais|ai)')"
p60
aS"(6249, u'(?i)(ants|ant)')"
p61
aS"(1961, u'(?i)(pens|pen)')"
p62
aS"(3812, u'(?i)(studs|stud)')"
p63
atp64
Rp65
sb.