(ifile_types
ParseObject
p0
(dp1
S'antagonists'
p2
c__builtin__
set
p3
((lp4
S"(117, u'\\\\bketanserin')"
p5
aS"(31, u'\\\\bway ?100635')"
p6
aS"(33, u'\\\\byohimbine')"
p7
atp8
Rp9
sS'methods'
p10
g3
((lp11
S'Method.ANTAGONIST'
p12
atp13
Rp14
sS'topics'
p15
g3
((lp16
S"(15, u'\\\\bschizophreni')"
p17
aS"(21, u'\\\\bpain')"
p18
atp19
Rp20
sS'receptors'
p21
g3
((lp22
S'5ht1a'
p23
aS'5ht2'
p24
atp25
Rp26
sS'regions'
p27
g3
((lp28
S"(292, u'(?i)\\\\b(anteriors|anterior)(-|\\\\s+)?(cingulates|cingulate)\\\\b')"
p29
aS"(91, u'(?i)\\\\b(periaqueductals|periaqueductal)(-|\\\\s+)?(grays|gray)\\\\b')"
p30
aS"(291, u'(?i)\\\\b(cingulates|cingulate)(-|\\\\s+)?(cortexes|cortex)\\\\b')"
p31
atp32
Rp33
sS'year'
p34
V2013
p35
sS'agonists'
p36
g3
((lp37
S"(82, u'\\\\byohimbine')"
p38
atp39
Rp40
sS'species'
p41
g3
((lp42
S"(5799, u'(?i)\\\\b(rodents|rodent)\\\\b')"
p43
aS"(163, u'(?i)\\\\b(mice|mouse)\\\\b')"
p44
aS"(4177, u'(?i)\\\\b(grays|gray)\\\\b')"
p45
atp46
Rp47
sb.