(ifile_types
ParseObject
p0
(dp1
S'methods'
p2
c__builtin__
set
p3
((lp4
S'Method.ANTAGONIST'
p5
aS'Method.AGONIST'
p6
atp7
Rp8
sS'topics'
p9
g3
((lp10
S"(33, u'\\\\blocomot')"
p11
aS"(26, u'\\\\bbehav')"
p12
aS"(7, u'\\\\bdepressi')"
p13
aS"(9, u'\\\\bstress')"
p14
aS"(15, u'\\\\bmemory')"
p15
atp16
Rp17
sS'receptors'
p18
g3
((lp19
(S'5ht2c'
p20
I736
I741
tp21
atp22
Rp23
sS'raw_text_methods'
p24
g3
((lp25
S"(13, u'\\\\bagonist')"
p26
aS"(37, u'\\\\bpiperazine')"
p27
aS"(43, u'\\\\bagomelatine')"
p28
aS"(33, u'\\\\bmcpp')"
p29
aS"(12, u'\\\\bantagonist')"
p30
atp31
Rp32
sS'regions'
p33
g3
((lp34
tp35
Rp36
sS'year'
p37
V2017
p38
sS'species'
p39
g3
((lp40
S"(1, u'(?i)\\\\b(mice|mouse)\\\\b')"
p41
aS"(5, u'(?i)\\\\b(mices|mice)\\\\b')"
p42
atp43
Rp44
sb.