(ifile_types
ParseObject
p0
(dp1
S'methods'
p2
c__builtin__
set
p3
((lp4
S'Method.ANTAGONIST'
p5
aS'Method.AGONIST'
p6
atp7
Rp8
sS'topics'
p9
g3
((lp10
tp11
Rp12
sS'receptors'
p13
g3
((lp14
(S'5ht4'
p15
I427
I432
tp16
a(S'5ht3'
p17
I1119
I1124
tp18
a(S'5ht4'
p19
I1203
I1208
tp20
a(S'5ht3'
p21
I1028
I1033
tp22
a(S'5ht4'
p23
I727
I732
tp24
a(S'5ht4'
p25
I146
I151
tp26
a(S'5ht4'
p27
I634
I639
tp28
atp29
Rp30
sS'raw_text_methods'
p31
g3
((lp32
S"(13, u'\\\\bagonist')"
p33
aS"(12, u'\\\\bantagonist')"
p34
atp35
Rp36
sS'regions'
p37
g3
((lp38
tp39
Rp40
sS'year'
p41
V1999
p42
sS'species'
p43
g3
((lp44
S"(7, u'(?i)\\\\b(guineas|guinea)(-|\\\\s+)?(pigs|pig)\\\\b')"
p45
atp46
Rp47
sb.