(ifile_types
ParseObject
p0
(dp1
S'methods'
p2
c__builtin__
set
p3
((lp4
S'Method.ANTAGONIST'
p5
aS'Method.AGONIST'
p6
atp7
Rp8
sS'topics'
p9
g3
((lp10
S"(13, u'\\\\bantidepress')"
p11
atp12
Rp13
sS'receptors'
p14
g3
((lp15
(S'5ht2a'
p16
I708
I714
tp17
a(S'5ht1'
p18
I223
I228
tp19
a(S'5ht2a'
p20
I1429
I1435
tp21
a(S'5ht2'
p22
I233
I238
tp23
a(S'5ht1a'
p24
I1356
I1362
tp25
a(S'5ht1a'
p26
I46
I52
tp27
a(S'5ht2c'
p28
I708
I716
tp29
a(S'5ht1a'
p30
I539
I545
tp31
a(S'5ht1b'
p32
I539
I547
tp33
a(S'5ht1a'
p34
I482
I488
tp35
a(S'5ht1a'
p36
I638
I644
tp37
a(S'5ht1a'
p38
I2047
I2053
tp39
atp40
Rp41
sS'raw_text_methods'
p42
g3
((lp43
S"(53, u'\\\\bketanserin')"
p44
aS"(11, u'\\\\bfluoxetine')"
p45
aS"(15, u'\\\\b8ohdpat')"
p46
aS"(13, u'\\\\bagonist')"
p47
aS"(4, u'\\\\bpcpa')"
p48
aS"(49, u'\\\\bdoi')"
p49
aS"(35, u'\\\\badenosine')"
p50
aS"(51, u'\\\\bway100635')"
p51
aS"(12, u'\\\\bantagonist')"
p52
atp53
Rp54
sS'regions'
p55
g3
((lp56
tp57
Rp58
sS'year'
p59
V2005
p60
sS'species'
p61
g3
((lp62
S"(1, u'(?i)\\\\b(mice|mouse)\\\\b')"
p63
aS"(5, u'(?i)\\\\b(mices|mice)\\\\b')"
p64
atp65
Rp66
sb.