(ifile_types
ParseObject
p0
(dp1
S'antagonists'
p2
c__builtin__
set
p3
((lp4
S"(111, u'\\\\bolanzapine')"
p5
aS"(190, u'\\\\blurasidone')"
p6
aS"(58, u'\\\\bhaloperidol')"
p7
atp8
Rp9
sS'methods'
p10
g3
((lp11
S'Method.ANTAGONIST'
p12
aS'Method.AGONIST'
p13
atp14
Rp15
sS'topics'
p16
g3
((lp17
S"(15, u'\\\\bschizophreni')"
p18
aS"(6, u'\\\\bcognit')"
p19
atp20
Rp21
sS'receptors'
p22
g3
((lp23
S'5ht1a'
p24
aS'5ht2a'
p25
atp26
Rp27
sS'regions'
p28
g3
((lp29
S"(226, u'(?i)\\\\b(nuclei|nucleus)(-|\\\\s+)?(accumben|accumbens)\\\\b')"
p30
atp31
Rp32
sS'year'
p33
V2014
p34
sS'agonists'
p35
g3
((lp36
S"(57, u'\\\\bolanzapine')"
p37
aS"(47, u'\\\\blurasidone')"
p38
aS"(73, u'\\\\btandospirone')"
p39
aS"(43, u'\\\\bhaloperidol')"
p40
atp41
Rp42
sS'species'
p43
g3
((lp44
S"(5799, u'(?i)\\\\b(rodents|rodent)\\\\b')"
p45
aS"(6753, u'(?i)\\\\b(da|das)\\\\b')"
p46
aS"(5958, u'(?i)\\\\b(rats|rat)\\\\b')"
p47
atp48
Rp49
sb.