(ifile_types
ParseObject
p0
(dp1
S'methods'
p2
c__builtin__
set
p3
((lp4
tp5
Rp6
sS'topics'
p7
g3
((lp8
tp9
Rp10
sS'receptors'
p11
g3
((lp12
(S'5ht3'
p13
I865
I869
tp14
a(S'5ht1a'
p15
I1017
I1022
tp16
atp17
Rp18
sS'raw_text_methods'
p19
g3
((lp20
S"(48, u'\\\\bmdma')"
p21
atp22
Rp23
sS'regions'
p24
g3
((lp25
S"(19, u'(?i)\\\\b(cortexes|cortex)\\\\b')"
p26
atp27
Rp28
sS'year'
p29
V2010
p30
sS'species'
p31
g3
((lp32
S"(4, u'(?i)\\\\b(rats|rat)\\\\b')"
p33
atp34
Rp35
sb.