(ifile_types
ParseObject
p0
(dp1
S'methods'
p2
c__builtin__
set
p3
((lp4
S'Method.ANTAGONIST'
p5
atp6
Rp7
sS'topics'
p8
g3
((lp9
S"(18, u'\\\\bavoidan')"
p10
aS"(5, u'\\\\btherap')"
p11
aS"(26, u'\\\\bbehav')"
p12
atp13
Rp14
sS'receptors'
p15
g3
((lp16
(S'5ht1a'
p17
I937
I943
tp18
a(S'5ht1a'
p19
I1357
I1363
tp20
a(S'5ht1a'
p21
I688
I694
tp22
a(S'5ht1a'
p23
I295
I301
tp24
a(S'5ht1a'
p25
I519
I525
tp26
atp27
Rp28
sS'raw_text_methods'
p29
g3
((lp30
S"(51, u'\\\\bway100635')"
p31
aS"(12, u'\\\\bantagonist')"
p32
atp33
Rp34
sS'regions'
p35
g3
((lp36
tp37
Rp38
sS'year'
p39
V1997
p40
sS'species'
p41
g3
((lp42
tp43
Rp44
sb.