(ifile_types
ParseObject
p0
(dp1
S'antagonists'
p2
c__builtin__
set
p3
((lp4
S"(111, u'\\\\btramadol')"
p5
atp6
Rp7
sS'methods'
p8
g3
((lp9
S'Method.STIMULATION'
p10
aS'Method.AGONIST'
p11
atp12
Rp13
sS'topics'
p14
g3
((lp15
S"(24, u'\\\\banalgesi')"
p16
atp17
Rp18
sS'receptors'
p19
g3
((lp20
S'5ht5'
p21
aS'5ht3'
p22
aS'5ht1a'
p23
aS'5ht2a'
p24
atp25
Rp26
sS'regions'
p27
g3
((lp28
S"(49, u'(?i)(loci|locus)(-|\\\\s+)?(coeruleuses|coeruleus)')"
p29
atp30
Rp31
sS'year'
p32
V2001
p33
sS'agonists'
p34
g3
((lp35
S"(92, u'\\\\b8 ?oh ?dpat')"
p36
atp37
Rp38
sS'species'
p39
g3
((lp40
S"(2323, u'(?i)(bees|bee)')"
p41
aS"(6753, u'(?i)(da|das)')"
p42
aS"(5958, u'(?i)(rats|rat)')"
p43
aS"(867, u'(?i)(tits|tit)')"
p44
aS"(5743, u'(?i)(bots|bot)')"
p45
aS"(5967, u'(?i)(males|male)')"
p46
aS"(468, u'(?i)(oxen|ox)')"
p47
aS"(1349, u'(?i)(rams|ram)')"
p48
aS"(3726, u'(?i)(mates|mate)')"
p49
aS"(1055, u'(?i)(men|man)')"
p50
aS"(4964, u'(?i)(serins|serin)')"
p51
aS"(6249, u'(?i)(ants|ant)')"
p52
aS"(2809, u'(?i)(toms|tom)')"
p53
aS"(821, u'(?i)(lice|louse)')"
p54
aS"(5497, u'(?i)(fices|fice)')"
p55
atp56
Rp57
sb.