(ifile_types
ParseObject
p0
(dp1
S'methods'
p2
c__builtin__
set
p3
((lp4
S'Method.ANTAGONIST'
p5
aS'Method.AGONIST'
p6
atp7
Rp8
sS'topics'
p9
g3
((lp10
tp11
Rp12
sS'receptors'
p13
g3
((lp14
(S'5ht1a'
p15
I258
I264
tp16
a(S'5ht1a'
p17
I2056
I2062
tp18
a(S'5ht1a'
p19
I1071
I1077
tp20
a(S'5ht1a'
p21
I1762
I1768
tp22
a(S'5ht1a'
p23
I1229
I1235
tp24
a(S'5ht1a'
p25
I1403
I1409
tp26
atp27
Rp28
sS'raw_text_methods'
p29
g3
((lp30
S"(13, u'\\\\bagonist')"
p31
aS"(15, u'\\\\b8ohdpat')"
p32
aS"(12, u'\\\\bantagonist')"
p33
atp34
Rp35
sS'regions'
p36
g3
((lp37
tp38
Rp39
sS'year'
p40
V1997
p41
sS'species'
p42
g3
((lp43
S"(6, u'(?i)\\\\b(rodents|rodent)\\\\b')"
p44
atp45
Rp46
sb.