(ifile_types
ParseObject
p0
(dp1
S'methods'
p2
c__builtin__
set
p3
((lp4
S'Method.AGONIST'
p5
atp6
Rp7
sS'topics'
p8
g3
((lp9
tp10
Rp11
sS'receptors'
p12
g3
((lp13
(S'5ht4'
p14
I1248
I1252
tp15
atp16
Rp17
sS'raw_text_methods'
p18
g3
((lp19
tp20
Rp21
sS'regions'
p22
g3
((lp23
tp24
Rp25
sS'year'
p26
V1996
p27
sS'species'
p28
g3
((lp29
S"(1, u'(?i)\\\\b(mice|mouse)\\\\b')"
p30
aS"(5, u'(?i)\\\\b(mices|mice)\\\\b')"
p31
aS"(7, u'(?i)\\\\b(guineas|guinea)(-|\\\\s+)?(pigs|pig)\\\\b')"
p32
atp33
Rp34
sb.