(ifile_types
ParseObject
p0
(dp1
S'methods'
p2
c__builtin__
set
p3
((lp4
S'Method.ANTAGONIST'
p5
aS'Method.AGONIST'
p6
atp7
Rp8
sS'topics'
p9
g3
((lp10
S"(24, u'\\\\banxiolytic')"
p11
aS"(26, u'\\\\bbehav')"
p12
aS"(2, u'\\\\bdisorder')"
p13
aS"(13, u'\\\\bantidepress')"
p14
aS"(20, u'\\\\bmood')"
p15
aS"(8, u'\\\\banxi')"
p16
atp17
Rp18
sS'receptors'
p19
g3
((lp20
(S'5ht2c'
p21
I1121
I1127
tp22
a(S'5ht2c'
p23
I1002
I1008
tp24
a(S'5ht2c'
p25
I827
I833
tp26
a(S'5ht2c'
p27
I548
I554
tp28
a(S'5ht2c'
p29
I1882
I1888
tp30
a(S'5ht2c'
p31
I159
I165
tp32
a(S'5ht2c'
p33
I1405
I1411
tp34
a(S'5ht2c'
p35
I1733
I1739
tp36
a(S'5ht2c'
p37
I46
I52
tp38
a(S'5ht2c'
p39
I259
I265
tp40
a(S'5ht2c'
p41
I876
I882
tp42
a(S'5ht2c'
p43
I1212
I1218
tp44
atp45
Rp46
sS'raw_text_methods'
p47
g3
((lp48
S"(13, u'\\\\bagonist')"
p49
aS"(12, u'\\\\bantagonist')"
p50
atp51
Rp52
sS'regions'
p53
g3
((lp54
S"(11, u'(?i)\\\\b(cerebrals|cerebral)\\\\b')"
p55
aS"(19, u'(?i)\\\\b(cortexes|cortex)\\\\b')"
p56
aS"(12, u'(?i)\\\\b(amygdalas|amygdala)\\\\b')"
p57
aS"(23, u'(?i)\\\\b(forebrains|forebrain)\\\\b')"
p58
atp59
Rp60
sS'year'
p61
V2009
p62
sS'species'
p63
g3
((lp64
S"(1, u'(?i)\\\\b(mice|mouse)\\\\b')"
p65
aS"(5, u'(?i)\\\\b(mices|mice)\\\\b')"
p66
atp67
Rp68
sb.