(ifile_types
ParseObject
p0
(dp1
S'methods'
p2
c__builtin__
set
p3
((lp4
S'Method.PET'
p5
atp6
Rp7
sS'topics'
p8
g3
((lp9
S"(1, u'\\\\bpatient')"
p10
aS"(20, u'\\\\bmood')"
p11
aS"(2, u'\\\\bdisorder')"
p12
atp13
Rp14
sS'receptors'
p15
g3
((lp16
(S'5ht2a'
p17
I420
I426
tp18
a(S'5ht2a'
p19
I880
I886
tp20
a(S'5ht2a'
p21
I37
I48
tp22
a(S'5ht2a'
p23
I990
I996
tp24
atp25
Rp26
sS'raw_text_methods'
p27
g3
((lp28
S"(19, u'\\\\bpositron emission tomography')"
p29
aS"(18, u'\\\\bimaging')"
p30
atp31
Rp32
sS'regions'
p33
g3
((lp34
S"(19, u'(?i)\\\\b(cortexes|cortex)\\\\b')"
p35
atp36
Rp37
sS'year'
p38
V2001
p39
sS'species'
p40
g3
((lp41
S"(2, u'(?i)\\\\b(females|female)\\\\b')"
p42
atp43
Rp44
sb.