(ifile_types
ParseObject
p0
(dp1
S'antagonists'
p2
c__builtin__
set
p3
((lp4
S"(53, u'\\\\bketanserin')"
p5
aS"(32, u'\\\\bway ?100635')"
p6
aS"(128, u'\\\\bketanserin')"
p7
aS"(34, u'\\\\byohimbine')"
p8
atp9
Rp10
sS'methods'
p11
g3
((lp12
S'Method.ANTAGONIST'
p13
atp14
Rp15
sS'topics'
p16
g3
((lp17
S"(15, u'\\\\bschizophreni')"
p18
aS"(21, u'\\\\bpain')"
p19
atp20
Rp21
sS'receptors'
p22
g3
((lp23
S'5ht1a'
p24
aS'5ht5'
p25
aS'5ht2'
p26
atp27
Rp28
sS'regions'
p29
g3
((lp30
S"(292, u'(?i)(anteriors|anterior)(-|\\\\s+)?(cingulates|cingulate)')"
p31
aS"(91, u'(?i)(periaqueductals|periaqueductal)(-|\\\\s+)?(grays|gray)')"
p32
aS"(291, u'(?i)(cingulates|cingulate)(-|\\\\s+)?(cortexes|cortex)')"
p33
atp34
Rp35
sS'year'
p36
V2013
p37
sS'agonists'
p38
g3
((lp39
S"(89, u'\\\\byohimbine')"
p40
atp41
Rp42
sS'species'
p43
g3
((lp44
S"(5799, u'(?i)(rodents|rodent)')"
p45
aS"(5958, u'(?i)(rats|rat)')"
p46
aS"(163, u'(?i)(mice|mouse)')"
p47
aS"(4177, u'(?i)(grays|gray)')"
p48
aS"(468, u'(?i)(oxen|ox)')"
p49
aS"(1055, u'(?i)(men|man)')"
p50
aS"(6249, u'(?i)(ants|ant)')"
p51
aS"(2665, u'(?i)(rays|ray)')"
p52
aS"(4964, u'(?i)(serins|serin)')"
p53
aS"(3550, u'(?i)(anis|ani)')"
p54
aS"(3812, u'(?i)(studs|stud)')"
p55
aS"(2809, u'(?i)(toms|tom)')"
p56
aS"(5743, u'(?i)(bots|bot)')"
p57
aS"(6356, u'(?i)(ais|ai)')"
p58
atp59
Rp60
sb.