(ifile_types
ParseObject
p0
(dp1
S'methods'
p2
c__builtin__
set
p3
((lp4
S'Method.STAINING'
p5
atp6
Rp7
sS'topics'
p8
g3
((lp9
S"(3, u'\\\\bclinical')"
p10
atp11
Rp12
sS'receptors'
p13
g3
((lp14
(S'5ht1a'
p15
I1729
I1735
tp16
a(S'5ht1a'
p17
I794
I800
tp18
a(S'5ht1a'
p19
I1413
I1419
tp20
a(S'5ht1a'
p21
I175
I180
tp22
a(S'5ht1a'
p23
I1134
I1140
tp24
a(S'5ht1a'
p25
I61
I67
tp26
a(S'5ht1a'
p27
I312
I318
tp28
atp29
Rp30
sS'raw_text_methods'
p31
g3
((lp32
S"(2, u'\\\\blabeling')"
p33
aS"(3, u'\\\\bimmunoreactiv')"
p34
atp35
Rp36
sS'regions'
p37
g3
((lp38
S"(11, u'(?i)\\\\b(cerebrals|cerebral)\\\\b')"
p39
aS"(19, u'(?i)\\\\b(cortexes|cortex)\\\\b')"
p40
atp41
Rp42
sS'year'
p43
V1996
p44
sS'species'
p45
g3
((lp46
S"(1, u'(?i)\\\\b(mice|mouse)\\\\b')"
p47
aS"(8, u'(?i)\\\\b(primates|primate)\\\\b')"
p48
aS"(4, u'(?i)\\\\b(rats|rat)\\\\b')"
p49
atp50
Rp51
sb.