(ifile_types
ParseObject
p0
(dp1
S'methods'
p2
c__builtin__
set
p3
((lp4
S'Method.KNOCKOUT'
p5
atp6
Rp7
sS'topics'
p8
g3
((lp9
S"(5, u'\\\\btherap')"
p10
aS"(15, u'\\\\bmemory')"
p11
aS"(2, u'\\\\bdisorder')"
p12
atp13
Rp14
sS'receptors'
p15
g3
((lp16
(S'5ht3a'
p17
I407
I413
tp18
a(S'5ht3a'
p19
I31
I37
tp20
a(S'5ht3'
p21
I111
I116
tp22
a(S'5ht3a'
p23
I328
I334
tp24
a(S'5ht3a'
p25
I583
I589
tp26
atp27
Rp28
sS'raw_text_methods'
p29
g3
((lp30
tp31
Rp32
sS'regions'
p33
g3
((lp34
S"(19, u'(?i)\\\\b(cortexes|cortex)\\\\b')"
p35
aS"(12, u'(?i)\\\\b(amygdalas|amygdala)\\\\b')"
p36
atp37
Rp38
sS'year'
p39
V2013
p40
sS'species'
p41
g3
((lp42
S"(1, u'(?i)\\\\b(mice|mouse)\\\\b')"
p43
aS"(5, u'(?i)\\\\b(mices|mice)\\\\b')"
p44
atp45
Rp46
sb.