(ifile_types
ParseObject
p0
(dp1
S'methods'
p2
c__builtin__
set
p3
((lp4
S'Method.PET'
p5
atp6
Rp7
sS'topics'
p8
g3
((lp9
S"(14, u'\\\\bcogniti')"
p10
aS"(1, u'\\\\bpatient')"
p11
aS"(17, u'\\\\balzheimer')"
p12
aS"(3, u'\\\\bclinical')"
p13
atp14
Rp15
sS'receptors'
p16
g3
((lp17
(S'5ht1a'
p18
I988
I994
tp19
a(S'5ht1a'
p20
I837
I843
tp21
a(S'5ht1a'
p22
I1142
I1148
tp23
a(S'5ht1a'
p24
I436
I442
tp25
a(S'5ht1a'
p26
I303
I314
tp27
a(S'5ht1a'
p28
I317
I323
tp29
a(S'5ht1a'
p30
I26
I37
tp31
atp32
Rp33
sS'raw_text_methods'
p34
g3
((lp35
S"(17, u'\\\\bpet')"
p36
aS"(19, u'\\\\bpositron emission tomography')"
p37
aS"(18, u'\\\\bimaging')"
p38
aS"(54, u'\\\\bautoradiography')"
p39
atp40
Rp41
sS'regions'
p42
g3
((lp43
tp44
Rp45
sS'year'
p46
V2006
p47
sS'species'
p48
g3
((lp49
tp50
Rp51
sb.