(ifile_types
ParseObject
p0
(dp1
S'antagonists'
p2
c__builtin__
set
p3
((lp4
tp5
Rp6
sS'methods'
p7
g3
((lp8
S'Method.ANTAGONIST'
p9
atp10
Rp11
sS'topics'
p12
g3
((lp13
S"(33, u'\\\\balzheimers')"
p14
aS"(15, u'\\\\bschizophreni')"
p15
aS"(9, u'\\\\bdepress')"
p16
aS"(11, u'\\\\banxiolyt')"
p17
aS"(10, u'\\\\banxiety')"
p18
atp19
Rp20
sS'receptors'
p21
g3
((lp22
S'5ht7'
p23
aS'5ht6'
p24
aS'5ht5'
p25
aS'5ht2c'
p26
aS'5ht2a'
p27
atp28
Rp29
sS'regions'
p30
g3
((lp31
tp32
Rp33
sS'year'
p34
V2016
p35
sS'agonists'
p36
g3
((lp37
tp38
Rp39
sS'species'
p40
g3
((lp41
S"(4624, u'(?i)(apes|ape)')"
p42
aS"(6753, u'(?i)(da|das)')"
p43
aS"(2568, u'(?i)(hens|hen)')"
p44
aS"(7609, u'(?i)(erns|ern)')"
p45
aS"(5958, u'(?i)(rats|rat)')"
p46
aS"(4201, u'(?i)(kines|kine)')"
p47
aS"(468, u'(?i)(oxen|ox)')"
p48
aS"(1349, u'(?i)(rams|ram)')"
p49
aS"(6249, u'(?i)(ants|ant)')"
p50
aS"(1055, u'(?i)(men|man)')"
p51
aS"(4979, u'(?i)(cats|cat)')"
p52
aS"(3550, u'(?i)(anis|ani)')"
p53
aS"(1057, u'(?i)(humans|human)')"
p54
aS"(5229, u'(?i)(moles|mole)')"
p55
aS"(3812, u'(?i)(studs|stud)')"
p56
aS"(3196, u'(?i)(human|humans)')"
p57
aS"(7058, u'(?i)(does|doe)')"
p58
aS"(6356, u'(?i)(ais|ai)')"
p59
atp60
Rp61
sb.