(ifile_types
ParseObject
p0
(dp1
S'antagonists'
p2
c__builtin__
set
p3
((lp4
S"(183, u'\\\\bsb ?271046')"
p5
atp6
Rp7
sS'methods'
p8
g3
((lp9
S'Method.STAINING'
p10
aS'Method.ANTAGONIST'
p11
atp12
Rp13
sS'topics'
p14
g3
((lp15
S"(33, u'\\\\balzheimers')"
p16
aS"(6, u'\\\\bcognit')"
p17
atp18
Rp19
sS'receptors'
p20
g3
((lp21
S'5ht6'
p22
aS'5ht5'
p23
aS'5ht6a'
p24
atp25
Rp26
sS'regions'
p27
g3
((lp28
tp29
Rp30
sS'year'
p31
V2017
p32
sS'agonists'
p33
g3
((lp34
tp35
Rp36
sS'species'
p37
g3
((lp38
S"(5537, u'(?i)(hippos|hippo)')"
p39
aS"(5958, u'(?i)(rats|rat)')"
p40
aS"(6356, u'(?i)(ais|ai)')"
p41
aS"(163, u'(?i)(mice|mouse)')"
p42
aS"(6682, u'(?i)(tera|teras)')"
p43
aS"(468, u'(?i)(oxen|ox)')"
p44
aS"(1055, u'(?i)(men|man)')"
p45
aS"(6249, u'(?i)(ants|ant)')"
p46
aS"(5743, u'(?i)(bots|bot)')"
p47
aS"(3550, u'(?i)(anis|ani)')"
p48
aS"(4371, u'(?i)(lizas|liza)')"
p49
aS"(3812, u'(?i)(studs|stud)')"
p50
aS"(7609, u'(?i)(erns|ern)')"
p51
aS"(1683, u'(?i)(terns|tern)')"
p52
atp53
Rp54
sb.