(ifile_types
ParseObject
p0
(dp1
S'methods'
p2
c__builtin__
set
p3
((lp4
S'Method.ANTAGONIST'
p5
atp6
Rp7
sS'topics'
p8
g3
((lp9
tp10
Rp11
sS'receptors'
p12
g3
((lp13
(S'5ht3'
p14
I1366
I1371
tp15
a(S'5ht3'
p16
I343
I348
tp17
a(S'5ht3'
p18
I100
I105
tp19
atp20
Rp21
sS'raw_text_methods'
p22
g3
((lp23
S"(20, u'\\\\bondansetron')"
p24
aS"(12, u'\\\\bantagonist')"
p25
atp26
Rp27
sS'regions'
p28
g3
((lp29
S"(12, u'(?i)\\\\b(amygdalas|amygdala)\\\\b')"
p30
aS"(17, u'(?i)\\\\b(caudates|caudate)\\\\b')"
p31
aS"(18, u'(?i)\\\\b(putamens|putamen)\\\\b')"
p32
atp33
Rp34
sS'year'
p35
V1990
p36
sS'species'
p37
g3
((lp38
tp39
Rp40
sb.