(ifile_types
ParseObject
p0
(dp1
S'methods'
p2
c__builtin__
set
p3
((lp4
S'Method.ANTAGONIST'
p5
atp6
Rp7
sS'topics'
p8
g3
((lp9
S"(5, u'\\\\btherap')"
p10
aS"(13, u'\\\\bantidepress')"
p11
aS"(4, u'\\\\btreatment')"
p12
atp13
Rp14
sS'receptors'
p15
g3
((lp16
(S'5ht1a'
p17
I1369
I1375
tp18
a(S'5ht1a'
p19
I1504
I1510
tp20
a(S'5ht1a'
p21
I1191
I1197
tp22
a(S'5ht1a'
p23
I1605
I1611
tp24
a(S'5ht1a'
p25
I518
I524
tp26
atp27
Rp28
sS'raw_text_methods'
p29
g3
((lp30
S"(11, u'\\\\bfluoxetine')"
p31
aS"(38, u'\\\\bssri')"
p32
aS"(39, u'\\\\bselective serotonin reuptake inhibitor')"
p33
aS"(12, u'\\\\bantagonist')"
p34
atp35
Rp36
sS'regions'
p37
g3
((lp38
S"(20, u'(?i)\\\\b(prefrontals|prefrontal)\\\\b')"
p39
aS"(19, u'(?i)\\\\b(cortexes|cortex)\\\\b')"
p40
aS"(23, u'(?i)\\\\b(forebrains|forebrain)\\\\b')"
p41
atp42
Rp43
sS'year'
p44
V2007
p45
sS'species'
p46
g3
((lp47
S"(3, u'(?i)\\\\b(males|male)\\\\b')"
p48
aS"(4, u'(?i)\\\\b(rats|rat)\\\\b')"
p49
atp50
Rp51
sb.