(ifile_types
ParseObject
p0
(dp1
S'methods'
p2
c__builtin__
set
p3
((lp4
tp5
Rp6
sS'topics'
p7
g3
((lp8
S"(22, u'\\\\bschizophreni')"
p9
aS"(14, u'\\\\bcogniti')"
p10
aS"(26, u'\\\\bbehav')"
p11
aS"(17, u'\\\\balzheimer')"
p12
aS"(2, u'\\\\bdisorder')"
p13
aS"(16, u'\\\\blearning')"
p14
aS"(15, u'\\\\bmemory')"
p15
aS"(5, u'\\\\btherap')"
p16
atp17
Rp18
sS'receptors'
p19
g3
((lp20
(S'5ht1a'
p21
I1290
I1296
tp22
atp23
Rp24
sS'raw_text_methods'
p25
g3
((lp26
tp27
Rp28
sS'regions'
p29
g3
((lp30
tp31
Rp32
sS'year'
p33
V2014
p34
sS'species'
p35
g3
((lp36
S"(1, u'(?i)\\\\b(mice|mouse)\\\\b')"
p37
aS"(5, u'(?i)\\\\b(mices|mice)\\\\b')"
p38
aS"(4, u'(?i)\\\\b(rats|rat)\\\\b')"
p39
atp40
Rp41
sb.