(ifile_types
ParseObject
p0
(dp1
S'antagonists'
p2
c__builtin__
set
p3
((lp4
S"(128, u'\\\\bmetoclopramide')"
p5
aS"(26, u'\\\\bspiperone')"
p6
aS"(34, u'\\\\bmetergoline')"
p7
atp8
Rp9
sS'methods'
p10
g3
((lp11
S'Method.ANTAGONIST'
p12
aS'Method.AGONIST'
p13
atp14
Rp15
sS'topics'
p16
g3
((lp17
tp18
Rp19
sS'receptors'
p20
g3
((lp21
S'5ht3'
p22
aS'5ht1'
p23
aS'5ht2a'
p24
atp25
Rp26
sS'regions'
p27
g3
((lp28
S"(2, u'(?i)\\\\b(medullas|medulla)(-|\\\\s+)?(oblongatas|oblongata)\\\\b')"
p29
atp30
Rp31
sS'year'
p32
V1989
p33
sS'agonists'
p34
g3
((lp35
S"(149, u'\\\\bmem')"
p36
aS"(191, u'\\\\bphenylbiguanide')"
p37
aS"(192, u'\\\\bquipazine')"
p38
aS"(155, u'\\\\bmcpp')"
p39
aS"(209, u'\\\\bmetoclopramide')"
p40
aS"(176, u'\\\\bdom')"
p41
aS"(186, u'\\\\b2 ?methyl ?5 ?ht')"
p42
atp43
Rp44
sS'species'
p45
g3
((lp46
S"(473, u'(?i)\\\\b(rabbits|rabbit)\\\\b')"
p47
aS"(4979, u'(?i)\\\\b(cats|cat)\\\\b')"
p48
atp49
Rp50
sb.