(ifile_types
ParseObject
p0
(dp1
S'antagonists'
p2
c__builtin__
set
p3
((lp4
S"(54, u'\\\\britanserin')"
p5
aS"(21, u'\\\\bpindolol')"
p6
aS"(123, u'\\\\bclozapine')"
p7
aS"(130, u'\\\\britanserin')"
p8
aS"(56, u'\\\\bclozapine')"
p9
atp10
Rp11
sS'methods'
p12
g3
((lp13
S'Method.ANTAGONIST'
p14
aS'Method.AGONIST'
p15
atp16
Rp17
sS'topics'
p18
g3
((lp19
tp20
Rp21
sS'receptors'
p22
g3
((lp23
S'5ht7'
p24
aS'5ht6'
p25
aS'5ht1a'
p26
aS'5ht2'
p27
atp28
Rp29
sS'regions'
p30
g3
((lp31
tp32
Rp33
sS'year'
p34
V2002
p35
sS'agonists'
p36
g3
((lp37
S"(92, u'\\\\b8 ?oh ?dpat')"
p38
aS"(27, u'\\\\bclozapine')"
p39
atp40
Rp41
sS'species'
p42
g3
((lp43
S"(5958, u'(?i)(rats|rat)')"
p44
aS"(4979, u'(?i)(cats|cat)')"
p45
aS"(468, u'(?i)(oxen|ox)')"
p46
aS"(1055, u'(?i)(men|man)')"
p47
aS"(4964, u'(?i)(serins|serin)')"
p48
aS"(6249, u'(?i)(ants|ant)')"
p49
aS"(3522, u'(?i)(tetras|tetra)')"
p50
aS"(6356, u'(?i)(ais|ai)')"
p51
aS"(821, u'(?i)(lice|louse)')"
p52
aS"(4133, u'(?i)(pikes|pike)')"
p53
atp54
Rp55
sb.