(ifile_types
ParseObject
p0
(dp1
S'methods'
p2
c__builtin__
set
p3
((lp4
S'Method.ANTAGONIST'
p5
aS'Method.AGONIST'
p6
atp7
Rp8
sS'topics'
p9
g3
((lp10
S"(3, u'\\\\bclinical')"
p11
atp12
Rp13
sS'receptors'
p14
g3
((lp15
(S'5ht1a'
p16
I1191
I1197
tp17
a(S'5ht1a'
p18
I298
I304
tp19
a(S'5ht1a'
p20
I1588
I1594
tp21
a(S'5ht1a'
p22
I622
I628
tp23
a(S'5ht1a'
p24
I285
I296
tp25
a(S'5ht1a'
p26
I463
I469
tp27
a(S'5ht1a'
p28
I1378
I1384
tp29
a(S'5ht1a'
p30
I61
I72
tp31
atp32
Rp33
sS'raw_text_methods'
p34
g3
((lp35
S"(13, u'\\\\bagonist')"
p36
aS"(12, u'\\\\bantagonist')"
p37
atp38
Rp39
sS'regions'
p40
g3
((lp41
tp42
Rp43
sS'year'
p44
V2004
p45
sS'species'
p46
g3
((lp47
tp48
Rp49
sb.