(ifile_types
ParseObject
p0
(dp1
S'methods'
p2
c__builtin__
set
p3
((lp4
S'Method.PET'
p5
aS'Method.AGONIST'
p6
atp7
Rp8
sS'topics'
p9
g3
((lp10
tp11
Rp12
sS'receptors'
p13
g3
((lp14
(S'5ht1b'
p15
I1371
I1377
tp16
a(S'5ht1b'
p17
I109
I115
tp18
a(S'5ht1b'
p19
I432
I438
tp20
atp21
Rp22
sS'raw_text_methods'
p23
g3
((lp24
S"(13, u'\\\\bagonist')"
p25
aS"(17, u'\\\\bpet')"
p26
aS"(19, u'\\\\bpositron emission tomography')"
p27
aS"(18, u'\\\\bimaging')"
p28
atp29
Rp30
sS'regions'
p31
g3
((lp32
S"(11, u'(?i)\\\\b(cerebrals|cerebral)\\\\b')"
p33
atp34
Rp35
sS'year'
p36
V2018
p37
sS'species'
p38
g3
((lp39
tp40
Rp41
sb.