(ifile_types
ParseObject
p0
(dp1
S'antagonists'
p2
c__builtin__
set
p3
((lp4
S"(32, u'\\\\bway ?100635')"
p5
aS"(102, u'\\\\bfluoxetine')"
p6
aS"(45, u'\\\\bgr ?127935')"
p7
atp8
Rp9
sS'methods'
p10
g3
((lp11
S'Method.ANTAGONIST'
p12
atp13
Rp14
sS'topics'
p15
g3
((lp16
tp17
Rp18
sS'receptors'
p19
g3
((lp20
S'5ht1b'
p21
aS'5ht1a'
p22
aS'5ht1d'
p23
atp24
Rp25
sS'regions'
p26
g3
((lp27
S"(318, u'(?i)(raphes|raphe)(-|\\\\s+)?(nuclei|nucleus)')"
p28
atp29
Rp30
sS'year'
p31
V1998
p32
sS'agonists'
p33
g3
((lp34
tp35
Rp36
sS'species'
p37
g3
((lp38
S"(5537, u'(?i)(hippos|hippo)')"
p39
aS"(2568, u'(?i)(hens|hen)')"
p40
aS"(5743, u'(?i)(bots|bot)')"
p41
aS"(468, u'(?i)(oxen|ox)')"
p42
aS"(1349, u'(?i)(rams|ram)')"
p43
aS"(6249, u'(?i)(ants|ant)')"
p44
aS"(853, u'(?i)(minas|mina)')"
p45
aS"(5958, u'(?i)(rats|rat)')"
p46
aS"(1961, u'(?i)(pens|pen)')"
p47
aS"(6356, u'(?i)(ais|ai)')"
p48
atp49
Rp50
sb.