(ifile_types
ParseObject
p0
(dp1
S'methods'
p2
c__builtin__
set
p3
((lp4
S'Method.ANTAGONIST'
p5
atp6
Rp7
sS'topics'
p8
g3
((lp9
S"(30, u'\\\\bpain')"
p10
aS"(35, u'\\\\bnocicept')"
p11
atp12
Rp13
sS'receptors'
p14
g3
((lp15
(S'5ht2'
p16
I1343
I1347
tp17
a(S'5ht2'
p18
I719
I723
tp19
a(S'5ht3'
p20
I754
I758
tp21
atp22
Rp23
sS'raw_text_methods'
p24
g3
((lp25
S"(9, u'\\\\britanserin')"
p26
aS"(25, u'\\\\bics205930')"
p27
aS"(12, u'\\\\bantagonist')"
p28
atp29
Rp30
sS'regions'
p31
g3
((lp32
tp33
Rp34
sS'year'
p35
V1992
p36
sS'species'
p37
g3
((lp38
S"(4, u'(?i)\\\\b(rats|rat)\\\\b')"
p39
atp40
Rp41
sb.