(ifile_types
ParseObject
p0
(dp1
S'antagonists'
p2
c__builtin__
set
p3
((lp4
tp5
Rp6
sS'methods'
p7
g3
((lp8
S'Method.ANTAGONIST'
p9
atp10
Rp11
sS'topics'
p12
g3
((lp13
S"(9, u'\\\\bdepress')"
p14
atp15
Rp16
sS'receptors'
p17
g3
((lp18
S'5ht1b'
p19
atp20
Rp21
sS'regions'
p22
g3
((lp23
S"(174, u'(?i)\\\\b(posteriors|posterior)\\\\b')"
p24
atp25
Rp26
sS'year'
p27
V1997
p28
sS'agonists'
p29
g3
((lp30
S"(149, u'\\\\bmem')"
p31
aS"(189, u'\\\\bethanol')"
p32
atp33
Rp34
sS'species'
p35
g3
((lp36
S"(2327, u'(?i)\\\\b(bovines|bovine)\\\\b')"
p37
aS"(6753, u'(?i)\\\\b(da|das)\\\\b')"
p38
atp39
Rp40
sb.