(ifile_types
ParseObject
p0
(dp1
S'antagonists'
p2
c__builtin__
set
p3
((lp4
tp5
Rp6
sS'methods'
p7
g3
((lp8
S'Method.STIMULATION'
p9
aS'Method.AGONIST'
p10
atp11
Rp12
sS'topics'
p13
g3
((lp14
S"(35, u'\\\\bstress')"
p15
aS"(10, u'\\\\banxiety')"
p16
atp17
Rp18
sS'receptors'
p19
g3
((lp20
S'5ht5'
p21
aS'5ht1a'
p22
atp23
Rp24
sS'regions'
p25
g3
((lp26
S"(318, u'(?i)(raphes|raphe)(-|\\\\s+)?(nuclei|nucleus)')"
p27
aS"(34, u'(?i)(pon|pons)')"
p28
atp29
Rp30
sS'year'
p31
V2014
p32
sS'agonists'
p33
g3
((lp34
S"(80, u'\\\\btandospirone')"
p35
aS"(92, u'\\\\b8 ?oh ?dpat')"
p36
atp37
Rp38
sS'species'
p39
g3
((lp40
S"(2323, u'(?i)(bees|bee)')"
p41
aS"(5537, u'(?i)(hippos|hippo)')"
p42
aS"(5958, u'(?i)(rats|rat)')"
p43
aS"(6125, u'(?i)(females|female)')"
p44
aS"(5967, u'(?i)(males|male)')"
p45
aS"(1055, u'(?i)(men|man)')"
p46
aS"(6249, u'(?i)(ants|ant)')"
p47
aS"(6753, u'(?i)(da|das)')"
p48
aS"(3550, u'(?i)(anis|ani)')"
p49
aS"(3812, u'(?i)(studs|stud)')"
p50
aS"(6391, u'(?i)(asses|ass)')"
p51
atp52
Rp53
sb.