(ifile_types
ParseObject
p0
(dp1
S'antagonists'
p2
c__builtin__
set
p3
((lp4
S"(153, u'\\\\bgr ?113808')"
p5
atp6
Rp7
sS'methods'
p8
g3
((lp9
tp10
Rp11
sS'topics'
p12
g3
((lp13
tp14
Rp15
sS'receptors'
p16
g3
((lp17
S'5ht4'
p18
atp19
Rp20
sS'regions'
p21
g3
((lp22
S"(227, u'(?i)(olfactories|olfactory)(-|\\\\s+)?(tubercles|tubercle)')"
p23
aS"(220, u'(?i)(striatums|striatum)')"
p24
aS"(157, u'(?i)(limbics|limbic)(-|\\\\s+)?(systems|system)')"
p25
aS"(103, u'(?i)(substantias|substantia)(-|\\\\s+)?(nigras|nigra)')"
p26
aS"(34, u'(?i)(pon|pons)')"
p27
atp28
Rp29
sS'year'
p30
V1994
p31
sS'agonists'
p32
g3
((lp33
tp34
Rp35
sS'species'
p36
g3
((lp37
S"(2323, u'(?i)(bees|bee)')"
p38
aS"(5958, u'(?i)(rats|rat)')"
p39
aS"(867, u'(?i)(tits|tit)')"
p40
aS"(6521, u'(?i)(macaques|macaque)')"
p41
aS"(7539, u'(?i)(mammals|mammal)')"
p42
aS"(3051, u'(?i)(pigs|pig)')"
p43
aS"(1055, u'(?i)(men|man)')"
p44
aS"(7540, u'(?i)(mammalians|mammalian)')"
p45
aS"(3062, u'(?i)(guineas|guinea)')"
p46
aS"(3812, u'(?i)(studs|stud)')"
p47
aS"(6249, u'(?i)(ants|ant)')"
p48
aS"(1414, u'(?i)(chars|char)')"
p49
aS"(391, u'(?i)(alli|allis)')"
p50
aS"(2341, u'(?i)(monkeys|monkey)')"
p51
aS"(4480, u'(?i)(guineas|guinea)(-|\\\\s+)?(pigs|pig)')"
p52
aS"(6356, u'(?i)(ais|ai)')"
p53
atp54
Rp55
sb.