(ifile_types
ParseObject
p0
(dp1
S'antagonists'
p2
c__builtin__
set
p3
((lp4
S"(34, u'\\\\bmetergoline')"
p5
aS"(21, u'\\\\bpindolol')"
p6
aS"(144, u'\\\\bgr ?113808')"
p7
aS"(193, u'\\\\bmesulergine')"
p8
aS"(96, u'\\\\brs ?102221')"
p9
aS"(113, u'\\\\brisperidone')"
p10
aS"(115, u'\\\\bcinanserin')"
p11
aS"(124, u'\\\\bondansetron')"
p12
aS"(33, u'\\\\byohimbine')"
p13
aS"(119, u'\\\\britanserin')"
p14
atp15
Rp16
sS'methods'
p17
g3
((lp18
S'Method.ANTAGONIST'
p19
aS'Method.AGONIST'
p20
atp21
Rp22
sS'topics'
p23
g3
((lp24
tp25
Rp26
sS'receptors'
p27
g3
((lp28
S'5ht7'
p29
atp30
Rp31
sS'regions'
p32
g3
((lp33
S"(71, u'(?i)\\\\b(cerebellums|cerebellum)\\\\b')"
p34
atp35
Rp36
sS'year'
p37
V1999
p38
sS'agonists'
p39
g3
((lp40
S"(220, u'\\\\b5 ?methoxytryptamine')"
p41
aS"(96, u'\\\\bsumatriptan')"
p42
aS"(165, u'\\\\bmesulergine')"
p43
aS"(222, u'\\\\b5 ?meot')"
p44
aS"(158, u'\\\\blsd')"
p45
aS"(82, u'\\\\byohimbine')"
p46
aS"(98, u'\\\\b5 ?carboxamidotryptamine')"
p47
aS"(219, u'\\\\b5 ?ct')"
p48
atp49
Rp50
sS'species'
p51
g3
((lp52
S"(5958, u'(?i)\\\\b(rats|rat)\\\\b')"
p53
aS"(3051, u'(?i)\\\\b(pigs|pig)\\\\b')"
p54
aS"(4480, u'(?i)\\\\b(guineas|guinea)(-|\\\\s+)?(pigs|pig)\\\\b')"
p55
aS"(3062, u'(?i)\\\\b(guineas|guinea)\\\\b')"
p56
atp57
Rp58
sb.