(ifile_types
ParseObject
p0
(dp1
S'antagonists'
p2
c__builtin__
set
p3
((lp4
S"(23, u'\\\\brisperidone')"
p5
aS"(54, u'\\\\britanserin')"
p6
aS"(59, u'\\\\brisperidone')"
p7
aS"(130, u'\\\\britanserin')"
p8
atp9
Rp10
sS'methods'
p11
g3
((lp12
S'Method.ANTAGONIST'
p13
aS'Method.AGONIST'
p14
atp15
Rp16
sS'topics'
p17
g3
((lp18
S"(15, u'\\\\bschizophreni')"
p19
aS"(35, u'\\\\bstress')"
p20
atp21
Rp22
sS'receptors'
p23
g3
((lp24
S'5ht5'
p25
aS'5ht2'
p26
aS'5ht2a'
p27
atp28
Rp29
sS'regions'
p30
g3
((lp31
S"(34, u'(?i)(pon|pons)')"
p32
atp33
Rp34
sS'year'
p35
V2014
p36
sS'agonists'
p37
g3
((lp38
S"(33, u'\\\\bdoi')"
p39
atp40
Rp41
sS'species'
p42
g3
((lp43
S"(4163, u'(?i)(ermines|ermine)')"
p44
aS"(6356, u'(?i)(ais|ai)')"
p45
aS"(6249, u'(?i)(ants|ant)')"
p46
aS"(3812, u'(?i)(studs|stud)')"
p47
aS"(3196, u'(?i)(human|humans)')"
p48
aS"(1688, u'(?i)(ounces|ounce)')"
p49
aS"(1667, u'(?i)(polyps|polyp)')"
p50
aS"(702, u'(?i)(genets|genet)')"
p51
aS"(468, u'(?i)(oxen|ox)')"
p52
aS"(3550, u'(?i)(anis|ani)')"
p53
aS"(5958, u'(?i)(rats|rat)')"
p54
aS"(163, u'(?i)(mice|mouse)')"
p55
aS"(2395, u'(?i)(mutants|mutant)')"
p56
aS"(1055, u'(?i)(men|man)')"
p57
aS"(4979, u'(?i)(cats|cat)')"
p58
aS"(1057, u'(?i)(humans|human)')"
p59
aS"(1961, u'(?i)(pens|pen)')"
p60
aS"(978, u'(?i)(pacas|paca)')"
p61
aS"(2054, u'(?i)(heads|head)')"
p62
aS"(3726, u'(?i)(mates|mate)')"
p63
aS"(1054, u'(?i)(homoes|homo)')"
p64
aS"(4964, u'(?i)(serins|serin)')"
p65
atp66
Rp67
sb.