(ifile_types
ParseObject
p0
(dp1
S'methods'
p2
c__builtin__
set
p3
((lp4
S'Method.AGONIST'
p5
atp6
Rp7
sS'topics'
p8
g3
((lp9
S"(33, u'\\\\blocomot')"
p10
aS"(7, u'\\\\bdepressi')"
p11
aS"(26, u'\\\\bbehav')"
p12
aS"(2, u'\\\\bdisorder')"
p13
atp14
Rp15
sS'receptors'
p16
g3
((lp17
(S'5ht1a'
p18
I817
I823
tp19
a(S'5ht1a'
p20
I1859
I1865
tp21
a(S'5ht1a'
p22
I1177
I1183
tp23
a(S'5ht1a'
p24
I1733
I1739
tp25
a(S'5ht1a'
p26
I1585
I1591
tp27
a(S'5ht1a'
p28
I1014
I1020
tp29
a(S'5ht1a'
p30
I175
I181
tp31
a(S'5ht1a'
p32
I1446
I1452
tp33
a(S'5ht1a'
p34
I603
I609
tp35
atp36
Rp37
sS'raw_text_methods'
p38
g3
((lp39
S"(13, u'\\\\bagonist')"
p40
aS"(15, u'\\\\b8ohdpat')"
p41
atp42
Rp43
sS'regions'
p44
g3
((lp45
S"(4, u'(?i)\\\\b(presynaptics|presynaptic)\\\\b')"
p46
aS"(3, u'(?i)\\\\b(postsynaptics|postsynaptic)\\\\b')"
p47
atp48
Rp49
sS'year'
p50
V2016
p51
sS'species'
p52
g3
((lp53
S"(1, u'(?i)\\\\b(mice|mouse)\\\\b')"
p54
aS"(5, u'(?i)\\\\b(mices|mice)\\\\b')"
p55
atp56
Rp57
sb.