(ifile_types
ParseObject
p0
(dp1
S'antagonists'
p2
c__builtin__
set
p3
((lp4
tp5
Rp6
sS'methods'
p7
g3
((lp8
tp9
Rp10
sS'topics'
p11
g3
((lp12
S"(9, u'\\\\bdepress')"
p13
aS"(16, u'\\\\bfeed')"
p14
aS"(10, u'\\\\banxiety')"
p15
atp16
Rp17
sS'receptors'
p18
g3
((lp19
S'5ht1b'
p20
aS'5ht1'
p21
aS'5ht1d'
p22
atp23
Rp24
sS'regions'
p25
g3
((lp26
tp27
Rp28
sS'year'
p29
V1992
p30
sS'agonists'
p31
g3
((lp32
S"(103, u'\\\\bsumatriptan')"
p33
atp34
Rp35
sS'species'
p36
g3
((lp37
S"(2323, u'(?i)(bees|bee)')"
p38
aS"(5035, u'(?i)(harts|hart)')"
p39
aS"(5917, u'(?i)(roaches|roach)')"
p40
aS"(4979, u'(?i)(cats|cat)')"
p41
aS"(81, u'(?i)(asps|asp)')"
p42
aS"(1055, u'(?i)(men|man)')"
p43
aS"(6249, u'(?i)(ants|ant)')"
p44
aS"(1054, u'(?i)(homoes|homo)')"
p45
aS"(3812, u'(?i)(studs|stud)')"
p46
aS"(5958, u'(?i)(rats|rat)')"
p47
aS"(5229, u'(?i)(moles|mole)')"
p48
aS"(1414, u'(?i)(chars|char)')"
p49
aS"(6391, u'(?i)(asses|ass)')"
p50
aS"(577, u'(?i)(orphans|orphan)')"
p51
aS"(5743, u'(?i)(bots|bot)')"
p52
aS"(6356, u'(?i)(ais|ai)')"
p53
aS"(5949, u'(?i)(dogs|dog)')"
p54
atp55
Rp56
sb.