(ifile_types
ParseObject
p0
(dp1
S'methods'
p2
c__builtin__
set
p3
((lp4
S'Method.ANTAGONIST'
p5
aS'Method.AGONIST'
p6
atp7
Rp8
sS'topics'
p9
g3
((lp10
S"(14, u'\\\\bcogniti')"
p11
aS"(13, u'\\\\bantidepress')"
p12
aS"(17, u'\\\\balzheimer')"
p13
aS"(7, u'\\\\bdepressi')"
p14
aS"(33, u'\\\\blocomot')"
p15
aS"(26, u'\\\\bbehav')"
p16
aS"(1, u'\\\\bpatient')"
p17
aS"(4, u'\\\\btreatment')"
p18
atp19
Rp20
sS'receptors'
p21
g3
((lp22
(S'5ht1a'
p23
I1772
I1778
tp24
a(S'5ht1a'
p25
I1092
I1098
tp26
a(S'5ht1a'
p27
I1263
I1269
tp28
a(S'5ht1a'
p29
I1442
I1448
tp30
a(S'5ht2a'
p31
I1154
I1160
tp32
a(S'5ht2a'
p33
I1787
I1793
tp34
a(S'5ht1a'
p35
I111
I117
tp36
atp37
Rp38
sS'raw_text_methods'
p39
g3
((lp40
S"(13, u'\\\\bagonist')"
p41
aS"(51, u'\\\\bway100635')"
p42
aS"(53, u'\\\\bketanserin')"
p43
aS"(12, u'\\\\bantagonist')"
p44
atp45
Rp46
sS'regions'
p47
g3
((lp48
tp49
Rp50
sS'year'
p51
V2014
p52
sS'species'
p53
g3
((lp54
S"(1, u'(?i)\\\\b(mice|mouse)\\\\b')"
p55
aS"(5, u'(?i)\\\\b(mices|mice)\\\\b')"
p56
atp57
Rp58
sb.