(ifile_types
ParseObject
p0
(dp1
S'antagonists'
p2
c__builtin__
set
p3
((lp4
tp5
Rp6
sS'methods'
p7
g3
((lp8
S'Method.ANTAGONIST'
p9
aS'Method.AGONIST'
p10
atp11
Rp12
sS'topics'
p13
g3
((lp14
S"(30, u'\\\\bparkinsons')"
p15
aS"(4, u'\\\\blocomot')"
p16
atp17
Rp18
sS'receptors'
p19
g3
((lp20
S'5ht1b'
p21
aS'5ht1a'
p22
atp23
Rp24
sS'regions'
p25
g3
((lp26
tp27
Rp28
sS'year'
p29
V2003
p30
sS'agonists'
p31
g3
((lp32
S"(153, u'\\\\bmdma')"
p33
atp34
Rp35
sS'species'
p36
g3
((lp37
S"(6249, u'(?i)(ants|ant)')"
p38
aS"(2568, u'(?i)(hens|hen)')"
p39
aS"(5958, u'(?i)(rats|rat)')"
p40
aS"(2401, u'(?i)(primates|primate)')"
p41
aS"(4201, u'(?i)(kines|kine)')"
p42
aS"(468, u'(?i)(oxen|ox)')"
p43
aS"(1349, u'(?i)(rams|ram)')"
p44
aS"(3726, u'(?i)(mates|mate)')"
p45
aS"(1055, u'(?i)(men|man)')"
p46
aS"(6356, u'(?i)(ais|ai)')"
p47
aS"(3550, u'(?i)(anis|ani)')"
p48
aS"(1553, u'(?i)(mews|mew)')"
p49
aS"(3812, u'(?i)(studs|stud)')"
p50
aS"(3522, u'(?i)(tetras|tetra)')"
p51
aS"(2809, u'(?i)(toms|tom)')"
p52
aS"(675, u'(?i)(marmosets|marmoset)')"
p53
atp54
Rp55
sb.