(ifile_types
ParseObject
p0
(dp1
S'methods'
p2
c__builtin__
set
p3
((lp4
tp5
Rp6
sS'topics'
p7
g3
((lp8
S"(13, u'\\\\bantidepress')"
p9
aS"(26, u'\\\\bbehav')"
p10
aS"(4, u'\\\\btreatment')"
p11
atp12
Rp13
sS'receptors'
p14
g3
((lp15
(S'5ht2a'
p16
I645
I651
tp17
a(S'5ht2a'
p18
I1065
I1071
tp19
a(S'5ht2c'
p20
I1546
I1553
tp21
a(S'5ht2a'
p22
I1546
I1552
tp23
a(S'5ht2c'
p24
I645
I652
tp25
a(S'5ht1a'
p26
I632
I638
tp27
a(S'5ht1a'
p28
I1533
I1539
tp29
a(S'5ht1'
p30
I632
I638
tp31
a(S'5ht2c'
p32
I1065
I1072
tp33
a(S'5ht1a'
p34
I1223
I1229
tp35
atp36
Rp37
sS'raw_text_methods'
p38
g3
((lp39
tp40
Rp41
sS'regions'
p42
g3
((lp43
tp44
Rp45
sS'year'
p46
V2003
p47
sS'species'
p48
g3
((lp49
tp50
Rp51
sb.