(ifile_types
ParseObject
p0
(dp1
S'methods'
p2
c__builtin__
set
p3
((lp4
S'Method.KNOCKDOWN'
p5
aS'Method.ANTAGONIST'
p6
aS'Method.AGONIST'
p7
atp8
Rp9
sS'topics'
p10
g3
((lp11
S"(14, u'\\\\bcogniti')"
p12
aS"(16, u'\\\\blearning')"
p13
aS"(26, u'\\\\bbehav')"
p14
aS"(15, u'\\\\bmemory')"
p15
atp16
Rp17
sS'receptors'
p18
g3
((lp19
(S'5ht7'
p20
I1308
I1313
tp21
a(S'5ht7'
p22
I1544
I1549
tp23
a(S'5ht1'
p24
I1497
I1502
tp25
a(S'5ht1'
p26
I1000
I1005
tp27
a(S'5ht1'
p28
I1160
I1165
tp29
a(S'5ht2'
p30
I1242
I1247
tp31
a(S'5ht2'
p32
I1482
I1487
tp33
a(S'5ht2'
p34
I1018
I1023
tp35
a(S'5ht7'
p36
I1043
I1048
tp37
a(S'5ht2'
p38
I1031
I1036
tp39
atp40
Rp41
sS'raw_text_methods'
p42
g3
((lp43
S"(13, u'\\\\bagonist')"
p44
aS"(14, u'\\\\bknockdown')"
p45
aS"(12, u'\\\\bantagonist')"
p46
atp47
Rp48
sS'regions'
p49
g3
((lp50
tp51
Rp52
sS'year'
p53
V2011
p54
sS'species'
p55
g3
((lp56
tp57
Rp58
sb.