(ifile_types
ParseObject
p0
(dp1
S'antagonists'
p2
c__builtin__
set
p3
((lp4
S"(110, u'\\\\bclozapine')"
p5
aS"(113, u'\\\\brisperidone')"
p6
aS"(31, u'\\\\bway ?100635')"
p7
aS"(52, u'\\\\bmdl ?100907')"
p8
atp9
Rp10
sS'methods'
p11
g3
((lp12
S'Method.ANTAGONIST'
p13
atp14
Rp15
sS'topics'
p16
g3
((lp17
tp18
Rp19
sS'receptors'
p20
g3
((lp21
S'5ht1a'
p22
aS'5ht2a'
p23
atp24
Rp25
sS'regions'
p26
g3
((lp27
S"(94, u'(?i)\\\\b(dorsals|dorsal)(-|\\\\s+)?(raphes|raphe)(-|\\\\s+)?(nuclei|nucleus)\\\\b')"
p28
aS"(318, u'(?i)\\\\b(raphes|raphe)(-|\\\\s+)?(nuclei|nucleus)\\\\b')"
p29
atp30
Rp31
sS'year'
p32
V1997
p33
sS'agonists'
p34
g3
((lp35
S"(23, u'\\\\bclozapine')"
p36
atp37
Rp38
sS'species'
p39
g3
((lp40
S"(5944, u'(?i)\\\\b(soles|sole)\\\\b')"
p41
aS"(5958, u'(?i)\\\\b(rats|rat)\\\\b')"
p42
atp43
Rp44
sb.