(ifile_types
ParseObject
p0
(dp1
S'antagonists'
p2
c__builtin__
set
p3
((lp4
tp5
Rp6
sS'methods'
p7
g3
((lp8
S'Method.PET'
p9
aS'Method.ANTAGONIST'
p10
atp11
Rp12
sS'topics'
p13
g3
((lp14
S"(10, u'\\\\banxiety')"
p15
aS"(1, u'\\\\bmood')"
p16
atp17
Rp18
sS'receptors'
p19
g3
((lp20
S'5ht1a'
p21
atp22
Rp23
sS'regions'
p24
g3
((lp25
S"(248, u'(?i)(cerebrals|cerebral)(-|\\\\s+)?(cortexes|cortex)')"
p26
aS"(209, u'(?i)(amygdalas|amygdala)')"
p27
atp28
Rp29
sS'year'
p30
V2016
p31
sS'agonists'
p32
g3
((lp33
tp34
Rp35
sS'species'
p36
g3
((lp37
S"(1961, u'(?i)(pens|pen)')"
p38
aS"(4163, u'(?i)(ermines|ermine)')"
p39
aS"(6356, u'(?i)(ais|ai)')"
p40
aS"(5958, u'(?i)(rats|rat)')"
p41
aS"(5229, u'(?i)(moles|mole)')"
p42
aS"(3812, u'(?i)(studs|stud)')"
p43
aS"(3196, u'(?i)(human|humans)')"
p44
aS"(1070, u'(?i)(pets|pet)')"
p45
aS"(479, u'(?i)(lings|ling)')"
p46
aS"(468, u'(?i)(oxen|ox)')"
p47
aS"(1349, u'(?i)(rams|ram)')"
p48
aS"(2942, u'(?i)(daws|daw)')"
p49
aS"(3522, u'(?i)(tetras|tetra)')"
p50
aS"(5537, u'(?i)(hippos|hippo)')"
p51
aS"(6249, u'(?i)(ants|ant)')"
p52
aS"(867, u'(?i)(tits|tit)')"
p53
aS"(1055, u'(?i)(men|man)')"
p54
aS"(6753, u'(?i)(da|das)')"
p55
aS"(1057, u'(?i)(humans|human)')"
p56
aS"(4371, u'(?i)(lizas|liza)')"
p57
aS"(2568, u'(?i)(hens|hen)')"
p58
aS"(4663, u'(?i)(nags|nag)')"
p59
aS"(1054, u'(?i)(homoes|homo)')"
p60
atp61
Rp62
sb.