(ifile_types
ParseObject
p0
(dp1
S'methods'
p2
c__builtin__
set
p3
((lp4
S'Method.ANTAGONIST'
p5
aS'Method.AGONIST'
p6
atp7
Rp8
sS'topics'
p9
g3
((lp10
S"(14, u'\\\\bcogniti')"
p11
aS"(13, u'\\\\bantidepress')"
p12
aS"(20, u'\\\\bmood')"
p13
aS"(15, u'\\\\bmemory')"
p14
aS"(1, u'\\\\bpatient')"
p15
aS"(4, u'\\\\btreatment')"
p16
atp17
Rp18
sS'receptors'
p19
g3
((lp20
(S'5ht1d'
p21
I492
I498
tp22
a(S'5ht7'
p23
I482
I487
tp24
a(S'5ht3'
p25
I475
I480
tp26
a(S'5ht1b'
p27
I520
I526
tp28
a(S'5ht1a'
p29
I553
I559
tp30
atp31
Rp32
sS'raw_text_methods'
p33
g3
((lp34
S"(13, u'\\\\bagonist')"
p35
aS"(4, u'\\\\bpcpa')"
p36
aS"(54, u'\\\\bautoradiography')"
p37
aS"(12, u'\\\\bantagonist')"
p38
atp39
Rp40
sS'regions'
p41
g3
((lp42
tp43
Rp44
sS'year'
p45
V2014
p46
sS'species'
p47
g3
((lp48
S"(4, u'(?i)\\\\b(rats|rat)\\\\b')"
p49
atp50
Rp51
sb.