(ifile_types
ParseObject
p0
(dp1
S'methods'
p2
c__builtin__
set
p3
((lp4
S'Method.AGONIST'
p5
atp6
Rp7
sS'topics'
p8
g3
((lp9
S"(8, u'\\\\banxi')"
p10
aS"(1, u'\\\\bpatient')"
p11
aS"(3, u'\\\\bclinical')"
p12
aS"(4, u'\\\\btreatment')"
p13
aS"(2, u'\\\\bdisorder')"
p14
atp15
Rp16
sS'receptors'
p17
g3
((lp18
(S'5ht1a'
p19
I1454
I1460
tp20
a(S'5ht1a'
p21
I60
I71
tp22
a(S'5ht1a'
p23
I1611
I1617
tp24
a(S'5ht1a'
p25
I438
I444
tp26
atp27
Rp28
sS'raw_text_methods'
p29
g3
((lp30
S"(13, u'\\\\bagonist')"
p31
atp32
Rp33
sS'regions'
p34
g3
((lp35
tp36
Rp37
sS'year'
p38
V2001
p39
sS'species'
p40
g3
((lp41
S"(3, u'(?i)\\\\b(males|male)\\\\b')"
p42
atp43
Rp44
sb.