(ifile_types
ParseObject
p0
(dp1
S'antagonists'
p2
c__builtin__
set
p3
((lp4
tp5
Rp6
sS'methods'
p7
g3
((lp8
tp9
Rp10
sS'topics'
p11
g3
((lp12
S"(8, u'\\\\blearning')"
p13
aS"(10, u'\\\\banxiety')"
p14
aS"(7, u'\\\\bmemory')"
p15
atp16
Rp17
sS'receptors'
p18
g3
((lp19
S'5ht3'
p20
atp21
Rp22
sS'regions'
p23
g3
((lp24
S"(34, u'(?i)(pon|pons)')"
p25
atp26
Rp27
sS'year'
p28
V2003
p29
sS'agonists'
p30
g3
((lp31
S"(155, u'\\\\bmem')"
p32
atp33
Rp34
sS'species'
p35
g3
((lp36
S"(5537, u'(?i)(hippos|hippo)')"
p37
aS"(5958, u'(?i)(rats|rat)')"
p38
aS"(163, u'(?i)(mice|mouse)')"
p39
aS"(1055, u'(?i)(men|man)')"
p40
aS"(3726, u'(?i)(mates|mate)')"
p41
aS"(4979, u'(?i)(cats|cat)')"
p42
aS"(7552, u'(?i)(bats|bat)')"
p43
aS"(1961, u'(?i)(pens|pen)')"
p44
aS"(6356, u'(?i)(ais|ai)')"
p45
aS"(6391, u'(?i)(asses|ass)')"
p46
atp47
Rp48
sb.