(ifile_types
ParseObject
p0
(dp1
S'methods'
p2
c__builtin__
set
p3
((lp4
S'Method.ANTAGONIST'
p5
aS'Method.AGONIST'
p6
atp7
Rp8
sS'topics'
p9
g3
((lp10
S"(4, u'\\\\btreatment')"
p11
atp12
Rp13
sS'receptors'
p14
g3
((lp15
(S'5ht1a'
p16
I255
I260
tp17
a(S'5ht2a'
p18
I264
I269
tp19
a(S'5ht2a'
p20
I1251
I1256
tp21
a(S'5ht1a'
p22
I406
I411
tp23
a(S'5ht1a'
p24
I1223
I1228
tp25
a(S'5ht2a'
p26
I455
I460
tp27
atp28
Rp29
sS'raw_text_methods'
p30
g3
((lp31
S"(13, u'\\\\bagonist')"
p32
aS"(53, u'\\\\bketanserin')"
p33
aS"(21, u'\\\\bipsapirone')"
p34
aS"(12, u'\\\\bantagonist')"
p35
atp36
Rp37
sS'regions'
p38
g3
((lp39
S"(11, u'(?i)\\\\b(cerebrals|cerebral)\\\\b')"
p40
aS"(23, u'(?i)\\\\b(forebrains|forebrain)\\\\b')"
p41
atp42
Rp43
sS'year'
p44
V2003
p45
sS'species'
p46
g3
((lp47
tp48
Rp49
sb.