(ifile_types
ParseObject
p0
(dp1
S'antagonists'
p2
c__builtin__
set
p3
((lp4
S"(32, u'\\\\bway ?100635')"
p5
aS"(102, u'\\\\bfluoxetine')"
p6
aS"(110, u'\\\\bsb ?242084')"
p7
atp8
Rp9
sS'methods'
p10
g3
((lp11
S'Method.ANTAGONIST'
p12
aS'Method.AGONIST'
p13
atp14
Rp15
sS'topics'
p16
g3
((lp17
tp18
Rp19
sS'receptors'
p20
g3
((lp21
S'5ht1a'
p22
aS'5ht2c'
p23
aS'5ht2'
p24
atp25
Rp26
sS'regions'
p27
g3
((lp28
tp29
Rp30
sS'year'
p31
V2003
p32
sS'agonists'
p33
g3
((lp34
S"(161, u'\\\\bmcpp')"
p35
atp36
Rp37
sS'species'
p38
g3
((lp39
S"(4624, u'(?i)(apes|ape)')"
p40
aS"(2568, u'(?i)(hens|hen)')"
p41
aS"(6356, u'(?i)(ais|ai)')"
p42
aS"(702, u'(?i)(genets|genet)')"
p43
aS"(4979, u'(?i)(cats|cat)')"
p44
aS"(4163, u'(?i)(ermines|ermine)')"
p45
aS"(468, u'(?i)(oxen|ox)')"
p46
aS"(1055, u'(?i)(men|man)')"
p47
aS"(6249, u'(?i)(ants|ant)')"
p48
aS"(1349, u'(?i)(rams|ram)')"
p49
aS"(6215, u'(?i)(racers|racer)')"
p50
aS"(853, u'(?i)(minas|mina)')"
p51
aS"(5958, u'(?i)(rats|rat)')"
p52
aS"(1961, u'(?i)(pens|pen)')"
p53
aS"(1414, u'(?i)(chars|char)')"
p54
aS"(5949, u'(?i)(dogs|dog)')"
p55
aS"(3812, u'(?i)(studs|stud)')"
p56
aS"(4133, u'(?i)(pikes|pike)')"
p57
atp58
Rp59
sb.