(ifile_types
ParseObject
p0
(dp1
S'antagonists'
p2
c__builtin__
set
p3
((lp4
tp5
Rp6
sS'methods'
p7
g3
((lp8
S'Method.AGONIST'
p9
atp10
Rp11
sS'topics'
p12
g3
((lp13
tp14
Rp15
sS'receptors'
p16
g3
((lp17
S'5ht1a'
p18
aS'5ht1'
p19
atp20
Rp21
sS'regions'
p22
g3
((lp23
S"(285, u'(?i)(entorhinals|entorhinal)(-|\\\\s+)?(cortexes|cortex)')"
p24
aS"(292, u'(?i)(anteriors|anterior)(-|\\\\s+)?(cingulates|cingulate)')"
p25
aS"(318, u'(?i)(raphes|raphe)(-|\\\\s+)?(nuclei|nucleus)')"
p26
aS"(291, u'(?i)(cingulates|cingulate)(-|\\\\s+)?(cortexes|cortex)')"
p27
atp28
Rp29
sS'year'
p30
V2001
p31
sS'agonists'
p32
g3
((lp33
S"(92, u'\\\\b8 ?oh ?dpat')"
p34
atp35
Rp36
sS'species'
p37
g3
((lp38
S"(5537, u'(?i)(hippos|hippo)')"
p39
aS"(6753, u'(?i)(da|das)')"
p40
aS"(2568, u'(?i)(hens|hen)')"
p41
aS"(867, u'(?i)(tits|tit)')"
p42
aS"(5743, u'(?i)(bots|bot)')"
p43
aS"(479, u'(?i)(lings|ling)')"
p44
aS"(6682, u'(?i)(tera|teras)')"
p45
aS"(1055, u'(?i)(men|man)')"
p46
aS"(6249, u'(?i)(ants|ant)')"
p47
aS"(4979, u'(?i)(cats|cat)')"
p48
aS"(5958, u'(?i)(rats|rat)')"
p49
aS"(7094, u'(?i)(curs|cur)')"
p50
aS"(6356, u'(?i)(ais|ai)')"
p51
atp52
Rp53
sb.