(ifile_types
ParseObject
p0
(dp1
S'antagonists'
p2
c__builtin__
set
p3
((lp4
S"(102, u'\\\\bfluoxetine')"
p5
atp6
Rp7
sS'methods'
p8
g3
((lp9
tp10
Rp11
sS'topics'
p12
g3
((lp13
S"(9, u'\\\\bdepress')"
p14
aS"(11, u'\\\\banxiolyt')"
p15
aS"(1, u'\\\\bmood')"
p16
atp17
Rp18
sS'receptors'
p19
g3
((lp20
S'5ht2b'
p21
atp22
Rp23
sS'regions'
p24
g3
((lp25
tp26
Rp27
sS'year'
p28
V2014
p29
sS'agonists'
p30
g3
((lp31
tp32
Rp33
sS'species'
p34
g3
((lp35
S"(4624, u'(?i)(apes|ape)')"
p36
aS"(5958, u'(?i)(rats|rat)')"
p37
aS"(867, u'(?i)(tits|tit)')"
p38
aS"(468, u'(?i)(oxen|ox)')"
p39
aS"(4163, u'(?i)(ermines|ermine)')"
p40
aS"(1055, u'(?i)(men|man)')"
p41
aS"(6249, u'(?i)(ants|ant)')"
p42
aS"(5743, u'(?i)(bots|bot)')"
p43
aS"(3550, u'(?i)(anis|ani)')"
p44
aS"(6682, u'(?i)(tera|teras)')"
p45
aS"(6356, u'(?i)(ais|ai)')"
p46
aS"(6391, u'(?i)(asses|ass)')"
p47
atp48
Rp49
sb.