(ifile_types
ParseObject
p0
(dp1
S'methods'
p2
c__builtin__
set
p3
((lp4
S'Method.ANTAGONIST'
p5
atp6
Rp7
sS'topics'
p8
g3
((lp9
S"(1, u'\\\\bpatient')"
p10
aS"(5, u'\\\\btherap')"
p11
aS"(28, u'\\\\bgastrointestin')"
p12
aS"(2, u'\\\\bdisorder')"
p13
atp14
Rp15
sS'receptors'
p16
g3
((lp17
(S'5ht3'
p18
I521
I526
tp19
a(S'5ht3'
p20
I2529
I2534
tp21
a(S'5ht3'
p22
I2347
I2352
tp23
a(S'5ht3'
p24
I408
I413
tp25
a(S'5ht3'
p26
I796
I801
tp27
a(S'5ht3'
p28
I2147
I2152
tp29
a(S'5ht3'
p30
I2694
I2699
tp31
a(S'5ht3'
p32
I576
I581
tp33
atp34
Rp35
sS'raw_text_methods'
p36
g3
((lp37
S"(18, u'\\\\bimaging')"
p38
aS"(12, u'\\\\bantagonist')"
p39
atp40
Rp41
sS'regions'
p42
g3
((lp43
tp44
Rp45
sS'year'
p46
V2019
p47
sS'species'
p48
g3
((lp49
S"(1, u'(?i)\\\\b(mice|mouse)\\\\b')"
p50
aS"(5, u'(?i)\\\\b(mices|mice)\\\\b')"
p51
atp52
Rp53
sb.