(ifile_types
ParseObject
p0
(dp1
S'methods'
p2
c__builtin__
set
p3
((lp4
S'Method.ANTAGONIST'
p5
atp6
Rp7
sS'topics'
p8
g3
((lp9
tp10
Rp11
sS'receptors'
p12
g3
((lp13
(S'5ht3'
p14
I361
I366
tp15
a(S'5ht3'
p16
I138
I148
tp17
a(S'5ht3'
p18
I1009
I1014
tp19
a(S'5ht3'
p20
I429
I434
tp21
a(S'5ht3'
p22
I310
I320
tp23
a(S'5ht3'
p24
I644
I649
tp25
a(S'5ht3'
p26
I151
I156
tp27
a(S'5ht3'
p28
I323
I328
tp29
atp30
Rp31
sS'raw_text_methods'
p32
g3
((lp33
S"(28, u'\\\\bzacopride')"
p34
aS"(12, u'\\\\bantagonist')"
p35
atp36
Rp37
sS'regions'
p38
g3
((lp39
tp40
Rp41
sS'year'
p42
V1996
p43
sS'species'
p44
g3
((lp45
S"(4, u'(?i)\\\\b(rats|rat)\\\\b')"
p46
atp47
Rp48
sb.