(ifile_types
ParseObject
p0
(dp1
S'antagonists'
p2
c__builtin__
set
p3
((lp4
tp5
Rp6
sS'methods'
p7
g3
((lp8
S'Method.KNOCKOUT'
p9
atp10
Rp11
sS'topics'
p12
g3
((lp13
S"(20, u'\\\\baggressi')"
p14
atp15
Rp16
sS'receptors'
p17
g3
((lp18
tp19
Rp20
sS'regions'
p21
g3
((lp22
tp23
Rp24
sS'year'
p25
V2013
p26
sS'agonists'
p27
g3
((lp28
tp29
Rp30
sS'species'
p31
g3
((lp32
S"(5967, u'(?i)\\\\b(males|male)\\\\b')"
p33
aS"(6580, u'(?i)\\\\b(dams|dam)\\\\b')"
p34
aS"(163, u'(?i)\\\\b(mice|mouse)\\\\b')"
p35
aS"(3722, u'(?i)\\\\b(pups|pup)\\\\b')"
p36
aS"(6125, u'(?i)\\\\b(females|female)\\\\b')"
p37
atp38
Rp39
sb.