(ifile_types
ParseObject
p0
(dp1
S'methods'
p2
c__builtin__
set
p3
((lp4
S'Method.AGONIST'
p5
atp6
Rp7
sS'topics'
p8
g3
((lp9
S"(22, u'\\\\bschizophreni')"
p10
atp11
Rp12
sS'receptors'
p13
g3
((lp14
(S'5ht2a'
p15
I1116
I1122
tp16
a(S'5ht2a'
p17
I961
I967
tp18
a(S'5ht2a'
p19
I2243
I2249
tp20
a(S'5ht2a'
p21
I94
I105
tp22
a(S'5ht2a'
p23
I476
I482
tp24
a(S'5ht2a'
p25
I1739
I1745
tp26
a(S'5ht2a'
p27
I1366
I1372
tp28
a(S'5ht2a'
p29
I235
I241
tp30
atp31
Rp32
sS'raw_text_methods'
p33
g3
((lp34
S"(13, u'\\\\bagonist')"
p35
aS"(2, u'\\\\blabeling')"
p36
aS"(49, u'\\\\bdoi')"
p37
atp38
Rp39
sS'regions'
p40
g3
((lp41
S"(20, u'(?i)\\\\b(prefrontals|prefrontal)\\\\b')"
p42
aS"(19, u'(?i)\\\\b(cortexes|cortex)\\\\b')"
p43
atp44
Rp45
sS'year'
p46
V2014
p47
sS'species'
p48
g3
((lp49
S"(1, u'(?i)\\\\b(mice|mouse)\\\\b')"
p50
aS"(5, u'(?i)\\\\b(mices|mice)\\\\b')"
p51
atp52
Rp53
sb.