(ifile_types
ParseObject
p0
(dp1
S'methods'
p2
c__builtin__
set
p3
((lp4
S'Method.ANTAGONIST'
p5
aS'Method.AGONIST'
p6
atp7
Rp8
sS'topics'
p9
g3
((lp10
S"(7, u'\\\\bdepressi')"
p11
atp12
Rp13
sS'receptors'
p14
g3
((lp15
(S'5ht2a'
p16
I1453
I1459
tp17
a(S'5ht2c'
p18
I1063
I1070
tp19
a(S'5ht2a'
p20
I666
I672
tp21
a(S'5ht2a'
p22
I1063
I1069
tp23
a(S'5ht2a'
p24
I1376
I1382
tp25
a(S'5ht2a'
p26
I1168
I1174
tp27
a(S'5ht2a'
p28
I802
I808
tp29
a(S'5ht2a'
p30
I43
I49
tp31
atp32
Rp33
sS'raw_text_methods'
p34
g3
((lp35
S"(13, u'\\\\bagonist')"
p36
aS"(54, u'\\\\bautoradiography')"
p37
aS"(12, u'\\\\bantagonist')"
p38
atp39
Rp40
sS'regions'
p41
g3
((lp42
S"(15, u'(?i)\\\\b(substantias|substantia)(-|\\\\s+)?(nigras|nigra)\\\\b')"
p43
aS"(11, u'(?i)\\\\b(cerebrals|cerebral)\\\\b')"
p44
aS"(19, u'(?i)\\\\b(cortexes|cortex)\\\\b')"
p45
aS"(20, u'(?i)\\\\b(prefrontals|prefrontal)\\\\b')"
p46
atp47
Rp48
sS'year'
p49
V2013
p50
sS'species'
p51
g3
((lp52
S"(1, u'(?i)\\\\b(mice|mouse)\\\\b')"
p53
aS"(5, u'(?i)\\\\b(mices|mice)\\\\b')"
p54
atp55
Rp56
sb.