(ifile_types
ParseObject
p0
(dp1
S'antagonists'
p2
c__builtin__
set
p3
((lp4
S"(91, u'\\\\bfluoxetine')"
p5
aS"(124, u'\\\\bondansetron')"
p6
atp7
Rp8
sS'methods'
p9
g3
((lp10
S'Method.ANTAGONIST'
p11
atp12
Rp13
sS'topics'
p14
g3
((lp15
S"(4, u'\\\\blocomot')"
p16
atp17
Rp18
sS'receptors'
p19
g3
((lp20
S'5ht3'
p21
atp22
Rp23
sS'regions'
p24
g3
((lp25
S"(226, u'(?i)\\\\b(nuclei|nucleus)(-|\\\\s+)?(accumben|accumbens)\\\\b')"
p26
atp27
Rp28
sS'year'
p29
V2000
p30
sS'agonists'
p31
g3
((lp32
tp33
Rp34
sS'species'
p35
g3
((lp36
S"(2054, u'(?i)\\\\b(heads|head)\\\\b')"
p37
aS"(5958, u'(?i)\\\\b(rats|rat)\\\\b')"
p38
atp39
Rp40
sb.