(ifile_types
ParseObject
p0
(dp1
S'methods'
p2
c__builtin__
set
p3
((lp4
S'Method.PET'
p5
atp6
Rp7
sS'topics'
p8
g3
((lp9
S"(1, u'\\\\bpatient')"
p10
aS"(2, u'\\\\bdisorder')"
p11
atp12
Rp13
sS'receptors'
p14
g3
((lp15
(S'5ht2a'
p16
I973
I979
tp17
a(S'5ht2a'
p18
I819
I825
tp19
atp20
Rp21
sS'raw_text_methods'
p22
g3
((lp23
S"(46, u'\\\\bspiperone')"
p24
aS"(19, u'\\\\bpositron emission tomography')"
p25
atp26
Rp27
sS'regions'
p28
g3
((lp29
S"(18, u'(?i)\\\\b(putamens|putamen)\\\\b')"
p30
atp31
Rp32
sS'year'
p33
V2011
p34
sS'species'
p35
g3
((lp36
tp37
Rp38
sb.