(ifile_types
ParseObject
p0
(dp1
S'antagonists'
p2
c__builtin__
set
p3
((lp4
tp5
Rp6
sS'methods'
p7
g3
((lp8
tp9
Rp10
sS'topics'
p11
g3
((lp12
S"(8, u'\\\\blearning')"
p13
aS"(6, u'\\\\bcognit')"
p14
aS"(35, u'\\\\bstress')"
p15
aS"(9, u'\\\\bdepress')"
p16
atp17
Rp18
sS'receptors'
p19
g3
((lp20
S'5ht1a'
p21
atp22
Rp23
sS'regions'
p24
g3
((lp25
S"(254, u'(?i)(prefrontals|prefrontal)(-|\\\\s+)?(cortexes|cortex)')"
p26
aS"(255, u'(?i)(pres|pre)(-|\\\\s+)?(frontals|frontal)(-|\\\\s+)?(cortexes|cortex)')"
p27
aS"(34, u'(?i)(pon|pons)')"
p28
atp29
Rp30
sS'year'
p31
V2009
p32
sS'agonists'
p33
g3
((lp34
S"(181, u'\\\\bdom')"
p35
atp36
Rp37
sS'species'
p38
g3
((lp39
S"(5958, u'(?i)(rats|rat)')"
p40
aS"(7609, u'(?i)(erns|ern)')"
p41
aS"(867, u'(?i)(tits|tit)')"
p42
aS"(6753, u'(?i)(da|das)')"
p43
aS"(5967, u'(?i)(males|male)')"
p44
aS"(6682, u'(?i)(tera|teras)')"
p45
aS"(1055, u'(?i)(men|man)')"
p46
aS"(6249, u'(?i)(ants|ant)')"
p47
aS"(5743, u'(?i)(bots|bot)')"
p48
aS"(3550, u'(?i)(anis|ani)')"
p49
aS"(6356, u'(?i)(ais|ai)')"
p50
aS"(1683, u'(?i)(terns|tern)')"
p51
atp52
Rp53
sb.