(ifile_types
ParseObject
p0
(dp1
S'antagonists'
p2
c__builtin__
set
p3
((lp4
S"(34, u'\\\\bmetergoline')"
p5
aS"(133, u'\\\\bmianserin')"
p6
aS"(10, u'\\\\biodocyanopindolol')"
p7
aS"(22, u'\\\\bpropranolol')"
p8
aS"(193, u'\\\\bmesulergine')"
p9
aS"(26, u'\\\\bspiperone')"
p10
aS"(119, u'\\\\britanserin')"
p11
atp12
Rp13
sS'methods'
p14
g3
((lp15
S'Method.ANTAGONIST'
p16
aS'Method.AGONIST'
p17
atp18
Rp19
sS'topics'
p20
g3
((lp21
tp22
Rp23
sS'receptors'
p24
g3
((lp25
S'5ht1c'
p26
aS'5ht1b'
p27
aS'5ht1a'
p28
aS'5ht3a'
p29
aS'5ht2'
p30
aS'5ht1'
p31
aS'5ht2a'
p32
aS'5ht3'
p33
atp34
Rp35
sS'regions'
p36
g3
((lp37
tp38
Rp39
sS'year'
p40
V1992
p41
sS'agonists'
p42
g3
((lp43
S"(165, u'\\\\bmesulergine')"
p44
aS"(155, u'\\\\bmcpp')"
p45
atp46
Rp47
sS'species'
p48
g3
((lp49
S"(5958, u'(?i)\\\\b(rats|rat)\\\\b')"
p50
atp51
Rp52
sb.