(ifile_types
ParseObject
p0
(dp1
S'methods'
p2
c__builtin__
set
p3
((lp4
S'Method.ANTAGONIST'
p5
atp6
Rp7
sS'topics'
p8
g3
((lp9
S"(24, u'\\\\banxiolytic')"
p10
aS"(8, u'\\\\banxi')"
p11
aS"(33, u'\\\\blocomot')"
p12
aS"(25, u'\\\\bsocial')"
p13
atp14
Rp15
sS'receptors'
p16
g3
((lp17
(S'5ht2c'
p18
I439
I445
tp19
a(S'5ht2c'
p20
I1638
I1644
tp21
a(S'5ht2a'
p22
I369
I375
tp23
a(S'5ht2c'
p24
I253
I259
tp25
a(S'5ht2c'
p26
I68
I74
tp27
a(S'5ht2b'
p28
I338
I344
tp29
a(S'5ht2b'
p30
I1098
I1104
tp31
a(S'5ht2a'
p32
I268
I274
tp33
a(S'5ht2c'
p34
I659
I665
tp35
a(S'5ht2b'
p36
I1648
I1654
tp37
a(S'5ht2b'
p38
I68
I76
tp39
a(S'5ht2c'
p40
I307
I313
tp41
a(S'5ht2c'
p42
I1775
I1781
tp43
a(S'5ht2a'
p44
I994
I1000
tp45
a(S'5ht2b'
p46
I253
I261
tp47
a(S'5ht2b'
p48
I1775
I1783
tp49
a(S'5ht2c'
p50
I1087
I1093
tp51
atp52
Rp53
sS'raw_text_methods'
p54
g3
((lp55
S"(49, u'\\\\bdoi')"
p56
aS"(33, u'\\\\bmcpp')"
p57
aS"(12, u'\\\\bantagonist')"
p58
atp59
Rp60
sS'regions'
p61
g3
((lp62
tp63
Rp64
sS'year'
p65
V1994
p66
sS'species'
p67
g3
((lp68
S"(4, u'(?i)\\\\b(rats|rat)\\\\b')"
p69
atp70
Rp71
sb.