(ifile_types
ParseObject
p0
(dp1
S'methods'
p2
c__builtin__
set
p3
((lp4
tp5
Rp6
sS'topics'
p7
g3
((lp8
tp9
Rp10
sS'receptors'
p11
g3
((lp12
(S'5ht2c'
p13
I113
I119
tp14
a(S'5ht2c'
p15
I1713
I1719
tp16
a(S'5ht2c'
p17
I278
I284
tp18
a(S'5ht2c'
p19
I1069
I1075
tp20
a(S'5ht2a'
p21
I1562
I1568
tp22
a(S'5ht2c'
p23
I1572
I1578
tp24
a(S'5ht2a'
p25
I1370
I1376
tp26
a(S'5ht2a'
p27
I1059
I1065
tp28
a(S'5ht2a'
p29
I1703
I1709
tp30
a(S'5ht2a'
p31
I1279
I1285
tp32
a(S'5ht2c'
p33
I1390
I1396
tp34
a(S'5ht2c'
p35
I1299
I1305
tp36
a(S'5ht2a'
p37
I102
I108
tp38
a(S'5ht2a'
p39
I267
I273
tp40
atp41
Rp42
sS'raw_text_methods'
p43
g3
((lp44
tp45
Rp46
sS'regions'
p47
g3
((lp48
tp49
Rp50
sS'year'
p51
V1997
p52
sS'species'
p53
g3
((lp54
S"(4, u'(?i)\\\\b(rats|rat)\\\\b')"
p55
atp56
Rp57
sb.