(ifile_types
ParseObject
p0
(dp1
S'methods'
p2
c__builtin__
set
p3
((lp4
S'Method.ANTAGONIST'
p5
atp6
Rp7
sS'topics'
p8
g3
((lp9
S"(8, u'\\\\banxi')"
p10
aS"(7, u'\\\\bdepressi')"
p11
aS"(20, u'\\\\bmood')"
p12
aS"(2, u'\\\\bdisorder')"
p13
atp14
Rp15
sS'receptors'
p16
g3
((lp17
(S'5ht1a'
p18
I1984
I1990
tp19
a(S'5ht1a'
p20
I1168
I1174
tp21
atp22
Rp23
sS'raw_text_methods'
p24
g3
((lp25
S"(12, u'\\\\bantagonist')"
p26
atp27
Rp28
sS'regions'
p29
g3
((lp30
S"(20, u'(?i)\\\\b(prefrontals|prefrontal)\\\\b')"
p31
aS"(19, u'(?i)\\\\b(cortexes|cortex)\\\\b')"
p32
aS"(16, u'(?i)\\\\b(drns|drn)\\\\b')"
p33
atp34
Rp35
sS'year'
p36
V2016
p37
sS'species'
p38
g3
((lp39
S"(3, u'(?i)\\\\b(males|male)\\\\b')"
p40
aS"(4, u'(?i)\\\\b(rats|rat)\\\\b')"
p41
atp42
Rp43
sb.