(ifile_types
ParseObject
p0
(dp1
S'methods'
p2
c__builtin__
set
p3
((lp4
S'Method.STAINING'
p5
atp6
Rp7
sS'topics'
p8
g3
((lp9
S"(23, u'\\\\bantipsychotic')"
p10
atp11
Rp12
sS'receptors'
p13
g3
((lp14
(S'5ht2a'
p15
I1485
I1491
tp16
a(S'5ht2a'
p17
I713
I719
tp18
a(S'5ht2'
p19
I1792
I1797
tp20
a(S'5ht2a'
p21
I386
I392
tp22
a(S'5ht2'
p23
I1960
I1965
tp24
a(S'5ht2a'
p25
I1662
I1668
tp26
a(S'5ht2a'
p27
I1368
I1374
tp28
a(S'5ht2a'
p29
I1350
I1356
tp30
a(S'5ht2a'
p31
I1167
I1173
tp32
atp33
Rp34
sS'raw_text_methods'
p35
g3
((lp36
S"(3, u'\\\\bimmunoreactiv')"
p37
atp38
Rp39
sS'regions'
p40
g3
((lp41
S"(11, u'(?i)\\\\b(cerebrals|cerebral)\\\\b')"
p42
aS"(19, u'(?i)\\\\b(cortexes|cortex)\\\\b')"
p43
aS"(20, u'(?i)\\\\b(prefrontals|prefrontal)\\\\b')"
p44
atp45
Rp46
sS'year'
p47
V1998
p48
sS'species'
p49
g3
((lp50
S"(8, u'(?i)\\\\b(primates|primate)\\\\b')"
p51
atp52
Rp53
sb.