(ifile_types
ParseObject
p0
(dp1
S'methods'
p2
c__builtin__
set
p3
((lp4
S'Method.AGONIST'
p5
atp6
Rp7
sS'topics'
p8
g3
((lp9
S"(8, u'\\\\banxi')"
p10
aS"(26, u'\\\\bbehav')"
p11
aS"(9, u'\\\\bstress')"
p12
aS"(20, u'\\\\bmood')"
p13
atp14
Rp15
sS'receptors'
p16
g3
((lp17
(S'5ht1a'
p18
I1811
I1817
tp19
a(S'5ht1a'
p20
I2051
I2057
tp21
atp22
Rp23
sS'raw_text_methods'
p24
g3
((lp25
S"(13, u'\\\\bagonist')"
p26
atp27
Rp28
sS'regions'
p29
g3
((lp30
S"(23, u'(?i)\\\\b(forebrains|forebrain)\\\\b')"
p31
aS"(11, u'(?i)\\\\b(cerebrals|cerebral)\\\\b')"
p32
aS"(16, u'(?i)\\\\b(drns|drn)\\\\b')"
p33
aS"(13, u'(?i)\\\\b(septums|septum)\\\\b')"
p34
aS"(3, u'(?i)\\\\b(postsynaptics|postsynaptic)\\\\b')"
p35
aS"(14, u'(?i)\\\\b(caudals|caudal)\\\\b')"
p36
atp37
Rp38
sS'year'
p39
V2014
p40
sS'species'
p41
g3
((lp42
S"(1, u'(?i)\\\\b(mice|mouse)\\\\b')"
p43
aS"(5, u'(?i)\\\\b(mices|mice)\\\\b')"
p44
atp45
Rp46
sb.