(ifile_types
ParseObject
p0
(dp1
S'methods'
p2
c__builtin__
set
p3
((lp4
S'Method.STIMULATION'
p5
aS'Method.ANTAGONIST'
p6
aS'Method.AGONIST'
p7
atp8
Rp9
sS'topics'
p10
g3
((lp11
tp12
Rp13
sS'receptors'
p14
g3
((lp15
(S'5ht2c'
p16
I825
I831
tp17
a(S'5ht4'
p18
I833
I838
tp19
a(S'5ht1b'
p20
I641
I647
tp21
a(S'5ht1a'
p22
I730
I736
tp23
a(S'5ht1a'
p24
I1562
I1568
tp25
a(S'5ht7'
p26
I843
I848
tp27
a(S'5ht1b'
p28
I1578
I1584
tp29
a(S'5ht1b'
p30
I1376
I1382
tp31
atp32
Rp33
sS'raw_text_methods'
p34
g3
((lp35
S"(13, u'\\\\bagonist')"
p36
aS"(12, u'\\\\bantagonist')"
p37
atp38
Rp39
sS'regions'
p40
g3
((lp41
S"(19, u'(?i)\\\\b(cortexes|cortex)\\\\b')"
p42
aS"(4, u'(?i)\\\\b(presynaptics|presynaptic)\\\\b')"
p43
aS"(3, u'(?i)\\\\b(postsynaptics|postsynaptic)\\\\b')"
p44
atp45
Rp46
sS'year'
p47
V2007
p48
sS'species'
p49
g3
((lp50
tp51
Rp52
sb.