(ifile_types
ParseObject
p0
(dp1
S'methods'
p2
c__builtin__
set
p3
((lp4
S'Method.AGONIST'
p5
atp6
Rp7
sS'topics'
p8
g3
((lp9
S"(26, u'\\\\bbehav')"
p10
aS"(2, u'\\\\bdisorder')"
p11
aS"(7, u'\\\\bdepressi')"
p12
aS"(9, u'\\\\bstress')"
p13
aS"(5, u'\\\\btherap')"
p14
aS"(8, u'\\\\banxi')"
p15
aS"(4, u'\\\\btreatment')"
p16
atp17
Rp18
sS'receptors'
p19
g3
((lp20
(S'5ht1a'
p21
I1232
I1237
tp22
a(S'5ht1a'
p23
I1806
I1811
tp24
a(S'5ht1a'
p25
I787
I792
tp26
atp27
Rp28
sS'raw_text_methods'
p29
g3
((lp30
S"(13, u'\\\\bagonist')"
p31
atp32
Rp33
sS'regions'
p34
g3
((lp35
S"(19, u'(?i)\\\\b(cortexes|cortex)\\\\b')"
p36
atp37
Rp38
sS'year'
p39
V2009
p40
sS'species'
p41
g3
((lp42
S"(4, u'(?i)\\\\b(rats|rat)\\\\b')"
p43
atp44
Rp45
sb.