(ifile_types
ParseObject
p0
(dp1
S'methods'
p2
c__builtin__
set
p3
((lp4
S'Method.ANTAGONIST'
p5
aS'Method.AGONIST'
p6
atp7
Rp8
sS'topics'
p9
g3
((lp10
S"(30, u'\\\\bpain')"
p11
aS"(26, u'\\\\bbehav')"
p12
aS"(35, u'\\\\bnocicept')"
p13
atp14
Rp15
sS'receptors'
p16
g3
((lp17
(S'5ht2c'
p18
I623
I631
tp19
a(S'5ht2c'
p20
I173
I181
tp21
a(S'5ht2a'
p22
I265
I271
tp23
a(S'5ht2a'
p24
I51
I62
tp25
a(S'5ht2a'
p26
I473
I479
tp27
a(S'5ht2c'
p28
I265
I273
tp29
a(S'5ht2c'
p30
I51
I64
tp31
a(S'5ht2a'
p32
I173
I179
tp33
a(S'5ht2c'
p34
I473
I481
tp35
a(S'5ht2a'
p36
I623
I629
tp37
atp38
Rp39
sS'raw_text_methods'
p40
g3
((lp41
S"(13, u'\\\\bagonist')"
p42
aS"(53, u'\\\\bketanserin')"
p43
aS"(49, u'\\\\bdoi')"
p44
aS"(12, u'\\\\bantagonist')"
p45
atp46
Rp47
sS'regions'
p48
g3
((lp49
tp50
Rp51
sS'year'
p52
V2001
p53
sS'species'
p54
g3
((lp55
S"(4, u'(?i)\\\\b(rats|rat)\\\\b')"
p56
atp57
Rp58
sb.