(ifile_types
ParseObject
p0
(dp1
S'antagonists'
p2
c__builtin__
set
p3
((lp4
tp5
Rp6
sS'methods'
p7
g3
((lp8
S'Method.PET'
p9
atp10
Rp11
sS'topics'
p12
g3
((lp13
S"(9, u'\\\\bdepress')"
p14
aS"(35, u'\\\\bstress')"
p15
aS"(10, u'\\\\banxiety')"
p16
atp17
Rp18
sS'receptors'
p19
g3
((lp20
S'5ht7'
p21
aS'5ht1b'
p22
aS'5ht1a'
p23
aS'5ht4'
p24
aS'5ht3a'
p25
aS'5ht2c'
p26
aS'5ht6'
p27
aS'5ht2a'
p28
aS'5ht5'
p29
aS'5ht5a'
p30
atp31
Rp32
sS'regions'
p33
g3
((lp34
S"(209, u'(?i)(amygdalas|amygdala)')"
p35
aS"(254, u'(?i)(prefrontals|prefrontal)(-|\\\\s+)?(cortexes|cortex)')"
p36
aS"(255, u'(?i)(pres|pre)(-|\\\\s+)?(frontals|frontal)(-|\\\\s+)?(cortexes|cortex)')"
p37
aS"(34, u'(?i)(pon|pons)')"
p38
aS"(318, u'(?i)(raphes|raphe)(-|\\\\s+)?(nuclei|nucleus)')"
p39
aS"(94, u'(?i)(dorsals|dorsal)(-|\\\\s+)?(raphes|raphe)(-|\\\\s+)?(nuclei|nucleus)')"
p40
atp41
Rp42
sS'year'
p43
V2008
p44
sS'agonists'
p45
g3
((lp46
tp47
Rp48
sS'species'
p49
g3
((lp50
S"(1070, u'(?i)(pets|pet)')"
p51
aS"(4624, u'(?i)(apes|ape)')"
p52
aS"(5799, u'(?i)(rodents|rodent)')"
p53
aS"(6249, u'(?i)(ants|ant)')"
p54
aS"(702, u'(?i)(genets|genet)')"
p55
aS"(163, u'(?i)(mice|mouse)')"
p56
aS"(6753, u'(?i)(da|das)')"
p57
aS"(479, u'(?i)(lings|ling)')"
p58
aS"(3767, u'(?i)(olms|olm)')"
p59
aS"(468, u'(?i)(oxen|ox)')"
p60
aS"(1055, u'(?i)(men|man)')"
p61
aS"(7094, u'(?i)(curs|cur)')"
p62
aS"(4979, u'(?i)(cats|cat)')"
p63
aS"(1057, u'(?i)(humans|human)')"
p64
aS"(5229, u'(?i)(moles|mole)')"
p65
aS"(6356, u'(?i)(ais|ai)')"
p66
aS"(3196, u'(?i)(human|humans)')"
p67
atp68
Rp69
sb.