(ifile_types
ParseObject
p0
(dp1
S'antagonists'
p2
c__builtin__
set
p3
((lp4
S"(57, u'\\\\bolanzapine')"
p5
aS"(123, u'\\\\bclozapine')"
p6
aS"(68, u'\\\\bchlorpromazine')"
p7
aS"(124, u'\\\\bolanzapine')"
p8
aS"(56, u'\\\\bclozapine')"
p9
atp10
Rp11
sS'methods'
p12
g3
((lp13
S'Method.ANTAGONIST'
p14
atp15
Rp16
sS'topics'
p17
g3
((lp18
S"(15, u'\\\\bschizophreni')"
p19
aS"(6, u'\\\\bcognit')"
p20
atp21
Rp22
sS'receptors'
p23
g3
((lp24
S'5ht6'
p25
aS'5ht6a'
p26
atp27
Rp28
sS'regions'
p29
g3
((lp30
tp31
Rp32
sS'year'
p33
V2011
p34
sS'agonists'
p35
g3
((lp36
S"(64, u'\\\\bolanzapine')"
p37
aS"(27, u'\\\\bclozapine')"
p38
atp39
Rp40
sS'species'
p41
g3
((lp42
S"(6753, u'(?i)(da|das)')"
p43
aS"(5958, u'(?i)(rats|rat)')"
p44
aS"(6356, u'(?i)(ais|ai)')"
p45
aS"(1049, u'(?i)(elands|eland)')"
p46
aS"(4201, u'(?i)(kines|kine)')"
p47
aS"(1055, u'(?i)(men|man)')"
p48
aS"(6580, u'(?i)(dams|dam)')"
p49
aS"(853, u'(?i)(minas|mina)')"
p50
aS"(6249, u'(?i)(ants|ant)')"
p51
aS"(5229, u'(?i)(moles|mole)')"
p52
aS"(1414, u'(?i)(chars|char)')"
p53
aS"(6391, u'(?i)(asses|ass)')"
p54
aS"(2809, u'(?i)(toms|tom)')"
p55
aS"(3812, u'(?i)(studs|stud)')"
p56
atp57
Rp58
sb.