(ifile_types
ParseObject
p0
(dp1
S'methods'
p2
c__builtin__
set
p3
((lp4
tp5
Rp6
sS'topics'
p7
g3
((lp8
S"(22, u'\\\\bschizophreni')"
p9
aS"(26, u'\\\\bbehav')"
p10
aS"(23, u'\\\\bantipsychotic')"
p11
aS"(15, u'\\\\bmemory')"
p12
aS"(5, u'\\\\btherap')"
p13
aS"(8, u'\\\\banxi')"
p14
aS"(4, u'\\\\btreatment')"
p15
atp16
Rp17
sS'receptors'
p18
g3
((lp19
(S'5ht2a'
p20
I547
I553
tp21
atp22
Rp23
sS'raw_text_methods'
p24
g3
((lp25
S"(41, u'\\\\bhaloperidol')"
p26
atp27
Rp28
sS'regions'
p29
g3
((lp30
tp31
Rp32
sS'year'
p33
V2006
p34
sS'species'
p35
g3
((lp36
S"(4, u'(?i)\\\\b(rats|rat)\\\\b')"
p37
atp38
Rp39
sb.