(ifile_types
ParseObject
p0
(dp1
S'methods'
p2
c__builtin__
set
p3
((lp4
tp5
Rp6
sS'topics'
p7
g3
((lp8
S"(4, u'\\\\btreatment')"
p9
atp10
Rp11
sS'receptors'
p12
g3
((lp13
(S'5ht3'
p14
I617
I622
tp15
a(S'5ht7'
p16
I975
I980
tp17
a(S'5ht2a'
p18
I1217
I1223
tp19
a(S'5ht1a'
p20
I570
I576
tp21
a(S'5ht2'
p22
I606
I611
tp23
a(S'5ht7'
p24
I599
I604
tp25
a(S'5ht1a'
p26
I1083
I1089
tp27
a(S'5ht1a'
p28
I964
I970
tp29
a(S'5ht7'
p30
I1150
I1155
tp31
atp32
Rp33
sS'raw_text_methods'
p34
g3
((lp35
tp36
Rp37
sS'regions'
p38
g3
((lp39
S"(8, u'(?i)\\\\b(centrals|central)(-|\\\\s+)?(nervouses|nervous)(-|\\\\s+)?(systems|system)\\\\b')"
p40
aS"(14, u'(?i)\\\\b(caudals|caudal)\\\\b')"
p41
atp42
Rp43
sS'year'
p44
V2009
p45
sS'species'
p46
g3
((lp47
S"(4, u'(?i)\\\\b(rats|rat)\\\\b')"
p48
atp49
Rp50
sb.