(ifile_types
ParseObject
p0
(dp1
S'antagonists'
p2
c__builtin__
set
p3
((lp4
S"(131, u'\\\\bm1')"
p5
aS"(110, u'\\\\bclozapine')"
p6
aS"(113, u'\\\\brisperidone')"
p7
aS"(31, u'\\\\bway ?100635')"
p8
aS"(58, u'\\\\bhaloperidol')"
p9
atp10
Rp11
sS'methods'
p12
g3
((lp13
S'Method.ANTAGONIST'
p14
aS'Method.AGONIST'
p15
atp16
Rp17
sS'topics'
p18
g3
((lp19
tp20
Rp21
sS'receptors'
p22
g3
((lp23
S'5ht1a'
p24
aS'5ht2d'
p25
aS'5ht2a'
p26
atp27
Rp28
sS'regions'
p29
g3
((lp30
S"(220, u'(?i)\\\\b(striatums|striatum)\\\\b')"
p31
aS"(226, u'(?i)\\\\b(nuclei|nucleus)(-|\\\\s+)?(accumben|accumbens)\\\\b')"
p32
atp33
Rp34
sS'year'
p35
V2000
p36
sS'agonists'
p37
g3
((lp38
S"(23, u'\\\\bclozapine')"
p39
aS"(43, u'\\\\bhaloperidol')"
p40
atp41
Rp42
sS'species'
p43
g3
((lp44
S"(6753, u'(?i)\\\\b(da|das)\\\\b')"
p45
aS"(5958, u'(?i)\\\\b(rats|rat)\\\\b')"
p46
atp47
Rp48
sb.