(ifile_types
ParseObject
p0
(dp1
S'methods'
p2
c__builtin__
set
p3
((lp4
S'Method.ANTAGONIST'
p5
atp6
Rp7
sS'topics'
p8
g3
((lp9
S"(24, u'\\\\banxiolytic')"
p10
aS"(8, u'\\\\banxi')"
p11
aS"(1, u'\\\\bpatient')"
p12
aS"(5, u'\\\\btherap')"
p13
aS"(30, u'\\\\bpain')"
p14
atp15
Rp16
sS'receptors'
p17
g3
((lp18
(S'5ht3'
p19
I253
I258
tp20
a(S'5ht3'
p21
I1165
I1170
tp22
a(S'5ht3'
p23
I235
I240
tp24
atp25
Rp26
sS'raw_text_methods'
p27
g3
((lp28
S"(18, u'\\\\bimaging')"
p29
aS"(12, u'\\\\bantagonist')"
p30
atp31
Rp32
sS'regions'
p33
g3
((lp34
S"(12, u'(?i)\\\\b(amygdalas|amygdala)\\\\b')"
p35
atp36
Rp37
sS'year'
p38
V2011
p39
sS'species'
p40
g3
((lp41
S"(2, u'(?i)\\\\b(females|female)\\\\b')"
p42
atp43
Rp44
sb.