(ifile_types
ParseObject
p0
(dp1
S'antagonists'
p2
c__builtin__
set
p3
((lp4
tp5
Rp6
sS'methods'
p7
g3
((lp8
S'Method.AGONIST'
p9
atp10
Rp11
sS'topics'
p12
g3
((lp13
tp14
Rp15
sS'receptors'
p16
g3
((lp17
S'5ht5'
p18
aS'5ht1a'
p19
aS'5ht5a'
p20
atp21
Rp22
sS'regions'
p23
g3
((lp24
S"(318, u'(?i)(raphes|raphe)(-|\\\\s+)?(nuclei|nucleus)')"
p25
aS"(254, u'(?i)(prefrontals|prefrontal)(-|\\\\s+)?(cortexes|cortex)')"
p26
aS"(126, u'(?i)(thalamuses|thalamus)')"
p27
aS"(255, u'(?i)(pres|pre)(-|\\\\s+)?(frontals|frontal)(-|\\\\s+)?(cortexes|cortex)')"
p28
aS"(220, u'(?i)(striatums|striatum)')"
p29
aS"(226, u'(?i)(nuclei|nucleus)(-|\\\\s+)?(accumben|accumbens)')"
p30
atp31
Rp32
sS'year'
p33
V1991
p34
sS'agonists'
p35
g3
((lp36
S"(92, u'\\\\b8 ?oh ?dpat')"
p37
atp38
Rp39
sS'species'
p40
g3
((lp41
S"(5537, u'(?i)(hippos|hippo)')"
p42
aS"(2568, u'(?i)(hens|hen)')"
p43
aS"(7609, u'(?i)(erns|ern)')"
p44
aS"(5958, u'(?i)(rats|rat)')"
p45
aS"(468, u'(?i)(oxen|ox)')"
p46
aS"(1349, u'(?i)(rams|ram)')"
p47
aS"(6249, u'(?i)(ants|ant)')"
p48
aS"(3550, u'(?i)(anis|ani)')"
p49
aS"(3522, u'(?i)(tetras|tetra)')"
p50
aS"(6356, u'(?i)(ais|ai)')"
p51
aS"(6391, u'(?i)(asses|ass)')"
p52
atp53
Rp54
sb.