(ifile_types
ParseObject
p0
(dp1
S'methods'
p2
c__builtin__
set
p3
((lp4
S'Method.ANTAGONIST'
p5
atp6
Rp7
sS'topics'
p8
g3
((lp9
tp10
Rp11
sS'receptors'
p12
g3
((lp13
(S'5ht1a'
p14
I33
I39
tp15
a(S'5ht1a'
p16
I597
I603
tp17
a(S'5ht1a'
p18
I322
I328
tp19
a(S'5ht1a'
p20
I107
I113
tp21
a(S'5ht1a'
p22
I642
I648
tp23
a(S'5ht1a'
p24
I699
I705
tp25
atp26
Rp27
sS'raw_text_methods'
p28
g3
((lp29
S"(54, u'\\\\bautoradiography')"
p30
aS"(12, u'\\\\bantagonist')"
p31
atp32
Rp33
sS'regions'
p34
g3
((lp35
S"(8, u'(?i)\\\\b(centrals|central)(-|\\\\s+)?(nervouses|nervous)(-|\\\\s+)?(systems|system)\\\\b')"
p36
atp37
Rp38
sS'year'
p39
V1996
p40
sS'species'
p41
g3
((lp42
S"(4, u'(?i)\\\\b(rats|rat)\\\\b')"
p43
atp44
Rp45
sb.