(ifile_types
ParseObject
p0
(dp1
S'methods'
p2
c__builtin__
set
p3
((lp4
S'Method.ANTAGONIST'
p5
atp6
Rp7
sS'topics'
p8
g3
((lp9
S"(13, u'\\\\bantidepress')"
p10
aS"(26, u'\\\\bbehav')"
p11
aS"(4, u'\\\\btreatment')"
p12
atp13
Rp14
sS'receptors'
p15
g3
((lp16
(S'5ht3'
p17
I698
I703
tp18
a(S'5ht1b'
p19
I2394
I2402
tp20
a(S'5ht1a'
p21
I2394
I2400
tp22
a(S'5ht1b'
p23
I1199
I1207
tp24
a(S'5ht1b'
p25
I31
I39
tp26
a(S'5ht1a'
p27
I592
I598
tp28
a(S'5ht1b'
p29
I592
I600
tp30
a(S'5ht1a'
p31
I1199
I1205
tp32
a(S'5ht3'
p33
I1448
I1453
tp34
a(S'5ht1a'
p35
I31
I37
tp36
atp37
Rp38
sS'raw_text_methods'
p39
g3
((lp40
S"(7, u'\\\\bpropranolol')"
p41
aS"(11, u'\\\\bfluoxetine')"
p42
aS"(12, u'\\\\bantagonist')"
p43
atp44
Rp45
sS'regions'
p46
g3
((lp47
S"(20, u'(?i)\\\\b(prefrontals|prefrontal)\\\\b')"
p48
aS"(19, u'(?i)\\\\b(cortexes|cortex)\\\\b')"
p49
atp50
Rp51
sS'year'
p52
V2008
p53
sS'species'
p54
g3
((lp55
S"(1, u'(?i)\\\\b(mice|mouse)\\\\b')"
p56
aS"(5, u'(?i)\\\\b(mices|mice)\\\\b')"
p57
aS"(4, u'(?i)\\\\b(rats|rat)\\\\b')"
p58
atp59
Rp60
sb.