(ifile_types
ParseObject
p0
(dp1
S'methods'
p2
c__builtin__
set
p3
((lp4
S'Method.AGONIST'
p5
atp6
Rp7
sS'topics'
p8
g3
((lp9
S"(3, u'\\\\bclinical')"
p10
aS"(2, u'\\\\bdisorder')"
p11
atp12
Rp13
sS'receptors'
p14
g3
((lp15
(S'5ht3'
p16
I1629
I1634
tp17
a(S'5ht2'
p18
I1622
I1627
tp19
a(S'5ht1a'
p20
I1724
I1730
tp21
a(S'5ht1a'
p22
I1586
I1592
tp23
atp24
Rp25
sS'raw_text_methods'
p26
g3
((lp27
S"(13, u'\\\\bagonist')"
p28
atp29
Rp30
sS'regions'
p31
g3
((lp32
S"(20, u'(?i)\\\\b(prefrontals|prefrontal)\\\\b')"
p33
aS"(8, u'(?i)\\\\b(centrals|central)(-|\\\\s+)?(nervouses|nervous)(-|\\\\s+)?(systems|system)\\\\b')"
p34
aS"(19, u'(?i)\\\\b(cortexes|cortex)\\\\b')"
p35
atp36
Rp37
sS'year'
p38
V2006
p39
sS'species'
p40
g3
((lp41
S"(4, u'(?i)\\\\b(rats|rat)\\\\b')"
p42
atp43
Rp44
sb.