(ifile_types
ParseObject
p0
(dp1
S'methods'
p2
c__builtin__
set
p3
((lp4
S'Method.KNOCKOUT'
p5
aS'Method.ANTAGONIST'
p6
aS'Method.AGONIST'
p7
atp8
Rp9
sS'topics'
p10
g3
((lp11
S"(22, u'\\\\bschizophreni')"
p12
aS"(5, u'\\\\btherap')"
p13
aS"(26, u'\\\\bbehav')"
p14
aS"(23, u'\\\\bantipsychotic')"
p15
atp16
Rp17
sS'receptors'
p18
g3
((lp19
(S'5ht2a'
p20
I692
I698
tp21
a(S'5ht1a'
p22
I121
I127
tp23
a(S'5ht1'
p24
I894
I899
tp25
a(S'5ht1'
p26
I1465
I1470
tp27
a(S'5ht2'
p28
I721
I726
tp29
a(S'5ht2'
p30
I1776
I1781
tp31
a(S'5ht1'
p32
I1731
I1736
tp33
a(S'5ht2'
p34
I844
I849
tp35
a(S'5ht1'
p36
I935
I940
tp37
a(S'5ht1a'
p38
I703
I709
tp39
a(S'5ht1'
p40
I733
I738
tp41
a(S'5ht2'
p42
I947
I952
tp43
atp44
Rp45
sS'raw_text_methods'
p46
g3
((lp47
S"(41, u'\\\\bhaloperidol')"
p48
aS"(40, u'\\\\bclozapine')"
p49
aS"(13, u'\\\\bagonist')"
p50
aS"(49, u'\\\\bdoi')"
p51
aS"(51, u'\\\\bway100635')"
p52
aS"(12, u'\\\\bantagonist')"
p53
atp54
Rp55
sS'regions'
p56
g3
((lp57
S"(20, u'(?i)\\\\b(prefrontals|prefrontal)\\\\b')"
p58
aS"(19, u'(?i)\\\\b(cortexes|cortex)\\\\b')"
p59
atp60
Rp61
sS'year'
p62
V2012
p63
sS'species'
p64
g3
((lp65
S"(1, u'(?i)\\\\b(mice|mouse)\\\\b')"
p66
aS"(5, u'(?i)\\\\b(mices|mice)\\\\b')"
p67
aS"(4, u'(?i)\\\\b(rats|rat)\\\\b')"
p68
atp69
Rp70
sb.