(ifile_types
ParseObject
p0
(dp1
S'methods'
p2
c__builtin__
set
p3
((lp4
S'Method.ANTAGONIST'
p5
aS'Method.AGONIST'
p6
atp7
Rp8
sS'topics'
p9
g3
((lp10
S"(16, u'\\\\blearning')"
p11
aS"(13, u'\\\\bantidepress')"
p12
aS"(33, u'\\\\blocomot')"
p13
aS"(29, u'\\\\bhyperactiv')"
p14
aS"(18, u'\\\\bavoidan')"
p15
aS"(4, u'\\\\btreatment')"
p16
atp17
Rp18
sS'receptors'
p19
g3
((lp20
(S'5ht6'
p21
I1885
I1890
tp22
a(S'5ht6'
p23
I1046
I1051
tp24
a(S'5ht6'
p25
I86
I91
tp26
a(S'5ht6'
p27
I312
I317
tp28
atp29
Rp30
sS'raw_text_methods'
p31
g3
((lp32
S"(13, u'\\\\bagonist')"
p33
aS"(12, u'\\\\bantagonist')"
p34
atp35
Rp36
sS'regions'
p37
g3
((lp38
tp39
Rp40
sS'year'
p41
V2015
p42
sS'species'
p43
g3
((lp44
S"(4, u'(?i)\\\\b(rats|rat)\\\\b')"
p45
atp46
Rp47
sb.