(ifile_types
ParseObject
p0
(dp1
S'antagonists'
p2
c__builtin__
set
p3
((lp4
S"(32, u'\\\\bway ?100635')"
p5
atp6
Rp7
sS'methods'
p8
g3
((lp9
S'Method.ANTAGONIST'
p10
atp11
Rp12
sS'topics'
p13
g3
((lp14
tp15
Rp16
sS'receptors'
p17
g3
((lp18
S'5ht1a'
p19
atp20
Rp21
sS'regions'
p22
g3
((lp23
tp24
Rp25
sS'year'
p26
V1999
p27
sS'agonists'
p28
g3
((lp29
tp30
Rp31
sS'species'
p32
g3
((lp33
S"(5958, u'(?i)(rats|rat)')"
p34
aS"(1055, u'(?i)(men|man)')"
p35
aS"(853, u'(?i)(minas|mina)')"
p36
aS"(6249, u'(?i)(ants|ant)')"
p37
aS"(3522, u'(?i)(tetras|tetra)')"
p38
aS"(3812, u'(?i)(studs|stud)')"
p39
aS"(1795, u'(?i)(mounts|mount)')"
p40
atp41
Rp42
sb.