(ifile_types
ParseObject
p0
(dp1
S'methods'
p2
c__builtin__
set
p3
((lp4
S'Method.ANTAGONIST'
p5
atp6
Rp7
sS'topics'
p8
g3
((lp9
S"(16, u'\\\\blearning')"
p10
aS"(26, u'\\\\bbehav')"
p11
aS"(4, u'\\\\btreatment')"
p12
atp13
Rp14
sS'receptors'
p15
g3
((lp16
(S'5ht2a'
p17
I340
I346
tp18
a(S'5ht2c'
p19
I385
I391
tp20
a(S'5ht2a'
p21
I54
I60
tp22
a(S'5ht2'
p23
I1257
I1263
tp24
a(S'5ht2a'
p25
I1239
I1245
tp26
a(S'5ht2'
p27
I1239
I1245
tp28
a(S'5ht2c'
p29
I67
I73
tp30
a(S'5ht2c'
p31
I1257
I1263
tp32
a(S'5ht2a'
p33
I210
I216
tp34
atp35
Rp36
sS'raw_text_methods'
p37
g3
((lp38
S"(53, u'\\\\bketanserin')"
p39
aS"(12, u'\\\\bantagonist')"
p40
atp41
Rp42
sS'regions'
p43
g3
((lp44
tp45
Rp46
sS'year'
p47
V2011
p48
sS'species'
p49
g3
((lp50
S"(4, u'(?i)\\\\b(rats|rat)\\\\b')"
p51
atp52
Rp53
sb.