(ifile_types
ParseObject
p0
(dp1
S'antagonists'
p2
c__builtin__
set
p3
((lp4
S"(31, u'\\\\bway ?100635')"
p5
atp6
Rp7
sS'methods'
p8
g3
((lp9
S'Method.KNOCKOUT'
p10
aS'Method.ANTAGONIST'
p11
aS'Method.AGONIST'
p12
atp13
Rp14
sS'topics'
p15
g3
((lp16
tp17
Rp18
sS'receptors'
p19
g3
((lp20
S'5ht1a'
p21
atp22
Rp23
sS'regions'
p24
g3
((lp25
S"(292, u'(?i)\\\\b(anteriors|anterior)(-|\\\\s+)?(cingulates|cingulate)\\\\b')"
p26
aS"(318, u'(?i)\\\\b(raphes|raphe)(-|\\\\s+)?(nuclei|nucleus)\\\\b')"
p27
aS"(254, u'(?i)\\\\b(prefrontals|prefrontal)(-|\\\\s+)?(cortexes|cortex)\\\\b')"
p28
aS"(255, u'(?i)\\\\b(pres|pre)(-|\\\\s+)?(frontals|frontal)(-|\\\\s+)?(cortexes|cortex)\\\\b')"
p29
aS"(291, u'(?i)\\\\b(cingulates|cingulate)(-|\\\\s+)?(cortexes|cortex)\\\\b')"
p30
atp31
Rp32
sS'year'
p33
V2007
p34
sS'agonists'
p35
g3
((lp36
S"(85, u'\\\\b8 ?oh ?dpat')"
p37
atp38
Rp39
sS'species'
p40
g3
((lp41
S"(163, u'(?i)\\\\b(mice|mouse)\\\\b')"
p42
atp43
Rp44
sb.