(ifile_types
ParseObject
p0
(dp1
S'antagonists'
p2
c__builtin__
set
p3
((lp4
S"(23, u'\\\\brisperidone')"
p5
aS"(123, u'\\\\bclozapine')"
p6
aS"(56, u'\\\\bclozapine')"
p7
aS"(67, u'\\\\bhaloperidol')"
p8
aS"(59, u'\\\\brisperidone')"
p9
aS"(61, u'\\\\bmdl ?100907')"
p10
atp11
Rp12
sS'methods'
p13
g3
((lp14
S'Method.ANTAGONIST'
p15
aS'Method.AGONIST'
p16
atp17
Rp18
sS'topics'
p19
g3
((lp20
S"(15, u'\\\\bschizophreni')"
p21
aS"(8, u'\\\\blearning')"
p22
atp23
Rp24
sS'receptors'
p25
g3
((lp26
S'5ht2c'
p27
aS'5ht2a'
p28
atp29
Rp30
sS'regions'
p31
g3
((lp32
S"(34, u'(?i)(pon|pons)')"
p33
atp34
Rp35
sS'year'
p36
V1997
p37
sS'agonists'
p38
g3
((lp39
S"(33, u'\\\\bdoi')"
p40
aS"(48, u'\\\\bhaloperidol')"
p41
aS"(14, u'\\\\bamphetamine')"
p42
aS"(27, u'\\\\bclozapine')"
p43
atp44
Rp45
sS'species'
p46
g3
((lp47
S"(2568, u'(?i)(hens|hen)')"
p48
aS"(6391, u'(?i)(asses|ass)')"
p49
aS"(468, u'(?i)(oxen|ox)')"
p50
aS"(1055, u'(?i)(men|man)')"
p51
aS"(6249, u'(?i)(ants|ant)')"
p52
aS"(5743, u'(?i)(bots|bot)')"
p53
aS"(5958, u'(?i)(rats|rat)')"
p54
aS"(1057, u'(?i)(humans|human)')"
p55
aS"(663, u'(?i)(cocks|cock)')"
p56
aS"(1961, u'(?i)(pens|pen)')"
p57
aS"(6356, u'(?i)(ais|ai)')"
p58
aS"(3196, u'(?i)(human|humans)')"
p59
atp60
Rp61
sb.