(ifile_types
ParseObject
p0
(dp1
S'antagonists'
p2
c__builtin__
set
p3
((lp4
S"(23, u'\\\\brisperidone')"
p5
aS"(32, u'\\\\bway ?100635')"
p6
aS"(123, u'\\\\bclozapine')"
p7
aS"(56, u'\\\\bclozapine')"
p8
aS"(67, u'\\\\bhaloperidol')"
p9
aS"(59, u'\\\\brisperidone')"
p10
aS"(61, u'\\\\bmdl ?100907')"
p11
atp12
Rp13
sS'methods'
p14
g3
((lp15
S'Method.ANTAGONIST'
p16
atp17
Rp18
sS'topics'
p19
g3
((lp20
S"(15, u'\\\\bschizophreni')"
p21
aS"(9, u'\\\\bdepress')"
p22
atp23
Rp24
sS'receptors'
p25
g3
((lp26
S'5ht1a'
p27
aS'5ht2a'
p28
atp29
Rp30
sS'regions'
p31
g3
((lp32
S"(318, u'(?i)(raphes|raphe)(-|\\\\s+)?(nuclei|nucleus)')"
p33
aS"(94, u'(?i)(dorsals|dorsal)(-|\\\\s+)?(raphes|raphe)(-|\\\\s+)?(nuclei|nucleus)')"
p34
atp35
Rp36
sS'year'
p37
V1997
p38
sS'agonists'
p39
g3
((lp40
S"(48, u'\\\\bhaloperidol')"
p41
aS"(27, u'\\\\bclozapine')"
p42
atp43
Rp44
sS'species'
p45
g3
((lp46
S"(6753, u'(?i)(da|das)')"
p47
aS"(2568, u'(?i)(hens|hen)')"
p48
aS"(5958, u'(?i)(rats|rat)')"
p49
aS"(4979, u'(?i)(cats|cat)')"
p50
aS"(468, u'(?i)(oxen|ox)')"
p51
aS"(1055, u'(?i)(men|man)')"
p52
aS"(6249, u'(?i)(ants|ant)')"
p53
aS"(1349, u'(?i)(rams|ram)')"
p54
aS"(853, u'(?i)(minas|mina)')"
p55
aS"(3550, u'(?i)(anis|ani)')"
p56
aS"(3426, u'(?i)(hares|hare)')"
p57
aS"(1961, u'(?i)(pens|pen)')"
p58
aS"(3812, u'(?i)(studs|stud)')"
p59
aS"(6391, u'(?i)(asses|ass)')"
p60
aS"(5743, u'(?i)(bots|bot)')"
p61
aS"(6356, u'(?i)(ais|ai)')"
p62
atp63
Rp64
sb.