(ifile_types
ParseObject
p0
(dp1
S'antagonists'
p2
c__builtin__
set
p3
((lp4
S"(110, u'\\\\bclozapine')"
p5
aS"(31, u'\\\\bway ?100635')"
p6
aS"(133, u'\\\\bmianserin')"
p7
aS"(117, u'\\\\bketanserin')"
p8
aS"(14, u'\\\\bmethiothepin')"
p9
aS"(193, u'\\\\bmesulergine')"
p10
aS"(43, u'\\\\bgr ?127935')"
p11
aS"(119, u'\\\\britanserin')"
p12
atp13
Rp14
sS'methods'
p15
g3
((lp16
S'Method.ANTAGONIST'
p17
aS'Method.AGONIST'
p18
atp19
Rp20
sS'topics'
p21
g3
((lp22
tp23
Rp24
sS'receptors'
p25
g3
((lp26
S'5ht7'
p27
aS'5ht6'
p28
aS'5ht6a'
p29
atp30
Rp31
sS'regions'
p32
g3
((lp33
S"(362, u'(?i)\\\\b(brains|brain)(-|\\\\s+)?(stems|stem)\\\\b')"
p34
atp35
Rp36
sS'year'
p37
V1997
p38
sS'agonists'
p39
g3
((lp40
S"(220, u'\\\\b5 ?methoxytryptamine')"
p41
aS"(23, u'\\\\bclozapine')"
p42
aS"(96, u'\\\\bsumatriptan')"
p43
aS"(165, u'\\\\bmesulergine')"
p44
aS"(222, u'\\\\b5 ?meot')"
p45
aS"(175, u'\\\\bdoi')"
p46
aS"(67, u'\\\\bru ?24969')"
p47
aS"(198, u'\\\\bcisapride')"
p48
aS"(98, u'\\\\b5 ?carboxamidotryptamine')"
p49
aS"(176, u'\\\\bdom')"
p50
aS"(85, u'\\\\b8 ?oh ?dpat')"
p51
aS"(219, u'\\\\b5 ?ct')"
p52
atp53
Rp54
sS'species'
p55
g3
((lp56
S"(5958, u'(?i)\\\\b(rats|rat)\\\\b')"
p57
atp58
Rp59
sb.