(ifile_types
ParseObject
p0
(dp1
S'methods'
p2
c__builtin__
set
p3
((lp4
S'Method.AGONIST'
p5
aS'Method.IMMUNOHISTOCHEMISTRY'
p6
aS'Method.ANTAGONIST'
p7
atp8
Rp9
sS'topics'
p10
g3
((lp11
S"(30, u'\\\\bpain')"
p12
aS"(35, u'\\\\bnocicept')"
p13
atp14
Rp15
sS'receptors'
p16
g3
((lp17
(S'5ht3'
p18
I833
I838
tp19
a(S'5ht3'
p20
I1021
I1026
tp21
a(S'5ht1'
p22
I1096
I1100
tp23
a(S'5ht1'
p24
I872
I877
tp25
a(S'5ht3a'
p26
I1392
I1398
tp27
atp28
Rp29
sS'raw_text_methods'
p30
g3
((lp31
S"(23, u'\\\\bmdl')"
p32
aS"(26, u'\\\\bmdl72222')"
p33
aS"(13, u'\\\\bagonist')"
p34
aS"(6, u'\\\\bgr127935')"
p35
aS"(47, u'\\\\bsumatriptan')"
p36
aS"(12, u'\\\\bantagonist')"
p37
atp38
Rp39
sS'regions'
p40
g3
((lp41
tp42
Rp43
sS'year'
p44
V2017
p45
sS'species'
p46
g3
((lp47
tp48
Rp49
sb.