(ifile_types
ParseObject
p0
(dp1
S'methods'
p2
c__builtin__
set
p3
((lp4
S'Method.AGONIST'
p5
atp6
Rp7
sS'topics'
p8
g3
((lp9
tp10
Rp11
sS'receptors'
p12
g3
((lp13
(S'5ht7'
p14
I111
I116
tp15
a(S'5ht7'
p16
I223
I228
tp17
a(S'5ht7b'
p18
I719
I725
tp19
a(S'5ht7'
p20
I401
I406
tp21
a(S'5ht7'
p22
I1928
I1933
tp23
a(S'5ht7b'
p24
I1264
I1270
tp25
a(S'5ht7'
p26
I719
I725
tp27
a(S'5ht7b'
p28
I793
I799
tp29
a(S'5ht7a'
p30
I1743
I1749
tp31
a(S'5ht7a'
p32
I776
I782
tp33
a(S'5ht7b'
p34
I1793
I1799
tp35
a(S'5ht7b'
p36
I128
I134
tp37
a(S'5ht7'
p38
I538
I543
tp39
a(S'5ht7'
p40
I1501
I1506
tp41
a(S'5ht7'
p42
I2168
I2173
tp43
atp44
Rp45
sS'raw_text_methods'
p46
g3
((lp47
S"(13, u'\\\\bagonist')"
p48
aS"(15, u'\\\\b8ohdpat')"
p49
aS"(34, u'\\\\b5ct')"
p50
aS"(53, u'\\\\bketanserin')"
p51
atp52
Rp53
sS'regions'
p54
g3
((lp55
tp56
Rp57
sS'year'
p58
V1997
p59
sS'species'
p60
g3
((lp61
S"(4, u'(?i)\\\\b(rats|rat)\\\\b')"
p62
atp63
Rp64
sb.