(ifile_types
ParseObject
p0
(dp1
S'antagonists'
p2
c__builtin__
set
p3
((lp4
tp5
Rp6
sS'methods'
p7
g3
((lp8
tp9
Rp10
sS'topics'
p11
g3
((lp12
tp13
Rp14
sS'receptors'
p15
g3
((lp16
S'5ht2a'
p17
atp18
Rp19
sS'regions'
p20
g3
((lp21
tp22
Rp23
sS'year'
p24
V2000
p25
sS'agonists'
p26
g3
((lp27
S"(157, u'\\\\bdmt')"
p28
aS"(28, u'\\\\bdoet')"
p29
aS"(149, u'\\\\bmem')"
p30
aS"(176, u'\\\\bdom')"
p31
atp32
Rp33
sS'species'
p34
g3
((lp35
S"(5958, u'(?i)\\\\b(rats|rat)\\\\b')"
p36
atp37
Rp38
sb.