(ifile_types
ParseObject
p0
(dp1
S'antagonists'
p2
c__builtin__
set
p3
((lp4
S"(23, u'\\\\brisperidone')"
p5
aS"(57, u'\\\\bolanzapine')"
p6
aS"(59, u'\\\\brisperidone')"
p7
aS"(36, u'\\\\baripiprazole')"
p8
aS"(124, u'\\\\bolanzapine')"
p9
atp10
Rp11
sS'methods'
p12
g3
((lp13
S'Method.ANTAGONIST'
p14
aS'Method.AGONIST'
p15
atp16
Rp17
sS'topics'
p18
g3
((lp19
S"(26, u'\\\\bcardiovascular')"
p20
atp21
Rp22
sS'receptors'
p23
g3
((lp24
S'5ht1a'
p25
aS'5ht2a'
p26
atp27
Rp28
sS'regions'
p29
g3
((lp30
tp31
Rp32
sS'year'
p33
V2004
p34
sS'agonists'
p35
g3
((lp36
S"(64, u'\\\\bolanzapine')"
p37
aS"(16, u'\\\\baripiprazole')"
p38
atp39
Rp40
sS'species'
p41
g3
((lp42
S"(2054, u'(?i)(heads|head)')"
p43
aS"(6753, u'(?i)(da|das)')"
p44
aS"(5958, u'(?i)(rats|rat)')"
p45
aS"(6356, u'(?i)(ais|ai)')"
p46
aS"(163, u'(?i)(mice|mouse)')"
p47
aS"(468, u'(?i)(oxen|ox)')"
p48
aS"(1349, u'(?i)(rams|ram)')"
p49
aS"(6249, u'(?i)(ants|ant)')"
p50
aS"(3812, u'(?i)(studs|stud)')"
p51
aS"(3550, u'(?i)(anis|ani)')"
p52
aS"(1414, u'(?i)(chars|char)')"
p53
aS"(6391, u'(?i)(asses|ass)')"
p54
aS"(2809, u'(?i)(toms|tom)')"
p55
aS"(5743, u'(?i)(bots|bot)')"
p56
aS"(4979, u'(?i)(cats|cat)')"
p57
atp58
Rp59
sb.