(ifile_types
ParseObject
p0
(dp1
S'methods'
p2
c__builtin__
set
p3
((lp4
tp5
Rp6
sS'topics'
p7
g3
((lp8
tp9
Rp10
sS'receptors'
p11
g3
((lp12
(S'5ht1'
p13
I118
I123
tp14
a(S'5ht1d'
p15
I815
I821
tp16
atp17
Rp18
sS'raw_text_methods'
p19
g3
((lp20
S"(53, u'\\\\bketanserin')"
p21
aS"(7, u'\\\\bpropranolol')"
p22
aS"(15, u'\\\\b8ohdpat')"
p23
aS"(34, u'\\\\b5ct')"
p24
aS"(49, u'\\\\bdoi')"
p25
aS"(47, u'\\\\bsumatriptan')"
p26
aS"(46, u'\\\\bspiperone')"
p27
aS"(9, u'\\\\britanserin')"
p28
aS"(45, u'\\\\bmetergoline')"
p29
atp30
Rp31
sS'regions'
p32
g3
((lp33
S"(23, u'(?i)\\\\b(forebrains|forebrain)\\\\b')"
p34
atp35
Rp36
sS'year'
p37
V1993
p38
sS'species'
p39
g3
((lp40
S"(4, u'(?i)\\\\b(rats|rat)\\\\b')"
p41
atp42
Rp43
sb.