(ifile_types
ParseObject
p0
(dp1
S'methods'
p2
c__builtin__
set
p3
((lp4
S'Method.ANTAGONIST'
p5
atp6
Rp7
sS'topics'
p8
g3
((lp9
S"(13, u'\\\\bantidepress')"
p10
aS"(26, u'\\\\bbehav')"
p11
aS"(20, u'\\\\bmood')"
p12
aS"(2, u'\\\\bdisorder')"
p13
atp14
Rp15
sS'receptors'
p16
g3
((lp17
(S'5ht2a'
p18
I640
I646
tp19
a(S'5ht1a'
p20
I257
I263
tp21
a(S'5ht2a'
p22
I854
I860
tp23
a(S'5ht2a'
p24
I1735
I1741
tp25
atp26
Rp27
sS'raw_text_methods'
p28
g3
((lp29
S"(53, u'\\\\bketanserin')"
p30
aS"(12, u'\\\\bantagonist')"
p31
atp32
Rp33
sS'regions'
p34
g3
((lp35
tp36
Rp37
sS'year'
p38
V2012
p39
sS'species'
p40
g3
((lp41
tp42
Rp43
sb.