(ifile_types
ParseObject
p0
(dp1
S'methods'
p2
c__builtin__
set
p3
((lp4
S'Method.AGONIST'
p5
atp6
Rp7
sS'topics'
p8
g3
((lp9
S"(8, u'\\\\banxi')"
p10
aS"(26, u'\\\\bbehav')"
p11
atp12
Rp13
sS'receptors'
p14
g3
((lp15
(S'5ht3'
p16
I1754
I1759
tp17
a(S'5ht3'
p18
I1215
I1220
tp19
a(S'5ht1a'
p20
I716
I722
tp21
a(S'5ht1a'
p22
I1558
I1564
tp23
a(S'5ht3'
p24
I851
I856
tp25
a(S'5ht3'
p26
I59
I64
tp27
a(S'5ht1a'
p28
I48
I54
tp29
atp30
Rp31
sS'raw_text_methods'
p32
g3
((lp33
S"(13, u'\\\\bagonist')"
p34
aS"(15, u'\\\\b8ohdpat')"
p35
atp36
Rp37
sS'regions'
p38
g3
((lp39
S"(4, u'(?i)\\\\b(presynaptics|presynaptic)\\\\b')"
p40
aS"(3, u'(?i)\\\\b(postsynaptics|postsynaptic)\\\\b')"
p41
aS"(12, u'(?i)\\\\b(amygdalas|amygdala)\\\\b')"
p42
atp43
Rp44
sS'year'
p45
V2002
p46
sS'species'
p47
g3
((lp48
S"(4, u'(?i)\\\\b(rats|rat)\\\\b')"
p49
atp50
Rp51
sb.