(ifile_types
ParseObject
p0
(dp1
S'methods'
p2
c__builtin__
set
p3
((lp4
S'Method.PET'
p5
aS'Method.ANTAGONIST'
p6
aS'Method.AGONIST'
p7
atp8
Rp9
sS'topics'
p10
g3
((lp11
S"(22, u'\\\\bschizophreni')"
p12
aS"(17, u'\\\\balzheimer')"
p13
aS"(32, u'\\\\bvomit')"
p14
aS"(5, u'\\\\btherap')"
p15
aS"(1, u'\\\\bpatient')"
p16
aS"(3, u'\\\\bclinical')"
p17
atp18
Rp19
sS'receptors'
p20
g3
((lp21
(S'5ht3'
p22
I856
I861
tp23
atp24
Rp25
sS'raw_text_methods'
p26
g3
((lp27
S"(17, u'\\\\bpet')"
p28
aS"(20, u'\\\\bondansetron')"
p29
aS"(13, u'\\\\bagonist')"
p30
aS"(19, u'\\\\bpositron emission tomography')"
p31
aS"(18, u'\\\\bimaging')"
p32
aS"(12, u'\\\\bantagonist')"
p33
atp34
Rp35
sS'regions'
p36
g3
((lp37
tp38
Rp39
sS'year'
p40
V2011
p41
sS'species'
p42
g3
((lp43
S"(3, u'(?i)\\\\b(males|male)\\\\b')"
p44
atp45
Rp46
sb.