(ifile_types
ParseObject
p0
(dp1
S'methods'
p2
c__builtin__
set
p3
((lp4
tp5
Rp6
sS'topics'
p7
g3
((lp8
tp9
Rp10
sS'receptors'
p11
g3
((lp12
(S'5ht7'
p13
I163
I168
tp14
a(S'5ht7'
p15
I364
I369
tp16
a(S'5ht7'
p17
I38
I43
tp18
a(S'5ht7'
p19
I520
I525
tp20
atp21
Rp22
sS'raw_text_methods'
p23
g3
((lp24
tp25
Rp26
sS'regions'
p27
g3
((lp28
tp29
Rp30
sS'year'
p31
V2000
p32
sS'species'
p33
g3
((lp34
S"(4, u'(?i)\\\\b(rats|rat)\\\\b')"
p35
atp36
Rp37
sb.