(ifile_types
ParseObject
p0
(dp1
S'antagonists'
p2
c__builtin__
set
p3
((lp4
tp5
Rp6
sS'methods'
p7
g3
((lp8
tp9
Rp10
sS'topics'
p11
g3
((lp12
tp13
Rp14
sS'receptors'
p15
g3
((lp16
S'5ht1a'
p17
aS'5ht5'
p18
atp19
Rp20
sS'regions'
p21
g3
((lp22
S"(34, u'(?i)(pon|pons)')"
p23
atp24
Rp25
sS'year'
p26
V1996
p27
sS'agonists'
p28
g3
((lp29
tp30
Rp31
sS'species'
p32
g3
((lp33
S"(2323, u'(?i)(bees|bee)')"
p34
aS"(6753, u'(?i)(da|das)')"
p35
aS"(2568, u'(?i)(hens|hen)')"
p36
aS"(867, u'(?i)(tits|tit)')"
p37
aS"(5743, u'(?i)(bots|bot)')"
p38
aS"(479, u'(?i)(lings|ling)')"
p39
aS"(468, u'(?i)(oxen|ox)')"
p40
aS"(4979, u'(?i)(cats|cat)')"
p41
aS"(6682, u'(?i)(tera|teras)')"
p42
atp43
Rp44
sb.