(ifile_types
ParseObject
p0
(dp1
S'methods'
p2
c__builtin__
set
p3
((lp4
S'Method.ANTAGONIST'
p5
aS'Method.AGONIST'
p6
atp7
Rp8
sS'topics'
p9
g3
((lp10
S"(33, u'\\\\blocomot')"
p11
aS"(8, u'\\\\banxi')"
p12
aS"(25, u'\\\\bsocial')"
p13
atp14
Rp15
sS'receptors'
p16
g3
((lp17
(S'5ht1'
p18
I1291
I1297
tp19
a(S'5ht1a'
p20
I1089
I1095
tp21
a(S'5ht1a'
p22
I103
I109
tp23
a(S'5ht1a'
p24
I1291
I1297
tp25
atp26
Rp27
sS'raw_text_methods'
p28
g3
((lp29
S"(13, u'\\\\bagonist')"
p30
aS"(12, u'\\\\bantagonist')"
p31
atp32
Rp33
sS'regions'
p34
g3
((lp35
tp36
Rp37
sS'year'
p38
V2000
p39
sS'species'
p40
g3
((lp41
tp42
Rp43
sb.