(ifile_types
ParseObject
p0
(dp1
S'methods'
p2
c__builtin__
set
p3
((lp4
tp5
Rp6
sS'topics'
p7
g3
((lp8
tp9
Rp10
sS'receptors'
p11
g3
((lp12
(S'5ht7'
p13
I79
I84
tp14
a(S'5ht5b'
p15
I559
I565
tp16
a(S'5ht7'
p17
I738
I743
tp18
a(S'5ht6'
p19
I646
I651
tp20
a(S'5ht7'
p21
I225
I230
tp22
a(S'5ht6'
p23
I67
I72
tp24
a(S'5ht5b'
p25
I57
I63
tp26
a(S'5ht6'
p27
I213
I218
tp28
a(S'5ht5b'
p29
I203
I209
tp30
a(S'5ht5a'
p31
I47
I53
tp32
a(S'5ht5a'
p33
I518
I524
tp34
a(S'5ht5a'
p35
I193
I199
tp36
atp37
Rp38
sS'raw_text_methods'
p39
g3
((lp40
tp41
Rp42
sS'regions'
p43
g3
((lp44
S"(17, u'(?i)\\\\b(caudates|caudate)\\\\b')"
p45
aS"(18, u'(?i)\\\\b(putamens|putamen)\\\\b')"
p46
atp47
Rp48
sS'year'
p49
V2001
p50
sS'species'
p51
g3
((lp52
S"(4, u'(?i)\\\\b(rats|rat)\\\\b')"
p53
atp54
Rp55
sb.