(ifile_types
ParseObject
p0
(dp1
S'antagonists'
p2
c__builtin__
set
p3
((lp4
tp5
Rp6
sS'methods'
p7
g3
((lp8
S'Method.ANTAGONIST'
p9
aS'Method.AGONIST'
p10
atp11
Rp12
sS'topics'
p13
g3
((lp14
S"(16, u'\\\\bfeed')"
p15
atp16
Rp17
sS'receptors'
p18
g3
((lp19
S'5ht1b'
p20
aS'5ht2c'
p21
atp22
Rp23
sS'regions'
p24
g3
((lp25
tp26
Rp27
sS'year'
p28
V2004
p29
sS'agonists'
p30
g3
((lp31
S"(161, u'\\\\bmcpp')"
p32
atp33
Rp34
sS'species'
p35
g3
((lp36
S"(2323, u'(?i)(bees|bee)')"
p37
aS"(5958, u'(?i)(rats|rat)')"
p38
aS"(6682, u'(?i)(tera|teras)')"
p39
aS"(468, u'(?i)(oxen|ox)')"
p40
aS"(4979, u'(?i)(cats|cat)')"
p41
aS"(6249, u'(?i)(ants|ant)')"
p42
aS"(1961, u'(?i)(pens|pen)')"
p43
aS"(3812, u'(?i)(studs|stud)')"
p44
aS"(6391, u'(?i)(asses|ass)')"
p45
aS"(6356, u'(?i)(ais|ai)')"
p46
atp47
Rp48
sb.