(ifile_types
ParseObject
p0
(dp1
S'methods'
p2
c__builtin__
set
p3
((lp4
S'Method.PET'
p5
aS'Method.ANTAGONIST'
p6
atp7
Rp8
sS'topics'
p9
g3
((lp10
S"(7, u'\\\\bdepressi')"
p11
aS"(1, u'\\\\bpatient')"
p12
aS"(3, u'\\\\bclinical')"
p13
aS"(5, u'\\\\btherap')"
p14
aS"(2, u'\\\\bdisorder')"
p15
atp16
Rp17
sS'receptors'
p18
g3
((lp19
(S'5ht1a'
p20
I855
I861
tp21
a(S'5ht1a'
p22
I346
I352
tp23
a(S'5ht1a'
p24
I597
I603
tp25
a(S'5ht1a'
p26
I1036
I1042
tp27
a(S'5ht1a'
p28
I51
I62
tp29
a(S'5ht1a'
p30
I261
I267
tp31
a(S'5ht1a'
p32
I247
I258
tp33
a(S'5ht1a'
p34
I714
I725
tp35
atp36
Rp37
sS'raw_text_methods'
p38
g3
((lp39
S"(17, u'\\\\bpet')"
p40
aS"(19, u'\\\\bpositron emission tomography')"
p41
aS"(12, u'\\\\bantagonist')"
p42
atp43
Rp44
sS'regions'
p45
g3
((lp46
tp47
Rp48
sS'year'
p49
V2015
p50
sS'species'
p51
g3
((lp52
S"(2, u'(?i)\\\\b(females|female)\\\\b')"
p53
aS"(3, u'(?i)\\\\b(males|male)\\\\b')"
p54
atp55
Rp56
sb.