(ifile_types
ParseObject
p0
(dp1
S'antagonists'
p2
c__builtin__
set
p3
((lp4
S"(23, u'\\\\brisperidone')"
p5
aS"(32, u'\\\\bway ?100635')"
p6
aS"(59, u'\\\\brisperidone')"
p7
atp8
Rp9
sS'methods'
p10
g3
((lp11
S'Method.ANTAGONIST'
p12
atp13
Rp14
sS'topics'
p15
g3
((lp16
tp17
Rp18
sS'receptors'
p19
g3
((lp20
S'5ht1a'
p21
atp22
Rp23
sS'regions'
p24
g3
((lp25
S"(318, u'(?i)(raphes|raphe)(-|\\\\s+)?(nuclei|nucleus)')"
p26
aS"(94, u'(?i)(dorsals|dorsal)(-|\\\\s+)?(raphes|raphe)(-|\\\\s+)?(nuclei|nucleus)')"
p27
atp28
Rp29
sS'year'
p30
V1998
p31
sS'agonists'
p32
g3
((lp33
tp34
Rp35
sS'species'
p36
g3
((lp37
S"(6753, u'(?i)(da|das)')"
p38
aS"(2568, u'(?i)(hens|hen)')"
p39
aS"(5958, u'(?i)(rats|rat)')"
p40
aS"(5743, u'(?i)(bots|bot)')"
p41
aS"(468, u'(?i)(oxen|ox)')"
p42
aS"(1055, u'(?i)(men|man)')"
p43
aS"(6249, u'(?i)(ants|ant)')"
p44
aS"(1349, u'(?i)(rams|ram)')"
p45
aS"(853, u'(?i)(minas|mina)')"
p46
aS"(3550, u'(?i)(anis|ani)')"
p47
aS"(1961, u'(?i)(pens|pen)')"
p48
aS"(6356, u'(?i)(ais|ai)')"
p49
aS"(6391, u'(?i)(asses|ass)')"
p50
atp51
Rp52
sb.