(ifile_types
ParseObject
p0
(dp1
S'antagonists'
p2
c__builtin__
set
p3
((lp4
tp5
Rp6
sS'methods'
p7
g3
((lp8
S'Method.KNOCKOUT'
p9
aS'Method.ANTAGONIST'
p10
atp11
Rp12
sS'topics'
p13
g3
((lp14
S"(18, u'\\\\bpsychostim')"
p15
aS"(4, u'\\\\blocomot')"
p16
atp17
Rp18
sS'receptors'
p19
g3
((lp20
S'5ht2a'
p21
atp22
Rp23
sS'regions'
p24
g3
((lp25
S"(220, u'(?i)(striatums|striatum)')"
p26
aS"(225, u'(?i)(ventrals|ventral)(-|\\\\s+)?(striatums|striatum)')"
p27
aS"(34, u'(?i)(pon|pons)')"
p28
atp29
Rp30
sS'year'
p31
V2004
p32
sS'agonists'
p33
g3
((lp34
tp35
Rp36
sS'species'
p37
g3
((lp38
S"(6753, u'(?i)(da|das)')"
p39
aS"(6249, u'(?i)(ants|ant)')"
p40
aS"(702, u'(?i)(genets|genet)')"
p41
aS"(163, u'(?i)(mice|mouse)')"
p42
aS"(1055, u'(?i)(men|man)')"
p43
aS"(4979, u'(?i)(cats|cat)')"
p44
aS"(3550, u'(?i)(anis|ani)')"
p45
aS"(1961, u'(?i)(pens|pen)')"
p46
aS"(6356, u'(?i)(ais|ai)')"
p47
aS"(5863, u'(?i)(entires|entire)')"
p48
atp49
Rp50
sb.