(ifile_types
ParseObject
p0
(dp1
S'antagonists'
p2
c__builtin__
set
p3
((lp4
S"(102, u'\\\\bfluoxetine')"
p5
atp6
Rp7
sS'methods'
p8
g3
((lp9
S'Method.AGONIST'
p10
atp11
Rp12
sS'topics'
p13
g3
((lp14
tp15
Rp16
sS'receptors'
p17
g3
((lp18
S'5ht5'
p19
aS'5ht1a'
p20
atp21
Rp22
sS'regions'
p23
g3
((lp24
S"(165, u'(?i)(preoptics|preoptic)(-|\\\\s+)?(areas|area)')"
p25
aS"(126, u'(?i)(thalamuses|thalamus)')"
p26
atp27
Rp28
sS'year'
p29
V2004
p30
sS'agonists'
p31
g3
((lp32
S"(92, u'\\\\b8 ?oh ?dpat')"
p33
atp34
Rp35
sS'species'
p36
g3
((lp37
S"(2323, u'(?i)(bees|bee)')"
p38
aS"(5958, u'(?i)(rats|rat)')"
p39
aS"(468, u'(?i)(oxen|ox)')"
p40
aS"(1055, u'(?i)(men|man)')"
p41
aS"(2334, u'(?i)(eels|eel)')"
p42
aS"(5743, u'(?i)(bots|bot)')"
p43
aS"(6249, u'(?i)(ants|ant)')"
p44
aS"(3522, u'(?i)(tetras|tetra)')"
p45
aS"(3812, u'(?i)(studs|stud)')"
p46
atp47
Rp48
sb.