(ifile_types
ParseObject
p0
(dp1
S'antagonists'
p2
c__builtin__
set
p3
((lp4
S"(67, u'\\\\bhaloperidol')"
p5
aS"(54, u'\\\\britanserin')"
p6
aS"(17, u'\\\\bnan ?190')"
p7
aS"(130, u'\\\\britanserin')"
p8
atp9
Rp10
sS'methods'
p11
g3
((lp12
S'Method.ANTAGONIST'
p13
atp14
Rp15
sS'topics'
p16
g3
((lp17
tp18
Rp19
sS'receptors'
p20
g3
((lp21
S'5ht2d'
p22
aS'5ht1a'
p23
aS'5ht2'
p24
atp25
Rp26
sS'regions'
p27
g3
((lp28
S"(220, u'(?i)(striatums|striatum)')"
p29
atp30
Rp31
sS'year'
p32
V1996
p33
sS'agonists'
p34
g3
((lp35
S"(48, u'\\\\bhaloperidol')"
p36
atp37
Rp38
sS'species'
p39
g3
((lp40
S"(6249, u'(?i)(ants|ant)')"
p41
aS"(7609, u'(?i)(erns|ern)')"
p42
aS"(5958, u'(?i)(rats|rat)')"
p43
aS"(468, u'(?i)(oxen|ox)')"
p44
aS"(4964, u'(?i)(serins|serin)')"
p45
aS"(2568, u'(?i)(hens|hen)')"
p46
aS"(1961, u'(?i)(pens|pen)')"
p47
atp48
Rp49
sb.