(ifile_types
ParseObject
p0
(dp1
S'antagonists'
p2
c__builtin__
set
p3
((lp4
S"(23, u'\\\\brisperidone')"
p5
aS"(59, u'\\\\brisperidone')"
p6
aS"(61, u'\\\\bmdl ?100907')"
p7
aS"(45, u'\\\\bgr ?127935')"
p8
atp9
Rp10
sS'methods'
p11
g3
((lp12
S'Method.ANTAGONIST'
p13
aS'Method.AGONIST'
p14
atp15
Rp16
sS'topics'
p17
g3
((lp18
tp19
Rp20
sS'receptors'
p21
g3
((lp22
S'5ht1b'
p23
aS'5ht5'
p24
aS'5ht2a'
p25
aS'5ht1d'
p26
atp27
Rp28
sS'regions'
p29
g3
((lp30
S"(318, u'(?i)(raphes|raphe)(-|\\\\s+)?(nuclei|nucleus)')"
p31
aS"(94, u'(?i)(dorsals|dorsal)(-|\\\\s+)?(raphes|raphe)(-|\\\\s+)?(nuclei|nucleus)')"
p32
atp33
Rp34
sS'year'
p35
V2001
p36
sS'agonists'
p37
g3
((lp38
S"(110, u'\\\\bcp ?135807')"
p39
atp40
Rp41
sS'species'
p42
g3
((lp43
S"(6753, u'(?i)(da|das)')"
p44
aS"(5958, u'(?i)(rats|rat)')"
p45
aS"(4979, u'(?i)(cats|cat)')"
p46
aS"(468, u'(?i)(oxen|ox)')"
p47
aS"(1349, u'(?i)(rams|ram)')"
p48
aS"(6249, u'(?i)(ants|ant)')"
p49
aS"(2334, u'(?i)(eels|eel)')"
p50
aS"(3812, u'(?i)(studs|stud)')"
p51
aS"(3550, u'(?i)(anis|ani)')"
p52
aS"(1414, u'(?i)(chars|char)')"
p53
aS"(5743, u'(?i)(bots|bot)')"
p54
aS"(6356, u'(?i)(ais|ai)')"
p55
atp56
Rp57
sb.