(ifile_types
ParseObject
p0
(dp1
S'methods'
p2
c__builtin__
set
p3
((lp4
S'Method.ANTAGONIST'
p5
atp6
Rp7
sS'topics'
p8
g3
((lp9
S"(22, u'\\\\bschizophreni')"
p10
aS"(14, u'\\\\bcogniti')"
p11
aS"(26, u'\\\\bbehav')"
p12
aS"(17, u'\\\\balzheimer')"
p13
aS"(15, u'\\\\bmemory')"
p14
aS"(24, u'\\\\banxiolytic')"
p15
aS"(18, u'\\\\bavoidan')"
p16
aS"(8, u'\\\\banxi')"
p17
aS"(4, u'\\\\btreatment')"
p18
atp19
Rp20
sS'receptors'
p21
g3
((lp22
(S'5ht6'
p23
I700
I705
tp24
a(S'5ht2'
p25
I640
I645
tp26
a(S'5ht6'
p27
I465
I470
tp28
a(S'5ht6'
p29
I1556
I1561
tp30
a(S'5ht6'
p31
I1479
I1484
tp32
a(S'5ht6'
p33
I71
I76
tp34
a(S'5ht6'
p35
I179
I184
tp36
a(S'5ht6'
p37
I528
I533
tp38
atp39
Rp40
sS'raw_text_methods'
p41
g3
((lp42
S"(5, u'\\\\bmk801')"
p43
aS"(12, u'\\\\bantagonist')"
p44
atp45
Rp46
sS'regions'
p47
g3
((lp48
S"(8, u'(?i)\\\\b(centrals|central)(-|\\\\s+)?(nervouses|nervous)(-|\\\\s+)?(systems|system)\\\\b')"
p49
atp50
Rp51
sS'year'
p52
V2017
p53
sS'species'
p54
g3
((lp55
S"(6, u'(?i)\\\\b(rodents|rodent)\\\\b')"
p56
atp57
Rp58
sb.