(ifile_types
ParseObject
p0
(dp1
S'antagonists'
p2
c__builtin__
set
p3
((lp4
S"(32, u'\\\\bway ?100635')"
p5
aS"(39, u'\\\\bsb ?224289')"
p6
atp7
Rp8
sS'methods'
p9
g3
((lp10
S'Method.ANTAGONIST'
p11
aS'Method.AGONIST'
p12
atp13
Rp14
sS'topics'
p15
g3
((lp16
tp17
Rp18
sS'receptors'
p19
g3
((lp20
S'5ht1b'
p21
aS'5ht1a'
p22
atp23
Rp24
sS'regions'
p25
g3
((lp26
S"(318, u'(?i)(raphes|raphe)(-|\\\\s+)?(nuclei|nucleus)')"
p27
aS"(103, u'(?i)(substantias|substantia)(-|\\\\s+)?(nigras|nigra)')"
p28
aS"(105, u'(?i)(par|pars)(-|\\\\s+)?(reticulatas|reticulata)')"
p29
aS"(230, u'(?i)(ventrals|ventral)(-|\\\\s+)?(pallidums|pallidum)')"
p30
aS"(254, u'(?i)(prefrontals|prefrontal)(-|\\\\s+)?(cortexes|cortex)')"
p31
aS"(255, u'(?i)(pres|pre)(-|\\\\s+)?(frontals|frontal)(-|\\\\s+)?(cortexes|cortex)')"
p32
aS"(158, u'(?i)(suprachiasmatics|suprachiasmatic)(-|\\\\s+)?(nuclei|nucleus)')"
p33
aS"(94, u'(?i)(dorsals|dorsal)(-|\\\\s+)?(raphes|raphe)(-|\\\\s+)?(nuclei|nucleus)')"
p34
atp35
Rp36
sS'year'
p37
V2001
p38
sS'agonists'
p39
g3
((lp40
S"(108, u'\\\\bcp ?94253')"
p41
aS"(107, u'\\\\bcp ?93129')"
p42
atp43
Rp44
sS'species'
p45
g3
((lp46
S"(5537, u'(?i)(hippos|hippo)')"
p47
aS"(5799, u'(?i)(rodents|rodent)')"
p48
aS"(5958, u'(?i)(rats|rat)')"
p49
aS"(3601, u'(?i)(efts|eft)')"
p50
aS"(4979, u'(?i)(cats|cat)')"
p51
aS"(6682, u'(?i)(tera|teras)')"
p52
aS"(3592, u'(?i)(ravens|raven)')"
p53
aS"(2334, u'(?i)(eels|eel)')"
p54
aS"(853, u'(?i)(minas|mina)')"
p55
aS"(6249, u'(?i)(ants|ant)')"
p56
aS"(1961, u'(?i)(pens|pen)')"
p57
aS"(6356, u'(?i)(ais|ai)')"
p58
aS"(391, u'(?i)(alli|allis)')"
p59
atp60
Rp61
sb.