(ifile_types
ParseObject
p0
(dp1
S'methods'
p2
c__builtin__
set
p3
((lp4
S'Method.AGONIST'
p5
atp6
Rp7
sS'topics'
p8
g3
((lp9
tp10
Rp11
sS'receptors'
p12
g3
((lp13
(S'5ht1c'
p14
I680
I686
tp15
a(S'5ht2'
p16
I738
I743
tp17
a(S'5ht1a'
p18
I608
I614
tp19
atp20
Rp21
sS'raw_text_methods'
p22
g3
((lp23
S"(13, u'\\\\bagonist')"
p24
aS"(15, u'\\\\b8ohdpat')"
p25
aS"(3, u'\\\\bimmunoreactiv')"
p26
aS"(33, u'\\\\bmcpp')"
p27
aS"(49, u'\\\\bdoi')"
p28
atp29
Rp30
sS'regions'
p31
g3
((lp32
tp33
Rp34
sS'year'
p35
V1990
p36
sS'species'
p37
g3
((lp38
S"(4, u'(?i)\\\\b(rats|rat)\\\\b')"
p39
atp40
Rp41
sb.