(ifile_types
ParseObject
p0
(dp1
S'antagonists'
p2
c__builtin__
set
p3
((lp4
S"(31, u'\\\\bway ?100635')"
p5
atp6
Rp7
sS'methods'
p8
g3
((lp9
S'Method.ANTAGONIST'
p10
aS'Method.AGONIST'
p11
atp12
Rp13
sS'topics'
p14
g3
((lp15
S"(12, u'\\\\banxiogen')"
p16
aS"(11, u'\\\\banxiolyt')"
p17
aS"(10, u'\\\\banxiety')"
p18
aS"(30, u'\\\\bparkinsons')"
p19
atp20
Rp21
sS'receptors'
p22
g3
((lp23
S'5ht1a'
p24
atp25
Rp26
sS'regions'
p27
g3
((lp28
S"(94, u'(?i)\\\\b(dorsals|dorsal)(-|\\\\s+)?(raphes|raphe)(-|\\\\s+)?(nuclei|nucleus)\\\\b')"
p29
aS"(310, u'(?i)\\\\b(medials|medial)(-|\\\\s+)?(forebrains|forebrain)(-|\\\\s+)?(bundles|bundle)\\\\b')"
p30
aS"(254, u'(?i)\\\\b(prefrontals|prefrontal)(-|\\\\s+)?(cortexes|cortex)\\\\b')"
p31
aS"(255, u'(?i)\\\\b(pres|pre)(-|\\\\s+)?(frontals|frontal)(-|\\\\s+)?(cortexes|cortex)\\\\b')"
p32
aS"(318, u'(?i)\\\\b(raphes|raphe)(-|\\\\s+)?(nuclei|nucleus)\\\\b')"
p33
atp34
Rp35
sS'year'
p36
V2015
p37
sS'agonists'
p38
g3
((lp39
S"(85, u'\\\\b8 ?oh ?dpat')"
p40
atp41
Rp42
sS'species'
p43
g3
((lp44
S"(5958, u'(?i)\\\\b(rats|rat)\\\\b')"
p45
atp46
Rp47
sb.