(ifile_types
ParseObject
p0
(dp1
S'methods'
p2
c__builtin__
set
p3
((lp4
tp5
Rp6
sS'topics'
p7
g3
((lp8
S"(18, u'\\\\bavoidan')"
p9
aS"(26, u'\\\\bbehav')"
p10
atp11
Rp12
sS'receptors'
p13
g3
((lp14
(S'5ht1'
p15
I923
I928
tp16
a(S'5ht3'
p17
I671
I676
tp18
a(S'5ht1'
p19
I563
I568
tp20
a(S'5ht2'
p21
I574
I579
tp22
a(S'5ht1'
p23
I326
I331
tp24
a(S'5ht2'
p25
I333
I338
tp26
a(S'5ht3'
p27
I344
I349
tp28
atp29
Rp30
sS'raw_text_methods'
p31
g3
((lp32
tp33
Rp34
sS'regions'
p35
g3
((lp36
S"(19, u'(?i)\\\\b(cortexes|cortex)\\\\b')"
p37
aS"(12, u'(?i)\\\\b(amygdalas|amygdala)\\\\b')"
p38
atp39
Rp40
sS'year'
p41
V1992
p42
sS'species'
p43
g3
((lp44
S"(4, u'(?i)\\\\b(rats|rat)\\\\b')"
p45
atp46
Rp47
sb.