(ifile_types
ParseObject
p0
(dp1
S'methods'
p2
c__builtin__
set
p3
((lp4
S'Method.ANTAGONIST'
p5
aS'Method.AGONIST'
p6
atp7
Rp8
sS'topics'
p9
g3
((lp10
S"(26, u'\\\\bbehav')"
p11
atp12
Rp13
sS'receptors'
p14
g3
((lp15
(S'5ht2a'
p16
I1105
I1111
tp17
a(S'5ht2a'
p18
I1606
I1612
tp19
a(S'5ht2a'
p20
I1139
I1145
tp21
a(S'5ht2'
p22
I1358
I1363
tp23
a(S'5ht2a'
p24
I1788
I1794
tp25
a(S'5ht2'
p26
I623
I628
tp27
a(S'5ht2a'
p28
I120
I126
tp29
a(S'5ht2a'
p30
I822
I828
tp31
a(S'5ht2a'
p32
I575
I581
tp33
atp34
Rp35
sS'raw_text_methods'
p36
g3
((lp37
S"(13, u'\\\\bagonist')"
p38
aS"(49, u'\\\\bdoi')"
p39
aS"(23, u'\\\\bmdl')"
p40
aS"(12, u'\\\\bantagonist')"
p41
atp42
Rp43
sS'regions'
p44
g3
((lp45
tp46
Rp47
sS'year'
p48
V2008
p49
sS'species'
p50
g3
((lp51
S"(1, u'(?i)\\\\b(mice|mouse)\\\\b')"
p52
aS"(5, u'(?i)\\\\b(mices|mice)\\\\b')"
p53
atp54
Rp55
sb.