(ifile_types
ParseObject
p0
(dp1
S'methods'
p2
c__builtin__
set
p3
((lp4
S'Method.ANTAGONIST'
p5
atp6
Rp7
sS'topics'
p8
g3
((lp9
S"(9, u'\\\\bstress')"
p10
atp11
Rp12
sS'receptors'
p13
g3
((lp14
(S'5ht5'
p15
I159
I169
tp16
a(S'5ht1'
p17
I913
I918
tp18
a(S'5ht2'
p19
I952
I957
tp20
atp21
Rp22
sS'raw_text_methods'
p23
g3
((lp24
S"(53, u'\\\\bketanserin')"
p25
aS"(20, u'\\\\bondansetron')"
p26
aS"(12, u'\\\\bantagonist')"
p27
atp28
Rp29
sS'regions'
p30
g3
((lp31
tp32
Rp33
sS'year'
p34
V1998
p35
sS'species'
p36
g3
((lp37
S"(3, u'(?i)\\\\b(males|male)\\\\b')"
p38
aS"(4, u'(?i)\\\\b(rats|rat)\\\\b')"
p39
atp40
Rp41
sb.