(ifile_types
ParseObject
p0
(dp1
S'antagonists'
p2
c__builtin__
set
p3
((lp4
S"(53, u'\\\\bketanserin')"
p5
aS"(6, u'\\\\bcyproheptadine')"
p6
aS"(62, u'\\\\bcyproheptadine')"
p7
aS"(128, u'\\\\bketanserin')"
p8
aS"(113, u'\\\\bclomipramine')"
p9
aS"(136, u'\\\\btropisetron')"
p10
aS"(102, u'\\\\bfluoxetine')"
p11
atp12
Rp13
sS'methods'
p14
g3
((lp15
S'Method.ANTAGONIST'
p16
aS'Method.AGONIST'
p17
atp18
Rp19
sS'topics'
p20
g3
((lp21
tp22
Rp23
sS'receptors'
p24
g3
((lp25
S'5ht7a'
p26
aS'5ht6a'
p27
aS'5ht2b'
p28
aS'5ht2'
p29
aS'5ht2a'
p30
atp31
Rp32
sS'regions'
p33
g3
((lp34
tp35
Rp36
sS'year'
p37
V2002
p38
sS'agonists'
p39
g3
((lp40
S"(105, u'\\\\b5 ?carboxamidotryptamine')"
p41
aS"(224, u'\\\\b5 ?methoxytryptamine')"
p42
aS"(225, u'\\\\b5 ?meot')"
p43
aS"(190, u'\\\\b2 ?methyl ?5 ?ht')"
p44
atp45
Rp46
sS'species'
p47
g3
((lp48
S"(3404, u'(?i)(titis|titi)')"
p49
aS"(3671, u'(?i)(drosophilas|drosophila)')"
p50
aS"(6356, u'(?i)(ais|ai)')"
p51
aS"(1070, u'(?i)(pets|pet)')"
p52
aS"(7539, u'(?i)(mammals|mammal)')"
p53
aS"(6845, u'(?i)(caterpillars|caterpillar)')"
p54
aS"(468, u'(?i)(oxen|ox)')"
p55
aS"(1349, u'(?i)(rams|ram)')"
p56
aS"(5838, u'(?i)(cubs|cub)')"
p57
aS"(2081, u'(?i)(spodopteras|spodoptera)(-|\\\\s+)?(frugiperdas|frugiperda)')"
p58
aS"(6753, u'(?i)(da|das)')"
p59
aS"(6249, u'(?i)(ants|ant)')"
p60
aS"(867, u'(?i)(tits|tit)')"
p61
aS"(6682, u'(?i)(tera|teras)')"
p62
aS"(7540, u'(?i)(mammalians|mammalian)')"
p63
aS"(6490, u'(?i)(lepidopterans|lepidopteran)')"
p64
aS"(1961, u'(?i)(pens|pen)')"
p65
aS"(1414, u'(?i)(chars|char)')"
p66
aS"(4979, u'(?i)(cats|cat)')"
p67
aS"(4964, u'(?i)(serins|serin)')"
p68
aS"(7552, u'(?i)(bats|bat)')"
p69
aS"(1253, u'(?i)(insects|insect)')"
p70
atp71
Rp72
sb.