(ifile_types
ParseObject
p0
(dp1
S'methods'
p2
c__builtin__
set
p3
((lp4
S'Method.ANTAGONIST'
p5
aS'Method.AGONIST'
p6
atp7
Rp8
sS'topics'
p9
g3
((lp10
tp11
Rp12
sS'receptors'
p13
g3
((lp14
(S'5ht3'
p15
I1745
I1750
tp16
a(S'5ht3'
p17
I972
I977
tp18
a(S'5ht1a'
p19
I696
I702
tp20
a(S'5ht4'
p21
I1696
I1701
tp22
a(S'5ht2c'
p23
I574
I580
tp24
a(S'5ht2a'
p25
I545
I551
tp26
a(S'5ht1a'
p27
I924
I930
tp28
a(S'5ht2c'
p29
I1379
I1385
tp30
a(S'5ht5a'
p31
I1931
I1937
tp32
a(S'5ht2c'
p33
I604
I610
tp34
a(S'5ht3'
p35
I633
I638
tp36
a(S'5ht7'
p37
I1944
I1949
tp38
a(S'5ht4'
p39
I1872
I1877
tp40
a(S'5ht2a'
p41
I945
I951
tp42
a(S'5ht1a'
p43
I1068
I1074
tp44
a(S'5ht3'
p45
I1997
I2002
tp46
a(S'5ht4'
p47
I666
I671
tp48
a(S'5ht2a'
p49
I1735
I1741
tp50
a(S'5ht1a'
p51
I1174
I1180
tp52
a(S'5ht4'
p53
I997
I1002
tp54
a(S'5ht2a'
p55
I1251
I1257
tp56
a(S'5ht1a'
p57
I484
I490
tp58
a(S'5ht2a'
p59
I1984
I1990
tp60
a(S'5ht2'
p61
I1011
I1016
tp62
a(S'5ht7'
p63
I1708
I1713
tp64
a(S'5ht1a'
p65
I1849
I1855
tp66
a(S'5ht1b'
p67
I1921
I1927
tp68
a(S'5ht2c'
p69
I1686
I1692
tp70
a(S'5ht1'
p71
I924
I930
tp72
a(S'5ht5a'
p73
I1757
I1763
tp74
a(S'5ht2c'
p75
I1859
I1865
tp76
a(S'5ht5'
p77
I137
I147
tp78
atp79
Rp80
sS'raw_text_methods'
p81
g3
((lp82
S"(33, u'\\\\bmcpp')"
p83
aS"(52, u'\\\\bmk212')"
p84
aS"(15, u'\\\\b8ohdpat')"
p85
aS"(34, u'\\\\b5ct')"
p86
aS"(13, u'\\\\bagonist')"
p87
aS"(49, u'\\\\bdoi')"
p88
aS"(12, u'\\\\bantagonist')"
p89
aS"(45, u'\\\\bmetergoline')"
p90
atp91
Rp92
sS'regions'
p93
g3
((lp94
tp95
Rp96
sS'year'
p97
V2003
p98
sS'species'
p99
g3
((lp100
tp101
Rp102
sb.