(ifile_types
ParseObject
p0
(dp1
S'antagonists'
p2
c__builtin__
set
p3
((lp4
tp5
Rp6
sS'methods'
p7
g3
((lp8
S'Method.AGONIST'
p9
atp10
Rp11
sS'topics'
p12
g3
((lp13
S"(29, u'\\\\bsex')"
p14
aS"(35, u'\\\\bstress')"
p15
atp16
Rp17
sS'receptors'
p18
g3
((lp19
S'5ht1a'
p20
aS'5ht2c'
p21
aS'5ht2a'
p22
atp23
Rp24
sS'regions'
p25
g3
((lp26
S"(254, u'(?i)\\\\b(prefrontals|prefrontal)(-|\\\\s+)?(cortexes|cortex)\\\\b')"
p27
aS"(159, u'(?i)\\\\b(paraventriculars|paraventricular)(-|\\\\s+)?(nuclei|nucleus)\\\\b')"
p28
aS"(255, u'(?i)\\\\b(pres|pre)(-|\\\\s+)?(frontals|frontal)(-|\\\\s+)?(cortexes|cortex)\\\\b')"
p29
aS"(203, u'(?i)\\\\b(dentates|dentate)(-|\\\\s+)?(gyruses|gyrus)\\\\b')"
p30
atp31
Rp32
sS'year'
p33
V2007
p34
sS'agonists'
p35
g3
((lp36
S"(189, u'\\\\bethanol')"
p37
aS"(85, u'\\\\b8 ?oh ?dpat')"
p38
aS"(175, u'\\\\bdoi')"
p39
atp40
Rp41
sS'species'
p42
g3
((lp43
S"(3248, u'(?i)\\\\b(offspring|offspring)\\\\b')"
p44
aS"(6125, u'(?i)\\\\b(females|female)\\\\b')"
p45
aS"(6580, u'(?i)\\\\b(dams|dam)\\\\b')"
p46
aS"(4091, u'(?i)\\\\b(adults|adult)\\\\b')"
p47
aS"(5958, u'(?i)\\\\b(rats|rat)\\\\b')"
p48
aS"(5967, u'(?i)\\\\b(males|male)\\\\b')"
p49
atp50
Rp51
sb.