(ifile_types
ParseObject
p0
(dp1
S'antagonists'
p2
c__builtin__
set
p3
((lp4
S"(193, u'\\\\bmesulergine')"
p5
aS"(119, u'\\\\britanserin')"
p6
aS"(34, u'\\\\bmetergoline')"
p7
aS"(21, u'\\\\bpindolol')"
p8
aS"(113, u'\\\\brisperidone')"
p9
atp10
Rp11
sS'methods'
p12
g3
((lp13
S'Method.ANTAGONIST'
p14
atp15
Rp16
sS'topics'
p17
g3
((lp18
tp19
Rp20
sS'receptors'
p21
g3
((lp22
S'5ht7'
p23
aS'5ht7b'
p24
aS'5ht2c'
p25
aS'5ht2a'
p26
atp27
Rp28
sS'regions'
p29
g3
((lp30
tp31
Rp32
sS'year'
p33
V2000
p34
sS'agonists'
p35
g3
((lp36
S"(49, u'\\\\blysergic acid diethylamide')"
p37
aS"(165, u'\\\\bmesulergine')"
p38
aS"(158, u'\\\\blsd')"
p39
aS"(98, u'\\\\b5 ?carboxamidotryptamine')"
p40
aS"(85, u'\\\\b8 ?oh ?dpat')"
p41
aS"(219, u'\\\\b5 ?ct')"
p42
atp43
Rp44
sS'species'
p45
g3
((lp46
S"(163, u'(?i)\\\\b(mice|mouse)\\\\b')"
p47
atp48
Rp49
sb.