(ifile_types
ParseObject
p0
(dp1
S'antagonists'
p2
c__builtin__
set
p3
((lp4
tp5
Rp6
sS'methods'
p7
g3
((lp8
tp9
Rp10
sS'topics'
p11
g3
((lp12
tp13
Rp14
sS'receptors'
p15
g3
((lp16
S'5ht5'
p17
aS'5ht3'
p18
aS'5ht2a'
p19
atp20
Rp21
sS'regions'
p22
g3
((lp23
S"(248, u'(?i)(cerebrals|cerebral)(-|\\\\s+)?(cortexes|cortex)')"
p24
atp25
Rp26
sS'year'
p27
V2000
p28
sS'agonists'
p29
g3
((lp30
tp31
Rp32
sS'species'
p33
g3
((lp34
S"(6753, u'(?i)(da|das)')"
p35
aS"(931, u'(?i)(divers|diver)')"
p36
aS"(7610, u'(?i)(ernes|erne)')"
p37
aS"(2401, u'(?i)(primates|primate)')"
p38
aS"(468, u'(?i)(oxen|ox)')"
p39
aS"(1055, u'(?i)(men|man)')"
p40
aS"(3726, u'(?i)(mates|mate)')"
p41
aS"(1349, u'(?i)(rams|ram)')"
p42
aS"(4979, u'(?i)(cats|cat)')"
p43
aS"(3550, u'(?i)(anis|ani)')"
p44
aS"(6356, u'(?i)(ais|ai)')"
p45
aS"(7609, u'(?i)(erns|ern)')"
p46
aS"(6521, u'(?i)(macaques|macaque)')"
p47
aS"(1683, u'(?i)(terns|tern)')"
p48
atp49
Rp50
sb.