(ifile_types
ParseObject
p0
(dp1
S'methods'
p2
c__builtin__
set
p3
((lp4
tp5
Rp6
sS'topics'
p7
g3
((lp8
S"(14, u'\\\\bcogniti')"
p9
aS"(13, u'\\\\bantidepress')"
p10
aS"(7, u'\\\\bdepressi')"
p11
aS"(8, u'\\\\banxi')"
p12
aS"(4, u'\\\\btreatment')"
p13
aS"(3, u'\\\\bclinical')"
p14
atp15
Rp16
sS'receptors'
p17
g3
((lp18
(S'5ht3'
p19
I1386
I1391
tp20
a(S'5ht7'
p21
I1396
I1401
tp22
a(S'5ht1a'
p23
I1378
I1384
tp24
atp25
Rp26
sS'raw_text_methods'
p27
g3
((lp28
tp29
Rp30
sS'regions'
p31
g3
((lp32
tp33
Rp34
sS'year'
p35
V2016
p36
sS'species'
p37
g3
((lp38
tp39
Rp40
sb.