(ifile_types
ParseObject
p0
(dp1
S'methods'
p2
c__builtin__
set
p3
((lp4
S'Method.KNOCKOUT'
p5
aS'Method.AGONIST'
p6
atp7
Rp8
sS'topics'
p9
g3
((lp10
S"(26, u'\\\\bbehav')"
p11
aS"(15, u'\\\\bmemory')"
p12
atp13
Rp14
sS'receptors'
p15
g3
((lp16
(S'5ht1f'
p17
I913
I919
tp18
a(S'5ht1f'
p19
I1665
I1671
tp20
a(S'5ht1e'
p21
I532
I538
tp22
a(S'5ht1e'
p23
I1724
I1730
tp24
a(S'5ht1e'
p25
I397
I403
tp26
a(S'5ht1f'
p27
I1794
I1800
tp28
a(S'5ht1f'
p29
I1179
I1185
tp30
a(S'5ht1e'
p31
I267
I273
tp32
a(S'5ht1e'
p33
I1153
I1159
tp34
a(S'5ht1e'
p35
I2041
I2047
tp36
a(S'5ht1f'
p37
I1389
I1395
tp38
a(S'5ht1e'
p39
I1446
I1452
tp40
a(S'5ht1e'
p41
I1781
I1787
tp42
a(S'5ht1f'
p43
I1459
I1465
tp44
a(S'5ht1e'
p45
I1304
I1310
tp46
a(S'5ht1f'
p47
I2054
I2060
tp48
a(S'5ht1'
p49
I1868
I1873
tp50
a(S'5ht1e'
p51
I813
I819
tp52
atp53
Rp54
sS'raw_text_methods'
p55
g3
((lp56
S"(13, u'\\\\bagonist')"
p57
atp58
Rp59
sS'regions'
p60
g3
((lp61
S"(19, u'(?i)\\\\b(cortexes|cortex)\\\\b')"
p62
atp63
Rp64
sS'year'
p65
V2011
p66
sS'species'
p67
g3
((lp68
S"(1, u'(?i)\\\\b(mice|mouse)\\\\b')"
p69
aS"(5, u'(?i)\\\\b(mices|mice)\\\\b')"
p70
aS"(4, u'(?i)\\\\b(rats|rat)\\\\b')"
p71
atp72
Rp73
sb.