(ifile_types
ParseObject
p0
(dp1
S'antagonists'
p2
c__builtin__
set
p3
((lp4
S"(32, u'\\\\bway ?100635')"
p5
aS"(123, u'\\\\bclozapine')"
p6
aS"(142, u'\\\\bm1')"
p7
aS"(56, u'\\\\bclozapine')"
p8
atp9
Rp10
sS'methods'
p11
g3
((lp12
S'Method.ANTAGONIST'
p13
aS'Method.AGONIST'
p14
atp15
Rp16
sS'topics'
p17
g3
((lp18
tp19
Rp20
sS'receptors'
p21
g3
((lp22
S'5ht5'
p23
aS'5ht1a'
p24
aS'5ht2c'
p25
aS'5ht2a'
p26
atp27
Rp28
sS'regions'
p29
g3
((lp30
S"(254, u'(?i)(prefrontals|prefrontal)(-|\\\\s+)?(cortexes|cortex)')"
p31
aS"(255, u'(?i)(pres|pre)(-|\\\\s+)?(frontals|frontal)(-|\\\\s+)?(cortexes|cortex)')"
p32
atp33
Rp34
sS'year'
p35
V2001
p36
sS'agonists'
p37
g3
((lp38
S"(33, u'\\\\bdoi')"
p39
aS"(27, u'\\\\bclozapine')"
p40
atp41
Rp42
sS'species'
p43
g3
((lp44
S"(4624, u'(?i)(apes|ape)')"
p45
aS"(2568, u'(?i)(hens|hen)')"
p46
aS"(468, u'(?i)(oxen|ox)')"
p47
aS"(6249, u'(?i)(ants|ant)')"
p48
aS"(6753, u'(?i)(da|das)')"
p49
aS"(5958, u'(?i)(rats|rat)')"
p50
aS"(6356, u'(?i)(ais|ai)')"
p51
atp52
Rp53
sb.