(ifile_types
ParseObject
p0
(dp1
S'methods'
p2
c__builtin__
set
p3
((lp4
S'Method.STIMULATION'
p5
aS'Method.ANTAGONIST'
p6
atp7
Rp8
sS'topics'
p9
g3
((lp10
tp11
Rp12
sS'receptors'
p13
g3
((lp14
(S'5ht1a'
p15
I717
I723
tp16
a(S'5ht2'
p17
I1312
I1317
tp18
a(S'5ht2'
p19
I662
I667
tp20
atp21
Rp22
sS'raw_text_methods'
p23
g3
((lp24
S"(12, u'\\\\bantagonist')"
p25
atp26
Rp27
sS'regions'
p28
g3
((lp29
tp30
Rp31
sS'year'
p32
V1992
p33
sS'species'
p34
g3
((lp35
tp36
Rp37
sb.