(ifile_types
ParseObject
p0
(dp1
S'antagonists'
p2
c__builtin__
set
p3
((lp4
S"(21, u'\\\\bpindolol')"
p5
aS"(119, u'\\\\britanserin')"
p6
atp7
Rp8
sS'methods'
p9
g3
((lp10
S'Method.ANTAGONIST'
p11
aS'Method.AGONIST'
p12
atp13
Rp14
sS'topics'
p15
g3
((lp16
S"(9, u'\\\\bdepress')"
p17
atp18
Rp19
sS'receptors'
p20
g3
((lp21
S'5ht1a'
p22
aS'5ht2'
p23
aS'5ht1'
p24
atp25
Rp26
sS'regions'
p27
g3
((lp28
tp29
Rp30
sS'year'
p31
V1998
p32
sS'agonists'
p33
g3
((lp34
S"(85, u'\\\\b8 ?oh ?dpat')"
p35
aS"(175, u'\\\\bdoi')"
p36
atp37
Rp38
sS'species'
p39
g3
((lp40
S"(5958, u'(?i)\\\\b(rats|rat)\\\\b')"
p41
atp42
Rp43
sb.