(ifile_types
ParseObject
p0
(dp1
S'methods'
p2
c__builtin__
set
p3
((lp4
S'Method.ANTAGONIST'
p5
atp6
Rp7
sS'topics'
p8
g3
((lp9
S"(26, u'\\\\bbehav')"
p10
atp11
Rp12
sS'receptors'
p13
g3
((lp14
(S'5ht1'
p15
I1638
I1644
tp16
a(S'5ht1e'
p17
I909
I915
tp18
a(S'5ht1d'
p19
I1269
I1275
tp20
a(S'5ht5'
p21
I101
I107
tp22
a(S'5ht1'
p23
I101
I106
tp24
a(S'5ht1a'
p25
I240
I246
tp26
a(S'5ht1f'
p27
I920
I926
tp28
a(S'5ht1e'
p29
I1638
I1644
tp30
a(S'5ht1f'
p31
I1286
I1292
tp32
a(S'5ht1b'
p33
I229
I235
tp34
a(S'5ht1'
p35
I87
I92
tp36
a(S'5ht1'
p37
I359
I364
tp38
a(S'5ht1d'
p39
I895
I901
tp40
a(S'5ht1d'
p41
I1604
I1610
tp42
a(S'5ht1'
p43
I2046
I2051
tp44
a(S'5ht1f'
p45
I525
I531
tp46
a(S'5ht1e'
p47
I1331
I1337
tp48
a(S'5ht1e'
p49
I114
I120
tp50
a(S'5ht1e'
p51
I498
I504
tp52
a(S'5ht1d'
p53
I468
I474
tp54
a(S'5ht1f'
p55
I125
I131
tp56
a(S'5ht1d'
p57
I482
I488
tp58
a(S'5ht1'
p59
I791
I796
tp60
a(S'5ht1d'
p61
I630
I636
tp62
atp63
Rp64
sS'raw_text_methods'
p65
g3
((lp66
S"(7, u'\\\\bpropranolol')"
p67
aS"(12, u'\\\\bantagonist')"
p68
atp69
Rp70
sS'regions'
p71
g3
((lp72
tp73
Rp74
sS'year'
p75
V1994
p76
sS'species'
p77
g3
((lp78
tp79
Rp80
sb.