(ifile_types
ParseObject
p0
(dp1
S'antagonists'
p2
c__builtin__
set
p3
((lp4
S"(91, u'\\\\bfluoxetine')"
p5
aS"(31, u'\\\\bway ?100635')"
p6
atp7
Rp8
sS'methods'
p9
g3
((lp10
S'Method.ANTAGONIST'
p11
atp12
Rp13
sS'topics'
p14
g3
((lp15
S"(9, u'\\\\bdepress')"
p16
aS"(35, u'\\\\bstress')"
p17
aS"(16, u'\\\\bfeed')"
p18
aS"(1, u'\\\\bmood')"
p19
atp20
Rp21
sS'receptors'
p22
g3
((lp23
S'5ht1a'
p24
atp25
Rp26
sS'regions'
p27
g3
((lp28
S"(94, u'(?i)\\\\b(dorsals|dorsal)(-|\\\\s+)?(raphes|raphe)(-|\\\\s+)?(nuclei|nucleus)\\\\b')"
p29
aS"(318, u'(?i)\\\\b(raphes|raphe)(-|\\\\s+)?(nuclei|nucleus)\\\\b')"
p30
atp31
Rp32
sS'year'
p33
V2018
p34
sS'agonists'
p35
g3
((lp36
tp37
Rp38
sS'species'
p39
g3
((lp40
S"(5958, u'(?i)\\\\b(rats|rat)\\\\b')"
p41
atp42
Rp43
sb.