(ifile_types
ParseObject
p0
(dp1
S'methods'
p2
c__builtin__
set
p3
((lp4
S'Method.ANTAGONIST'
p5
atp6
Rp7
sS'topics'
p8
g3
((lp9
tp10
Rp11
sS'receptors'
p12
g3
((lp13
(S'5ht1d'
p14
I1265
I1273
tp15
a(S'5ht1d'
p16
I1476
I1482
tp17
a(S'5ht1b'
p18
I1265
I1271
tp19
a(S'5ht1b'
p20
I1440
I1446
tp21
a(S'5ht1f'
p22
I1487
I1493
tp23
a(S'5ht1b'
p24
I46
I52
tp25
a(S'5ht1b'
p26
I1320
I1326
tp27
a(S'5ht1b'
p28
I1649
I1655
tp29
a(S'5ht5'
p30
I1120
I1125
tp31
atp32
Rp33
sS'raw_text_methods'
p34
g3
((lp35
S"(34, u'\\\\b5ct')"
p36
aS"(6, u'\\\\bgr127935')"
p37
aS"(47, u'\\\\bsumatriptan')"
p38
aS"(12, u'\\\\bantagonist')"
p39
atp40
Rp41
sS'regions'
p42
g3
((lp43
tp44
Rp45
sS'year'
p46
V2004
p47
sS'species'
p48
g3
((lp49
S"(7, u'(?i)\\\\b(guineas|guinea)(-|\\\\s+)?(pigs|pig)\\\\b')"
p50
atp51
Rp52
sb.