(ifile_types
ParseObject
p0
(dp1
S'methods'
p2
c__builtin__
set
p3
((lp4
S'Method.PET'
p5
aS'Method.ANTAGONIST'
p6
atp7
Rp8
sS'topics'
p9
g3
((lp10
S"(3, u'\\\\bclinical')"
p11
atp12
Rp13
sS'receptors'
p14
g3
((lp15
(S'5ht1b'
p16
I1100
I1106
tp17
a(S'5ht1b'
p18
I948
I954
tp19
atp20
Rp21
sS'raw_text_methods'
p22
g3
((lp23
S"(17, u'\\\\bpet')"
p24
aS"(12, u'\\\\bantagonist')"
p25
atp26
Rp27
sS'regions'
p28
g3
((lp29
S"(9, u'(?i)\\\\b(cerebellums|cerebellum)\\\\b')"
p30
aS"(17, u'(?i)\\\\b(caudates|caudate)\\\\b')"
p31
atp32
Rp33
sS'year'
p34
V2015
p35
sS'species'
p36
g3
((lp37
tp38
Rp39
sb.