(ifile_types
ParseObject
p0
(dp1
S'antagonists'
p2
c__builtin__
set
p3
((lp4
S"(32, u'\\\\bway ?100635')"
p5
aS"(21, u'\\\\bpindolol')"
p6
aS"(110, u'\\\\bsb ?242084')"
p7
atp8
Rp9
sS'methods'
p10
g3
((lp11
S'Method.ANTAGONIST'
p12
aS'Method.AGONIST'
p13
atp14
Rp15
sS'topics'
p16
g3
((lp17
tp18
Rp19
sS'receptors'
p20
g3
((lp21
S'5ht1a'
p22
aS'5ht5'
p23
aS'5ht2c'
p24
atp25
Rp26
sS'regions'
p27
g3
((lp28
S"(96, u'(?i)(ventrals|ventral)(-|\\\\s+)?(tegmentals|tegmental)(-|\\\\s+)?(areas|area)')"
p29
aS"(226, u'(?i)(nuclei|nucleus)(-|\\\\s+)?(accumben|accumbens)')"
p30
aS"(103, u'(?i)(substantias|substantia)(-|\\\\s+)?(nigras|nigra)')"
p31
aS"(220, u'(?i)(striatums|striatum)')"
p32
atp33
Rp34
sS'year'
p35
V2011
p36
sS'agonists'
p37
g3
((lp38
S"(184, u'\\\\bvabicaserin')"
p39
atp40
Rp41
sS'species'
p42
g3
((lp43
S"(2323, u'(?i)(bees|bee)')"
p44
aS"(4624, u'(?i)(apes|ape)')"
p45
aS"(5176, u'(?i)(tegs|teg)')"
p46
aS"(5958, u'(?i)(rats|rat)')"
p47
aS"(6356, u'(?i)(ais|ai)')"
p48
aS"(7609, u'(?i)(erns|ern)')"
p49
aS"(7610, u'(?i)(ernes|erne)')"
p50
aS"(4979, u'(?i)(cats|cat)')"
p51
aS"(6753, u'(?i)(da|das)')"
p52
aS"(1055, u'(?i)(men|man)')"
p53
aS"(1349, u'(?i)(rams|ram)')"
p54
aS"(2334, u'(?i)(eels|eel)')"
p55
aS"(4964, u'(?i)(serins|serin)')"
p56
aS"(6249, u'(?i)(ants|ant)')"
p57
aS"(3812, u'(?i)(studs|stud)')"
p58
aS"(6391, u'(?i)(asses|ass)')"
p59
aS"(5743, u'(?i)(bots|bot)')"
p60
aS"(1683, u'(?i)(terns|tern)')"
p61
atp62
Rp63
sb.