(ifile_types
ParseObject
p0
(dp1
S'antagonists'
p2
c__builtin__
set
p3
((lp4
S"(32, u'\\\\bway ?100635')"
p5
aS"(202, u'\\\\bsb ?258719')"
p6
aS"(38, u'\\\\bsb ?216641')"
p7
atp8
Rp9
sS'methods'
p10
g3
((lp11
S'Method.STIMULATION'
p12
aS'Method.ANTAGONIST'
p13
aS'Method.AGONIST'
p14
atp15
Rp16
sS'topics'
p17
g3
((lp18
tp19
Rp20
sS'receptors'
p21
g3
((lp22
S'5ht7'
p23
aS'5ht1b'
p24
aS'5ht1a'
p25
aS'5ht1'
p26
aS'5ht1d'
p27
aS'5ht7a'
p28
atp29
Rp30
sS'regions'
p31
g3
((lp32
S"(318, u'(?i)(raphes|raphe)(-|\\\\s+)?(nuclei|nucleus)')"
p33
atp34
Rp35
sS'year'
p36
V2004
p37
sS'agonists'
p38
g3
((lp39
S"(105, u'\\\\b5 ?carboxamidotryptamine')"
p40
aS"(5, u'\\\\b5 ?ct')"
p41
atp42
Rp43
sS'species'
p44
g3
((lp45
S"(1688, u'(?i)(ounces|ounce)')"
p46
aS"(5958, u'(?i)(rats|rat)')"
p47
aS"(3767, u'(?i)(olms|olm)')"
p48
aS"(4163, u'(?i)(ermines|ermine)')"
p49
aS"(81, u'(?i)(asps|asp)')"
p50
aS"(468, u'(?i)(oxen|ox)')"
p51
aS"(3726, u'(?i)(mates|mate)')"
p52
aS"(853, u'(?i)(minas|mina)')"
p53
aS"(6249, u'(?i)(ants|ant)')"
p54
aS"(6682, u'(?i)(tera|teras)')"
p55
aS"(4979, u'(?i)(cats|cat)')"
p56
aS"(1961, u'(?i)(pens|pen)')"
p57
aS"(6356, u'(?i)(ais|ai)')"
p58
aS"(821, u'(?i)(lice|louse)')"
p59
atp60
Rp61
sb.