(ifile_types
ParseObject
p0
(dp1
S'methods'
p2
c__builtin__
set
p3
((lp4
S'Method.ANTAGONIST'
p5
aS'Method.AGONIST'
p6
atp7
Rp8
sS'topics'
p9
g3
((lp10
tp11
Rp12
sS'receptors'
p13
g3
((lp14
(S'5ht1a'
p15
I1225
I1231
tp16
a(S'5ht1a'
p17
I614
I620
tp18
a(S'5ht1'
p19
I244
I249
tp20
a(S'5ht1a'
p21
I32
I38
tp22
atp23
Rp24
sS'raw_text_methods'
p25
g3
((lp26
S"(11, u'\\\\bfluoxetine')"
p27
aS"(12, u'\\\\bantagonist')"
p28
atp29
Rp30
sS'regions'
p31
g3
((lp32
S"(16, u'(?i)\\\\b(drns|drn)\\\\b')"
p33
atp34
Rp35
sS'year'
p36
V2002
p37
sS'species'
p38
g3
((lp39
S"(4, u'(?i)\\\\b(rats|rat)\\\\b')"
p40
atp41
Rp42
sb.