(ifile_types
ParseObject
p0
(dp1
S'methods'
p2
c__builtin__
set
p3
((lp4
tp5
Rp6
sS'topics'
p7
g3
((lp8
S"(8, u'\\\\banxi')"
p9
aS"(7, u'\\\\bdepressi')"
p10
aS"(17, u'\\\\balzheimer')"
p11
aS"(2, u'\\\\bdisorder')"
p12
atp13
Rp14
sS'receptors'
p15
g3
((lp16
(S'5ht1a'
p17
I1145
I1151
tp18
a(S'5ht1a'
p19
I1535
I1541
tp20
a(S'5ht1a'
p21
I3623
I3629
tp22
a(S'5ht2'
p23
I824
I829
tp24
a(S'5ht1a'
p25
I2837
I2843
tp26
a(S'5ht1a'
p27
I581
I587
tp28
a(S'5ht1a'
p29
I3699
I3705
tp30
a(S'5ht1a'
p31
I3973
I3979
tp32
a(S'5ht1a'
p33
I1419
I1425
tp34
a(S'5ht1a'
p35
I3065
I3071
tp36
a(S'5ht1a'
p37
I1873
I1879
tp38
a(S'5ht1a'
p39
I2552
I2558
tp40
a(S'5ht1a'
p41
I2153
I2159
tp42
a(S'5ht1a'
p43
I1023
I1029
tp44
a(S'5ht1a'
p45
I1797
I1803
tp46
a(S'5ht1a'
p47
I2496
I2502
tp48
a(S'5ht1a'
p49
I1625
I1631
tp50
a(S'5ht1a'
p51
I2174
I2180
tp52
a(S'5ht1b'
p53
I813
I819
tp54
a(S'5ht1a'
p55
I3295
I3301
tp56
a(S'5ht1a'
p57
I123
I129
tp58
atp59
Rp60
sS'raw_text_methods'
p61
g3
((lp62
tp63
Rp64
sS'regions'
p65
g3
((lp66
S"(19, u'(?i)\\\\b(cortexes|cortex)\\\\b')"
p67
atp68
Rp69
sS'year'
p70
V1997
p71
sS'species'
p72
g3
((lp73
S"(4, u'(?i)\\\\b(rats|rat)\\\\b')"
p74
atp75
Rp76
sb.