(ifile_types
ParseObject
p0
(dp1
S'antagonists'
p2
c__builtin__
set
p3
((lp4
S"(139, u'\\\\bmetoclopramide')"
p5
aS"(52, u'\\\\bmetergoline')"
p6
aS"(27, u'\\\\bspiperone')"
p7
aS"(35, u'\\\\bmetergoline')"
p8
atp9
Rp10
sS'methods'
p11
g3
((lp12
S'Method.ANTAGONIST'
p13
aS'Method.AGONIST'
p14
atp15
Rp16
sS'topics'
p17
g3
((lp18
tp19
Rp20
sS'receptors'
p21
g3
((lp22
S'5ht5'
p23
aS'5ht3'
p24
aS'5ht1'
p25
aS'5ht2a'
p26
atp27
Rp28
sS'regions'
p29
g3
((lp30
S"(2, u'(?i)(medullas|medulla)(-|\\\\s+)?(oblongatas|oblongata)')"
p31
atp32
Rp33
sS'year'
p34
V1989
p35
sS'agonists'
p36
g3
((lp37
S"(195, u'\\\\bphenylbiguanide')"
p38
aS"(181, u'\\\\bdom')"
p39
aS"(190, u'\\\\b2 ?methyl ?5 ?ht')"
p40
aS"(213, u'\\\\bmetoclopramide')"
p41
aS"(161, u'\\\\bmcpp')"
p42
aS"(196, u'\\\\bquipazine')"
p43
aS"(155, u'\\\\bmem')"
p44
atp45
Rp46
sS'species'
p47
g3
((lp48
S"(1070, u'(?i)(pets|pet)')"
p49
aS"(3404, u'(?i)(titis|titi)')"
p50
aS"(2568, u'(?i)(hens|hen)')"
p51
aS"(3137, u'(?i)(iguanids|iguanid)')"
p52
aS"(867, u'(?i)(tits|tit)')"
p53
aS"(5743, u'(?i)(bots|bot)')"
p54
aS"(473, u'(?i)(rabbits|rabbit)')"
p55
aS"(468, u'(?i)(oxen|ox)')"
p56
aS"(1055, u'(?i)(men|man)')"
p57
aS"(4604, u'(?i)(mites|mite)')"
p58
aS"(1349, u'(?i)(rams|ram)')"
p59
aS"(1054, u'(?i)(homoes|homo)')"
p60
aS"(4979, u'(?i)(cats|cat)')"
p61
aS"(3550, u'(?i)(anis|ani)')"
p62
aS"(7094, u'(?i)(curs|cur)')"
p63
aS"(1414, u'(?i)(chars|char)')"
p64
aS"(6391, u'(?i)(asses|ass)')"
p65
aS"(6642, u'(?i)(lions|lion)')"
p66
aS"(6878, u'(?i)(guans|guan)')"
p67
aS"(821, u'(?i)(lice|louse)')"
p68
aS"(6249, u'(?i)(ants|ant)')"
p69
atp70
Rp71
sb.