(ifile_types
ParseObject
p0
(dp1
S'antagonists'
p2
c__builtin__
set
p3
((lp4
S"(128, u'\\\\bmetoclopramide')"
p5
atp6
Rp7
sS'methods'
p8
g3
((lp9
S'Method.ANTAGONIST'
p10
atp11
Rp12
sS'topics'
p13
g3
((lp14
tp15
Rp16
sS'receptors'
p17
g3
((lp18
S'5ht3'
p19
aS'5ht3a'
p20
atp21
Rp22
sS'regions'
p23
g3
((lp24
tp25
Rp26
sS'year'
p27
V1993
p28
sS'agonists'
p29
g3
((lp30
S"(209, u'\\\\bmetoclopramide')"
p31
aS"(149, u'\\\\bmem')"
p32
aS"(192, u'\\\\bquipazine')"
p33
aS"(186, u'\\\\b2 ?methyl ?5 ?ht')"
p34
atp35
Rp36
sS'species'
p37
g3
((lp38
S"(5986, u'(?i)\\\\b(tritons|triton)\\\\b')"
p39
aS"(5958, u'(?i)\\\\b(rats|rat)\\\\b')"
p40
atp41
Rp42
sb.