(ifile_types
ParseObject
p0
(dp1
S'antagonists'
p2
c__builtin__
set
p3
((lp4
S"(43, u'\\\\bgr ?127935')"
p5
aS"(91, u'\\\\bfluoxetine')"
p6
aS"(31, u'\\\\bway ?100635')"
p7
atp8
Rp9
sS'methods'
p10
g3
((lp11
S'Method.ANTAGONIST'
p12
aS'Method.AGONIST'
p13
atp14
Rp15
sS'topics'
p16
g3
((lp17
S"(17, u'\\\\bgroom')"
p18
aS"(4, u'\\\\blocomot')"
p19
atp20
Rp21
sS'receptors'
p22
g3
((lp23
S'5ht1b'
p24
aS'5ht1a'
p25
aS'5ht1d'
p26
atp27
Rp28
sS'regions'
p29
g3
((lp30
S"(71, u'(?i)\\\\b(cerebellums|cerebellum)\\\\b')"
p31
aS"(256, u'(?i)\\\\b(orbitofrontals|orbitofrontal)(-|\\\\s+)?(cortexes|cortex)\\\\b')"
p32
aS"(221, u'(?i)\\\\b(dorsals|dorsal)(-|\\\\s+)?(striatums|striatum)\\\\b')"
p33
aS"(220, u'(?i)\\\\b(striatums|striatum)\\\\b')"
p34
atp35
Rp36
sS'year'
p37
V2016
p38
sS'agonists'
p39
g3
((lp40
S"(67, u'\\\\bru ?24969')"
p41
atp42
Rp43
sS'species'
p44
g3
((lp45
S"(163, u'(?i)\\\\b(mice|mouse)\\\\b')"
p46
atp47
Rp48
sb.