(ifile_types
ParseObject
p0
(dp1
S'antagonists'
p2
c__builtin__
set
p3
((lp4
tp5
Rp6
sS'methods'
p7
g3
((lp8
tp9
Rp10
sS'topics'
p11
g3
((lp12
tp13
Rp14
sS'receptors'
p15
g3
((lp16
S'5ht2a'
p17
atp18
Rp19
sS'regions'
p20
g3
((lp21
tp22
Rp23
sS'year'
p24
V2003
p25
sS'agonists'
p26
g3
((lp27
S"(181, u'\\\\bdom')"
p28
atp29
Rp30
sS'species'
p31
g3
((lp32
S"(2568, u'(?i)(hens|hen)')"
p33
aS"(3527, u'(?i)(permits|permit)')"
p34
aS"(867, u'(?i)(tits|tit)')"
p35
aS"(479, u'(?i)(lings|ling)')"
p36
aS"(468, u'(?i)(oxen|ox)')"
p37
aS"(7094, u'(?i)(curs|cur)')"
p38
aS"(853, u'(?i)(minas|mina)')"
p39
aS"(6249, u'(?i)(ants|ant)')"
p40
aS"(5229, u'(?i)(moles|mole)')"
p41
aS"(3812, u'(?i)(studs|stud)')"
p42
aS"(6391, u'(?i)(asses|ass)')"
p43
atp44
Rp45
sb.