(ifile_types
ParseObject
p0
(dp1
S'methods'
p2
c__builtin__
set
p3
((lp4
S'Method.PET'
p5
atp6
Rp7
sS'topics'
p8
g3
((lp9
S"(22, u'\\\\bschizophreni')"
p10
aS"(14, u'\\\\bcogniti')"
p11
aS"(2, u'\\\\bdisorder')"
p12
aS"(7, u'\\\\bdepressi')"
p13
aS"(23, u'\\\\bantipsychotic')"
p14
aS"(4, u'\\\\btreatment')"
p15
aS"(3, u'\\\\bclinical')"
p16
atp17
Rp18
sS'receptors'
p19
g3
((lp20
(S'5ht1a'
p21
I1690
I1696
tp22
a(S'5ht2a'
p23
I1434
I1440
tp24
a(S'5ht2a'
p25
I883
I889
tp26
a(S'5ht2'
p27
I1265
I1270
tp28
atp29
Rp30
sS'raw_text_methods'
p31
g3
((lp32
S"(17, u'\\\\bpet')"
p33
aS"(19, u'\\\\bpositron emission tomography')"
p34
aS"(18, u'\\\\bimaging')"
p35
atp36
Rp37
sS'regions'
p38
g3
((lp39
tp40
Rp41
sS'year'
p42
V1999
p43
sS'species'
p44
g3
((lp45
tp46
Rp47
sb.