(ifile_types
ParseObject
p0
(dp1
S'methods'
p2
c__builtin__
set
p3
((lp4
S'Method.AGONIST'
p5
atp6
Rp7
sS'topics'
p8
g3
((lp9
S"(24, u'\\\\banxiolytic')"
p10
aS"(8, u'\\\\banxi')"
p11
aS"(9, u'\\\\bstress')"
p12
atp13
Rp14
sS'receptors'
p15
g3
((lp16
(S'5ht7'
p17
I795
I800
tp18
a(S'5ht1a'
p19
I947
I953
tp20
a(S'5ht5a'
p21
I784
I790
tp22
a(S'5ht1a'
p23
I760
I766
tp24
a(S'5ht1a'
p25
I1483
I1489
tp26
a(S'5ht1b'
p27
I768
I774
tp28
a(S'5ht1d'
p29
I776
I782
tp30
a(S'5ht1a'
p31
I541
I547
tp32
a(S'5ht1a'
p33
I854
I860
tp34
atp35
Rp36
sS'raw_text_methods'
p37
g3
((lp38
S"(13, u'\\\\bagonist')"
p39
aS"(16, u'\\\\bdiazepam')"
p40
aS"(36, u'\\\\bbenzodiazepine')"
p41
aS"(39, u'\\\\bselective serotonin reuptake inhibitor')"
p42
atp43
Rp44
sS'regions'
p45
g3
((lp46
S"(20, u'(?i)\\\\b(prefrontals|prefrontal)\\\\b')"
p47
aS"(21, u'(?i)\\\\b(mpfcs|mpfc)\\\\b')"
p48
aS"(19, u'(?i)\\\\b(cortexes|cortex)\\\\b')"
p49
aS"(4, u'(?i)\\\\b(presynaptics|presynaptic)\\\\b')"
p50
aS"(3, u'(?i)\\\\b(postsynaptics|postsynaptic)\\\\b')"
p51
atp52
Rp53
sS'year'
p54
V2015
p55
sS'species'
p56
g3
((lp57
S"(4, u'(?i)\\\\b(rats|rat)\\\\b')"
p58
atp59
Rp60
sb.