(ifile_types
ParseObject
p0
(dp1
S'methods'
p2
c__builtin__
set
p3
((lp4
tp5
Rp6
sS'topics'
p7
g3
((lp8
tp9
Rp10
sS'receptors'
p11
g3
((lp12
(S'5ht4'
p13
I1215
I1220
tp14
a(S'5ht4'
p15
I923
I928
tp16
a(S'5ht4'
p17
I548
I553
tp18
a(S'5ht4'
p19
I1372
I1377
tp20
a(S'5ht4'
p21
I291
I296
tp22
a(S'5ht4'
p23
I64
I69
tp24
a(S'5ht4'
p25
I700
I705
tp26
atp27
Rp28
sS'raw_text_methods'
p29
g3
((lp30
S"(54, u'\\\\bautoradiography')"
p31
atp32
Rp33
sS'regions'
p34
g3
((lp35
S"(15, u'(?i)\\\\b(substantias|substantia)(-|\\\\s+)?(nigras|nigra)\\\\b')"
p36
atp37
Rp38
sS'year'
p39
V1994
p40
sS'species'
p41
g3
((lp42
S"(7, u'(?i)\\\\b(guineas|guinea)(-|\\\\s+)?(pigs|pig)\\\\b')"
p43
aS"(4, u'(?i)\\\\b(rats|rat)\\\\b')"
p44
atp45
Rp46
sb.