(ifile_types
ParseObject
p0
(dp1
S'antagonists'
p2
c__builtin__
set
p3
((lp4
S"(14, u'\\\\bmethiothepin')"
p5
aS"(34, u'\\\\bmetergoline')"
p6
atp7
Rp8
sS'methods'
p9
g3
((lp10
S'Method.AGONIST'
p11
atp12
Rp13
sS'topics'
p14
g3
((lp15
S"(21, u'\\\\bpain')"
p16
atp17
Rp18
sS'receptors'
p19
g3
((lp20
S'5ht1b'
p21
aS'5ht1f'
p22
aS'5ht1d'
p23
atp24
Rp25
sS'regions'
p26
g3
((lp27
tp28
Rp29
sS'year'
p30
V1997
p31
sS'agonists'
p32
g3
((lp33
S"(96, u'\\\\bsumatriptan')"
p34
aS"(149, u'\\\\bmem')"
p35
aS"(219, u'\\\\b5 ?ct')"
p36
atp37
Rp38
sS'species'
p39
g3
((lp40
S"(3196, u'(?i)\\\\b(human|humans)\\\\b')"
p41
aS"(1057, u'(?i)\\\\b(humans|human)\\\\b')"
p42
aS"(3051, u'(?i)\\\\b(pigs|pig)\\\\b')"
p43
aS"(4480, u'(?i)\\\\b(guineas|guinea)(-|\\\\s+)?(pigs|pig)\\\\b')"
p44
aS"(3062, u'(?i)\\\\b(guineas|guinea)\\\\b')"
p45
atp46
Rp47
sb.