(ifile_types
ParseObject
p0
(dp1
S'antagonists'
p2
c__builtin__
set
p3
((lp4
S"(53, u'\\\\bketanserin')"
p5
aS"(128, u'\\\\bketanserin')"
p6
aS"(197, u'\\\\blurasidone')"
p7
aS"(205, u'\\\\bsb ?656104 ?a')"
p8
atp9
Rp10
sS'methods'
p11
g3
((lp12
S'Method.ANTAGONIST'
p13
aS'Method.AGONIST'
p14
atp15
Rp16
sS'topics'
p17
g3
((lp18
S"(15, u'\\\\bschizophreni')"
p19
aS"(8, u'\\\\blearning')"
p20
aS"(7, u'\\\\bmemory')"
p21
atp22
Rp23
sS'receptors'
p24
g3
((lp25
S'5ht7'
p26
aS'5ht7a'
p27
aS'5ht5'
p28
aS'5ht2a'
p29
atp30
Rp31
sS'regions'
p32
g3
((lp33
tp34
Rp35
sS'year'
p36
V2013
p37
sS'agonists'
p38
g3
((lp39
S"(53, u'\\\\blurasidone')"
p40
aS"(226, u'\\\\bas ?19')"
p41
aS"(155, u'\\\\bmem')"
p42
atp43
Rp44
sS'species'
p45
g3
((lp46
S"(2568, u'(?i)(hens|hen)')"
p47
aS"(6753, u'(?i)(da|das)')"
p48
aS"(81, u'(?i)(asps|asp)')"
p49
aS"(1055, u'(?i)(men|man)')"
p50
aS"(6249, u'(?i)(ants|ant)')"
p51
aS"(4964, u'(?i)(serins|serin)')"
p52
aS"(5958, u'(?i)(rats|rat)')"
p53
aS"(3522, u'(?i)(tetras|tetra)')"
p54
aS"(3812, u'(?i)(studs|stud)')"
p55
aS"(6391, u'(?i)(asses|ass)')"
p56
aS"(6356, u'(?i)(ais|ai)')"
p57
atp58
Rp59
sb.