(ifile_types
ParseObject
p0
(dp1
S'antagonists'
p2
c__builtin__
set
p3
((lp4
tp5
Rp6
sS'methods'
p7
g3
((lp8
S'Method.STAINING'
p9
atp10
Rp11
sS'topics'
p12
g3
((lp13
tp14
Rp15
sS'receptors'
p16
g3
((lp17
S'5ht2a'
p18
atp19
Rp20
sS'regions'
p21
g3
((lp22
S"(248, u'(?i)\\\\b(cerebrals|cerebral)(-|\\\\s+)?(cortexes|cortex)\\\\b')"
p23
atp24
Rp25
sS'year'
p26
V1998
p27
sS'agonists'
p28
g3
((lp29
tp30
Rp31
sS'species'
p32
g3
((lp33
S"(2401, u'(?i)\\\\b(primates|primate)\\\\b')"
p34
aS"(6521, u'(?i)\\\\b(macaques|macaque)\\\\b')"
p35
aS"(2341, u'(?i)\\\\b(monkeys|monkey)\\\\b')"
p36
aS"(3152, u'(?i)\\\\b(layers|layer)\\\\b')"
p37
atp38
Rp39
sb.