(ifile_types
ParseObject
p0
(dp1
S'methods'
p2
c__builtin__
set
p3
((lp4
S'Method.ANTAGONIST'
p5
aS'Method.AGONIST'
p6
atp7
Rp8
sS'topics'
p9
g3
((lp10
S"(26, u'\\\\bbehav')"
p11
aS"(27, u'\\\\bdyskinesia')"
p12
aS"(33, u'\\\\blocomot')"
p13
aS"(34, u'\\\\bparkinson')"
p14
aS"(1, u'\\\\bpatient')"
p15
aS"(4, u'\\\\btreatment')"
p16
aS"(3, u'\\\\bclinical')"
p17
atp18
Rp19
sS'receptors'
p20
g3
((lp21
(S'5ht1b'
p22
I1478
I1485
tp23
a(S'5ht1a'
p24
I1478
I1484
tp25
atp26
Rp27
sS'raw_text_methods'
p28
g3
((lp29
S"(13, u'\\\\bagonist')"
p30
aS"(48, u'\\\\bmdma')"
p31
aS"(39, u'\\\\bselective serotonin reuptake inhibitor')"
p32
aS"(12, u'\\\\bantagonist')"
p33
atp34
Rp35
sS'regions'
p36
g3
((lp37
tp38
Rp39
sS'year'
p40
V2003
p41
sS'species'
p42
g3
((lp43
S"(8, u'(?i)\\\\b(primates|primate)\\\\b')"
p44
atp45
Rp46
sb.