(ifile_types
ParseObject
p0
(dp1
S'antagonists'
p2
c__builtin__
set
p3
((lp4
S"(32, u'\\\\bway ?100635')"
p5
aS"(54, u'\\\\britanserin')"
p6
aS"(130, u'\\\\britanserin')"
p7
atp8
Rp9
sS'methods'
p10
g3
((lp11
S'Method.ANTAGONIST'
p12
atp13
Rp14
sS'topics'
p15
g3
((lp16
S"(31, u'\\\\bobesity')"
p17
aS"(16, u'\\\\bfeed')"
p18
atp19
Rp20
sS'receptors'
p21
g3
((lp22
S'5ht1a'
p23
aS'5ht5'
p24
aS'5ht2c'
p25
aS'5ht2a'
p26
atp27
Rp28
sS'regions'
p29
g3
((lp30
S"(362, u'(?i)(brains|brain)(-|\\\\s+)?(stems|stem)')"
p31
aS"(209, u'(?i)(amygdalas|amygdala)')"
p32
aS"(291, u'(?i)(cingulates|cingulate)(-|\\\\s+)?(cortexes|cortex)')"
p33
aS"(159, u'(?i)(paraventriculars|paraventricular)(-|\\\\s+)?(nuclei|nucleus)')"
p34
aS"(126, u'(?i)(thalamuses|thalamus)')"
p35
aS"(223, u'(?i)(putamens|putamen)')"
p36
aS"(34, u'(?i)(pon|pons)')"
p37
atp38
Rp39
sS'year'
p40
V1998
p41
sS'agonists'
p42
g3
((lp43
tp44
Rp45
sS'species'
p46
g3
((lp47
S"(2323, u'(?i)(bees|bee)')"
p48
aS"(6753, u'(?i)(da|das)')"
p49
aS"(5958, u'(?i)(rats|rat)')"
p50
aS"(4979, u'(?i)(cats|cat)')"
p51
aS"(468, u'(?i)(oxen|ox)')"
p52
aS"(3592, u'(?i)(ravens|raven)')"
p53
aS"(1055, u'(?i)(men|man)')"
p54
aS"(4964, u'(?i)(serins|serin)')"
p55
aS"(6249, u'(?i)(ants|ant)')"
p56
aS"(3812, u'(?i)(studs|stud)')"
p57
aS"(1349, u'(?i)(rams|ram)')"
p58
aS"(6325, u'(?i)(caudates|caudate)')"
p59
aS"(6356, u'(?i)(ais|ai)')"
p60
atp61
Rp62
sb.