(ifile_types
ParseObject
p0
(dp1
S'methods'
p2
c__builtin__
set
p3
((lp4
S'Method.PET'
p5
atp6
Rp7
sS'topics'
p8
g3
((lp9
S"(24, u'\\\\banxiolytic')"
p10
aS"(2, u'\\\\bdisorder')"
p11
aS"(20, u'\\\\bmood')"
p12
aS"(8, u'\\\\banxi')"
p13
aS"(4, u'\\\\btreatment')"
p14
aS"(3, u'\\\\bclinical')"
p15
atp16
Rp17
sS'receptors'
p18
g3
((lp19
(S'5ht1a'
p20
I57
I68
tp21
a(S'5ht1a'
p22
I689
I700
tp23
a(S'5ht1a'
p24
I804
I815
tp25
a(S'5ht1a'
p26
I1729
I1740
tp27
a(S'5ht1a'
p28
I1254
I1265
tp29
atp30
Rp31
sS'raw_text_methods'
p32
g3
((lp33
S"(1, u'\\\\bneuroimag')"
p34
aS"(19, u'\\\\bpositron emission tomography')"
p35
aS"(18, u'\\\\bimaging')"
p36
atp37
Rp38
sS'regions'
p39
g3
((lp40
S"(22, u'(?i)\\\\b(anteriors|anterior)(-|\\\\s+)?(cingulates|cingulate)\\\\b')"
p41
aS"(19, u'(?i)\\\\b(cortexes|cortex)\\\\b')"
p42
atp43
Rp44
sS'year'
p45
V2015
p46
sS'species'
p47
g3
((lp48
tp49
Rp50
sb.