(ifile_types
ParseObject
p0
(dp1
S'antagonists'
p2
c__builtin__
set
p3
((lp4
tp5
Rp6
sS'methods'
p7
g3
((lp8
S'Method.PET'
p9
atp10
Rp11
sS'topics'
p12
g3
((lp13
tp14
Rp15
sS'receptors'
p16
g3
((lp17
S'5ht1a'
p18
aS'5ht5'
p19
atp20
Rp21
sS'regions'
p22
g3
((lp23
S"(285, u'(?i)(entorhinals|entorhinal)(-|\\\\s+)?(cortexes|cortex)')"
p24
aS"(254, u'(?i)(prefrontals|prefrontal)(-|\\\\s+)?(cortexes|cortex)')"
p25
aS"(318, u'(?i)(raphes|raphe)(-|\\\\s+)?(nuclei|nucleus)')"
p26
aS"(255, u'(?i)(pres|pre)(-|\\\\s+)?(frontals|frontal)(-|\\\\s+)?(cortexes|cortex)')"
p27
aS"(209, u'(?i)(amygdalas|amygdala)')"
p28
atp29
Rp30
sS'year'
p31
V2009
p32
sS'agonists'
p33
g3
((lp34
tp35
Rp36
sS'species'
p37
g3
((lp38
S"(5537, u'(?i)(hippos|hippo)')"
p39
aS"(2401, u'(?i)(primates|primate)')"
p40
aS"(4163, u'(?i)(ermines|ermine)')"
p41
aS"(3592, u'(?i)(ravens|raven)')"
p42
aS"(7094, u'(?i)(curs|cur)')"
p43
aS"(3812, u'(?i)(studs|stud)')"
p44
aS"(6356, u'(?i)(ais|ai)')"
p45
aS"(3196, u'(?i)(human|humans)')"
p46
aS"(1070, u'(?i)(pets|pet)')"
p47
aS"(468, u'(?i)(oxen|ox)')"
p48
aS"(3550, u'(?i)(anis|ani)')"
p49
aS"(2809, u'(?i)(toms|tom)')"
p50
aS"(513, u'(?i)(uruses|urus)')"
p51
aS"(2670, u'(?i)(arabs|arab)')"
p52
aS"(5958, u'(?i)(rats|rat)')"
p53
aS"(6682, u'(?i)(tera|teras)')"
p54
aS"(1055, u'(?i)(men|man)')"
p55
aS"(6215, u'(?i)(racers|racer)')"
p56
aS"(6753, u'(?i)(da|das)')"
p57
aS"(1057, u'(?i)(humans|human)')"
p58
aS"(4979, u'(?i)(cats|cat)')"
p59
aS"(3726, u'(?i)(mates|mate)')"
p60
atp61
Rp62
sb.