(ifile_types
ParseObject
p0
(dp1
S'antagonists'
p2
c__builtin__
set
p3
((lp4
tp5
Rp6
sS'methods'
p7
g3
((lp8
S'Method.AGONIST'
p9
atp10
Rp11
sS'topics'
p12
g3
((lp13
S"(4, u'\\\\blocomot')"
p14
atp15
Rp16
sS'receptors'
p17
g3
((lp18
S'5ht1a'
p19
atp20
Rp21
sS'regions'
p22
g3
((lp23
tp24
Rp25
sS'year'
p26
V1989
p27
sS'agonists'
p28
g3
((lp29
S"(92, u'\\\\b8 ?oh ?dpat')"
p30
atp31
Rp32
sS'species'
p33
g3
((lp34
S"(2054, u'(?i)(heads|head)')"
p35
aS"(5958, u'(?i)(rats|rat)')"
p36
aS"(6753, u'(?i)(da|das)')"
p37
aS"(468, u'(?i)(oxen|ox)')"
p38
aS"(7094, u'(?i)(curs|cur)')"
p39
aS"(4979, u'(?i)(cats|cat)')"
p40
aS"(3522, u'(?i)(tetras|tetra)')"
p41
aS"(1961, u'(?i)(pens|pen)')"
p42
aS"(1414, u'(?i)(chars|char)')"
p43
aS"(6356, u'(?i)(ais|ai)')"
p44
atp45
Rp46
sb.