(ifile_types
ParseObject
p0
(dp1
S'antagonists'
p2
c__builtin__
set
p3
((lp4
tp5
Rp6
sS'methods'
p7
g3
((lp8
S'Method.AGONIST'
p9
atp10
Rp11
sS'topics'
p12
g3
((lp13
tp14
Rp15
sS'receptors'
p16
g3
((lp17
S'5ht2c'
p18
aS'5ht2a'
p19
atp20
Rp21
sS'regions'
p22
g3
((lp23
S"(220, u'(?i)(striatums|striatum)')"
p24
aS"(226, u'(?i)(nuclei|nucleus)(-|\\\\s+)?(accumben|accumbens)')"
p25
atp26
Rp27
sS'year'
p28
V1995
p29
sS'agonists'
p30
g3
((lp31
S"(14, u'\\\\bamphetamine')"
p32
aS"(33, u'\\\\bdoi')"
p33
atp34
Rp35
sS'species'
p36
g3
((lp37
S"(2568, u'(?i)(hens|hen)')"
p38
aS"(5958, u'(?i)(rats|rat)')"
p39
aS"(6753, u'(?i)(da|das)')"
p40
aS"(468, u'(?i)(oxen|ox)')"
p41
aS"(1055, u'(?i)(men|man)')"
p42
aS"(6249, u'(?i)(ants|ant)')"
p43
aS"(1349, u'(?i)(rams|ram)')"
p44
aS"(5743, u'(?i)(bots|bot)')"
p45
aS"(3550, u'(?i)(anis|ani)')"
p46
aS"(6356, u'(?i)(ais|ai)')"
p47
atp48
Rp49
sb.