(ifile_types
ParseObject
p0
(dp1
S'antagonists'
p2
c__builtin__
set
p3
((lp4
tp5
Rp6
sS'methods'
p7
g3
((lp8
S'Method.KNOCKOUT'
p9
aS'Method.ANTAGONIST'
p10
aS'Method.AGONIST'
p11
atp12
Rp13
sS'topics'
p14
g3
((lp15
S"(8, u'\\\\blearning')"
p16
aS"(7, u'\\\\bmemory')"
p17
aS"(3, u'\\\\bsleep')"
p18
aS"(9, u'\\\\bdepress')"
p19
aS"(1, u'\\\\bmood')"
p20
atp21
Rp22
sS'receptors'
p23
g3
((lp24
S'5ht7'
p25
atp26
Rp27
sS'regions'
p28
g3
((lp29
S"(126, u'(?i)\\\\b(thalamuses|thalamus)\\\\b')"
p30
atp31
Rp32
sS'year'
p33
V2004
p34
sS'agonists'
p35
g3
((lp36
S"(149, u'\\\\bmem')"
p37
atp38
Rp39
sS'species'
p40
g3
((lp41
S"(163, u'(?i)\\\\b(mice|mouse)\\\\b')"
p42
atp43
Rp44
sb.