(ifile_types
ParseObject
p0
(dp1
S'methods'
p2
c__builtin__
set
p3
((lp4
S'Method.ANTAGONIST'
p5
atp6
Rp7
sS'topics'
p8
g3
((lp9
S"(26, u'\\\\bbehav')"
p10
atp11
Rp12
sS'receptors'
p13
g3
((lp14
(S'5ht3'
p15
I1474
I1479
tp16
a(S'5ht3'
p17
I491
I496
tp18
a(S'5ht3'
p19
I32
I37
tp20
a(S'5ht3'
p21
I1763
I1768
tp22
a(S'5ht3'
p23
I591
I596
tp24
a(S'5ht3'
p25
I280
I285
tp26
atp27
Rp28
sS'raw_text_methods'
p29
g3
((lp30
S"(23, u'\\\\bmdl')"
p31
aS"(12, u'\\\\bantagonist')"
p32
atp33
Rp34
sS'regions'
p35
g3
((lp36
tp37
Rp38
sS'year'
p39
V2002
p40
sS'species'
p41
g3
((lp42
S"(4, u'(?i)\\\\b(rats|rat)\\\\b')"
p43
atp44
Rp45
sb.