(ifile_types
ParseObject
p0
(dp1
S'methods'
p2
c__builtin__
set
p3
((lp4
S'Method.AGONIST'
p5
atp6
Rp7
sS'topics'
p8
g3
((lp9
S"(4, u'\\\\btreatment')"
p10
atp11
Rp12
sS'receptors'
p13
g3
((lp14
(S'5ht1a'
p15
I1590
I1596
tp16
a(S'5ht1a'
p17
I1108
I1114
tp18
a(S'5ht1a'
p19
I870
I876
tp20
a(S'5ht1'
p21
I1289
I1294
tp22
a(S'5ht1a'
p23
I316
I322
tp24
atp25
Rp26
sS'raw_text_methods'
p27
g3
((lp28
S"(13, u'\\\\bagonist')"
p29
atp30
Rp31
sS'regions'
p32
g3
((lp33
tp34
Rp35
sS'year'
p36
V2006
p37
sS'species'
p38
g3
((lp39
S"(1, u'(?i)\\\\b(mice|mouse)\\\\b')"
p40
aS"(5, u'(?i)\\\\b(mices|mice)\\\\b')"
p41
atp42
Rp43
sb.