(ifile_types
ParseObject
p0
(dp1
S'methods'
p2
c__builtin__
set
p3
((lp4
S'Method.ANTAGONIST'
p5
aS'Method.AGONIST'
p6
atp7
Rp8
sS'topics'
p9
g3
((lp10
S"(23, u'\\\\bantipsychotic')"
p11
atp12
Rp13
sS'receptors'
p14
g3
((lp15
(S'5ht6'
p16
I852
I857
tp17
a(S'5ht6'
p18
I536
I541
tp19
a(S'5ht1'
p20
I525
I531
tp21
a(S'5ht1a'
p22
I140
I146
tp23
a(S'5ht6'
p24
I129
I134
tp25
a(S'5ht6'
p26
I575
I580
tp27
a(S'5ht6'
p28
I1286
I1291
tp29
a(S'5ht1a'
p30
I525
I531
tp31
a(S'5ht1'
p32
I1212
I1217
tp33
atp34
Rp35
sS'raw_text_methods'
p36
g3
((lp37
S"(13, u'\\\\bagonist')"
p38
aS"(15, u'\\\\b8ohdpat')"
p39
atp40
Rp41
sS'regions'
p42
g3
((lp43
tp44
Rp45
sS'year'
p46
V2003
p47
sS'species'
p48
g3
((lp49
tp50
Rp51
sb.