(ifile_types
ParseObject
p0
(dp1
S'antagonists'
p2
c__builtin__
set
p3
((lp4
S"(53, u'\\\\bketanserin')"
p5
aS"(108, u'\\\\brs ?102221')"
p6
aS"(128, u'\\\\bketanserin')"
p7
atp8
Rp9
sS'methods'
p10
g3
((lp11
S'Method.ANTAGONIST'
p12
atp13
Rp14
sS'topics'
p15
g3
((lp16
tp17
Rp18
sS'receptors'
p19
g3
((lp20
S'5ht5'
p21
aS'5ht2c'
p22
aS'5ht2a'
p23
atp24
Rp25
sS'regions'
p26
g3
((lp27
S"(362, u'(?i)(brains|brain)(-|\\\\s+)?(stems|stem)')"
p28
atp29
Rp30
sS'year'
p31
V2006
p32
sS'agonists'
p33
g3
((lp34
tp35
Rp36
sS'species'
p37
g3
((lp38
S"(1070, u'(?i)(pets|pet)')"
p39
aS"(6753, u'(?i)(da|das)')"
p40
aS"(5958, u'(?i)(rats|rat)')"
p41
aS"(867, u'(?i)(tits|tit)')"
p42
aS"(4964, u'(?i)(serins|serin)')"
p43
aS"(479, u'(?i)(lings|ling)')"
p44
aS"(4163, u'(?i)(ermines|ermine)')"
p45
aS"(1349, u'(?i)(rams|ram)')"
p46
aS"(3726, u'(?i)(mates|mate)')"
p47
aS"(3404, u'(?i)(titis|titi)')"
p48
aS"(853, u'(?i)(minas|mina)')"
p49
aS"(6249, u'(?i)(ants|ant)')"
p50
aS"(7094, u'(?i)(curs|cur)')"
p51
aS"(6356, u'(?i)(ais|ai)')"
p52
aS"(6391, u'(?i)(asses|ass)')"
p53
aS"(5949, u'(?i)(dogs|dog)')"
p54
aS"(1795, u'(?i)(mounts|mount)')"
p55
aS"(5743, u'(?i)(bots|bot)')"
p56
aS"(4979, u'(?i)(cats|cat)')"
p57
aS"(4133, u'(?i)(pikes|pike)')"
p58
atp59
Rp60
sb.