(ifile_types
ParseObject
p0
(dp1
S'methods'
p2
c__builtin__
set
p3
((lp4
S'Method.ANTAGONIST'
p5
atp6
Rp7
sS'topics'
p8
g3
((lp9
tp10
Rp11
sS'receptors'
p12
g3
((lp13
(S'5ht3'
p14
I37
I42
tp15
a(S'5ht3'
p16
I392
I397
tp17
atp18
Rp19
sS'raw_text_methods'
p20
g3
((lp21
S"(12, u'\\\\bantagonist')"
p22
atp23
Rp24
sS'regions'
p25
g3
((lp26
S"(8, u'(?i)\\\\b(centrals|central)(-|\\\\s+)?(nervouses|nervous)(-|\\\\s+)?(systems|system)\\\\b')"
p27
aS"(19, u'(?i)\\\\b(cortexes|cortex)\\\\b')"
p28
aS"(7, u'(?i)\\\\b(entorhinals|entorhinal)\\\\b')"
p29
atp30
Rp31
sS'year'
p32
V1992
p33
sS'species'
p34
g3
((lp35
S"(4, u'(?i)\\\\b(rats|rat)\\\\b')"
p36
atp37
Rp38
sb.