(ifile_types
ParseObject
p0
(dp1
S'methods'
p2
c__builtin__
set
p3
((lp4
S'Method.ANTAGONIST'
p5
atp6
Rp7
sS'topics'
p8
g3
((lp9
S"(13, u'\\\\bantidepress')"
p10
atp11
Rp12
sS'receptors'
p13
g3
((lp14
(S'5ht3'
p15
I897
I902
tp16
a(S'5ht3'
p17
I1812
I1817
tp18
a(S'5ht2c'
p19
I830
I838
tp20
a(S'5ht2c'
p21
I79
I86
tp22
a(S'5ht3'
p23
I92
I97
tp24
a(S'5ht1a'
p25
I1310
I1316
tp26
a(S'5ht2c'
p27
I1798
I1806
tp28
a(S'5ht2a'
p29
I830
I836
tp30
a(S'5ht2a'
p31
I1798
I1804
tp32
a(S'5ht2a'
p33
I79
I85
tp34
atp35
Rp36
sS'raw_text_methods'
p37
g3
((lp38
S"(53, u'\\\\bketanserin')"
p39
aS"(7, u'\\\\bpropranolol')"
p40
aS"(4, u'\\\\bpcpa')"
p41
aS"(12, u'\\\\bantagonist')"
p42
aS"(11, u'\\\\bfluoxetine')"
p43
atp44
Rp45
sS'regions'
p46
g3
((lp47
tp48
Rp49
sS'year'
p50
V2010
p51
sS'species'
p52
g3
((lp53
S"(1, u'(?i)\\\\b(mice|mouse)\\\\b')"
p54
aS"(6, u'(?i)\\\\b(rodents|rodent)\\\\b')"
p55
aS"(5, u'(?i)\\\\b(mices|mice)\\\\b')"
p56
atp57
Rp58
sb.