(ifile_types
ParseObject
p0
(dp1
S'antagonists'
p2
c__builtin__
set
p3
((lp4
tp5
Rp6
sS'methods'
p7
g3
((lp8
S'Method.AGONIST'
p9
atp10
Rp11
sS'topics'
p12
g3
((lp13
S"(10, u'\\\\banxiety')"
p14
atp15
Rp16
sS'receptors'
p17
g3
((lp18
S'5ht1c'
p19
aS'5ht1b'
p20
aS'5ht1a'
p21
atp22
Rp23
sS'regions'
p24
g3
((lp25
tp26
Rp27
sS'year'
p28
V1992
p29
sS'agonists'
p30
g3
((lp31
S"(20, u'\\\\bbuspirone')"
p32
aS"(45, u'\\\\bipsapirone')"
p33
aS"(155, u'\\\\bmcpp')"
p34
aS"(85, u'\\\\b8 ?oh ?dpat')"
p35
aS"(42, u'\\\\bgepirone')"
p36
atp37
Rp38
sS'species'
p39
g3
((lp40
S"(5958, u'(?i)\\\\b(rats|rat)\\\\b')"
p41
atp42
Rp43
sb.