(ifile_types
ParseObject
p0
(dp1
S'antagonists'
p2
c__builtin__
set
p3
((lp4
S"(23, u'\\\\brisperidone')"
p5
aS"(200, u'\\\\bmesulergine')"
p6
aS"(130, u'\\\\britanserin')"
p7
aS"(52, u'\\\\bmetergoline')"
p8
aS"(21, u'\\\\bpindolol')"
p9
aS"(54, u'\\\\britanserin')"
p10
aS"(59, u'\\\\brisperidone')"
p11
aS"(35, u'\\\\bmetergoline')"
p12
atp13
Rp14
sS'methods'
p15
g3
((lp16
S'Method.ANTAGONIST'
p17
atp18
Rp19
sS'topics'
p20
g3
((lp21
tp22
Rp23
sS'receptors'
p24
g3
((lp25
S'5ht7'
p26
aS'5ht5'
p27
aS'5ht7b'
p28
aS'5ht2c'
p29
aS'5ht2a'
p30
atp31
Rp32
sS'regions'
p33
g3
((lp34
tp35
Rp36
sS'year'
p37
V2000
p38
sS'agonists'
p39
g3
((lp40
S"(105, u'\\\\b5 ?carboxamidotryptamine')"
p41
aS"(5, u'\\\\b5 ?ct')"
p42
aS"(56, u'\\\\blsd')"
p43
aS"(171, u'\\\\bmesulergine')"
p44
aS"(55, u'\\\\blysergic acid diethylamide')"
p45
aS"(92, u'\\\\b8 ?oh ?dpat')"
p46
atp47
Rp48
sS'species'
p49
g3
((lp50
S"(2323, u'(?i)(bees|bee)')"
p51
aS"(6753, u'(?i)(da|das)')"
p52
aS"(5958, u'(?i)(rats|rat)')"
p53
aS"(6356, u'(?i)(ais|ai)')"
p54
aS"(163, u'(?i)(mice|mouse)')"
p55
aS"(468, u'(?i)(oxen|ox)')"
p56
aS"(1055, u'(?i)(men|man)')"
p57
aS"(1054, u'(?i)(homoes|homo)')"
p58
aS"(3812, u'(?i)(studs|stud)')"
p59
aS"(6249, u'(?i)(ants|ant)')"
p60
aS"(3522, u'(?i)(tetras|tetra)')"
p61
aS"(1414, u'(?i)(chars|char)')"
p62
aS"(4979, u'(?i)(cats|cat)')"
p63
aS"(4964, u'(?i)(serins|serin)')"
p64
atp65
Rp66
sb.