(ifile_types
ParseObject
p0
(dp1
S'antagonists'
p2
c__builtin__
set
p3
((lp4
tp5
Rp6
sS'methods'
p7
g3
((lp8
S'Method.ANTAGONIST'
p9
aS'Method.AGONIST'
p10
atp11
Rp12
sS'topics'
p13
g3
((lp14
tp15
Rp16
sS'receptors'
p17
g3
((lp18
S'5ht3a'
p19
aS'5ht1a'
p20
aS'5ht3'
p21
aS'5ht1'
p22
atp23
Rp24
sS'regions'
p25
g3
((lp26
tp27
Rp28
sS'year'
p29
V2000
p30
sS'agonists'
p31
g3
((lp32
S"(200, u'\\\\bym ?31636')"
p33
atp34
Rp35
sS'species'
p36
g3
((lp37
S"(5958, u'(?i)(rats|rat)')"
p38
aS"(1055, u'(?i)(men|man)')"
p39
aS"(6753, u'(?i)(da|das)')"
p40
aS"(3051, u'(?i)(pigs|pig)')"
p41
aS"(468, u'(?i)(oxen|ox)')"
p42
aS"(3062, u'(?i)(guineas|guinea)')"
p43
aS"(3726, u'(?i)(mates|mate)')"
p44
aS"(1349, u'(?i)(rams|ram)')"
p45
aS"(6744, u'(?i)(maras|mara)')"
p46
aS"(7094, u'(?i)(curs|cur)')"
p47
aS"(6249, u'(?i)(ants|ant)')"
p48
aS"(1057, u'(?i)(humans|human)')"
p49
aS"(3196, u'(?i)(human|humans)')"
p50
aS"(4480, u'(?i)(guineas|guinea)(-|\\\\s+)?(pigs|pig)')"
p51
atp52
Rp53
sb.