(ifile_types
ParseObject
p0
(dp1
S'methods'
p2
c__builtin__
set
p3
((lp4
S'Method.PET'
p5
atp6
Rp7
sS'topics'
p8
g3
((lp9
tp10
Rp11
sS'receptors'
p12
g3
((lp13
(S'5ht1a'
p14
I339
I350
tp15
a(S'5ht1a'
p16
I83
I89
tp17
a(S'5ht1a'
p18
I919
I925
tp19
a(S'5ht1a'
p20
I362
I368
tp21
atp22
Rp23
sS'raw_text_methods'
p24
g3
((lp25
S"(1, u'\\\\bneuroimag')"
p26
aS"(17, u'\\\\bpet')"
p27
aS"(19, u'\\\\bpositron emission tomography')"
p28
aS"(18, u'\\\\bimaging')"
p29
aS"(54, u'\\\\bautoradiography')"
p30
atp31
Rp32
sS'regions'
p33
g3
((lp34
S"(13, u'(?i)\\\\b(septums|septum)\\\\b')"
p35
aS"(19, u'(?i)\\\\b(cortexes|cortex)\\\\b')"
p36
aS"(9, u'(?i)\\\\b(cerebellums|cerebellum)\\\\b')"
p37
atp38
Rp39
sS'year'
p40
V2006
p41
sS'species'
p42
g3
((lp43
tp44
Rp45
sb.