(ifile_types
ParseObject
p0
(dp1
S'antagonists'
p2
c__builtin__
set
p3
((lp4
S"(118, u'\\\\bly ?53857')"
p5
aS"(203, u'\\\\btfmpp')"
p6
aS"(34, u'\\\\bmetergoline')"
p7
aS"(21, u'\\\\bpindolol')"
p8
aS"(117, u'\\\\bketanserin')"
p9
atp10
Rp11
sS'methods'
p12
g3
((lp13
S'Method.ANTAGONIST'
p14
aS'Method.AGONIST'
p15
atp16
Rp17
sS'topics'
p18
g3
((lp19
tp20
Rp21
sS'receptors'
p22
g3
((lp23
S'5ht1a'
p24
atp25
Rp26
sS'regions'
p27
g3
((lp28
S"(2, u'(?i)\\\\b(medullas|medulla)(-|\\\\s+)?(oblongatas|oblongata)\\\\b')"
p29
atp30
Rp31
sS'year'
p32
V1995
p33
sS'agonists'
p34
g3
((lp35
S"(178, u'\\\\btfmpp')"
p36
aS"(192, u'\\\\bquipazine')"
p37
aS"(85, u'\\\\b8 ?oh ?dpat')"
p38
atp39
Rp40
sS'species'
p41
g3
((lp42
S"(5958, u'(?i)\\\\b(rats|rat)\\\\b')"
p43
atp44
Rp45
sb.