(ifile_types
ParseObject
p0
(dp1
S'antagonists'
p2
c__builtin__
set
p3
((lp4
S"(38, u'\\\\bsb ?216641')"
p5
aS"(45, u'\\\\bgr ?127935')"
p6
atp7
Rp8
sS'methods'
p9
g3
((lp10
S'Method.ANTAGONIST'
p11
atp12
Rp13
sS'topics'
p14
g3
((lp15
S"(26, u'\\\\bcardiovascular')"
p16
atp17
Rp18
sS'receptors'
p19
g3
((lp20
S'5ht1b'
p21
aS'5ht1d'
p22
aS'5ht5c'
p23
aS'5ht1f'
p24
aS'5ht5f'
p25
atp26
Rp27
sS'regions'
p28
g3
((lp29
S"(34, u'(?i)(pon|pons)')"
p30
atp31
Rp32
sS'year'
p33
V2004
p34
sS'agonists'
p35
g3
((lp36
S"(103, u'\\\\bsumatriptan')"
p37
aS"(105, u'\\\\b5 ?carboxamidotryptamine')"
p38
aS"(5, u'\\\\b5 ?ct')"
p39
aS"(104, u'\\\\bzolmitriptan')"
p40
atp41
Rp42
sS'species'
p43
g3
((lp44
S"(6249, u'(?i)(ants|ant)')"
p45
aS"(2568, u'(?i)(hens|hen)')"
p46
aS"(6356, u'(?i)(ais|ai)')"
p47
aS"(3767, u'(?i)(olms|olm)')"
p48
aS"(3051, u'(?i)(pigs|pig)')"
p49
aS"(468, u'(?i)(oxen|ox)')"
p50
aS"(1055, u'(?i)(men|man)')"
p51
aS"(3726, u'(?i)(mates|mate)')"
p52
aS"(107, u'(?i)(stags|stag)')"
p53
aS"(3062, u'(?i)(guineas|guinea)')"
p54
aS"(5958, u'(?i)(rats|rat)')"
p55
aS"(7094, u'(?i)(curs|cur)')"
p56
aS"(1291, u'(?i)(ratels|ratel)')"
p57
aS"(1414, u'(?i)(chars|char)')"
p58
aS"(4480, u'(?i)(guineas|guinea)(-|\\\\s+)?(pigs|pig)')"
p59
aS"(3812, u'(?i)(studs|stud)')"
p60
atp61
Rp62
sb.