(ifile_types
ParseObject
p0
(dp1
S'antagonists'
p2
c__builtin__
set
p3
((lp4
S"(173, u'\\\\blu ae58054')"
p5
aS"(172, u'\\\\bidalopirdine')"
p6
atp7
Rp8
sS'methods'
p9
g3
((lp10
S'Method.STIMULATION'
p11
aS'Method.ANTAGONIST'
p12
atp13
Rp14
sS'topics'
p15
g3
((lp16
S"(33, u'\\\\balzheimers')"
p17
aS"(6, u'\\\\bcognit')"
p18
atp19
Rp20
sS'receptors'
p21
g3
((lp22
S'5ht6'
p23
atp24
Rp25
sS'regions'
p26
g3
((lp27
S"(362, u'(?i)(brains|brain)(-|\\\\s+)?(stems|stem)')"
p28
aS"(34, u'(?i)(pon|pons)')"
p29
atp30
Rp31
sS'year'
p32
V2016
p33
sS'agonists'
p34
g3
((lp35
tp36
Rp37
sS'species'
p38
g3
((lp39
S"(2103, u'(?i)(nesters|nester)')"
p40
aS"(5537, u'(?i)(hippos|hippo)')"
p41
aS"(6753, u'(?i)(da|das)')"
p42
aS"(1628, u'(?i)(cod|cod)')"
p43
aS"(4201, u'(?i)(kines|kine)')"
p44
aS"(6682, u'(?i)(tera|teras)')"
p45
aS"(1055, u'(?i)(men|man)')"
p46
aS"(6249, u'(?i)(ants|ant)')"
p47
aS"(2334, u'(?i)(eels|eel)')"
p48
aS"(6356, u'(?i)(ais|ai)')"
p49
aS"(5958, u'(?i)(rats|rat)')"
p50
aS"(5917, u'(?i)(roaches|roach)')"
p51
aS"(1961, u'(?i)(pens|pen)')"
p52
aS"(3812, u'(?i)(studs|stud)')"
p53
aS"(6391, u'(?i)(asses|ass)')"
p54
aS"(2809, u'(?i)(toms|tom)')"
p55
atp56
Rp57
sb.