(ifile_types
ParseObject
p0
(dp1
S'methods'
p2
c__builtin__
set
p3
((lp4
S'Method.ANTAGONIST'
p5
aS'Method.AGONIST'
p6
atp7
Rp8
sS'topics'
p9
g3
((lp10
tp11
Rp12
sS'receptors'
p13
g3
((lp14
(S'5ht1a'
p15
I1458
I1464
tp16
a(S'5ht1a'
p17
I749
I755
tp18
a(S'5ht1a'
p19
I834
I840
tp20
a(S'5ht1a'
p21
I1589
I1595
tp22
a(S'5ht1a'
p23
I400
I406
tp24
atp25
Rp26
sS'raw_text_methods'
p27
g3
((lp28
S"(13, u'\\\\bagonist')"
p29
aS"(15, u'\\\\b8ohdpat')"
p30
aS"(44, u'\\\\btetrodotoxin')"
p31
aS"(51, u'\\\\bway100635')"
p32
aS"(12, u'\\\\bantagonist')"
p33
atp34
Rp35
sS'regions'
p36
g3
((lp37
tp38
Rp39
sS'year'
p40
V1998
p41
sS'species'
p42
g3
((lp43
S"(4, u'(?i)\\\\b(rats|rat)\\\\b')"
p44
atp45
Rp46
sb.