(ifile_types
ParseObject
p0
(dp1
S'methods'
p2
c__builtin__
set
p3
((lp4
S'Method.ANTAGONIST'
p5
aS'Method.AGONIST'
p6
atp7
Rp8
sS'topics'
p9
g3
((lp10
S"(24, u'\\\\banxiolytic')"
p11
aS"(8, u'\\\\banxi')"
p12
atp13
Rp14
sS'receptors'
p15
g3
((lp16
(S'5ht3'
p17
I2606
I2611
tp18
a(S'5ht1b'
p19
I1842
I1848
tp20
a(S'5ht2c'
p21
I1842
I1850
tp22
atp23
Rp24
sS'raw_text_methods'
p25
g3
((lp26
S"(16, u'\\\\bdiazepam')"
p27
aS"(36, u'\\\\bbenzodiazepine')"
p28
aS"(31, u'\\\\bbenzodiazepines')"
p29
aS"(13, u'\\\\bagonist')"
p30
aS"(11, u'\\\\bfluoxetine')"
p31
aS"(12, u'\\\\bantagonist')"
p32
atp33
Rp34
sS'regions'
p35
g3
((lp36
tp37
Rp38
sS'year'
p39
V1999
p40
sS'species'
p41
g3
((lp42
tp43
Rp44
sb.