(ifile_types
ParseObject
p0
(dp1
S'antagonists'
p2
c__builtin__
set
p3
((lp4
tp5
Rp6
sS'methods'
p7
g3
((lp8
S'Method.ANTAGONIST'
p9
aS'Method.AGONIST'
p10
atp11
Rp12
sS'topics'
p13
g3
((lp14
tp15
Rp16
sS'receptors'
p17
g3
((lp18
S'5ht1b'
p19
aS'5ht5'
p20
aS'5ht1d'
p21
aS'5ht2'
p22
aS'5ht2a'
p23
atp24
Rp25
sS'regions'
p26
g3
((lp27
tp28
Rp29
sS'year'
p30
V1992
p31
sS'agonists'
p32
g3
((lp33
S"(181, u'\\\\bdom')"
p34
atp35
Rp36
sS'species'
p37
g3
((lp38
S"(2323, u'(?i)(bees|bee)')"
p39
aS"(2568, u'(?i)(hens|hen)')"
p40
aS"(4979, u'(?i)(cats|cat)')"
p41
aS"(5035, u'(?i)(harts|hart)')"
p42
aS"(1055, u'(?i)(men|man)')"
p43
aS"(6249, u'(?i)(ants|ant)')"
p44
aS"(1054, u'(?i)(homoes|homo)')"
p45
aS"(3812, u'(?i)(studs|stud)')"
p46
aS"(73, u'(?i)(royals|royal)')"
p47
aS"(5958, u'(?i)(rats|rat)')"
p48
aS"(1057, u'(?i)(humans|human)')"
p49
aS"(1414, u'(?i)(chars|char)')"
p50
aS"(3196, u'(?i)(human|humans)')"
p51
aS"(6356, u'(?i)(ais|ai)')"
p52
atp53
Rp54
sb.