(ifile_types
ParseObject
p0
(dp1
S'methods'
p2
c__builtin__
set
p3
((lp4
S'Method.KNOCKDOWN'
p5
aS'Method.KNOCKOUT'
p6
atp7
Rp8
sS'topics'
p9
g3
((lp10
S"(13, u'\\\\bantidepress')"
p11
aS"(26, u'\\\\bbehav')"
p12
aS"(7, u'\\\\bdepressi')"
p13
aS"(9, u'\\\\bstress')"
p14
atp15
Rp16
sS'receptors'
p17
g3
((lp18
(S'5ht1a'
p19
I977
I983
tp20
a(S'5ht4'
p21
I1132
I1137
tp22
a(S'5ht4'
p23
I1076
I1080
tp24
a(S'5ht4'
p25
I1039
I1044
tp26
a(S'5ht4'
p27
I806
I816
tp28
a(S'5ht4'
p29
I828
I833
tp30
a(S'5ht1'
p31
I1167
I1171
tp32
a(S'5ht4'
p33
I62
I67
tp34
atp35
Rp36
sS'raw_text_methods'
p37
g3
((lp38
S"(14, u'\\\\bknockdown')"
p39
atp40
Rp41
sS'regions'
p42
g3
((lp43
S"(20, u'(?i)\\\\b(prefrontals|prefrontal)\\\\b')"
p44
aS"(21, u'(?i)\\\\b(mpfcs|mpfc)\\\\b')"
p45
aS"(19, u'(?i)\\\\b(cortexes|cortex)\\\\b')"
p46
atp47
Rp48
sS'year'
p49
V2017
p50
sS'species'
p51
g3
((lp52
S"(1, u'(?i)\\\\b(mice|mouse)\\\\b')"
p53
aS"(5, u'(?i)\\\\b(mices|mice)\\\\b')"
p54
atp55
Rp56
sb.