(ifile_types
ParseObject
p0
(dp1
S'methods'
p2
c__builtin__
set
p3
((lp4
S'Method.ANTAGONIST'
p5
aS'Method.IMMUNOHISTOCHEMISTRY'
p6
atp7
Rp8
sS'topics'
p9
g3
((lp10
S"(30, u'\\\\bpain')"
p11
aS"(35, u'\\\\bnocicept')"
p12
aS"(4, u'\\\\btreatment')"
p13
aS"(3, u'\\\\bclinical')"
p14
atp15
Rp16
sS'receptors'
p17
g3
((lp18
(S'5ht3'
p19
I1492
I1497
tp20
a(S'5ht3'
p21
I896
I901
tp22
atp23
Rp24
sS'raw_text_methods'
p25
g3
((lp26
S"(20, u'\\\\bondansetron')"
p27
aS"(12, u'\\\\bantagonist')"
p28
atp29
Rp30
sS'regions'
p31
g3
((lp32
tp33
Rp34
sS'year'
p35
V2019
p36
sS'species'
p37
g3
((lp38
S"(4, u'(?i)\\\\b(rats|rat)\\\\b')"
p39
atp40
Rp41
sb.