(ifile_types
ParseObject
p0
(dp1
S'methods'
p2
c__builtin__
set
p3
((lp4
S'Method.ANTAGONIST'
p5
atp6
Rp7
sS'topics'
p8
g3
((lp9
tp10
Rp11
sS'receptors'
p12
g3
((lp13
(S'5ht3'
p14
I57
I62
tp15
a(S'5ht3'
p16
I1729
I1734
tp17
a(S'5ht3'
p18
I223
I228
tp19
a(S'5ht3'
p20
I2049
I2054
tp21
a(S'5ht3'
p22
I893
I898
tp23
a(S'5ht3'
p24
I2492
I2497
tp25
a(S'5ht3'
p26
I1100
I1105
tp27
a(S'5ht3'
p28
I2415
I2420
tp29
a(S'5ht3'
p30
I279
I284
tp31
a(S'5ht3'
p32
I2271
I2276
tp33
atp34
Rp35
sS'raw_text_methods'
p36
g3
((lp37
S"(20, u'\\\\bondansetron')"
p38
aS"(12, u'\\\\bantagonist')"
p39
atp40
Rp41
sS'regions'
p42
g3
((lp43
S"(11, u'(?i)\\\\b(cerebrals|cerebral)\\\\b')"
p44
aS"(19, u'(?i)\\\\b(cortexes|cortex)\\\\b')"
p45
aS"(7, u'(?i)\\\\b(entorhinals|entorhinal)\\\\b')"
p46
atp47
Rp48
sS'year'
p49
V1993
p50
sS'species'
p51
g3
((lp52
S"(4, u'(?i)\\\\b(rats|rat)\\\\b')"
p53
atp54
Rp55
sb.