(ifile_types
ParseObject
p0
(dp1
S'antagonists'
p2
c__builtin__
set
p3
((lp4
tp5
Rp6
sS'methods'
p7
g3
((lp8
tp9
Rp10
sS'topics'
p11
g3
((lp12
tp13
Rp14
sS'receptors'
p15
g3
((lp16
S'5ht7'
p17
atp18
Rp19
sS'regions'
p20
g3
((lp21
S"(271, u'(?i)(v2s|v2)')"
p22
atp23
Rp24
sS'year'
p25
V2016
p26
sS'agonists'
p27
g3
((lp28
tp29
Rp30
sS'species'
p31
g3
((lp32
S"(2323, u'(?i)(bees|bee)')"
p33
aS"(2568, u'(?i)(hens|hen)')"
p34
aS"(1667, u'(?i)(polyps|polyp)')"
p35
aS"(702, u'(?i)(genets|genet)')"
p36
aS"(6753, u'(?i)(da|das)')"
p37
aS"(6249, u'(?i)(ants|ant)')"
p38
aS"(6682, u'(?i)(tera|teras)')"
p39
aS"(1055, u'(?i)(men|man)')"
p40
aS"(3726, u'(?i)(mates|mate)')"
p41
aS"(6580, u'(?i)(dams|dam)')"
p42
aS"(6356, u'(?i)(ais|ai)')"
p43
aS"(5958, u'(?i)(rats|rat)')"
p44
aS"(1414, u'(?i)(chars|char)')"
p45
aS"(7609, u'(?i)(erns|ern)')"
p46
aS"(1628, u'(?i)(cod|cod)')"
p47
aS"(1683, u'(?i)(terns|tern)')"
p48
atp49
Rp50
sb.