(ifile_types
ParseObject
p0
(dp1
S'methods'
p2
c__builtin__
set
p3
((lp4
S'Method.ANTAGONIST'
p5
aS'Method.AGONIST'
p6
atp7
Rp8
sS'topics'
p9
g3
((lp10
S"(14, u'\\\\bcogniti')"
p11
aS"(2, u'\\\\bdisorder')"
p12
aS"(16, u'\\\\blearning')"
p13
aS"(15, u'\\\\bmemory')"
p14
aS"(18, u'\\\\bavoidan')"
p15
aS"(4, u'\\\\btreatment')"
p16
atp17
Rp18
sS'receptors'
p19
g3
((lp20
(S'5ht7'
p21
I91
I96
tp22
a(S'5ht1a'
p23
I77
I83
tp24
a(S'5ht7'
p25
I548
I553
tp26
a(S'5ht1'
p27
I77
I83
tp28
a(S'5ht1a'
p29
I525
I531
tp30
atp31
Rp32
sS'raw_text_methods'
p33
g3
((lp34
S"(13, u'\\\\bagonist')"
p35
aS"(15, u'\\\\b8ohdpat')"
p36
aS"(12, u'\\\\bantagonist')"
p37
atp38
Rp39
sS'regions'
p40
g3
((lp41
tp42
Rp43
sS'year'
p44
V2019
p45
sS'species'
p46
g3
((lp47
S"(1, u'(?i)\\\\b(mice|mouse)\\\\b')"
p48
aS"(5, u'(?i)\\\\b(mices|mice)\\\\b')"
p49
aS"(3, u'(?i)\\\\b(males|male)\\\\b')"
p50
atp51
Rp52
sb.