(ifile_types
ParseObject
p0
(dp1
S'methods'
p2
c__builtin__
set
p3
((lp4
tp5
Rp6
sS'topics'
p7
g3
((lp8
S"(14, u'\\\\bcogniti')"
p9
aS"(20, u'\\\\bmood')"
p10
aS"(19, u'\\\\bpsychosis')"
p11
aS"(2, u'\\\\bdisorder')"
p12
atp13
Rp14
sS'receptors'
p15
g3
((lp16
(S'5ht6'
p17
I582
I587
tp18
a(S'5ht6'
p19
I159
I164
tp20
a(S'5ht6'
p21
I450
I455
tp22
a(S'5ht6'
p23
I143
I148
tp24
a(S'5ht6'
p25
I72
I77
tp26
a(S'5ht6'
p27
I1255
I1260
tp28
a(S'5ht6'
p29
I342
I347
tp30
a(S'5ht6'
p31
I766
I771
tp32
a(S'5ht6'
p33
I1173
I1178
tp34
a(S'5ht6'
p35
I954
I959
tp36
atp37
Rp38
sS'raw_text_methods'
p39
g3
((lp40
tp41
Rp42
sS'regions'
p43
g3
((lp44
tp45
Rp46
sS'year'
p47
V2019
p48
sS'species'
p49
g3
((lp50
S"(4, u'(?i)\\\\b(rats|rat)\\\\b')"
p51
atp52
Rp53
sb.