(ifile_types
ParseObject
p0
(dp1
S'methods'
p2
c__builtin__
set
p3
((lp4
S'Method.ANTAGONIST'
p5
aS'Method.AGONIST'
p6
atp7
Rp8
sS'topics'
p9
g3
((lp10
S"(29, u'\\\\bhyperactiv')"
p11
aS"(7, u'\\\\bdepressi')"
p12
aS"(33, u'\\\\blocomot')"
p13
aS"(4, u'\\\\btreatment')"
p14
atp15
Rp16
sS'receptors'
p17
g3
((lp18
(S'5ht2a'
p19
I2316
I2322
tp20
a(S'5ht2a'
p21
I1357
I1363
tp22
a(S'5ht2a'
p23
I533
I539
tp24
a(S'5ht1a'
p25
I988
I994
tp26
a(S'5ht2a'
p27
I963
I969
tp28
a(S'5ht2a'
p29
I1068
I1074
tp30
a(S'5ht2a'
p31
I2056
I2062
tp32
a(S'5ht2a'
p33
I44
I55
tp34
a(S'5ht1a'
p35
I523
I529
tp36
a(S'5ht2a'
p37
I2109
I2115
tp38
a(S'5ht2a'
p39
I808
I814
tp40
a(S'5ht2a'
p41
I1766
I1772
tp42
atp43
Rp44
sS'raw_text_methods'
p45
g3
((lp46
S"(13, u'\\\\bagonist')"
p47
aS"(49, u'\\\\bdoi')"
p48
aS"(12, u'\\\\bantagonist')"
p49
atp50
Rp51
sS'regions'
p52
g3
((lp53
S"(19, u'(?i)\\\\b(cortexes|cortex)\\\\b')"
p54
atp55
Rp56
sS'year'
p57
V2001
p58
sS'species'
p59
g3
((lp60
S"(4, u'(?i)\\\\b(rats|rat)\\\\b')"
p61
atp62
Rp63
sb.