(ifile_types
ParseObject
p0
(dp1
S'antagonists'
p2
c__builtin__
set
p3
((lp4
S"(188, u'\\\\bsertindole')"
p5
aS"(123, u'\\\\bclozapine')"
p6
aS"(207, u'\\\\bsertindole')"
p7
aS"(56, u'\\\\bclozapine')"
p8
atp9
Rp10
sS'methods'
p11
g3
((lp12
S'Method.ANTAGONIST'
p13
aS'Method.AGONIST'
p14
atp15
Rp16
sS'topics'
p17
g3
((lp18
S"(6, u'\\\\bcognit')"
p19
aS"(10, u'\\\\banxiety')"
p20
atp21
Rp22
sS'receptors'
p23
g3
((lp24
S'5ht5'
p25
aS'5ht2c'
p26
aS'5ht2a'
p27
atp28
Rp29
sS'regions'
p30
g3
((lp31
S"(34, u'(?i)(pon|pons)')"
p32
atp33
Rp34
sS'year'
p35
V2001
p36
sS'agonists'
p37
g3
((lp38
S"(27, u'\\\\bclozapine')"
p39
atp40
Rp41
sS'species'
p42
g3
((lp43
S"(4624, u'(?i)(apes|ape)')"
p44
aS"(6753, u'(?i)(da|das)')"
p45
aS"(5958, u'(?i)(rats|rat)')"
p46
aS"(867, u'(?i)(tits|tit)')"
p47
aS"(4979, u'(?i)(cats|cat)')"
p48
aS"(6682, u'(?i)(tera|teras)')"
p49
aS"(1055, u'(?i)(men|man)')"
p50
aS"(7488, u'(?i)(molas|mola)')"
p51
aS"(3812, u'(?i)(studs|stud)')"
p52
aS"(6249, u'(?i)(ants|ant)')"
p53
aS"(1414, u'(?i)(chars|char)')"
p54
aS"(6356, u'(?i)(ais|ai)')"
p55
atp56
Rp57
sb.