(ifile_types
ParseObject
p0
(dp1
S'methods'
p2
c__builtin__
set
p3
((lp4
tp5
Rp6
sS'topics'
p7
g3
((lp8
S"(22, u'\\\\bschizophreni')"
p9
aS"(26, u'\\\\bbehav')"
p10
aS"(19, u'\\\\bpsychosis')"
p11
aS"(23, u'\\\\bantipsychotic')"
p12
aS"(5, u'\\\\btherap')"
p13
aS"(4, u'\\\\btreatment')"
p14
aS"(3, u'\\\\bclinical')"
p15
atp16
Rp17
sS'receptors'
p18
g3
((lp19
(S'5ht2a'
p20
I863
I869
tp21
atp22
Rp23
sS'raw_text_methods'
p24
g3
((lp25
tp26
Rp27
sS'regions'
p28
g3
((lp29
S"(19, u'(?i)\\\\b(cortexes|cortex)\\\\b')"
p30
atp31
Rp32
sS'year'
p33
V2012
p34
sS'species'
p35
g3
((lp36
S"(1, u'(?i)\\\\b(mice|mouse)\\\\b')"
p37
atp38
Rp39
sb.