(ifile_types
ParseObject
p0
(dp1
S'methods'
p2
c__builtin__
set
p3
((lp4
S'Method.ANTAGONIST'
p5
aS'Method.AGONIST'
p6
atp7
Rp8
sS'topics'
p9
g3
((lp10
S"(26, u'\\\\bbehav')"
p11
aS"(19, u'\\\\bpsychosis')"
p12
aS"(27, u'\\\\bdyskinesia')"
p13
aS"(33, u'\\\\blocomot')"
p14
aS"(34, u'\\\\bparkinson')"
p15
aS"(5, u'\\\\btherap')"
p16
aS"(4, u'\\\\btreatment')"
p17
atp18
Rp19
sS'receptors'
p20
g3
((lp21
(S'5ht1a'
p22
I157
I163
tp23
a(S'5ht1a'
p24
I1488
I1494
tp25
a(S'5ht1a'
p26
I1631
I1637
tp27
a(S'5ht1a'
p28
I662
I668
tp29
atp30
Rp31
sS'raw_text_methods'
p32
g3
((lp33
S"(13, u'\\\\bagonist')"
p34
aS"(51, u'\\\\bway100635')"
p35
aS"(32, u'\\\\blesions')"
p36
aS"(12, u'\\\\bantagonist')"
p37
atp38
Rp39
sS'regions'
p40
g3
((lp41
S"(15, u'(?i)\\\\b(substantias|substantia)(-|\\\\s+)?(nigras|nigra)\\\\b')"
p42
atp43
Rp44
sS'year'
p45
V2010
p46
sS'species'
p47
g3
((lp48
S"(6, u'(?i)\\\\b(rodents|rodent)\\\\b')"
p49
aS"(4, u'(?i)\\\\b(rats|rat)\\\\b')"
p50
atp51
Rp52
sb.