(ifile_types
ParseObject
p0
(dp1
S'methods'
p2
c__builtin__
set
p3
((lp4
S'Method.ANTAGONIST'
p5
aS'Method.AGONIST'
p6
atp7
Rp8
sS'topics'
p9
g3
((lp10
S"(5, u'\\\\btherap')"
p11
aS"(4, u'\\\\btreatment')"
p12
aS"(3, u'\\\\bclinical')"
p13
atp14
Rp15
sS'receptors'
p16
g3
((lp17
(S'5ht2c'
p18
I961
I969
tp19
a(S'5ht2c'
p20
I1270
I1276
tp21
a(S'5ht2b'
p22
I961
I967
tp23
a(S'5ht2c'
p24
I1111
I1117
tp25
a(S'5ht2c'
p26
I32
I38
tp27
a(S'5ht5'
p28
I642
I652
tp29
atp30
Rp31
sS'raw_text_methods'
p32
g3
((lp33
S"(13, u'\\\\bagonist')"
p34
aS"(33, u'\\\\bmcpp')"
p35
aS"(12, u'\\\\bantagonist')"
p36
atp37
Rp38
sS'regions'
p39
g3
((lp40
tp41
Rp42
sS'year'
p43
V2005
p44
sS'species'
p45
g3
((lp46
tp47
Rp48
sb.