(ifile_types
ParseObject
p0
(dp1
S'methods'
p2
c__builtin__
set
p3
((lp4
S'Method.ANTAGONIST'
p5
atp6
Rp7
sS'topics'
p8
g3
((lp9
S"(26, u'\\\\bbehav')"
p10
aS"(9, u'\\\\bstress')"
p11
aS"(3, u'\\\\bclinical')"
p12
atp13
Rp14
sS'receptors'
p15
g3
((lp16
(S'5ht1b'
p17
I1000
I1008
tp18
a(S'5ht1a'
p19
I1417
I1423
tp20
a(S'5ht1a'
p21
I1047
I1053
tp22
a(S'5ht1a'
p23
I1000
I1006
tp24
a(S'5ht1b'
p25
I1417
I1425
tp26
a(S'5ht1b'
p27
I1047
I1055
tp28
atp29
Rp30
sS'raw_text_methods'
p31
g3
((lp32
S"(51, u'\\\\bway100635')"
p33
aS"(7, u'\\\\bpropranolol')"
p34
aS"(6, u'\\\\bgr127935')"
p35
aS"(12, u'\\\\bantagonist')"
p36
atp37
Rp38
sS'regions'
p39
g3
((lp40
tp41
Rp42
sS'year'
p43
V2017
p44
sS'species'
p45
g3
((lp46
S"(2, u'(?i)\\\\b(females|female)\\\\b')"
p47
aS"(3, u'(?i)\\\\b(males|male)\\\\b')"
p48
aS"(4, u'(?i)\\\\b(rats|rat)\\\\b')"
p49
atp50
Rp51
sb.