(ifile_types
ParseObject
p0
(dp1
S'antagonists'
p2
c__builtin__
set
p3
((lp4
S"(129, u'\\\\brenzapride')"
p5
aS"(77, u'\\\\btegaserod')"
p6
aS"(130, u'\\\\bzacopride')"
p7
atp8
Rp9
sS'methods'
p10
g3
((lp11
S'Method.AGONIST'
p12
atp13
Rp14
sS'topics'
p15
g3
((lp16
tp17
Rp18
sS'receptors'
p19
g3
((lp20
S'5ht4a'
p21
aS'5ht4b'
p22
aS'5ht4'
p23
aS'5ht4d'
p24
aS'5ht4c'
p25
atp26
Rp27
sS'regions'
p28
g3
((lp29
tp30
Rp31
sS'year'
p32
V2010
p33
sS'agonists'
p34
g3
((lp35
S"(203, u'\\\\brenzapride')"
p36
aS"(202, u'\\\\bprucalopride')"
p37
aS"(222, u'\\\\b5 ?meot')"
p38
aS"(205, u'\\\\brs ?67333')"
p39
aS"(208, u'\\\\bzacopride')"
p40
aS"(207, u'\\\\btegaserod')"
p41
atp42
Rp43
sS'species'
p44
g3
((lp45
S"(1057, u'(?i)\\\\b(humans|human)\\\\b')"
p46
aS"(3196, u'(?i)\\\\b(human|humans)\\\\b')"
p47
atp48
Rp49
sb.