(ifile_types
ParseObject
p0
(dp1
S'antagonists'
p2
c__builtin__
set
p3
((lp4
S"(110, u'\\\\bsb ?242084')"
p5
atp6
Rp7
sS'methods'
p8
g3
((lp9
S'Method.STIMULATION'
p10
aS'Method.ANTAGONIST'
p11
aS'Method.AGONIST'
p12
atp13
Rp14
sS'topics'
p15
g3
((lp16
S"(18, u'\\\\bpsychostim')"
p17
atp18
Rp19
sS'receptors'
p20
g3
((lp21
S'5ht5'
p22
aS'5ht2c'
p23
aS'5ht2a'
p24
atp25
Rp26
sS'regions'
p27
g3
((lp28
S"(96, u'(?i)(ventrals|ventral)(-|\\\\s+)?(tegmentals|tegmental)(-|\\\\s+)?(areas|area)')"
p29
aS"(254, u'(?i)(prefrontals|prefrontal)(-|\\\\s+)?(cortexes|cortex)')"
p30
aS"(226, u'(?i)(nuclei|nucleus)(-|\\\\s+)?(accumben|accumbens)')"
p31
aS"(255, u'(?i)(pres|pre)(-|\\\\s+)?(frontals|frontal)(-|\\\\s+)?(cortexes|cortex)')"
p32
aS"(34, u'(?i)(pon|pons)')"
p33
atp34
Rp35
sS'year'
p36
V2011
p37
sS'agonists'
p38
g3
((lp39
S"(186, u'\\\\bway ?161503')"
p40
aS"(132, u'\\\\btcb ?2')"
p41
atp42
Rp43
sS'species'
p44
g3
((lp45
S"(6753, u'(?i)(da|das)')"
p46
aS"(5958, u'(?i)(rats|rat)')"
p47
aS"(6356, u'(?i)(ais|ai)')"
p48
aS"(5176, u'(?i)(tegs|teg)')"
p49
aS"(5967, u'(?i)(males|male)')"
p50
aS"(6682, u'(?i)(tera|teras)')"
p51
aS"(1055, u'(?i)(men|man)')"
p52
aS"(6249, u'(?i)(ants|ant)')"
p53
aS"(2942, u'(?i)(daws|daw)')"
p54
aS"(3550, u'(?i)(anis|ani)')"
p55
aS"(3812, u'(?i)(studs|stud)')"
p56
aS"(4979, u'(?i)(cats|cat)')"
p57
atp58
Rp59
sb.