(ifile_types
ParseObject
p0
(dp1
S'antagonists'
p2
c__builtin__
set
p3
((lp4
tp5
Rp6
sS'methods'
p7
g3
((lp8
tp9
Rp10
sS'topics'
p11
g3
((lp12
tp13
Rp14
sS'receptors'
p15
g3
((lp16
S'5ht1a'
p17
aS'5ht2a'
p18
atp19
Rp20
sS'regions'
p21
g3
((lp22
S"(209, u'(?i)\\\\b(amygdalas|amygdala)\\\\b')"
p23
aS"(203, u'(?i)\\\\b(dentates|dentate)(-|\\\\s+)?(gyruses|gyrus)\\\\b')"
p24
atp25
Rp26
sS'year'
p27
V2006
p28
sS'agonists'
p29
g3
((lp30
tp31
Rp32
sS'species'
p33
g3
((lp34
S"(5958, u'(?i)\\\\b(rats|rat)\\\\b')"
p35
atp36
Rp37
sb.