(ifile_types
ParseObject
p0
(dp1
S'methods'
p2
c__builtin__
set
p3
((lp4
S'Method.ANTAGONIST'
p5
atp6
Rp7
sS'topics'
p8
g3
((lp9
S"(6, u'\\\\baggressi')"
p10
aS"(26, u'\\\\bbehav')"
p11
aS"(25, u'\\\\bsocial')"
p12
aS"(4, u'\\\\btreatment')"
p13
atp14
Rp15
sS'receptors'
p16
g3
((lp17
(S'5ht5'
p18
I1378
I1383
tp19
a(S'5ht1a'
p20
I1012
I1018
tp21
atp22
Rp23
sS'raw_text_methods'
p24
g3
((lp25
S"(4, u'\\\\bpcpa')"
p26
aS"(12, u'\\\\bantagonist')"
p27
aS"(11, u'\\\\bfluoxetine')"
p28
atp29
Rp30
sS'regions'
p31
g3
((lp32
tp33
Rp34
sS'year'
p35
V2009
p36
sS'species'
p37
g3
((lp38
S"(2, u'(?i)\\\\b(females|female)\\\\b')"
p39
aS"(3, u'(?i)\\\\b(males|male)\\\\b')"
p40
atp41
Rp42
sb.