(ifile_types
ParseObject
p0
(dp1
S'antagonists'
p2
c__builtin__
set
p3
((lp4
tp5
Rp6
sS'methods'
p7
g3
((lp8
S'Method.ANTAGONIST'
p9
atp10
Rp11
sS'topics'
p12
g3
((lp13
S"(20, u'\\\\baggressi')"
p14
aS"(7, u'\\\\bmemory')"
p15
aS"(9, u'\\\\bdepress')"
p16
aS"(10, u'\\\\banxiety')"
p17
aS"(1, u'\\\\bmood')"
p18
atp19
Rp20
sS'receptors'
p21
g3
((lp22
S'5ht2c'
p23
atp24
Rp25
sS'regions'
p26
g3
((lp27
S"(277, u'(?i)\\\\b(temporals|temporal)(-|\\\\s+)?(lobes|lobe)\\\\b')"
p28
atp29
Rp30
sS'year'
p31
V2009
p32
sS'agonists'
p33
g3
((lp34
S"(149, u'\\\\bmem')"
p35
atp36
Rp37
sS'species'
p38
g3
((lp39
S"(5958, u'(?i)\\\\b(rats|rat)\\\\b')"
p40
atp41
Rp42
sb.