(ifile_types
ParseObject
p0
(dp1
S'antagonists'
p2
c__builtin__
set
p3
((lp4
S"(91, u'\\\\bfluoxetine')"
p5
aS"(117, u'\\\\bketanserin')"
p6
aS"(28, u'\\\\bspiroxatrine')"
p7
aS"(194, u'\\\\bmethysergide')"
p8
atp9
Rp10
sS'methods'
p11
g3
((lp12
S'Method.ANTAGONIST'
p13
aS'Method.AGONIST'
p14
atp15
Rp16
sS'topics'
p17
g3
((lp18
S"(9, u'\\\\bdepress')"
p19
atp20
Rp21
sS'receptors'
p22
g3
((lp23
S'5ht5'
p24
aS'5ht3'
p25
aS'5ht2'
p26
aS'5ht1'
p27
aS'5ht2a'
p28
aS'5ht1a'
p29
aS'5ht2c'
p30
atp31
Rp32
sS'regions'
p33
g3
((lp34
tp35
Rp36
sS'year'
p37
V1995
p38
sS'agonists'
p39
g3
((lp40
S"(53, u'\\\\bmethysergide')"
p41
atp42
Rp43
sS'species'
p44
g3
((lp45
S"(5958, u'(?i)\\\\b(rats|rat)\\\\b')"
p46
atp47
Rp48
sb.