(ifile_types
ParseObject
p0
(dp1
S'methods'
p2
c__builtin__
set
p3
((lp4
S'Method.ANTAGONIST'
p5
atp6
Rp7
sS'topics'
p8
g3
((lp9
S"(26, u'\\\\bbehav')"
p10
atp11
Rp12
sS'receptors'
p13
g3
((lp14
(S'5ht3'
p15
I617
I621
tp16
a(S'5ht3'
p17
I1638
I1642
tp18
atp19
Rp20
sS'raw_text_methods'
p21
g3
((lp22
S"(20, u'\\\\bondansetron')"
p23
aS"(12, u'\\\\bantagonist')"
p24
atp25
Rp26
sS'regions'
p27
g3
((lp28
tp29
Rp30
sS'year'
p31
V2018
p32
sS'species'
p33
g3
((lp34
S"(4, u'(?i)\\\\b(rats|rat)\\\\b')"
p35
atp36
Rp37
sb.