(ifile_types
ParseObject
p0
(dp1
S'methods'
p2
c__builtin__
set
p3
((lp4
S'Method.AGONIST'
p5
aS'Method.IMMUNOHISTOCHEMISTRY'
p6
aS'Method.ANTAGONIST'
p7
atp8
Rp9
sS'topics'
p10
g3
((lp11
S"(30, u'\\\\bpain')"
p12
aS"(26, u'\\\\bbehav')"
p13
atp14
Rp15
sS'receptors'
p16
g3
((lp17
(S'5ht7'
p18
I1259
I1264
tp19
a(S'5ht7'
p20
I1008
I1013
tp21
a(S'5ht7'
p22
I585
I590
tp23
a(S'5ht7'
p24
I1991
I1996
tp25
a(S'5ht7'
p26
I1366
I1371
tp27
a(S'5ht7'
p28
I54
I59
tp29
a(S'5ht7'
p30
I211
I216
tp31
a(S'5ht7'
p32
I1615
I1620
tp33
a(S'5ht7'
p34
I2088
I2093
tp35
a(S'5ht7'
p36
I1881
I1886
tp37
a(S'5ht7'
p38
I779
I784
tp39
atp40
Rp41
sS'raw_text_methods'
p42
g3
((lp43
S"(13, u'\\\\bagonist')"
p44
aS"(35, u'\\\\badenosine')"
p45
aS"(12, u'\\\\bantagonist')"
p46
atp47
Rp48
sS'regions'
p49
g3
((lp50
tp51
Rp52
sS'year'
p53
V2014
p54
sS'species'
p55
g3
((lp56
S"(4, u'(?i)\\\\b(rats|rat)\\\\b')"
p57
atp58
Rp59
sb.