(ifile_types
ParseObject
p0
(dp1
S'antagonists'
p2
c__builtin__
set
p3
((lp4
S"(53, u'\\\\bketanserin')"
p5
aS"(128, u'\\\\bketanserin')"
p6
atp7
Rp8
sS'methods'
p9
g3
((lp10
S'Method.ANTAGONIST'
p11
aS'Method.AGONIST'
p12
atp13
Rp14
sS'topics'
p15
g3
((lp16
tp17
Rp18
sS'receptors'
p19
g3
((lp20
S'5ht5'
p21
aS'5ht2c'
p22
aS'5ht2a'
p23
atp24
Rp25
sS'regions'
p26
g3
((lp27
S"(34, u'(?i)(pon|pons)')"
p28
atp29
Rp30
sS'year'
p31
V2003
p32
sS'agonists'
p33
g3
((lp34
S"(33, u'\\\\bdoi')"
p35
atp36
Rp37
sS'species'
p38
g3
((lp39
S"(2323, u'(?i)(bees|bee)')"
p40
aS"(6753, u'(?i)(da|das)')"
p41
aS"(5958, u'(?i)(rats|rat)')"
p42
aS"(4964, u'(?i)(serins|serin)')"
p43
aS"(6682, u'(?i)(tera|teras)')"
p44
aS"(468, u'(?i)(oxen|ox)')"
p45
aS"(6249, u'(?i)(ants|ant)')"
p46
aS"(4979, u'(?i)(cats|cat)')"
p47
aS"(3550, u'(?i)(anis|ani)')"
p48
aS"(3812, u'(?i)(studs|stud)')"
p49
aS"(5743, u'(?i)(bots|bot)')"
p50
aS"(6356, u'(?i)(ais|ai)')"
p51
atp52
Rp53
sb.