(ifile_types
ParseObject
p0
(dp1
S'methods'
p2
c__builtin__
set
p3
((lp4
S'Method.ANTAGONIST'
p5
aS'Method.AGONIST'
p6
atp7
Rp8
sS'topics'
p9
g3
((lp10
S"(30, u'\\\\bpain')"
p11
atp12
Rp13
sS'receptors'
p14
g3
((lp15
(S'5ht1a'
p16
I282
I288
tp17
a(S'5ht1a'
p18
I748
I754
tp19
a(S'5ht1a'
p20
I165
I171
tp21
a(S'5ht1a'
p22
I1941
I1947
tp23
a(S'5ht1a'
p24
I1564
I1570
tp25
a(S'5ht1a'
p26
I107
I113
tp27
a(S'5ht1a'
p28
I1234
I1240
tp29
a(S'5ht1a'
p30
I1901
I1907
tp31
atp32
Rp33
sS'raw_text_methods'
p34
g3
((lp35
S"(13, u'\\\\bagonist')"
p36
aS"(51, u'\\\\bway100635')"
p37
aS"(12, u'\\\\bantagonist')"
p38
atp39
Rp40
sS'regions'
p41
g3
((lp42
S"(20, u'(?i)\\\\b(prefrontals|prefrontal)\\\\b')"
p43
aS"(21, u'(?i)\\\\b(mpfcs|mpfc)\\\\b')"
p44
aS"(19, u'(?i)\\\\b(cortexes|cortex)\\\\b')"
p45
aS"(3, u'(?i)\\\\b(postsynaptics|postsynaptic)\\\\b')"
p46
atp47
Rp48
sS'year'
p49
V2012
p50
sS'species'
p51
g3
((lp52
S"(4, u'(?i)\\\\b(rats|rat)\\\\b')"
p53
atp54
Rp55
sb.