(ifile_types
ParseObject
p0
(dp1
S'methods'
p2
c__builtin__
set
p3
((lp4
S'Method.ANTAGONIST'
p5
aS'Method.AGONIST'
p6
atp7
Rp8
sS'topics'
p9
g3
((lp10
S"(26, u'\\\\bbehav')"
p11
atp12
Rp13
sS'receptors'
p14
g3
((lp15
(S'5ht1a'
p16
I1001
I1007
tp17
a(S'5ht1d'
p18
I57
I63
tp19
a(S'5ht1d'
p20
I585
I591
tp21
a(S'5ht1d'
p22
I819
I825
tp23
a(S'5ht1d'
p24
I1292
I1298
tp25
a(S'5ht1d'
p26
I307
I313
tp27
a(S'5ht1a'
p28
I1794
I1800
tp29
a(S'5ht1'
p30
I1203
I1209
tp31
a(S'5ht1b'
p32
I1021
I1027
tp33
a(S'5ht1a'
p34
I1203
I1209
tp35
atp36
Rp37
sS'raw_text_methods'
p38
g3
((lp39
S"(13, u'\\\\bagonist')"
p40
aS"(15, u'\\\\b8ohdpat')"
p41
aS"(6, u'\\\\bgr127935')"
p42
aS"(12, u'\\\\bantagonist')"
p43
atp44
Rp45
sS'regions'
p46
g3
((lp47
tp48
Rp49
sS'year'
p50
V1996
p51
sS'species'
p52
g3
((lp53
S"(3, u'(?i)\\\\b(males|male)\\\\b')"
p54
atp55
Rp56
sb.