(ifile_types
ParseObject
p0
(dp1
S'methods'
p2
c__builtin__
set
p3
((lp4
S'Method.ANTAGONIST'
p5
aS'Method.AGONIST'
p6
atp7
Rp8
sS'topics'
p9
g3
((lp10
S"(22, u'\\\\bschizophreni')"
p11
aS"(14, u'\\\\bcogniti')"
p12
aS"(7, u'\\\\bdepressi')"
p13
aS"(13, u'\\\\bantidepress')"
p14
aS"(4, u'\\\\btreatment')"
p15
atp16
Rp17
sS'receptors'
p18
g3
((lp19
(S'5ht1a'
p20
I537
I543
tp21
a(S'5ht1a'
p22
I1936
I1942
tp23
a(S'5ht1a'
p24
I257
I263
tp25
a(S'5ht1a'
p26
I1224
I1230
tp27
a(S'5ht1a'
p28
I2008
I2014
tp29
a(S'5ht1a'
p30
I993
I999
tp31
a(S'5ht1a'
p32
I123
I129
tp33
a(S'5ht1a'
p34
I1841
I1847
tp35
a(S'5ht1a'
p36
I82
I88
tp37
a(S'5ht1a'
p38
I1789
I1795
tp39
a(S'5ht1a'
p40
I1368
I1374
tp41
atp42
Rp43
sS'raw_text_methods'
p44
g3
((lp45
S"(13, u'\\\\bagonist')"
p46
aS"(51, u'\\\\bway100635')"
p47
aS"(12, u'\\\\bantagonist')"
p48
atp49
Rp50
sS'regions'
p51
g3
((lp52
S"(20, u'(?i)\\\\b(prefrontals|prefrontal)\\\\b')"
p53
aS"(21, u'(?i)\\\\b(mpfcs|mpfc)\\\\b')"
p54
aS"(19, u'(?i)\\\\b(cortexes|cortex)\\\\b')"
p55
aS"(3, u'(?i)\\\\b(postsynaptics|postsynaptic)\\\\b')"
p56
atp57
Rp58
sS'year'
p59
V2010
p60
sS'species'
p61
g3
((lp62
S"(4, u'(?i)\\\\b(rats|rat)\\\\b')"
p63
atp64
Rp65
sb.