(ifile_types
ParseObject
p0
(dp1
S'antagonists'
p2
c__builtin__
set
p3
((lp4
S"(6, u'\\\\bcyproheptadine')"
p5
aS"(53, u'\\\\bcyproheptadine')"
p6
aS"(117, u'\\\\bketanserin')"
p7
aS"(119, u'\\\\britanserin')"
p8
atp9
Rp10
sS'methods'
p11
g3
((lp12
S'Method.ANTAGONIST'
p13
atp14
Rp15
sS'topics'
p16
g3
((lp17
tp18
Rp19
sS'receptors'
p20
g3
((lp21
S'5ht2a'
p22
atp23
Rp24
sS'regions'
p25
g3
((lp26
S"(220, u'(?i)\\\\b(striatums|striatum)\\\\b')"
p27
atp28
Rp29
sS'year'
p30
V1995
p31
sS'agonists'
p32
g3
((lp33
tp34
Rp35
sS'species'
p36
g3
((lp37
S"(163, u'(?i)\\\\b(mice|mouse)\\\\b')"
p38
aS"(5958, u'(?i)\\\\b(rats|rat)\\\\b')"
p39
atp40
Rp41
sb.