(ifile_types
ParseObject
p0
(dp1
S'antagonists'
p2
c__builtin__
set
p3
((lp4
S"(22, u'\\\\bpropranolol')"
p5
atp6
Rp7
sS'methods'
p8
g3
((lp9
S'Method.ANTAGONIST'
p10
aS'Method.AGONIST'
p11
atp12
Rp13
sS'topics'
p14
g3
((lp15
tp16
Rp17
sS'receptors'
p18
g3
((lp19
S'5ht1a'
p20
atp21
Rp22
sS'regions'
p23
g3
((lp24
S"(318, u'(?i)(raphes|raphe)(-|\\\\s+)?(nuclei|nucleus)')"
p25
aS"(362, u'(?i)(brains|brain)(-|\\\\s+)?(stems|stem)')"
p26
aS"(94, u'(?i)(dorsals|dorsal)(-|\\\\s+)?(raphes|raphe)(-|\\\\s+)?(nuclei|nucleus)')"
p27
aS"(34, u'(?i)(pon|pons)')"
p28
atp29
Rp30
sS'year'
p31
V1993
p32
sS'agonists'
p33
g3
((lp34
S"(155, u'\\\\bmem')"
p35
atp36
Rp37
sS'species'
p38
g3
((lp39
S"(937, u'(?i)(kids|kid)')"
p40
aS"(6249, u'(?i)(ants|ant)')"
p41
aS"(6356, u'(?i)(ais|ai)')"
p42
aS"(6391, u'(?i)(asses|ass)')"
p43
aS"(1070, u'(?i)(pets|pet)')"
p44
aS"(81, u'(?i)(asps|asp)')"
p45
aS"(468, u'(?i)(oxen|ox)')"
p46
aS"(3404, u'(?i)(titis|titi)')"
p47
aS"(5743, u'(?i)(bots|bot)')"
p48
aS"(3522, u'(?i)(tetras|tetra)')"
p49
aS"(821, u'(?i)(lice|louse)')"
p50
aS"(5537, u'(?i)(hippos|hippo)')"
p51
aS"(4301, u'(?i)(hydras|hydra)')"
p52
aS"(5958, u'(?i)(rats|rat)')"
p53
aS"(867, u'(?i)(tits|tit)')"
p54
aS"(6682, u'(?i)(tera|teras)')"
p55
aS"(1055, u'(?i)(men|man)')"
p56
aS"(4979, u'(?i)(cats|cat)')"
p57
aS"(1961, u'(?i)(pens|pen)')"
p58
aS"(1414, u'(?i)(chars|char)')"
p59
aS"(6753, u'(?i)(da|das)')"
p60
aS"(3726, u'(?i)(mates|mate)')"
p61
aS"(1054, u'(?i)(homoes|homo)')"
p62
atp63
Rp64
sb.