(ifile_types
ParseObject
p0
(dp1
S'methods'
p2
c__builtin__
set
p3
((lp4
S'Method.PET'
p5
atp6
Rp7
sS'topics'
p8
g3
((lp9
S"(13, u'\\\\bantidepress')"
p10
aS"(7, u'\\\\bdepressi')"
p11
aS"(5, u'\\\\btherap')"
p12
aS"(1, u'\\\\bpatient')"
p13
aS"(4, u'\\\\btreatment')"
p14
aS"(3, u'\\\\bclinical')"
p15
atp16
Rp17
sS'receptors'
p18
g3
((lp19
(S'5ht1a'
p20
I521
I532
tp21
a(S'5ht1a'
p22
I839
I845
tp23
a(S'5ht1a'
p24
I748
I754
tp25
a(S'5ht1a'
p26
I672
I678
tp27
a(S'5ht1a'
p28
I1222
I1228
tp29
a(S'5ht1a'
p30
I53
I64
tp31
a(S'5ht1a'
p32
I544
I550
tp33
a(S'5ht1a'
p34
I1971
I1977
tp35
atp36
Rp37
sS'raw_text_methods'
p38
g3
((lp39
S"(17, u'\\\\bpet')"
p40
aS"(19, u'\\\\bpositron emission tomography')"
p41
aS"(49, u'\\\\bdoi')"
p42
atp43
Rp44
sS'regions'
p45
g3
((lp46
S"(19, u'(?i)\\\\b(cortexes|cortex)\\\\b')"
p47
aS"(22, u'(?i)\\\\b(anteriors|anterior)(-|\\\\s+)?(cingulates|cingulate)\\\\b')"
p48
aS"(9, u'(?i)\\\\b(cerebellums|cerebellum)\\\\b')"
p49
aS"(12, u'(?i)\\\\b(amygdalas|amygdala)\\\\b')"
p50
aS"(3, u'(?i)\\\\b(postsynaptics|postsynaptic)\\\\b')"
p51
atp52
Rp53
sS'year'
p54
V2013
p55
sS'species'
p56
g3
((lp57
tp58
Rp59
sb.