(ifile_types
ParseObject
p0
(dp1
S'antagonists'
p2
c__builtin__
set
p3
((lp4
S"(53, u'\\\\bketanserin')"
p5
aS"(128, u'\\\\bketanserin')"
p6
aS"(144, u'\\\\bquinine')"
p7
atp8
Rp9
sS'methods'
p10
g3
((lp11
S'Method.STIMULATION'
p12
aS'Method.ANTAGONIST'
p13
aS'Method.AGONIST'
p14
atp15
Rp16
sS'topics'
p17
g3
((lp18
S"(24, u'\\\\banalgesi')"
p19
atp20
Rp21
sS'receptors'
p22
g3
((lp23
S'5ht1a'
p24
aS'5ht2'
p25
atp26
Rp27
sS'regions'
p28
g3
((lp29
S"(91, u'(?i)(periaqueductals|periaqueductal)(-|\\\\s+)?(grays|gray)')"
p30
aS"(34, u'(?i)(pon|pons)')"
p31
atp32
Rp33
sS'year'
p34
V2001
p35
sS'agonists'
p36
g3
((lp37
S"(92, u'\\\\b8 ?oh ?dpat')"
p38
atp39
Rp40
sS'species'
p41
g3
((lp42
S"(2323, u'(?i)(bees|bee)')"
p43
aS"(5958, u'(?i)(rats|rat)')"
p44
aS"(6356, u'(?i)(ais|ai)')"
p45
aS"(4964, u'(?i)(serins|serin)')"
p46
aS"(5967, u'(?i)(males|male)')"
p47
aS"(468, u'(?i)(oxen|ox)')"
p48
aS"(1055, u'(?i)(men|man)')"
p49
aS"(7094, u'(?i)(curs|cur)')"
p50
aS"(2665, u'(?i)(rays|ray)')"
p51
aS"(3812, u'(?i)(studs|stud)')"
p52
aS"(6249, u'(?i)(ants|ant)')"
p53
aS"(3522, u'(?i)(tetras|tetra)')"
p54
aS"(1961, u'(?i)(pens|pen)')"
p55
aS"(1414, u'(?i)(chars|char)')"
p56
aS"(4177, u'(?i)(grays|gray)')"
p57
aS"(4979, u'(?i)(cats|cat)')"
p58
atp59
Rp60
sb.