(ifile_types
ParseObject
p0
(dp1
S'methods'
p2
c__builtin__
set
p3
((lp4
S'Method.ANTAGONIST'
p5
atp6
Rp7
sS'topics'
p8
g3
((lp9
tp10
Rp11
sS'receptors'
p12
g3
((lp13
(S'5ht2c'
p14
I399
I405
tp15
a(S'5ht2b'
p16
I388
I394
tp17
a(S'5ht2a'
p18
I45
I51
tp19
a(S'5ht2a'
p20
I197
I203
tp21
a(S'5ht2'
p22
I978
I983
tp23
a(S'5ht2c'
p24
I216
I222
tp25
a(S'5ht2b'
p26
I205
I211
tp27
a(S'5ht2a'
p28
I380
I386
tp29
a(S'5ht2c'
p30
I64
I70
tp31
a(S'5ht2b'
p32
I1048
I1054
tp33
a(S'5ht2'
p34
I887
I892
tp35
a(S'5ht2'
p36
I1596
I1601
tp37
a(S'5ht2c'
p38
I1131
I1139
tp39
a(S'5ht2a'
p40
I1317
I1323
tp41
a(S'5ht2a'
p42
I1131
I1137
tp43
a(S'5ht2b'
p44
I53
I59
tp45
atp46
Rp47
sS'raw_text_methods'
p48
g3
((lp49
S"(53, u'\\\\bketanserin')"
p50
aS"(3, u'\\\\bimmunoreactiv')"
p51
aS"(9, u'\\\\britanserin')"
p52
aS"(12, u'\\\\bantagonist')"
p53
atp54
Rp55
sS'regions'
p56
g3
((lp57
tp58
Rp59
sS'year'
p60
V2000
p61
sS'species'
p62
g3
((lp63
S"(1, u'(?i)\\\\b(mice|mouse)\\\\b')"
p64
atp65
Rp66
sb.