(ifile_types
ParseObject
p0
(dp1
S'methods'
p2
c__builtin__
set
p3
((lp4
S'Method.IMMUNOHISTOCHEMISTRY'
p5
atp6
Rp7
sS'topics'
p8
g3
((lp9
S"(31, u'\\\\brespiratory')"
p10
atp11
Rp12
sS'receptors'
p13
g3
((lp14
(S'5ht2a'
p15
I400
I406
tp16
a(S'5ht2a'
p17
I1144
I1150
tp18
a(S'5ht2a'
p19
I77
I88
tp20
a(S'5ht2a'
p21
I786
I792
tp22
a(S'5ht2a'
p23
I386
I397
tp24
atp25
Rp26
sS'raw_text_methods'
p27
g3
((lp28
tp29
Rp30
sS'regions'
p31
g3
((lp32
tp33
Rp34
sS'year'
p35
V2008
p36
sS'species'
p37
g3
((lp38
S"(4, u'(?i)\\\\b(rats|rat)\\\\b')"
p39
atp40
Rp41
sb.