(ifile_types
ParseObject
p0
(dp1
S'methods'
p2
c__builtin__
set
p3
((lp4
tp5
Rp6
sS'topics'
p7
g3
((lp8
S"(30, u'\\\\bpain')"
p9
atp10
Rp11
sS'receptors'
p12
g3
((lp13
(S'5ht1a'
p14
I1652
I1658
tp15
a(S'5ht1a'
p16
I927
I933
tp17
a(S'5ht1a'
p18
I1424
I1430
tp19
atp20
Rp21
sS'raw_text_methods'
p22
g3
((lp23
tp24
Rp25
sS'regions'
p26
g3
((lp27
tp28
Rp29
sS'year'
p30
V2014
p31
sS'species'
p32
g3
((lp33
S"(2, u'(?i)\\\\b(females|female)\\\\b')"
p34
aS"(4, u'(?i)\\\\b(rats|rat)\\\\b')"
p35
atp36
Rp37
sb.