(ifile_types
ParseObject
p0
(dp1
S'antagonists'
p2
c__builtin__
set
p3
((lp4
tp5
Rp6
sS'methods'
p7
g3
((lp8
S'Method.ANTAGONIST'
p9
aS'Method.AGONIST'
p10
atp11
Rp12
sS'topics'
p13
g3
((lp14
S"(8, u'\\\\blearning')"
p15
aS"(7, u'\\\\bmemory')"
p16
atp17
Rp18
sS'receptors'
p19
g3
((lp20
S'5ht1a'
p21
atp22
Rp23
sS'regions'
p24
g3
((lp25
tp26
Rp27
sS'year'
p28
V2001
p29
sS'agonists'
p30
g3
((lp31
S"(92, u'\\\\brepinotan')"
p32
aS"(149, u'\\\\bmem')"
p33
atp34
Rp35
sS'species'
p36
g3
((lp37
S"(3196, u'(?i)\\\\b(human|humans)\\\\b')"
p38
aS"(1057, u'(?i)\\\\b(humans|human)\\\\b')"
p39
aS"(4091, u'(?i)\\\\b(adults|adult)\\\\b')"
p40
aS"(5958, u'(?i)\\\\b(rats|rat)\\\\b')"
p41
aS"(5967, u'(?i)\\\\b(males|male)\\\\b')"
p42
aS"(5510, u'(?i)\\\\b(bays|bay)\\\\b')"
p43
atp44
Rp45
sb.