(ifile_types
ParseObject
p0
(dp1
S'methods'
p2
c__builtin__
set
p3
((lp4
S'Method.ANTAGONIST'
p5
aS'Method.AGONIST'
p6
atp7
Rp8
sS'topics'
p9
g3
((lp10
tp11
Rp12
sS'receptors'
p13
g3
((lp14
(S'5ht1a'
p15
I1225
I1231
tp16
a(S'5ht5'
p17
I174
I184
tp18
a(S'5ht1b'
p19
I1265
I1271
tp20
a(S'5ht1a'
p21
I1639
I1645
tp22
a(S'5ht1a'
p23
I1132
I1138
tp24
atp25
Rp26
sS'raw_text_methods'
p27
g3
((lp28
S"(13, u'\\\\bagonist')"
p29
aS"(15, u'\\\\b8ohdpat')"
p30
aS"(51, u'\\\\bway100635')"
p31
aS"(12, u'\\\\bantagonist')"
p32
atp33
Rp34
sS'regions'
p35
g3
((lp36
S"(4, u'(?i)\\\\b(presynaptics|presynaptic)\\\\b')"
p37
aS"(3, u'(?i)\\\\b(postsynaptics|postsynaptic)\\\\b')"
p38
atp39
Rp40
sS'year'
p41
V2008
p42
sS'species'
p43
g3
((lp44
tp45
Rp46
sb.