(ifile_types
ParseObject
p0
(dp1
S'methods'
p2
c__builtin__
set
p3
((lp4
S'Method.ANTAGONIST'
p5
atp6
Rp7
sS'topics'
p8
g3
((lp9
S"(13, u'\\\\bantidepress')"
p10
aS"(26, u'\\\\bbehav')"
p11
aS"(4, u'\\\\btreatment')"
p12
atp13
Rp14
sS'receptors'
p15
g3
((lp16
(S'5ht2c'
p17
I1023
I1031
tp18
a(S'5ht2a'
p19
I1023
I1029
tp20
atp21
Rp22
sS'raw_text_methods'
p23
g3
((lp24
S"(53, u'\\\\bketanserin')"
p25
aS"(11, u'\\\\bfluoxetine')"
p26
aS"(4, u'\\\\bpcpa')"
p27
aS"(51, u'\\\\bway100635')"
p28
aS"(38, u'\\\\bssri')"
p29
aS"(12, u'\\\\bantagonist')"
p30
atp31
Rp32
sS'regions'
p33
g3
((lp34
S"(19, u'(?i)\\\\b(cortexes|cortex)\\\\b')"
p35
atp36
Rp37
sS'year'
p38
V2014
p39
sS'species'
p40
g3
((lp41
S"(1, u'(?i)\\\\b(mice|mouse)\\\\b')"
p42
aS"(5, u'(?i)\\\\b(mices|mice)\\\\b')"
p43
atp44
Rp45
sb.