(ifile_types
ParseObject
p0
(dp1
S'methods'
p2
c__builtin__
set
p3
((lp4
tp5
Rp6
sS'topics'
p7
g3
((lp8
S"(22, u'\\\\bschizophreni')"
p9
aS"(23, u'\\\\bantipsychotic')"
p10
aS"(5, u'\\\\btherap')"
p11
aS"(1, u'\\\\bpatient')"
p12
aS"(4, u'\\\\btreatment')"
p13
aS"(3, u'\\\\bclinical')"
p14
atp15
Rp16
sS'receptors'
p17
g3
((lp18
(S'5ht2a'
p19
I1972
I1978
tp20
a(S'5ht2a'
p21
I570
I576
tp22
a(S'5ht2a'
p23
I366
I372
tp24
a(S'5ht2'
p25
I2265
I2271
tp26
a(S'5ht2a'
p27
I2265
I2271
tp28
atp29
Rp30
sS'raw_text_methods'
p31
g3
((lp32
tp33
Rp34
sS'regions'
p35
g3
((lp36
tp37
Rp38
sS'year'
p39
V2018
p40
sS'species'
p41
g3
((lp42
S"(4, u'(?i)\\\\b(rats|rat)\\\\b')"
p43
atp44
Rp45
sb.