(ifile_types
ParseObject
p0
(dp1
S'antagonists'
p2
c__builtin__
set
p3
((lp4
S"(31, u'\\\\bway ?100635')"
p5
aS"(125, u'\\\\btropisetron')"
p6
aS"(117, u'\\\\bketanserin')"
p7
aS"(194, u'\\\\bmethysergide')"
p8
aS"(124, u'\\\\bondansetron')"
p9
aS"(118, u'\\\\bly ?53857')"
p10
atp11
Rp12
sS'methods'
p13
g3
((lp14
S'Method.ANTAGONIST'
p15
atp16
Rp17
sS'topics'
p18
g3
((lp19
S"(35, u'\\\\bstress')"
p20
atp21
Rp22
sS'receptors'
p23
g3
((lp24
S'5ht1a'
p25
aS'5ht4'
p26
aS'5ht3'
p27
aS'5ht2c'
p28
aS'5ht1'
p29
aS'5ht2a'
p30
aS'5ht2'
p31
atp32
Rp33
sS'regions'
p34
g3
((lp35
S"(159, u'(?i)\\\\b(paraventriculars|paraventricular)(-|\\\\s+)?(nuclei|nucleus)\\\\b')"
p36
aS"(318, u'(?i)\\\\b(raphes|raphe)(-|\\\\s+)?(nuclei|nucleus)\\\\b')"
p37
atp38
Rp39
sS'year'
p40
V1998
p41
sS'agonists'
p42
g3
((lp43
S"(53, u'\\\\bmethysergide')"
p44
atp45
Rp46
sS'species'
p47
g3
((lp48
S"(5967, u'(?i)\\\\b(males|male)\\\\b')"
p49
aS"(4091, u'(?i)\\\\b(adults|adult)\\\\b')"
p50
aS"(5958, u'(?i)\\\\b(rats|rat)\\\\b')"
p51
atp52
Rp53
sb.