(ifile_types
ParseObject
p0
(dp1
S'methods'
p2
c__builtin__
set
p3
((lp4
tp5
Rp6
sS'topics'
p7
g3
((lp8
S"(23, u'\\\\bantipsychotic')"
p9
aS"(4, u'\\\\btreatment')"
p10
atp11
Rp12
sS'receptors'
p13
g3
((lp14
(S'5ht2'
p15
I519
I525
tp16
a(S'5ht1a'
p17
I1372
I1378
tp18
a(S'5ht2a'
p19
I1395
I1401
tp20
a(S'5ht2a'
p21
I519
I525
tp22
a(S'5ht1a'
p23
I506
I512
tp24
atp25
Rp26
sS'raw_text_methods'
p27
g3
((lp28
tp29
Rp30
sS'regions'
p31
g3
((lp32
S"(11, u'(?i)\\\\b(cerebrals|cerebral)\\\\b')"
p33
aS"(19, u'(?i)\\\\b(cortexes|cortex)\\\\b')"
p34
aS"(20, u'(?i)\\\\b(prefrontals|prefrontal)\\\\b')"
p35
aS"(17, u'(?i)\\\\b(caudates|caudate)\\\\b')"
p36
aS"(18, u'(?i)\\\\b(putamens|putamen)\\\\b')"
p37
atp38
Rp39
sS'year'
p40
V2012
p41
sS'species'
p42
g3
((lp43
S"(4, u'(?i)\\\\b(rats|rat)\\\\b')"
p44
atp45
Rp46
sb.