(ifile_types
ParseObject
p0
(dp1
S'antagonists'
p2
c__builtin__
set
p3
((lp4
S"(135, u'\\\\bondansetron')"
p5
aS"(90, u'\\\\bpromethazine')"
p6
aS"(139, u'\\\\bmetoclopramide')"
p7
aS"(22, u'\\\\bpropranolol')"
p8
atp9
Rp10
sS'methods'
p11
g3
((lp12
S'Method.ANTAGONIST'
p13
aS'Method.AGONIST'
p14
atp15
Rp16
sS'topics'
p17
g3
((lp18
S"(28, u'\\\\bemesis')"
p19
atp20
Rp21
sS'receptors'
p22
g3
((lp23
S'5ht3'
p24
atp25
Rp26
sS'regions'
p27
g3
((lp28
S"(246, u'(?i)(uncuses|uncus)')"
p29
aS"(34, u'(?i)(pon|pons)')"
p30
atp31
Rp32
sS'year'
p33
V2003
p34
sS'agonists'
p35
g3
((lp36
S"(181, u'\\\\bdom')"
p37
aS"(169, u'\\\\bfenfluramine')"
p38
aS"(213, u'\\\\bmetoclopramide')"
p39
atp40
Rp41
sS'species'
p42
g3
((lp43
S"(3550, u'(?i)(anis|ani)')"
p44
aS"(2568, u'(?i)(hens|hen)')"
p45
aS"(6753, u'(?i)(da|das)')"
p46
aS"(6682, u'(?i)(tera|teras)')"
p47
aS"(468, u'(?i)(oxen|ox)')"
p48
aS"(1055, u'(?i)(men|man)')"
p49
aS"(6249, u'(?i)(ants|ant)')"
p50
aS"(1349, u'(?i)(rams|ram)')"
p51
aS"(853, u'(?i)(minas|mina)')"
p52
aS"(1280, u'(?i)(shrews|shrew)')"
p53
aS"(2809, u'(?i)(toms|tom)')"
p54
atp55
Rp56
sb.