(ifile_types
ParseObject
p0
(dp1
S'antagonists'
p2
c__builtin__
set
p3
((lp4
tp5
Rp6
sS'methods'
p7
g3
((lp8
tp9
Rp10
sS'topics'
p11
g3
((lp12
tp13
Rp14
sS'receptors'
p15
g3
((lp16
S'5ht1b'
p17
aS'5ht5'
p18
aS'5ht3'
p19
aS'5ht2'
p20
aS'5ht1'
p21
aS'5ht2a'
p22
aS'5ht1a'
p23
atp24
Rp25
sS'regions'
p26
g3
((lp27
S"(362, u'(?i)(brains|brain)(-|\\\\s+)?(stems|stem)')"
p28
aS"(226, u'(?i)(nuclei|nucleus)(-|\\\\s+)?(accumben|accumbens)')"
p29
aS"(126, u'(?i)(thalamuses|thalamus)')"
p30
aS"(209, u'(?i)(amygdalas|amygdala)')"
p31
atp32
Rp33
sS'year'
p34
V1992
p35
sS'agonists'
p36
g3
((lp37
S"(193, u'\\\\bethanol')"
p38
aS"(155, u'\\\\bmem')"
p39
atp40
Rp41
sS'species'
p42
g3
((lp43
S"(5537, u'(?i)(hippos|hippo)')"
p44
aS"(6753, u'(?i)(da|das)')"
p45
aS"(949, u'(?i)(cohoes|coho)')"
p46
aS"(702, u'(?i)(genets|genet)')"
p47
aS"(4979, u'(?i)(cats|cat)')"
p48
aS"(479, u'(?i)(lings|ling)')"
p49
aS"(468, u'(?i)(oxen|ox)')"
p50
aS"(7094, u'(?i)(curs|cur)')"
p51
aS"(1054, u'(?i)(homoes|homo)')"
p52
aS"(4964, u'(?i)(serins|serin)')"
p53
aS"(3550, u'(?i)(anis|ani)')"
p54
aS"(5958, u'(?i)(rats|rat)')"
p55
aS"(3812, u'(?i)(studs|stud)')"
p56
aS"(6391, u'(?i)(asses|ass)')"
p57
aS"(5743, u'(?i)(bots|bot)')"
p58
aS"(6356, u'(?i)(ais|ai)')"
p59
atp60
Rp61
sb.