(ifile_types
ParseObject
p0
(dp1
S'methods'
p2
c__builtin__
set
p3
((lp4
tp5
Rp6
sS'topics'
p7
g3
((lp8
tp9
Rp10
sS'receptors'
p11
g3
((lp12
(S'5ht6'
p13
I1100
I1105
tp14
atp15
Rp16
sS'raw_text_methods'
p17
g3
((lp18
tp19
Rp20
sS'regions'
p21
g3
((lp22
S"(19, u'(?i)\\\\b(cortexes|cortex)\\\\b')"
p23
aS"(23, u'(?i)\\\\b(forebrains|forebrain)\\\\b')"
p24
aS"(17, u'(?i)\\\\b(caudates|caudate)\\\\b')"
p25
aS"(18, u'(?i)\\\\b(putamens|putamen)\\\\b')"
p26
atp27
Rp28
sS'year'
p29
V2001
p30
sS'species'
p31
g3
((lp32
S"(4, u'(?i)\\\\b(rats|rat)\\\\b')"
p33
atp34
Rp35
sb.