(ifile_types
ParseObject
p0
(dp1
S'methods'
p2
c__builtin__
set
p3
((lp4
S'Method.AGONIST'
p5
atp6
Rp7
sS'topics'
p8
g3
((lp9
S"(2, u'\\\\bdisorder')"
p10
atp11
Rp12
sS'receptors'
p13
g3
((lp14
(S'5ht1a'
p15
I321
I327
tp16
a(S'5ht1a'
p17
I673
I679
tp18
a(S'5ht1a'
p19
I937
I943
tp20
a(S'5ht1a'
p21
I182
I188
tp22
a(S'5ht1a'
p23
I879
I885
tp24
a(S'5ht1a'
p25
I1924
I1930
tp26
a(S'5ht1a'
p27
I1764
I1770
tp28
a(S'5ht1a'
p29
I1465
I1471
tp30
a(S'5ht1a'
p31
I351
I357
tp32
atp33
Rp34
sS'raw_text_methods'
p35
g3
((lp36
S"(13, u'\\\\bagonist')"
p37
aS"(22, u'\\\\bbuspirone')"
p38
atp39
Rp40
sS'regions'
p41
g3
((lp42
S"(20, u'(?i)\\\\b(prefrontals|prefrontal)\\\\b')"
p43
aS"(19, u'(?i)\\\\b(cortexes|cortex)\\\\b')"
p44
atp45
Rp46
sS'year'
p47
V2012
p48
sS'species'
p49
g3
((lp50
S"(4, u'(?i)\\\\b(rats|rat)\\\\b')"
p51
atp52
Rp53
sb.