(ifile_types
ParseObject
p0
(dp1
S'methods'
p2
c__builtin__
set
p3
((lp4
S'Method.ANTAGONIST'
p5
aS'Method.AGONIST'
p6
atp7
Rp8
sS'topics'
p9
g3
((lp10
tp11
Rp12
sS'receptors'
p13
g3
((lp14
(S'5ht2a'
p15
I340
I346
tp16
a(S'5ht2a'
p17
I1589
I1595
tp18
a(S'5ht2c'
p19
I75
I81
tp20
a(S'5ht2a'
p21
I430
I436
tp22
a(S'5ht2c'
p23
I451
I457
tp24
a(S'5ht2c'
p25
I1600
I1606
tp26
a(S'5ht2a'
p27
I64
I70
tp28
a(S'5ht2'
p29
I229
I234
tp30
atp31
Rp32
sS'raw_text_methods'
p33
g3
((lp34
S"(13, u'\\\\bagonist')"
p35
aS"(53, u'\\\\bketanserin')"
p36
aS"(50, u'\\\\bm100907')"
p37
aS"(12, u'\\\\bantagonist')"
p38
atp39
Rp40
sS'regions'
p41
g3
((lp42
tp43
Rp44
sS'year'
p45
V2013
p46
sS'species'
p47
g3
((lp48
S"(4, u'(?i)\\\\b(rats|rat)\\\\b')"
p49
atp50
Rp51
sb.