(ifile_types
ParseObject
p0
(dp1
S'methods'
p2
c__builtin__
set
p3
((lp4
S'Method.ANTAGONIST'
p5
atp6
Rp7
sS'topics'
p8
g3
((lp9
S"(24, u'\\\\banxiolytic')"
p10
aS"(8, u'\\\\banxi')"
p11
aS"(33, u'\\\\blocomot')"
p12
aS"(4, u'\\\\btreatment')"
p13
atp14
Rp15
sS'receptors'
p16
g3
((lp17
(S'5ht1a'
p18
I1050
I1061
tp19
a(S'5ht1a'
p20
I39
I45
tp21
a(S'5ht1a'
p22
I1531
I1537
tp23
a(S'5ht1a'
p24
I1088
I1094
tp25
atp26
Rp27
sS'raw_text_methods'
p28
g3
((lp29
S"(51, u'\\\\bway100635')"
p30
aS"(36, u'\\\\bbenzodiazepine')"
p31
aS"(12, u'\\\\bantagonist')"
p32
atp33
Rp34
sS'regions'
p35
g3
((lp36
tp37
Rp38
sS'year'
p39
V2016
p40
sS'species'
p41
g3
((lp42
tp43
Rp44
sb.