(ifile_types
ParseObject
p0
(dp1
S'antagonists'
p2
c__builtin__
set
p3
((lp4
S"(53, u'\\\\bketanserin')"
p5
aS"(130, u'\\\\britanserin')"
p6
aS"(52, u'\\\\bmetergoline')"
p7
aS"(128, u'\\\\bketanserin')"
p8
aS"(54, u'\\\\britanserin')"
p9
aS"(35, u'\\\\bmetergoline')"
p10
atp11
Rp12
sS'methods'
p13
g3
((lp14
S'Method.ANTAGONIST'
p15
aS'Method.AGONIST'
p16
atp17
Rp18
sS'topics'
p19
g3
((lp20
tp21
Rp22
sS'receptors'
p23
g3
((lp24
S'5ht1'
p25
aS'5ht2a'
p26
atp27
Rp28
sS'regions'
p29
g3
((lp30
tp31
Rp32
sS'year'
p33
V1999
p34
sS'agonists'
p35
g3
((lp36
S"(33, u'\\\\bdoi')"
p37
atp38
Rp39
sS'species'
p40
g3
((lp41
S"(5958, u'(?i)(rats|rat)')"
p42
aS"(479, u'(?i)(lings|ling)')"
p43
aS"(4163, u'(?i)(ermines|ermine)')"
p44
aS"(1055, u'(?i)(men|man)')"
p45
aS"(4964, u'(?i)(serins|serin)')"
p46
aS"(6249, u'(?i)(ants|ant)')"
p47
aS"(3812, u'(?i)(studs|stud)')"
p48
aS"(6356, u'(?i)(ais|ai)')"
p49
atp50
Rp51
sb.