(ifile_types
ParseObject
p0
(dp1
S'antagonists'
p2
c__builtin__
set
p3
((lp4
S"(50, u'\\\\bquetiapine')"
p5
aS"(112, u'\\\\bquetiapine')"
p6
aS"(131, u'\\\\bm1')"
p7
atp8
Rp9
sS'methods'
p10
g3
((lp11
S'Method.ANTAGONIST'
p12
aS'Method.AGONIST'
p13
atp14
Rp15
sS'topics'
p16
g3
((lp17
S"(9, u'\\\\bdepress')"
p18
atp19
Rp20
sS'receptors'
p21
g3
((lp22
S'5ht7'
p23
aS'5ht6'
p24
aS'5ht1a'
p25
aS'5ht6a'
p26
aS'5ht2b'
p27
aS'5ht2c'
p28
aS'5ht1e'
p29
aS'5ht1d'
p30
aS'5ht2a'
p31
aS'5ht5'
p32
aS'5ht3'
p33
atp34
Rp35
sS'regions'
p36
g3
((lp37
tp38
Rp39
sS'year'
p40
V2008
p41
sS'agonists'
p42
g3
((lp43
S"(64, u'\\\\bquetiapine')"
p44
atp45
Rp46
sS'species'
p47
g3
((lp48
S"(1057, u'(?i)\\\\b(humans|human)\\\\b')"
p49
aS"(163, u'(?i)\\\\b(mice|mouse)\\\\b')"
p50
aS"(3196, u'(?i)\\\\b(human|humans)\\\\b')"
p51
atp52
Rp53
sb.