(ifile_types
ParseObject
p0
(dp1
S'methods'
p2
c__builtin__
set
p3
((lp4
S'Method.PET'
p5
atp6
Rp7
sS'topics'
p8
g3
((lp9
S"(3, u'\\\\bclinical')"
p10
aS"(2, u'\\\\bdisorder')"
p11
atp12
Rp13
sS'receptors'
p14
g3
((lp15
(S'5ht7'
p16
I127
I132
tp17
a(S'5ht7'
p18
I232
I237
tp19
a(S'5ht7'
p20
I219
I229
tp21
a(S'5ht7'
p22
I1033
I1038
tp23
a(S'5ht7'
p24
I1463
I1468
tp25
a(S'5ht7'
p26
I484
I489
tp27
a(S'5ht7'
p28
I1536
I1541
tp29
a(S'5ht7'
p30
I1249
I1254
tp31
a(S'5ht7'
p32
I1912
I1917
tp33
atp34
Rp35
sS'raw_text_methods'
p36
g3
((lp37
S"(17, u'\\\\bpet')"
p38
aS"(19, u'\\\\bpositron emission tomography')"
p39
aS"(18, u'\\\\bimaging')"
p40
atp41
Rp42
sS'regions'
p43
g3
((lp44
S"(11, u'(?i)\\\\b(cerebrals|cerebral)\\\\b')"
p45
atp46
Rp47
sS'year'
p48
V2020
p49
sS'species'
p50
g3
((lp51
S"(4, u'(?i)\\\\b(rats|rat)\\\\b')"
p52
atp53
Rp54
sb.