(ifile_types
ParseObject
p0
(dp1
S'antagonists'
p2
c__builtin__
set
p3
((lp4
S"(21, u'\\\\bpindolol')"
p5
aS"(22, u'\\\\bpropranolol')"
p6
atp7
Rp8
sS'methods'
p9
g3
((lp10
S'Method.ANTAGONIST'
p11
atp12
Rp13
sS'topics'
p14
g3
((lp15
tp16
Rp17
sS'receptors'
p18
g3
((lp19
S'5ht1b'
p20
aS'5ht5'
p21
aS'5ht1f'
p22
aS'5ht1e'
p23
aS'5ht1d'
p24
aS'5ht1a'
p25
aS'5ht1'
p26
atp27
Rp28
sS'regions'
p29
g3
((lp30
tp31
Rp32
sS'year'
p33
V1994
p34
sS'agonists'
p35
g3
((lp36
S"(176, u'\\\\bdom')"
p37
atp38
Rp39
sS'species'
p40
g3
((lp41
S"(2395, u'(?i)\\\\b(mutants|mutant)\\\\b')"
p42
aS"(1057, u'(?i)\\\\b(humans|human)\\\\b')"
p43
aS"(3196, u'(?i)\\\\b(human|humans)\\\\b')"
p44
atp45
Rp46
sb.