(ifile_types
ParseObject
p0
(dp1
S'antagonists'
p2
c__builtin__
set
p3
((lp4
tp5
Rp6
sS'methods'
p7
g3
((lp8
S'Method.AGONIST'
p9
atp10
Rp11
sS'topics'
p12
g3
((lp13
tp14
Rp15
sS'receptors'
p16
g3
((lp17
S'5ht3'
p18
aS'5ht1a'
p19
aS'5ht3a'
p20
atp21
Rp22
sS'regions'
p23
g3
((lp24
tp25
Rp26
sS'year'
p27
V2003
p28
sS'agonists'
p29
g3
((lp30
tp31
Rp32
sS'species'
p33
g3
((lp34
S"(5537, u'(?i)(hippos|hippo)')"
p35
aS"(3812, u'(?i)(studs|stud)')"
p36
aS"(2568, u'(?i)(hens|hen)')"
p37
aS"(3137, u'(?i)(iguanids|iguanid)')"
p38
aS"(5510, u'(?i)(bays|bay)')"
p39
aS"(5958, u'(?i)(rats|rat)')"
p40
aS"(5743, u'(?i)(bots|bot)')"
p41
aS"(6753, u'(?i)(da|das)')"
p42
aS"(871, u'(?i)(bayas|baya)')"
p43
aS"(468, u'(?i)(oxen|ox)')"
p44
aS"(1349, u'(?i)(rams|ram)')"
p45
aS"(853, u'(?i)(minas|mina)')"
p46
aS"(3550, u'(?i)(anis|ani)')"
p47
aS"(3522, u'(?i)(tetras|tetra)')"
p48
aS"(7610, u'(?i)(ernes|erne)')"
p49
aS"(1414, u'(?i)(chars|char)')"
p50
aS"(7609, u'(?i)(erns|ern)')"
p51
aS"(6356, u'(?i)(ais|ai)')"
p52
aS"(6878, u'(?i)(guans|guan)')"
p53
aS"(1683, u'(?i)(terns|tern)')"
p54
atp55
Rp56
sb.