(ifile_types
ParseObject
p0
(dp1
S'antagonists'
p2
c__builtin__
set
p3
((lp4
tp5
Rp6
sS'methods'
p7
g3
((lp8
S'Method.PET'
p9
aS'Method.ANTAGONIST'
p10
atp11
Rp12
sS'topics'
p13
g3
((lp14
S"(14, u'\\\\bpsychosis')"
p15
atp16
Rp17
sS'receptors'
p18
g3
((lp19
S'5ht2'
p20
aS'5ht2a'
p21
atp22
Rp23
sS'regions'
p24
g3
((lp25
S"(256, u'(?i)\\\\b(orbitofrontals|orbitofrontal)(-|\\\\s+)?(cortexes|cortex)\\\\b')"
p26
aS"(257, u'(?i)\\\\b(dorsolaterals|dorsolateral)(-|\\\\s+)?(prefrontals|prefrontal)(-|\\\\s+)?(cortexes|cortex)\\\\b')"
p27
aS"(288, u'(?i)\\\\b(fusiforms|fusiform)(-|\\\\s+)?(gyruses|gyrus)\\\\b')"
p28
aS"(254, u'(?i)\\\\b(prefrontals|prefrontal)(-|\\\\s+)?(cortexes|cortex)\\\\b')"
p29
aS"(255, u'(?i)\\\\b(pres|pre)(-|\\\\s+)?(frontals|frontal)(-|\\\\s+)?(cortexes|cortex)\\\\b')"
p30
atp31
Rp32
sS'year'
p33
V2010
p34
sS'agonists'
p35
g3
((lp36
tp37
Rp38
sS'species'
p39
g3
((lp40
tp41
Rp42
sb.