(ifile_types
ParseObject
p0
(dp1
S'methods'
p2
c__builtin__
set
p3
((lp4
S'Method.PET'
p5
atp6
Rp7
sS'topics'
p8
g3
((lp9
S"(1, u'\\\\bpatient')"
p10
aS"(7, u'\\\\bdepressi')"
p11
aS"(5, u'\\\\btherap')"
p12
aS"(4, u'\\\\btreatment')"
p13
aS"(2, u'\\\\bdisorder')"
p14
atp15
Rp16
sS'receptors'
p17
g3
((lp18
(S'5ht2a'
p19
I269
I280
tp20
atp21
Rp22
sS'raw_text_methods'
p23
g3
((lp24
S"(17, u'\\\\bpet')"
p25
aS"(19, u'\\\\bpositron emission tomography')"
p26
atp27
Rp28
sS'regions'
p29
g3
((lp30
tp31
Rp32
sS'year'
p33
V2010
p34
sS'species'
p35
g3
((lp36
tp37
Rp38
sb.