(ifile_types
ParseObject
p0
(dp1
S'methods'
p2
c__builtin__
set
p3
((lp4
tp5
Rp6
sS'topics'
p7
g3
((lp8
S"(26, u'\\\\bbehav')"
p9
atp10
Rp11
sS'receptors'
p12
g3
((lp13
(S'5ht1'
p14
I330
I335
tp15
a(S'5ht1b'
p16
I57
I63
tp17
a(S'5ht2'
p18
I330
I336
tp19
a(S'5ht1b'
p20
I1547
I1553
tp21
a(S'5ht1a'
p22
I46
I52
tp23
a(S'5ht1b'
p24
I970
I976
tp25
a(S'5ht1a'
p26
I1646
I1652
tp27
a(S'5ht1b'
p28
I472
I478
tp29
a(S'5ht1a'
p30
I1536
I1542
tp31
a(S'5ht1a'
p32
I461
I467
tp33
a(S'5ht1a'
p34
I960
I966
tp35
a(S'5ht2'
p36
I1109
I1114
tp37
atp38
Rp39
sS'raw_text_methods'
p40
g3
((lp41
tp42
Rp43
sS'regions'
p44
g3
((lp45
tp46
Rp47
sS'year'
p48
V2005
p49
sS'species'
p50
g3
((lp51
S"(3, u'(?i)\\\\b(males|male)\\\\b')"
p52
aS"(4, u'(?i)\\\\b(rats|rat)\\\\b')"
p53
atp54
Rp55
sb.