(ifile_types
ParseObject
p0
(dp1
S'antagonists'
p2
c__builtin__
set
p3
((lp4
tp5
Rp6
sS'methods'
p7
g3
((lp8
S'Method.STAINING'
p9
atp10
Rp11
sS'topics'
p12
g3
((lp13
S"(6, u'\\\\bcognit')"
p14
atp15
Rp16
sS'receptors'
p17
g3
((lp18
S'5ht3'
p19
aS'5ht3a'
p20
atp21
Rp22
sS'regions'
p23
g3
((lp24
S"(71, u'(?i)(cerebellums|cerebellum)')"
p25
aS"(209, u'(?i)(amygdalas|amygdala)')"
p26
aS"(126, u'(?i)(thalamuses|thalamus)')"
p27
aS"(34, u'(?i)(pon|pons)')"
p28
aS"(241, u'(?i)(olfactories|olfactory)(-|\\\\s+)?(bulbs|bulb)')"
p29
aS"(248, u'(?i)(cerebrals|cerebral)(-|\\\\s+)?(cortexes|cortex)')"
p30
atp31
Rp32
sS'year'
p33
V2017
p34
sS'agonists'
p35
g3
((lp36
tp37
Rp38
sS'species'
p39
g3
((lp40
S"(5537, u'(?i)(hippos|hippo)')"
p41
aS"(6753, u'(?i)(da|das)')"
p42
aS"(5958, u'(?i)(rats|rat)')"
p43
aS"(7609, u'(?i)(erns|ern)')"
p44
aS"(163, u'(?i)(mice|mouse)')"
p45
aS"(1055, u'(?i)(men|man)')"
p46
aS"(7094, u'(?i)(curs|cur)')"
p47
aS"(6356, u'(?i)(ais|ai)')"
p48
aS"(6249, u'(?i)(ants|ant)')"
p49
aS"(3812, u'(?i)(studs|stud)')"
p50
aS"(7610, u'(?i)(ernes|erne)')"
p51
aS"(1683, u'(?i)(terns|tern)')"
p52
atp53
Rp54
sb.