(ifile_types
ParseObject
p0
(dp1
S'methods'
p2
c__builtin__
set
p3
((lp4
S'Method.AGONIST'
p5
atp6
Rp7
sS'topics'
p8
g3
((lp9
tp10
Rp11
sS'receptors'
p12
g3
((lp13
(S'5ht2a'
p14
I308
I314
tp15
a(S'5ht2a'
p16
I356
I362
tp17
a(S'5ht2a'
p18
I401
I407
tp19
a(S'5ht2a'
p20
I901
I907
tp21
a(S'5ht2a'
p22
I115
I121
tp23
a(S'5ht2c'
p24
I308
I316
tp25
a(S'5ht2a'
p26
I1031
I1037
tp27
a(S'5ht2a'
p28
I1282
I1288
tp29
atp30
Rp31
sS'raw_text_methods'
p32
g3
((lp33
S"(13, u'\\\\bagonist')"
p34
aS"(49, u'\\\\bdoi')"
p35
atp36
Rp37
sS'regions'
p38
g3
((lp39
tp40
Rp41
sS'year'
p42
V1999
p43
sS'species'
p44
g3
((lp45
tp46
Rp47
sb.