(ifile_types
ParseObject
p0
(dp1
S'methods'
p2
c__builtin__
set
p3
((lp4
S'Method.PET'
p5
aS'Method.AGONIST'
p6
atp7
Rp8
sS'topics'
p9
g3
((lp10
S"(22, u'\\\\bschizophreni')"
p11
aS"(1, u'\\\\bpatient')"
p12
aS"(23, u'\\\\bantipsychotic')"
p13
aS"(4, u'\\\\btreatment')"
p14
aS"(3, u'\\\\bclinical')"
p15
atp16
Rp17
sS'receptors'
p18
g3
((lp19
(S'5ht1a'
p20
I497
I503
tp21
a(S'5ht1a'
p22
I254
I260
tp23
a(S'5ht1a'
p24
I1491
I1497
tp25
a(S'5ht1a'
p26
I84
I90
tp27
atp28
Rp29
sS'raw_text_methods'
p30
g3
((lp31
S"(13, u'\\\\bagonist')"
p32
aS"(17, u'\\\\bpet')"
p33
atp34
Rp35
sS'regions'
p36
g3
((lp37
S"(19, u'(?i)\\\\b(cortexes|cortex)\\\\b')"
p38
atp39
Rp40
sS'year'
p41
V2013
p42
sS'species'
p43
g3
((lp44
tp45
Rp46
sb.