(ifile_types
ParseObject
p0
(dp1
S'antagonists'
p2
c__builtin__
set
p3
((lp4
S"(110, u'\\\\bsb ?242084')"
p5
aS"(32, u'\\\\bway ?100635')"
p6
aS"(96, u'\\\\bsb ?215505')"
p7
aS"(95, u'\\\\bsb ?206553')"
p8
atp9
Rp10
sS'methods'
p11
g3
((lp12
S'Method.ANTAGONIST'
p13
aS'Method.AGONIST'
p14
atp15
Rp16
sS'topics'
p17
g3
((lp18
S"(11, u'\\\\banxiolyt')"
p19
atp20
Rp21
sS'receptors'
p22
g3
((lp23
S'5ht1a'
p24
aS'5ht2b'
p25
aS'5ht2c'
p26
atp27
Rp28
sS'regions'
p29
g3
((lp30
tp31
Rp32
sS'year'
p33
V1998
p34
sS'agonists'
p35
g3
((lp36
S"(161, u'\\\\bmcpp')"
p37
aS"(24, u'\\\\bbuspirone')"
p38
aS"(146, u'\\\\bbw ?723c86')"
p39
atp40
Rp41
sS'species'
p42
g3
((lp43
S"(2568, u'(?i)(hens|hen)')"
p44
aS"(6753, u'(?i)(da|das)')"
p45
aS"(6682, u'(?i)(tera|teras)')"
p46
aS"(468, u'(?i)(oxen|ox)')"
p47
aS"(1055, u'(?i)(men|man)')"
p48
aS"(6249, u'(?i)(ants|ant)')"
p49
aS"(5743, u'(?i)(bots|bot)')"
p50
aS"(5958, u'(?i)(rats|rat)')"
p51
aS"(1961, u'(?i)(pens|pen)')"
p52
atp53
Rp54
sb.