(ifile_types
ParseObject
p0
(dp1
S'methods'
p2
c__builtin__
set
p3
((lp4
S'Method.ANTAGONIST'
p5
aS'Method.AGONIST'
p6
atp7
Rp8
sS'topics'
p9
g3
((lp10
S"(5, u'\\\\btherap')"
p11
aS"(26, u'\\\\bbehav')"
p12
atp13
Rp14
sS'receptors'
p15
g3
((lp16
(S'5ht2b'
p17
I812
I818
tp18
a(S'5ht2a'
p19
I805
I811
tp20
a(S'5ht2c'
p21
I923
I929
tp22
a(S'5ht5'
p23
I1151
I1156
tp24
a(S'5ht2c'
p25
I1055
I1061
tp26
a(S'5ht2a'
p27
I1048
I1054
tp28
a(S'5ht2a'
p29
I696
I707
tp30
a(S'5ht2c'
p31
I62
I68
tp32
a(S'5ht2c'
p33
I819
I825
tp34
a(S'5ht2b'
p35
I718
I724
tp36
a(S'5ht2b'
p37
I916
I922
tp38
atp39
Rp40
sS'raw_text_methods'
p41
g3
((lp42
S"(13, u'\\\\bagonist')"
p43
aS"(46, u'\\\\bspiperone')"
p44
aS"(53, u'\\\\bketanserin')"
p45
aS"(12, u'\\\\bantagonist')"
p46
atp47
Rp48
sS'regions'
p49
g3
((lp50
S"(9, u'(?i)\\\\b(cerebellums|cerebellum)\\\\b')"
p51
atp52
Rp53
sS'year'
p54
V1998
p55
sS'species'
p56
g3
((lp57
S"(4, u'(?i)\\\\b(rats|rat)\\\\b')"
p58
atp59
Rp60
sb.