(ifile_types
ParseObject
p0
(dp1
S'antagonists'
p2
c__builtin__
set
p3
((lp4
tp5
Rp6
sS'methods'
p7
g3
((lp8
S'Method.PET'
p9
atp10
Rp11
sS'topics'
p12
g3
((lp13
tp14
Rp15
sS'receptors'
p16
g3
((lp17
tp18
Rp19
sS'regions'
p20
g3
((lp21
S"(225, u'(?i)\\\\b(ventrals|ventral)(-|\\\\s+)?(striatums|striatum)\\\\b')"
p22
aS"(220, u'(?i)\\\\b(striatums|striatum)\\\\b')"
p23
atp24
Rp25
sS'year'
p26
V2007
p27
sS'agonists'
p28
g3
((lp29
tp30
Rp31
sS'species'
p32
g3
((lp33
S"(1070, u'(?i)\\\\b(pets|pet)\\\\b')"
p34
atp35
Rp36
sb.