(ifile_types
ParseObject
p0
(dp1
S'methods'
p2
c__builtin__
set
p3
((lp4
S'Method.STAINING'
p5
atp6
Rp7
sS'topics'
p8
g3
((lp9
S"(2, u'\\\\bdisorder')"
p10
atp11
Rp12
sS'receptors'
p13
g3
((lp14
(S'5ht1b'
p15
I1265
I1271
tp16
a(S'5ht1a'
p17
I1252
I1258
tp18
atp19
Rp20
sS'raw_text_methods'
p21
g3
((lp22
tp23
Rp24
sS'regions'
p25
g3
((lp26
S"(4, u'(?i)\\\\b(presynaptics|presynaptic)\\\\b')"
p27
atp28
Rp29
sS'year'
p30
V2010
p31
sS'species'
p32
g3
((lp33
S"(1, u'(?i)\\\\b(mice|mouse)\\\\b')"
p34
atp35
Rp36
sb.