(ifile_types
ParseObject
p0
(dp1
S'antagonists'
p2
c__builtin__
set
p3
((lp4
tp5
Rp6
sS'methods'
p7
g3
((lp8
S'Method.AGONIST'
p9
aS'Method.OPTOGENETICS'
p10
atp11
Rp12
sS'topics'
p13
g3
((lp14
S"(12, u'\\\\banxiogen')"
p15
aS"(10, u'\\\\banxiety')"
p16
atp17
Rp18
sS'receptors'
p19
g3
((lp20
S'5ht1b'
p21
atp22
Rp23
sS'regions'
p24
g3
((lp25
S"(254, u'(?i)\\\\b(prefrontals|prefrontal)(-|\\\\s+)?(cortexes|cortex)\\\\b')"
p26
aS"(126, u'(?i)\\\\b(thalamuses|thalamus)\\\\b')"
p27
aS"(255, u'(?i)\\\\b(pres|pre)(-|\\\\s+)?(frontals|frontal)(-|\\\\s+)?(cortexes|cortex)\\\\b')"
p28
atp29
Rp30
sS'year'
p31
V2016
p32
sS'agonists'
p33
g3
((lp34
tp35
Rp36
sS'species'
p37
g3
((lp38
S"(163, u'(?i)\\\\b(mice|mouse)\\\\b')"
p39
atp40
Rp41
sb.