(ifile_types
ParseObject
p0
(dp1
S'antagonists'
p2
c__builtin__
set
p3
((lp4
S"(27, u'\\\\bspiperone')"
p5
aS"(21, u'\\\\bpindolol')"
p6
aS"(22, u'\\\\bpropranolol')"
p7
atp8
Rp9
sS'methods'
p10
g3
((lp11
S'Method.ANTAGONIST'
p12
atp13
Rp14
sS'topics'
p15
g3
((lp16
S"(6, u'\\\\bcognit')"
p17
aS"(9, u'\\\\bdepress')"
p18
aS"(34, u'\\\\bdementia')"
p19
aS"(7, u'\\\\bmemory')"
p20
atp21
Rp22
sS'receptors'
p23
g3
((lp24
S'5ht1a'
p25
aS'5ht2a'
p26
atp27
Rp28
sS'regions'
p29
g3
((lp30
tp31
Rp32
sS'year'
p33
V2001
p34
sS'agonists'
p35
g3
((lp36
S"(214, u'\\\\bsulpiride')"
p37
aS"(155, u'\\\\bmem')"
p38
atp39
Rp40
sS'species'
p41
g3
((lp42
S"(6753, u'(?i)(da|das)')"
p43
aS"(2568, u'(?i)(hens|hen)')"
p44
aS"(7609, u'(?i)(erns|ern)')"
p45
aS"(1049, u'(?i)(elands|eland)')"
p46
aS"(163, u'(?i)(mice|mouse)')"
p47
aS"(1055, u'(?i)(men|man)')"
p48
aS"(6249, u'(?i)(ants|ant)')"
p49
aS"(4979, u'(?i)(cats|cat)')"
p50
aS"(3550, u'(?i)(anis|ani)')"
p51
aS"(5958, u'(?i)(rats|rat)')"
p52
aS"(6356, u'(?i)(ais|ai)')"
p53
aS"(6391, u'(?i)(asses|ass)')"
p54
aS"(2809, u'(?i)(toms|tom)')"
p55
aS"(5743, u'(?i)(bots|bot)')"
p56
aS"(1683, u'(?i)(terns|tern)')"
p57
aS"(7552, u'(?i)(bats|bat)')"
p58
atp59
Rp60
sb.