(ifile_types
ParseObject
p0
(dp1
S'antagonists'
p2
c__builtin__
set
p3
((lp4
S"(198, u'\\\\bsb ?269970')"
p5
aS"(31, u'\\\\bway ?100635')"
p6
atp7
Rp8
sS'methods'
p9
g3
((lp10
S'Method.ANTAGONIST'
p11
atp12
Rp13
sS'topics'
p14
g3
((lp15
S"(8, u'\\\\blearning')"
p16
aS"(35, u'\\\\bstress')"
p17
aS"(9, u'\\\\bdepress')"
p18
aS"(10, u'\\\\banxiety')"
p19
aS"(7, u'\\\\bmemory')"
p20
atp21
Rp22
sS'receptors'
p23
g3
((lp24
S'5ht7'
p25
aS'5ht7a'
p26
aS'5ht1a'
p27
atp28
Rp29
sS'regions'
p30
g3
((lp31
tp32
Rp33
sS'year'
p34
V2008
p35
sS'agonists'
p36
g3
((lp37
S"(149, u'\\\\bmem')"
p38
aS"(85, u'\\\\b8 ?oh ?dpat')"
p39
atp40
Rp41
sS'species'
p42
g3
((lp43
S"(7058, u'(?i)\\\\b(does|doe)\\\\b')"
p44
aS"(5958, u'(?i)\\\\b(rats|rat)\\\\b')"
p45
atp46
Rp47
sb.