(ifile_types
ParseObject
p0
(dp1
S'antagonists'
p2
c__builtin__
set
p3
((lp4
tp5
Rp6
sS'methods'
p7
g3
((lp8
S'Method.AGONIST'
p9
atp10
Rp11
sS'topics'
p12
g3
((lp13
S"(9, u'\\\\bdepress')"
p14
atp15
Rp16
sS'receptors'
p17
g3
((lp18
S'5ht3'
p19
aS'5ht1a'
p20
aS'5ht2c'
p21
aS'5ht5'
p22
aS'5ht2a'
p23
atp24
Rp25
sS'regions'
p26
g3
((lp27
S"(362, u'(?i)(brains|brain)(-|\\\\s+)?(stems|stem)')"
p28
aS"(318, u'(?i)(raphes|raphe)(-|\\\\s+)?(nuclei|nucleus)')"
p29
aS"(94, u'(?i)(dorsals|dorsal)(-|\\\\s+)?(raphes|raphe)(-|\\\\s+)?(nuclei|nucleus)')"
p30
atp31
Rp32
sS'year'
p33
V1994
p34
sS'agonists'
p35
g3
((lp36
S"(92, u'\\\\b8 ?oh ?dpat')"
p37
aS"(50, u'\\\\bipsapirone')"
p38
atp39
Rp40
sS'species'
p41
g3
((lp42
S"(3812, u'(?i)(studs|stud)')"
p43
aS"(6249, u'(?i)(ants|ant)')"
p44
aS"(6356, u'(?i)(ais|ai)')"
p45
aS"(6391, u'(?i)(asses|ass)')"
p46
aS"(1688, u'(?i)(ounces|ounce)')"
p47
aS"(1725, u'(?i)(clams|clam)')"
p48
aS"(468, u'(?i)(oxen|ox)')"
p49
aS"(1349, u'(?i)(rams|ram)')"
p50
aS"(5743, u'(?i)(bots|bot)')"
p51
aS"(3550, u'(?i)(anis|ani)')"
p52
aS"(3522, u'(?i)(tetras|tetra)')"
p53
aS"(821, u'(?i)(lice|louse)')"
p54
aS"(5537, u'(?i)(hippos|hippo)')"
p55
aS"(5958, u'(?i)(rats|rat)')"
p56
aS"(867, u'(?i)(tits|tit)')"
p57
aS"(1055, u'(?i)(men|man)')"
p58
aS"(5944, u'(?i)(soles|sole)')"
p59
aS"(6753, u'(?i)(da|das)')"
p60
aS"(1414, u'(?i)(chars|char)')"
p61
aS"(7058, u'(?i)(does|doe)')"
p62
aS"(2323, u'(?i)(bees|bee)')"
p63
aS"(1054, u'(?i)(homoes|homo)')"
p64
aS"(5917, u'(?i)(roaches|roach)')"
p65
atp66
Rp67
sb.