(ifile_types
ParseObject
p0
(dp1
S'antagonists'
p2
c__builtin__
set
p3
((lp4
S"(135, u'\\\\bondansetron')"
p5
atp6
Rp7
sS'methods'
p8
g3
((lp9
S'Method.ANTAGONIST'
p10
atp11
Rp12
sS'topics'
p13
g3
((lp14
S"(32, u'\\\\bnausea')"
p15
aS"(28, u'\\\\bemesis')"
p16
aS"(24, u'\\\\banalgesi')"
p17
atp18
Rp19
sS'receptors'
p20
g3
((lp21
S'5ht3a'
p22
atp23
Rp24
sS'regions'
p25
g3
((lp26
S"(34, u'(?i)(pon|pons)')"
p27
atp28
Rp29
sS'year'
p30
V2001
p31
sS'agonists'
p32
g3
((lp33
tp34
Rp35
sS'species'
p36
g3
((lp37
S"(2670, u'(?i)(arabs|arab)')"
p38
aS"(5958, u'(?i)(rats|rat)')"
p39
aS"(6753, u'(?i)(da|das)')"
p40
aS"(4091, u'(?i)(adults|adult)')"
p41
aS"(1055, u'(?i)(men|man)')"
p42
aS"(6249, u'(?i)(ants|ant)')"
p43
aS"(3592, u'(?i)(ravens|raven)')"
p44
aS"(5743, u'(?i)(bots|bot)')"
p45
aS"(3550, u'(?i)(anis|ani)')"
p46
aS"(3812, u'(?i)(studs|stud)')"
p47
aS"(4247, u'(?i)(tatus|tatu)')"
p48
aS"(2809, u'(?i)(toms|tom)')"
p49
aS"(6356, u'(?i)(ais|ai)')"
p50
aS"(7552, u'(?i)(bats|bat)')"
p51
atp52
Rp53
sb.