(ifile_types
ParseObject
p0
(dp1
S'antagonists'
p2
c__builtin__
set
p3
((lp4
S"(23, u'\\\\brisperidone')"
p5
aS"(57, u'\\\\bolanzapine')"
p6
aS"(59, u'\\\\brisperidone')"
p7
aS"(68, u'\\\\bchlorpromazine')"
p8
aS"(124, u'\\\\bolanzapine')"
p9
atp10
Rp11
sS'methods'
p12
g3
((lp13
tp14
Rp15
sS'topics'
p16
g3
((lp17
tp18
Rp19
sS'receptors'
p20
g3
((lp21
S'5ht5'
p22
aS'5ht2a'
p23
atp24
Rp25
sS'regions'
p26
g3
((lp27
tp28
Rp29
sS'year'
p30
V2000
p31
sS'agonists'
p32
g3
((lp33
S"(66, u'\\\\bperospirone')"
p34
aS"(64, u'\\\\bolanzapine')"
p35
atp36
Rp37
sS'species'
p38
g3
((lp39
S"(6356, u'(?i)(ais|ai)')"
p40
aS"(5958, u'(?i)(rats|rat)')"
p41
aS"(468, u'(?i)(oxen|ox)')"
p42
aS"(1055, u'(?i)(men|man)')"
p43
aS"(6249, u'(?i)(ants|ant)')"
p44
atp45
Rp46
sb.