(ifile_types
ParseObject
p0
(dp1
S'antagonists'
p2
c__builtin__
set
p3
((lp4
S"(43, u'\\\\bgr ?127935')"
p5
aS"(31, u'\\\\bway ?100635')"
p6
atp7
Rp8
sS'methods'
p9
g3
((lp10
S'Method.ANTAGONIST'
p11
aS'Method.AGONIST'
p12
atp13
Rp14
sS'topics'
p15
g3
((lp16
S"(21, u'\\\\bpain')"
p17
aS"(24, u'\\\\banalgesi')"
p18
atp19
Rp20
sS'receptors'
p21
g3
((lp22
S'5ht1b'
p23
aS'5ht1a'
p24
aS'5ht1d'
p25
atp26
Rp27
sS'regions'
p28
g3
((lp29
tp30
Rp31
sS'year'
p32
V2002
p33
sS'agonists'
p34
g3
((lp35
S"(25, u'\\\\bdihydroergotamine')"
p36
aS"(96, u'\\\\bsumatriptan')"
p37
aS"(97, u'\\\\bzolmitriptan')"
p38
atp39
Rp40
sS'species'
p41
g3
((lp42
S"(1057, u'(?i)\\\\b(humans|human)\\\\b')"
p43
aS"(5958, u'(?i)\\\\b(rats|rat)\\\\b')"
p44
aS"(3196, u'(?i)\\\\b(human|humans)\\\\b')"
p45
atp46
Rp47
sb.