(ifile_types
ParseObject
p0
(dp1
S'methods'
p2
c__builtin__
set
p3
((lp4
S'Method.AGONIST'
p5
atp6
Rp7
sS'topics'
p8
g3
((lp9
S"(4, u'\\\\btreatment')"
p10
atp11
Rp12
sS'receptors'
p13
g3
((lp14
(S'5ht2a'
p15
I1852
I1858
tp16
a(S'5ht5'
p17
I145
I155
tp18
a(S'5ht2a'
p19
I865
I871
tp20
a(S'5ht2a'
p21
I329
I335
tp22
a(S'5ht2a'
p23
I1324
I1330
tp24
a(S'5ht2a'
p25
I1456
I1462
tp26
a(S'5ht5'
p27
I297
I307
tp28
a(S'5ht2a'
p29
I1192
I1198
tp30
a(S'5ht2a'
p31
I934
I940
tp32
atp33
Rp34
sS'raw_text_methods'
p35
g3
((lp36
S"(13, u'\\\\bagonist')"
p37
atp38
Rp39
sS'regions'
p40
g3
((lp41
tp42
Rp43
sS'year'
p44
V2008
p45
sS'species'
p46
g3
((lp47
S"(4, u'(?i)\\\\b(rats|rat)\\\\b')"
p48
atp49
Rp50
sb.