(ifile_types
ParseObject
p0
(dp1
S'methods'
p2
c__builtin__
set
p3
((lp4
S'Method.PET'
p5
aS'Method.KNOCKOUT'
p6
atp7
Rp8
sS'topics'
p9
g3
((lp10
tp11
Rp12
sS'receptors'
p13
g3
((lp14
(S'5ht1a'
p15
I43
I54
tp16
a(S'5ht1a'
p17
I2192
I2198
tp18
a(S'5ht1a'
p19
I408
I414
tp20
atp21
Rp22
sS'raw_text_methods'
p23
g3
((lp24
S"(1, u'\\\\bneuroimag')"
p25
aS"(17, u'\\\\bpet')"
p26
aS"(19, u'\\\\bpositron emission tomography')"
p27
atp28
Rp29
sS'regions'
p30
g3
((lp31
tp32
Rp33
sS'year'
p34
V2016
p35
sS'species'
p36
g3
((lp37
S"(1, u'(?i)\\\\b(mice|mouse)\\\\b')"
p38
aS"(5, u'(?i)\\\\b(mices|mice)\\\\b')"
p39
atp40
Rp41
sb.