(ifile_types
ParseObject
p0
(dp1
S'antagonists'
p2
c__builtin__
set
p3
((lp4
tp5
Rp6
sS'methods'
p7
g3
((lp8
S'Method.ANTAGONIST'
p9
aS'Method.AGONIST'
p10
atp11
Rp12
sS'topics'
p13
g3
((lp14
S"(9, u'\\\\bdepress')"
p15
atp16
Rp17
sS'receptors'
p18
g3
((lp19
S'5ht1b'
p20
aS'5ht1a'
p21
aS'5ht2c'
p22
aS'5ht2'
p23
aS'5ht2a'
p24
atp25
Rp26
sS'regions'
p27
g3
((lp28
S"(241, u'(?i)\\\\b(olfactories|olfactory)(-|\\\\s+)?(bulbs|bulb)\\\\b')"
p29
aS"(396, u'(?i)\\\\b(subventriculars|subventricular)(-|\\\\s+)?(zones|zone)\\\\b')"
p30
aS"(203, u'(?i)\\\\b(dentates|dentate)(-|\\\\s+)?(gyruses|gyrus)\\\\b')"
p31
atp32
Rp33
sS'year'
p34
V2004
p35
sS'agonists'
p36
g3
((lp37
tp38
Rp39
sS'species'
p40
g3
((lp41
S"(3152, u'(?i)\\\\b(layers|layer)\\\\b')"
p42
aS"(4091, u'(?i)\\\\b(adults|adult)\\\\b')"
p43
atp44
Rp45
sb.