(ifile_types
ParseObject
p0
(dp1
S'methods'
p2
c__builtin__
set
p3
((lp4
S'Method.PET'
p5
atp6
Rp7
sS'topics'
p8
g3
((lp9
S"(30, u'\\\\bpain')"
p10
aS"(15, u'\\\\bmemory')"
p11
atp12
Rp13
sS'receptors'
p14
g3
((lp15
(S'5ht1a'
p16
I1066
I1072
tp17
a(S'5ht1a'
p18
I1253
I1259
tp19
a(S'5ht1a'
p20
I876
I882
tp21
a(S'5ht1a'
p22
I222
I228
tp23
a(S'5ht1a'
p24
I76
I82
tp25
a(S'5ht1a'
p26
I541
I547
tp27
atp28
Rp29
sS'raw_text_methods'
p30
g3
((lp31
S"(19, u'\\\\bpositron emission tomography')"
p32
atp33
Rp34
sS'regions'
p35
g3
((lp36
S"(20, u'(?i)\\\\b(prefrontals|prefrontal)\\\\b')"
p37
aS"(19, u'(?i)\\\\b(cortexes|cortex)\\\\b')"
p38
atp39
Rp40
sS'year'
p41
V2009
p42
sS'species'
p43
g3
((lp44
tp45
Rp46
sb.