(ifile_types
ParseObject
p0
(dp1
S'antagonists'
p2
c__builtin__
set
p3
((lp4
tp5
Rp6
sS'methods'
p7
g3
((lp8
tp9
Rp10
sS'topics'
p11
g3
((lp12
S"(35, u'\\\\bstress')"
p13
atp14
Rp15
sS'receptors'
p16
g3
((lp17
S'5ht5'
p18
atp19
Rp20
sS'regions'
p21
g3
((lp22
S"(34, u'(?i)(pon|pons)')"
p23
atp24
Rp25
sS'year'
p26
V2018
p27
sS'agonists'
p28
g3
((lp29
tp30
Rp31
sS'species'
p32
g3
((lp33
S"(5958, u'(?i)(rats|rat)')"
p34
aS"(5176, u'(?i)(tegs|teg)')"
p35
aS"(479, u'(?i)(lings|ling)')"
p36
aS"(1349, u'(?i)(rams|ram)')"
p37
aS"(6260, u'(?i)(fields|field)(-|\\\\s+)?(crickets|cricket)')"
p38
aS"(1055, u'(?i)(men|man)')"
p39
aS"(4979, u'(?i)(cats|cat)')"
p40
aS"(3550, u'(?i)(anis|ani)')"
p41
aS"(4003, u'(?i)(crickets|cricket)')"
p42
aS"(1961, u'(?i)(pens|pen)')"
p43
aS"(3812, u'(?i)(studs|stud)')"
p44
aS"(6391, u'(?i)(asses|ass)')"
p45
aS"(1253, u'(?i)(insects|insect)')"
p46
aS"(6356, u'(?i)(ais|ai)')"
p47
atp48
Rp49
sb.