(ifile_types
ParseObject
p0
(dp1
S'methods'
p2
c__builtin__
set
p3
((lp4
S'Method.AGONIST'
p5
atp6
Rp7
sS'topics'
p8
g3
((lp9
S"(26, u'\\\\bbehav')"
p10
aS"(2, u'\\\\bdisorder')"
p11
aS"(7, u'\\\\bdepressi')"
p12
aS"(29, u'\\\\bhyperactiv')"
p13
aS"(8, u'\\\\banxi')"
p14
aS"(4, u'\\\\btreatment')"
p15
atp16
Rp17
sS'receptors'
p18
g3
((lp19
(S'5ht2a'
p20
I548
I554
tp21
a(S'5ht2c'
p22
I559
I565
tp23
atp24
Rp25
sS'raw_text_methods'
p26
g3
((lp27
S"(13, u'\\\\bagonist')"
p28
aS"(41, u'\\\\bhaloperidol')"
p29
aS"(49, u'\\\\bdoi')"
p30
atp31
Rp32
sS'regions'
p33
g3
((lp34
S"(11, u'(?i)\\\\b(cerebrals|cerebral)\\\\b')"
p35
aS"(19, u'(?i)\\\\b(cortexes|cortex)\\\\b')"
p36
aS"(20, u'(?i)\\\\b(prefrontals|prefrontal)\\\\b')"
p37
atp38
Rp39
sS'year'
p40
V2019
p41
sS'species'
p42
g3
((lp43
S"(1, u'(?i)\\\\b(mice|mouse)\\\\b')"
p44
aS"(5, u'(?i)\\\\b(mices|mice)\\\\b')"
p45
aS"(3, u'(?i)\\\\b(males|male)\\\\b')"
p46
aS"(4, u'(?i)\\\\b(rats|rat)\\\\b')"
p47
atp48
Rp49
sb.