(ifile_types
ParseObject
p0
(dp1
S'antagonists'
p2
c__builtin__
set
p3
((lp4
S"(130, u'\\\\britanserin')"
p5
aS"(14, u'\\\\bmethiothepin')"
p6
aS"(123, u'\\\\bclozapine')"
p7
aS"(56, u'\\\\bclozapine')"
p8
aS"(54, u'\\\\britanserin')"
p9
aS"(61, u'\\\\bmdl ?100907')"
p10
atp11
Rp12
sS'methods'
p13
g3
((lp14
S'Method.ANTAGONIST'
p15
atp16
Rp17
sS'topics'
p18
g3
((lp19
S"(4, u'\\\\blocomot')"
p20
atp21
Rp22
sS'receptors'
p23
g3
((lp24
S'5ht1a'
p25
aS'5ht1d'
p26
aS'5ht2a'
p27
atp28
Rp29
sS'regions'
p30
g3
((lp31
tp32
Rp33
sS'year'
p34
V1996
p35
sS'agonists'
p36
g3
((lp37
S"(153, u'\\\\bmdma')"
p38
aS"(193, u'\\\\bethanol')"
p39
aS"(27, u'\\\\bclozapine')"
p40
atp41
Rp42
sS'species'
p43
g3
((lp44
S"(6753, u'(?i)(da|das)')"
p45
aS"(2568, u'(?i)(hens|hen)')"
p46
aS"(4964, u'(?i)(serins|serin)')"
p47
aS"(468, u'(?i)(oxen|ox)')"
p48
aS"(3592, u'(?i)(ravens|raven)')"
p49
aS"(6249, u'(?i)(ants|ant)')"
p50
aS"(853, u'(?i)(minas|mina)')"
p51
aS"(5958, u'(?i)(rats|rat)')"
p52
aS"(4979, u'(?i)(cats|cat)')"
p53
aS"(1961, u'(?i)(pens|pen)')"
p54
aS"(1414, u'(?i)(chars|char)')"
p55
aS"(3812, u'(?i)(studs|stud)')"
p56
atp57
Rp58
sb.