(ifile_types
ParseObject
p0
(dp1
S'antagonists'
p2
c__builtin__
set
p3
((lp4
tp5
Rp6
sS'methods'
p7
g3
((lp8
S'Method.ANTAGONIST'
p9
aS'Method.AGONIST'
p10
atp11
Rp12
sS'topics'
p13
g3
((lp14
tp15
Rp16
sS'receptors'
p17
g3
((lp18
S'5ht3'
p19
atp20
Rp21
sS'regions'
p22
g3
((lp23
S"(285, u'(?i)(entorhinals|entorhinal)(-|\\\\s+)?(cortexes|cortex)')"
p24
aS"(34, u'(?i)(pon|pons)')"
p25
atp26
Rp27
sS'year'
p28
V1991
p29
sS'agonists'
p30
g3
((lp31
S"(195, u'\\\\bphenylbiguanide')"
p32
aS"(196, u'\\\\bquipazine')"
p33
aS"(190, u'\\\\b2 ?methyl ?5 ?ht')"
p34
atp35
Rp36
sS'species'
p37
g3
((lp38
S"(1070, u'(?i)(pets|pet)')"
p39
aS"(1688, u'(?i)(ounces|ounce)')"
p40
aS"(2568, u'(?i)(hens|hen)')"
p41
aS"(3137, u'(?i)(iguanids|iguanid)')"
p42
aS"(5958, u'(?i)(rats|rat)')"
p43
aS"(473, u'(?i)(rabbits|rabbit)')"
p44
aS"(468, u'(?i)(oxen|ox)')"
p45
aS"(1055, u'(?i)(men|man)')"
p46
aS"(3726, u'(?i)(mates|mate)')"
p47
aS"(1054, u'(?i)(homoes|homo)')"
p48
aS"(3812, u'(?i)(studs|stud)')"
p49
aS"(3550, u'(?i)(anis|ani)')"
p50
aS"(7094, u'(?i)(curs|cur)')"
p51
aS"(1414, u'(?i)(chars|char)')"
p52
aS"(6878, u'(?i)(guans|guan)')"
p53
aS"(6356, u'(?i)(ais|ai)')"
p54
aS"(6249, u'(?i)(ants|ant)')"
p55
atp56
Rp57
sb.