(ifile_types
ParseObject
p0
(dp1
S'methods'
p2
c__builtin__
set
p3
((lp4
S'Method.ANTAGONIST'
p5
atp6
Rp7
sS'topics'
p8
g3
((lp9
S"(8, u'\\\\banxi')"
p10
aS"(33, u'\\\\blocomot')"
p11
atp12
Rp13
sS'receptors'
p14
g3
((lp15
(S'5ht2c'
p16
I259
I265
tp17
a(S'5ht2c'
p18
I1195
I1201
tp19
a(S'5ht2c'
p20
I1568
I1574
tp21
atp22
Rp23
sS'raw_text_methods'
p24
g3
((lp25
S"(53, u'\\\\bketanserin')"
p26
aS"(40, u'\\\\bclozapine')"
p27
aS"(9, u'\\\\britanserin')"
p28
aS"(12, u'\\\\bantagonist')"
p29
atp30
Rp31
sS'regions'
p32
g3
((lp33
S"(15, u'(?i)\\\\b(substantias|substantia)(-|\\\\s+)?(nigras|nigra)\\\\b')"
p34
aS"(20, u'(?i)\\\\b(prefrontals|prefrontal)\\\\b')"
p35
aS"(19, u'(?i)\\\\b(cortexes|cortex)\\\\b')"
p36
aS"(12, u'(?i)\\\\b(amygdalas|amygdala)\\\\b')"
p37
atp38
Rp39
sS'year'
p40
V1999
p41
sS'species'
p42
g3
((lp43
tp44
Rp45
sb.