(ifile_types
ParseObject
p0
(dp1
S'antagonists'
p2
c__builtin__
set
p3
((lp4
tp5
Rp6
sS'methods'
p7
g3
((lp8
S'Method.ANTAGONIST'
p9
atp10
Rp11
sS'topics'
p12
g3
((lp13
S"(20, u'\\\\baggressi')"
p14
aS"(7, u'\\\\bmemory')"
p15
aS"(9, u'\\\\bdepress')"
p16
aS"(10, u'\\\\banxiety')"
p17
aS"(1, u'\\\\bmood')"
p18
atp19
Rp20
sS'receptors'
p21
g3
((lp22
S'5ht2c'
p23
atp24
Rp25
sS'regions'
p26
g3
((lp27
S"(277, u'(?i)(temporals|temporal)(-|\\\\s+)?(lobes|lobe)')"
p28
atp29
Rp30
sS'year'
p31
V2009
p32
sS'agonists'
p33
g3
((lp34
S"(155, u'\\\\bmem')"
p35
atp36
Rp37
sS'species'
p38
g3
((lp39
S"(5537, u'(?i)(hippos|hippo)')"
p40
aS"(5958, u'(?i)(rats|rat)')"
p41
aS"(7609, u'(?i)(erns|ern)')"
p42
aS"(6682, u'(?i)(tera|teras)')"
p43
aS"(1055, u'(?i)(men|man)')"
p44
aS"(1249, u'(?i)(carp|carp)')"
p45
aS"(6356, u'(?i)(ais|ai)')"
p46
aS"(6249, u'(?i)(ants|ant)')"
p47
aS"(3812, u'(?i)(studs|stud)')"
p48
aS"(6391, u'(?i)(asses|ass)')"
p49
aS"(1683, u'(?i)(terns|tern)')"
p50
atp51
Rp52
sb.