(ifile_types
ParseObject
p0
(dp1
S'methods'
p2
c__builtin__
set
p3
((lp4
S'Method.ANTAGONIST'
p5
aS'Method.AGONIST'
p6
atp7
Rp8
sS'topics'
p9
g3
((lp10
tp11
Rp12
sS'receptors'
p13
g3
((lp14
(S'5ht3'
p15
I490
I495
tp16
a(S'5ht1'
p17
I766
I771
tp18
a(S'5ht3'
p19
I79
I84
tp20
a(S'5ht3'
p21
I973
I978
tp22
a(S'5ht3'
p23
I264
I269
tp24
a(S'5ht2'
p25
I772
I777
tp26
atp27
Rp28
sS'raw_text_methods'
p29
g3
((lp30
S"(13, u'\\\\bagonist')"
p31
aS"(30, u'\\\\b2methyl')"
p32
aS"(28, u'\\\\bzacopride')"
p33
aS"(12, u'\\\\bantagonist')"
p34
atp35
Rp36
sS'regions'
p37
g3
((lp38
S"(19, u'(?i)\\\\b(cortexes|cortex)\\\\b')"
p39
aS"(7, u'(?i)\\\\b(entorhinals|entorhinal)\\\\b')"
p40
atp41
Rp42
sS'year'
p43
V1988
p44
sS'species'
p45
g3
((lp46
S"(4, u'(?i)\\\\b(rats|rat)\\\\b')"
p47
atp48
Rp49
sb.