(ifile_types
ParseObject
p0
(dp1
S'antagonists'
p2
c__builtin__
set
p3
((lp4
tp5
Rp6
sS'methods'
p7
g3
((lp8
tp9
Rp10
sS'topics'
p11
g3
((lp12
S"(4, u'\\\\blocomot')"
p13
atp14
Rp15
sS'receptors'
p16
g3
((lp17
S'5ht7'
p18
aS'5ht1b'
p19
aS'5ht7a'
p20
atp21
Rp22
sS'regions'
p23
g3
((lp24
S"(34, u'(?i)(pon|pons)')"
p25
atp26
Rp27
sS'year'
p28
V2012
p29
sS'agonists'
p30
g3
((lp31
tp32
Rp33
sS'species'
p34
g3
((lp35
S"(2323, u'(?i)(bees|bee)')"
p36
aS"(4624, u'(?i)(apes|ape)')"
p37
aS"(6753, u'(?i)(da|das)')"
p38
aS"(5958, u'(?i)(rats|rat)')"
p39
aS"(931, u'(?i)(divers|diver)')"
p40
aS"(5743, u'(?i)(bots|bot)')"
p41
aS"(479, u'(?i)(lings|ling)')"
p42
aS"(1055, u'(?i)(men|man)')"
p43
aS"(3726, u'(?i)(mates|mate)')"
p44
aS"(3152, u'(?i)(layers|layer)')"
p45
aS"(5176, u'(?i)(tegs|teg)')"
p46
aS"(3671, u'(?i)(drosophilas|drosophila)')"
p47
aS"(6356, u'(?i)(ais|ai)')"
p48
aS"(7609, u'(?i)(erns|ern)')"
p49
aS"(1253, u'(?i)(insects|insect)')"
p50
aS"(1683, u'(?i)(terns|tern)')"
p51
atp52
Rp53
sb.