(ifile_types
ParseObject
p0
(dp1
S'antagonists'
p2
c__builtin__
set
p3
((lp4
S"(54, u'\\\\britanserin')"
p5
aS"(130, u'\\\\britanserin')"
p6
aS"(135, u'\\\\bondansetron')"
p7
atp8
Rp9
sS'methods'
p10
g3
((lp11
S'Method.ANTAGONIST'
p12
aS'Method.AGONIST'
p13
atp14
Rp15
sS'topics'
p16
g3
((lp17
tp18
Rp19
sS'receptors'
p20
g3
((lp21
S'5ht3'
p22
aS'5ht1'
p23
atp24
Rp25
sS'regions'
p26
g3
((lp27
S"(285, u'(?i)(entorhinals|entorhinal)(-|\\\\s+)?(cortexes|cortex)')"
p28
atp29
Rp30
sS'year'
p31
V1993
p32
sS'agonists'
p33
g3
((lp34
S"(190, u'\\\\b2 ?methyl ?5 ?ht')"
p35
atp36
Rp37
sS'species'
p38
g3
((lp39
S"(6753, u'(?i)(da|das)')"
p40
aS"(2568, u'(?i)(hens|hen)')"
p41
aS"(6356, u'(?i)(ais|ai)')"
p42
aS"(4964, u'(?i)(serins|serin)')"
p43
aS"(7127, u'(?i)(monitors|monitor)')"
p44
aS"(468, u'(?i)(oxen|ox)')"
p45
aS"(1055, u'(?i)(men|man)')"
p46
aS"(6249, u'(?i)(ants|ant)')"
p47
aS"(2942, u'(?i)(daws|daw)')"
p48
aS"(5958, u'(?i)(rats|rat)')"
p49
aS"(4979, u'(?i)(cats|cat)')"
p50
aS"(1961, u'(?i)(pens|pen)')"
p51
aS"(3812, u'(?i)(studs|stud)')"
p52
aS"(6391, u'(?i)(asses|ass)')"
p53
aS"(821, u'(?i)(lice|louse)')"
p54
aS"(5949, u'(?i)(dogs|dog)')"
p55
atp56
Rp57
sb.