(ifile_types
ParseObject
p0
(dp1
S'methods'
p2
c__builtin__
set
p3
((lp4
tp5
Rp6
sS'topics'
p7
g3
((lp8
S"(7, u'\\\\bdepressi')"
p9
aS"(4, u'\\\\btreatment')"
p10
atp11
Rp12
sS'receptors'
p13
g3
((lp14
(S'5ht2a'
p15
I452
I458
tp16
a(S'5ht2a'
p17
I425
I431
tp18
a(S'5ht2a'
p19
I1034
I1040
tp20
a(S'5ht2a'
p21
I94
I100
tp22
a(S'5ht2a'
p23
I679
I685
tp24
a(S'5ht2a'
p25
I252
I258
tp26
a(S'5ht2a'
p27
I720
I726
tp28
a(S'5ht2a'
p29
I1206
I1212
tp30
atp31
Rp32
sS'raw_text_methods'
p33
g3
((lp34
tp35
Rp36
sS'regions'
p37
g3
((lp38
S"(11, u'(?i)\\\\b(cerebrals|cerebral)\\\\b')"
p39
aS"(19, u'(?i)\\\\b(cortexes|cortex)\\\\b')"
p40
atp41
Rp42
sS'year'
p43
V2014
p44
sS'species'
p45
g3
((lp46
S"(2, u'(?i)\\\\b(females|female)\\\\b')"
p47
atp48
Rp49
sb.