(ifile_types
ParseObject
p0
(dp1
S'methods'
p2
c__builtin__
set
p3
((lp4
S'Method.STAINING'
p5
atp6
Rp7
sS'topics'
p8
g3
((lp9
S"(31, u'\\\\brespiratory')"
p10
aS"(26, u'\\\\bbehav')"
p11
atp12
Rp13
sS'receptors'
p14
g3
((lp15
(S'5ht4'
p16
I1551
I1556
tp17
a(S'5ht4'
p18
I382
I387
tp19
a(S'5ht4'
p20
I629
I634
tp21
a(S'5ht4a'
p22
I53
I64
tp23
a(S'5ht4'
p24
I565
I570
tp25
a(S'5ht4a'
p26
I939
I945
tp27
a(S'5ht4'
p28
I1674
I1679
tp29
a(S'5ht4'
p30
I1036
I1041
tp31
atp32
Rp33
sS'raw_text_methods'
p34
g3
((lp35
tp36
Rp37
sS'regions'
p38
g3
((lp39
tp40
Rp41
sS'year'
p42
V2008
p43
sS'species'
p44
g3
((lp45
S"(4, u'(?i)\\\\b(rats|rat)\\\\b')"
p46
atp47
Rp48
sb.