(ifile_types
ParseObject
p0
(dp1
S'antagonists'
p2
c__builtin__
set
p3
((lp4
tp5
Rp6
sS'methods'
p7
g3
((lp8
S'Method.AGONIST'
p9
atp10
Rp11
sS'topics'
p12
g3
((lp13
tp14
Rp15
sS'receptors'
p16
g3
((lp17
S'5ht1d'
p18
atp19
Rp20
sS'regions'
p21
g3
((lp22
S"(34, u'(?i)(pon|pons)')"
p23
atp24
Rp25
sS'year'
p26
V2001
p27
sS'agonists'
p28
g3
((lp29
S"(103, u'\\\\bsumatriptan')"
p30
aS"(6, u'\\\\b5 ?mt')"
p31
aS"(104, u'\\\\bzolmitriptan')"
p32
atp33
Rp34
sS'species'
p35
g3
((lp36
S"(6753, u'(?i)(da|das)')"
p37
aS"(2568, u'(?i)(hens|hen)')"
p38
aS"(3767, u'(?i)(olms|olm)')"
p39
aS"(4091, u'(?i)(adults|adult)')"
p40
aS"(468, u'(?i)(oxen|ox)')"
p41
aS"(1055, u'(?i)(men|man)')"
p42
aS"(6249, u'(?i)(ants|ant)')"
p43
aS"(4979, u'(?i)(cats|cat)')"
p44
aS"(5958, u'(?i)(rats|rat)')"
p45
aS"(1961, u'(?i)(pens|pen)')"
p46
aS"(3812, u'(?i)(studs|stud)')"
p47
aS"(2809, u'(?i)(toms|tom)')"
p48
aS"(6356, u'(?i)(ais|ai)')"
p49
atp50
Rp51
sb.