(ifile_types
ParseObject
p0
(dp1
S'antagonists'
p2
c__builtin__
set
p3
((lp4
S"(53, u'\\\\bketanserin')"
p5
aS"(128, u'\\\\bketanserin')"
p6
aS"(27, u'\\\\bspiperone')"
p7
aS"(117, u'\\\\bmianserin')"
p8
atp9
Rp10
sS'methods'
p11
g3
((lp12
S'Method.ANTAGONIST'
p13
atp14
Rp15
sS'topics'
p16
g3
((lp17
tp18
Rp19
sS'receptors'
p20
g3
((lp21
S'5ht1c'
p22
aS'5ht5'
p23
aS'5ht2c'
p24
atp25
Rp26
sS'regions'
p27
g3
((lp28
S"(34, u'(?i)(pon|pons)')"
p29
atp30
Rp31
sS'year'
p32
V1995
p33
sS'agonists'
p34
g3
((lp35
tp36
Rp37
sS'species'
p38
g3
((lp39
S"(2568, u'(?i)(hens|hen)')"
p40
aS"(6857, u'(?i)(ormers|ormer)')"
p41
aS"(4964, u'(?i)(serins|serin)')"
p42
aS"(7309, u'(?i)(gnats|gnat)')"
p43
aS"(468, u'(?i)(oxen|ox)')"
p44
aS"(1055, u'(?i)(men|man)')"
p45
aS"(6249, u'(?i)(ants|ant)')"
p46
aS"(853, u'(?i)(minas|mina)')"
p47
aS"(5838, u'(?i)(cubs|cub)')"
p48
aS"(5958, u'(?i)(rats|rat)')"
p49
aS"(4979, u'(?i)(cats|cat)')"
p50
aS"(1961, u'(?i)(pens|pen)')"
p51
aS"(3812, u'(?i)(studs|stud)')"
p52
aS"(1823, u'(?i)(merls|merl)')"
p53
aS"(821, u'(?i)(lice|louse)')"
p54
aS"(7552, u'(?i)(bats|bat)')"
p55
atp56
Rp57
sb.