(ifile_types
ParseObject
p0
(dp1
S'methods'
p2
c__builtin__
set
p3
((lp4
S'Method.ANTAGONIST'
p5
aS'Method.AGONIST'
p6
atp7
Rp8
sS'topics'
p9
g3
((lp10
S"(26, u'\\\\bbehav')"
p11
atp12
Rp13
sS'receptors'
p14
g3
((lp15
(S'5ht1a'
p16
I1159
I1165
tp17
a(S'5ht2'
p18
I1177
I1182
tp19
a(S'5ht2'
p20
I801
I806
tp21
a(S'5ht1c'
p22
I1183
I1189
tp23
a(S'5ht1a'
p24
I667
I673
tp25
a(S'5ht1a'
p26
I861
I867
tp27
a(S'5ht1c'
p28
I794
I800
tp29
atp30
Rp31
sS'raw_text_methods'
p32
g3
((lp33
S"(13, u'\\\\bagonist')"
p34
aS"(9, u'\\\\britanserin')"
p35
aS"(32, u'\\\\blesions')"
p36
aS"(12, u'\\\\bantagonist')"
p37
atp38
Rp39
sS'regions'
p40
g3
((lp41
tp42
Rp43
sS'year'
p44
V1992
p45
sS'species'
p46
g3
((lp47
S"(3, u'(?i)\\\\b(males|male)\\\\b')"
p48
aS"(4, u'(?i)\\\\b(rats|rat)\\\\b')"
p49
atp50
Rp51
sb.