(ifile_types
ParseObject
p0
(dp1
S'antagonists'
p2
c__builtin__
set
p3
((lp4
S"(53, u'\\\\bketanserin')"
p5
aS"(128, u'\\\\bketanserin')"
p6
aS"(123, u'\\\\bclozapine')"
p7
aS"(56, u'\\\\bclozapine')"
p8
atp9
Rp10
sS'methods'
p11
g3
((lp12
S'Method.KNOCKOUT'
p13
aS'Method.ANTAGONIST'
p14
aS'Method.AGONIST'
p15
atp16
Rp17
sS'topics'
p18
g3
((lp19
S"(17, u'\\\\bgroom')"
p20
aS"(20, u'\\\\baggressi')"
p21
aS"(4, u'\\\\blocomot')"
p22
atp23
Rp24
sS'receptors'
p25
g3
((lp26
S'5ht5'
p27
aS'5ht2c'
p28
aS'5ht2a'
p29
atp30
Rp31
sS'regions'
p32
g3
((lp33
S"(34, u'(?i)(pon|pons)')"
p34
atp35
Rp36
sS'year'
p37
V2013
p38
sS'agonists'
p39
g3
((lp40
S"(33, u'\\\\bdoi')"
p41
aS"(27, u'\\\\bclozapine')"
p42
atp43
Rp44
sS'species'
p45
g3
((lp46
S"(2568, u'(?i)(hens|hen)')"
p47
aS"(5958, u'(?i)(rats|rat)')"
p48
aS"(163, u'(?i)(mice|mouse)')"
p49
aS"(468, u'(?i)(oxen|ox)')"
p50
aS"(6249, u'(?i)(ants|ant)')"
p51
aS"(1054, u'(?i)(homoes|homo)')"
p52
aS"(3812, u'(?i)(studs|stud)')"
p53
aS"(3550, u'(?i)(anis|ani)')"
p54
aS"(7094, u'(?i)(curs|cur)')"
p55
aS"(1414, u'(?i)(chars|char)')"
p56
aS"(6356, u'(?i)(ais|ai)')"
p57
aS"(4964, u'(?i)(serins|serin)')"
p58
atp59
Rp60
sb.