(ifile_types
ParseObject
p0
(dp1
S'methods'
p2
c__builtin__
set
p3
((lp4
S'Method.PET'
p5
aS'Method.ANTAGONIST'
p6
aS'Method.AGONIST'
p7
atp8
Rp9
sS'topics'
p10
g3
((lp11
S"(22, u'\\\\bschizophreni')"
p12
aS"(2, u'\\\\bdisorder')"
p13
aS"(7, u'\\\\bdepressi')"
p14
aS"(23, u'\\\\bantipsychotic')"
p15
aS"(8, u'\\\\banxi')"
p16
aS"(4, u'\\\\btreatment')"
p17
atp18
Rp19
sS'receptors'
p20
g3
((lp21
(S'5ht1a'
p22
I147
I153
tp23
a(S'5ht1a'
p24
I1452
I1458
tp25
a(S'5ht1a'
p26
I277
I283
tp27
a(S'5ht1a'
p28
I994
I1000
tp29
a(S'5ht1a'
p30
I376
I382
tp31
a(S'5ht1a'
p32
I574
I580
tp33
a(S'5ht1a'
p34
I66
I72
tp35
a(S'5ht1a'
p36
I1764
I1770
tp37
a(S'5ht1a'
p38
I310
I316
tp39
atp40
Rp41
sS'raw_text_methods'
p42
g3
((lp43
S"(13, u'\\\\bagonist')"
p44
aS"(19, u'\\\\bpositron emission tomography')"
p45
aS"(12, u'\\\\bantagonist')"
p46
atp47
Rp48
sS'regions'
p49
g3
((lp50
S"(11, u'(?i)\\\\b(cerebrals|cerebral)\\\\b')"
p51
aS"(19, u'(?i)\\\\b(cortexes|cortex)\\\\b')"
p52
atp53
Rp54
sS'year'
p55
V2004
p56
sS'species'
p57
g3
((lp58
S"(4, u'(?i)\\\\b(rats|rat)\\\\b')"
p59
atp60
Rp61
sb.