(ifile_types
ParseObject
p0
(dp1
S'antagonists'
p2
c__builtin__
set
p3
((lp4
tp5
Rp6
sS'methods'
p7
g3
((lp8
S'Method.PET'
p9
atp10
Rp11
sS'topics'
p12
g3
((lp13
S"(6, u'\\\\bcognit')"
p14
aS"(1, u'\\\\bmood')"
p15
atp16
Rp17
sS'receptors'
p18
g3
((lp19
S'5ht2a'
p20
atp21
Rp22
sS'regions'
p23
g3
((lp24
S"(291, u'(?i)(cingulates|cingulate)(-|\\\\s+)?(cortexes|cortex)')"
p25
aS"(260, u'(?i)(inferiors|inferior)(-|\\\\s+)?(frontals|frontal)(-|\\\\s+)?(gyruses|gyrus)')"
p26
aS"(292, u'(?i)(anteriors|anterior)(-|\\\\s+)?(cingulates|cingulate)')"
p27
aS"(254, u'(?i)(prefrontals|prefrontal)(-|\\\\s+)?(cortexes|cortex)')"
p28
aS"(255, u'(?i)(pres|pre)(-|\\\\s+)?(frontals|frontal)(-|\\\\s+)?(cortexes|cortex)')"
p29
aS"(251, u'(?i)(precentrals|precentral)(-|\\\\s+)?(gyruses|gyrus)')"
p30
atp31
Rp32
sS'year'
p33
V2003
p34
sS'agonists'
p35
g3
((lp36
tp37
Rp38
sS'species'
p39
g3
((lp40
S"(6249, u'(?i)(ants|ant)')"
p41
aS"(1055, u'(?i)(men|man)')"
p42
aS"(6948, u'(?i)(rails|rail)')"
p43
aS"(4964, u'(?i)(serins|serin)')"
p44
aS"(1057, u'(?i)(humans|human)')"
p45
aS"(3812, u'(?i)(studs|stud)')"
p46
aS"(3196, u'(?i)(human|humans)')"
p47
aS"(2809, u'(?i)(toms|tom)')"
p48
aS"(6356, u'(?i)(ais|ai)')"
p49
atp50
Rp51
sb.