(ifile_types
ParseObject
p0
(dp1
S'antagonists'
p2
c__builtin__
set
p3
((lp4
S"(93, u'\\\\bsb ?200646')"
p5
atp6
Rp7
sS'methods'
p8
g3
((lp9
S'Method.ANTAGONIST'
p10
atp11
Rp12
sS'topics'
p13
g3
((lp14
S"(12, u'\\\\banxiogen')"
p15
aS"(11, u'\\\\banxiolyt')"
p16
aS"(10, u'\\\\banxiety')"
p17
aS"(4, u'\\\\blocomot')"
p18
atp19
Rp20
sS'receptors'
p21
g3
((lp22
S'5ht2b'
p23
aS'5ht2c'
p24
aS'5ht2a'
p25
atp26
Rp27
sS'regions'
p28
g3
((lp29
tp30
Rp31
sS'year'
p32
V1994
p33
sS'agonists'
p34
g3
((lp35
S"(161, u'\\\\bmcpp')"
p36
aS"(33, u'\\\\bdoi')"
p37
atp38
Rp39
sS'species'
p40
g3
((lp41
S"(2054, u'(?i)(heads|head)')"
p42
aS"(2568, u'(?i)(hens|hen)')"
p43
aS"(6682, u'(?i)(tera|teras)')"
p44
aS"(6249, u'(?i)(ants|ant)')"
p45
aS"(468, u'(?i)(oxen|ox)')"
p46
aS"(3726, u'(?i)(mates|mate)')"
p47
aS"(4979, u'(?i)(cats|cat)')"
p48
aS"(5958, u'(?i)(rats|rat)')"
p49
aS"(5131, u'(?i)(hags|hag)')"
p50
aS"(1961, u'(?i)(pens|pen)')"
p51
aS"(5568, u'(?i)(hakes|hake)')"
p52
atp53
Rp54
sb.