(ifile_types
ParseObject
p0
(dp1
S'methods'
p2
c__builtin__
set
p3
((lp4
S'Method.AGONIST'
p5
aS'Method.IMMUNOHISTOCHEMISTRY'
p6
aS'Method.STAINING'
p7
atp8
Rp9
sS'topics'
p10
g3
((lp11
S"(4, u'\\\\btreatment')"
p12
aS"(2, u'\\\\bdisorder')"
p13
atp14
Rp15
sS'receptors'
p16
g3
((lp17
(S'5ht2a'
p18
I48
I54
tp19
a(S'5ht2a'
p20
I466
I472
tp21
a(S'5ht2c'
p22
I305
I313
tp23
a(S'5ht2a'
p24
I305
I311
tp25
a(S'5ht1a'
p26
I640
I646
tp27
atp28
Rp29
sS'raw_text_methods'
p30
g3
((lp31
S"(13, u'\\\\bagonist')"
p32
aS"(15, u'\\\\b8ohdpat')"
p33
aS"(49, u'\\\\bdoi')"
p34
atp35
Rp36
sS'regions'
p37
g3
((lp38
S"(11, u'(?i)\\\\b(cerebrals|cerebral)\\\\b')"
p39
aS"(19, u'(?i)\\\\b(cortexes|cortex)\\\\b')"
p40
aS"(14, u'(?i)\\\\b(caudals|caudal)\\\\b')"
p41
atp42
Rp43
sS'year'
p44
V1993
p45
sS'species'
p46
g3
((lp47
S"(4, u'(?i)\\\\b(rats|rat)\\\\b')"
p48
atp49
Rp50
sb.