(ifile_types
ParseObject
p0
(dp1
S'methods'
p2
c__builtin__
set
p3
((lp4
tp5
Rp6
sS'topics'
p7
g3
((lp8
S"(31, u'\\\\brespiratory')"
p9
atp10
Rp11
sS'receptors'
p12
g3
((lp13
(S'5ht1a'
p14
I57
I68
tp15
a(S'5ht1a'
p16
I1237
I1242
tp17
a(S'5ht1b'
p18
I905
I910
tp19
a(S'5ht1b'
p20
I1114
I1119
tp21
a(S'5ht1b'
p22
I507
I512
tp23
a(S'5ht1'
p24
I1927
I1931
tp25
a(S'5ht1a'
p26
I655
I660
tp27
a(S'5ht1b'
p28
I1732
I1737
tp29
a(S'5ht1b'
p30
I294
I299
tp31
a(S'5ht1a'
p32
I282
I287
tp33
a(S'5ht1b'
p34
I1588
I1593
tp35
a(S'5ht1a'
p36
I497
I502
tp37
a(S'5ht1a'
p38
I1411
I1416
tp39
atp40
Rp41
sS'raw_text_methods'
p42
g3
((lp43
S"(54, u'\\\\bautoradiography')"
p44
atp45
Rp46
sS'regions'
p47
g3
((lp48
tp49
Rp50
sS'year'
p51
V1990
p52
sS'species'
p53
g3
((lp54
S"(4, u'(?i)\\\\b(rats|rat)\\\\b')"
p55
atp56
Rp57
sb.