(ifile_types
ParseObject
p0
(dp1
S'methods'
p2
c__builtin__
set
p3
((lp4
tp5
Rp6
sS'topics'
p7
g3
((lp8
S"(26, u'\\\\bbehav')"
p9
aS"(4, u'\\\\btreatment')"
p10
atp11
Rp12
sS'receptors'
p13
g3
((lp14
(S'5ht2a'
p15
I912
I918
tp16
atp17
Rp18
sS'raw_text_methods'
p19
g3
((lp20
S"(49, u'\\\\bdoi')"
p21
aS"(5, u'\\\\bmk801')"
p22
atp23
Rp24
sS'regions'
p25
g3
((lp26
S"(19, u'(?i)\\\\b(cortexes|cortex)\\\\b')"
p27
atp28
Rp29
sS'year'
p30
V2000
p31
sS'species'
p32
g3
((lp33
S"(4, u'(?i)\\\\b(rats|rat)\\\\b')"
p34
atp35
Rp36
sb.