(ifile_types
ParseObject
p0
(dp1
S'methods'
p2
c__builtin__
set
p3
((lp4
S'Method.AGONIST'
p5
aS'Method.IMMUNOHISTOCHEMISTRY'
p6
aS'Method.ANTAGONIST'
p7
atp8
Rp9
sS'topics'
p10
g3
((lp11
tp12
Rp13
sS'receptors'
p14
g3
((lp15
(S'5ht3'
p16
I1690
I1694
tp17
a(S'5ht3'
p18
I670
I674
tp19
atp20
Rp21
sS'raw_text_methods'
p22
g3
((lp23
S"(13, u'\\\\bagonist')"
p24
aS"(12, u'\\\\bantagonist')"
p25
atp26
Rp27
sS'regions'
p28
g3
((lp29
tp30
Rp31
sS'year'
p32
V2009
p33
sS'species'
p34
g3
((lp35
S"(2, u'(?i)\\\\b(females|female)\\\\b')"
p36
aS"(4, u'(?i)\\\\b(rats|rat)\\\\b')"
p37
atp38
Rp39
sb.