(ifile_types
ParseObject
p0
(dp1
S'methods'
p2
c__builtin__
set
p3
((lp4
S'Method.ANTAGONIST'
p5
aS'Method.AGONIST'
p6
atp7
Rp8
sS'topics'
p9
g3
((lp10
S"(5, u'\\\\btherap')"
p11
aS"(13, u'\\\\bantidepress')"
p12
atp13
Rp14
sS'receptors'
p15
g3
((lp16
(S'5ht4'
p17
I1187
I1192
tp18
a(S'5ht4'
p19
I483
I488
tp20
a(S'5ht4'
p21
I296
I306
tp22
a(S'5ht4'
p23
I1429
I1434
tp24
a(S'5ht4'
p25
I310
I315
tp26
a(S'5ht4'
p27
I35
I40
tp28
a(S'5ht4'
p29
I552
I557
tp30
a(S'5ht4'
p31
I942
I947
tp32
atp33
Rp34
sS'raw_text_methods'
p35
g3
((lp36
S"(13, u'\\\\bagonist')"
p37
aS"(12, u'\\\\bantagonist')"
p38
atp39
Rp40
sS'regions'
p41
g3
((lp42
S"(16, u'(?i)\\\\b(drns|drn)\\\\b')"
p43
atp44
Rp45
sS'year'
p46
V2002
p47
sS'species'
p48
g3
((lp49
S"(4, u'(?i)\\\\b(rats|rat)\\\\b')"
p50
atp51
Rp52
sb.