(ifile_types
ParseObject
p0
(dp1
S'antagonists'
p2
c__builtin__
set
p3
((lp4
S"(53, u'\\\\bketanserin')"
p5
aS"(128, u'\\\\bketanserin')"
p6
aS"(105, u'\\\\bmethysergide')"
p7
atp8
Rp9
sS'methods'
p10
g3
((lp11
S'Method.ANTAGONIST'
p12
aS'Method.AGONIST'
p13
atp14
Rp15
sS'topics'
p16
g3
((lp17
tp18
Rp19
sS'receptors'
p20
g3
((lp21
S'5ht1a'
p22
aS'5ht1'
p23
atp24
Rp25
sS'regions'
p26
g3
((lp27
tp28
Rp29
sS'year'
p30
V1996
p31
sS'agonists'
p32
g3
((lp33
S"(92, u'\\\\b8 ?oh ?dpat')"
p34
aS"(111, u'\\\\bdextromethorphan')"
p35
aS"(60, u'\\\\bmethysergide')"
p36
atp37
Rp38
sS'species'
p39
g3
((lp40
S"(4624, u'(?i)(apes|ape)')"
p41
aS"(6753, u'(?i)(da|das)')"
p42
aS"(2568, u'(?i)(hens|hen)')"
p43
aS"(867, u'(?i)(tits|tit)')"
p44
aS"(4964, u'(?i)(serins|serin)')"
p45
aS"(6249, u'(?i)(ants|ant)')"
p46
aS"(468, u'(?i)(oxen|ox)')"
p47
aS"(1055, u'(?i)(men|man)')"
p48
aS"(4604, u'(?i)(mites|mite)')"
p49
aS"(6580, u'(?i)(dams|dam)')"
p50
aS"(853, u'(?i)(minas|mina)')"
p51
aS"(7094, u'(?i)(curs|cur)')"
p52
aS"(3550, u'(?i)(anis|ani)')"
p53
aS"(5958, u'(?i)(rats|rat)')"
p54
aS"(1961, u'(?i)(pens|pen)')"
p55
aS"(6391, u'(?i)(asses|ass)')"
p56
aS"(577, u'(?i)(orphans|orphan)')"
p57
aS"(1628, u'(?i)(cod|cod)')"
p58
aS"(4979, u'(?i)(cats|cat)')"
p59
atp60
Rp61
sb.