(ifile_types
ParseObject
p0
(dp1
S'antagonists'
p2
c__builtin__
set
p3
((lp4
S"(53, u'\\\\bketanserin')"
p5
aS"(123, u'\\\\bclozapine')"
p6
aS"(56, u'\\\\bclozapine')"
p7
aS"(128, u'\\\\bketanserin')"
p8
aS"(67, u'\\\\bhaloperidol')"
p9
aS"(27, u'\\\\bspiperone')"
p10
atp11
Rp12
sS'methods'
p13
g3
((lp14
S'Method.PET'
p15
aS'Method.ANTAGONIST'
p16
atp17
Rp18
sS'topics'
p19
g3
((lp20
tp21
Rp22
sS'receptors'
p23
g3
((lp24
S'5ht5'
p25
aS'5ht2'
p26
aS'5ht2c'
p27
atp28
Rp29
sS'regions'
p30
g3
((lp31
S"(220, u'(?i)(striatums|striatum)')"
p32
aS"(71, u'(?i)(cerebellums|cerebellum)')"
p33
atp34
Rp35
sS'year'
p36
V1995
p37
sS'agonists'
p38
g3
((lp39
S"(48, u'\\\\bhaloperidol')"
p40
aS"(27, u'\\\\bclozapine')"
p41
atp42
Rp43
sS'species'
p44
g3
((lp45
S"(1070, u'(?i)(pets|pet)')"
p46
aS"(5958, u'(?i)(rats|rat)')"
p47
aS"(163, u'(?i)(mice|mouse)')"
p48
aS"(6391, u'(?i)(asses|ass)')"
p49
aS"(1725, u'(?i)(clams|clam)')"
p50
aS"(468, u'(?i)(oxen|ox)')"
p51
aS"(1055, u'(?i)(men|man)')"
p52
aS"(7094, u'(?i)(curs|cur)')"
p53
aS"(6215, u'(?i)(racers|racer)')"
p54
aS"(853, u'(?i)(minas|mina)')"
p55
aS"(6249, u'(?i)(ants|ant)')"
p56
aS"(3522, u'(?i)(tetras|tetra)')"
p57
aS"(1057, u'(?i)(humans|human)')"
p58
aS"(1961, u'(?i)(pens|pen)')"
p59
aS"(3812, u'(?i)(studs|stud)')"
p60
aS"(3196, u'(?i)(human|humans)')"
p61
aS"(4964, u'(?i)(serins|serin)')"
p62
atp63
Rp64
sb.