(ifile_types
ParseObject
p0
(dp1
S'methods'
p2
c__builtin__
set
p3
((lp4
S'Method.ANTAGONIST'
p5
aS'Method.AGONIST'
p6
atp7
Rp8
sS'topics'
p9
g3
((lp10
S"(24, u'\\\\banxiolytic')"
p11
aS"(26, u'\\\\bbehav')"
p12
aS"(7, u'\\\\bdepressi')"
p13
aS"(9, u'\\\\bstress')"
p14
aS"(20, u'\\\\bmood')"
p15
aS"(8, u'\\\\banxi')"
p16
aS"(4, u'\\\\btreatment')"
p17
atp18
Rp19
sS'receptors'
p20
g3
((lp21
(S'5ht2'
p22
I1313
I1318
tp23
a(S'5ht2'
p24
I1623
I1628
tp25
a(S'5ht2'
p26
I684
I689
tp27
a(S'5ht2'
p28
I1526
I1531
tp29
a(S'5ht1'
p30
I706
I711
tp31
a(S'5ht2'
p32
I823
I828
tp33
a(S'5ht2'
p34
I108
I113
tp35
a(S'5ht2'
p36
I915
I920
tp37
atp38
Rp39
sS'raw_text_methods'
p40
g3
((lp41
S"(13, u'\\\\bagonist')"
p42
aS"(35, u'\\\\badenosine')"
p43
aS"(23, u'\\\\bmdl')"
p44
aS"(12, u'\\\\bantagonist')"
p45
atp46
Rp47
sS'regions'
p48
g3
((lp49
S"(12, u'(?i)\\\\b(amygdalas|amygdala)\\\\b')"
p50
atp51
Rp52
sS'year'
p53
V2019
p54
sS'species'
p55
g3
((lp56
S"(1, u'(?i)\\\\b(mice|mouse)\\\\b')"
p57
atp58
Rp59
sb.