(ifile_types
ParseObject
p0
(dp1
S'antagonists'
p2
c__builtin__
set
p3
((lp4
S"(102, u'\\\\bfluoxetine')"
p5
atp6
Rp7
sS'methods'
p8
g3
((lp9
tp10
Rp11
sS'topics'
p12
g3
((lp13
S"(10, u'\\\\banxiety')"
p14
aS"(1, u'\\\\bmood')"
p15
atp16
Rp17
sS'receptors'
p18
g3
((lp19
S'5ht4'
p20
atp21
Rp22
sS'regions'
p23
g3
((lp24
S"(203, u'(?i)(dentates|dentate)(-|\\\\s+)?(gyruses|gyrus)')"
p25
atp26
Rp27
sS'year'
p28
V2010
p29
sS'agonists'
p30
g3
((lp31
S"(155, u'\\\\bmem')"
p32
atp33
Rp34
sS'species'
p35
g3
((lp36
S"(2323, u'(?i)(bees|bee)')"
p37
aS"(4624, u'(?i)(apes|ape)')"
p38
aS"(6753, u'(?i)(da|das)')"
p39
aS"(2568, u'(?i)(hens|hen)')"
p40
aS"(5510, u'(?i)(bays|bay)')"
p41
aS"(5958, u'(?i)(rats|rat)')"
p42
aS"(163, u'(?i)(mice|mouse)')"
p43
aS"(479, u'(?i)(lings|ling)')"
p44
aS"(4091, u'(?i)(adults|adult)')"
p45
aS"(1961, u'(?i)(pens|pen)')"
p46
aS"(468, u'(?i)(oxen|ox)')"
p47
aS"(1055, u'(?i)(men|man)')"
p48
aS"(6249, u'(?i)(ants|ant)')"
p49
aS"(6356, u'(?i)(ais|ai)')"
p50
aS"(3550, u'(?i)(anis|ani)')"
p51
aS"(7094, u'(?i)(curs|cur)')"
p52
aS"(871, u'(?i)(bayas|baya)')"
p53
aS"(1414, u'(?i)(chars|char)')"
p54
aS"(5537, u'(?i)(hippos|hippo)')"
p55
aS"(4582, u'(?i)(kobs|kob)')"
p56
atp57
Rp58
sb.