(ifile_types
ParseObject
p0
(dp1
S'methods'
p2
c__builtin__
set
p3
((lp4
S'Method.ANTAGONIST'
p5
atp6
Rp7
sS'topics'
p8
g3
((lp9
tp10
Rp11
sS'receptors'
p12
g3
((lp13
(S'5ht3'
p14
I793
I798
tp15
a(S'5ht3'
p16
I1770
I1775
tp17
a(S'5ht1'
p18
I1757
I1762
tp19
a(S'5ht1'
p20
I757
I762
tp21
a(S'5ht2'
p22
I833
I838
tp23
atp24
Rp25
sS'raw_text_methods'
p26
g3
((lp27
S"(53, u'\\\\bketanserin')"
p28
aS"(25, u'\\\\bics205930')"
p29
aS"(12, u'\\\\bantagonist')"
p30
atp31
Rp32
sS'regions'
p33
g3
((lp34
S"(13, u'(?i)\\\\b(septums|septum)\\\\b')"
p35
atp36
Rp37
sS'year'
p38
V1994
p39
sS'species'
p40
g3
((lp41
S"(4, u'(?i)\\\\b(rats|rat)\\\\b')"
p42
atp43
Rp44
sb.