(ifile_types
ParseObject
p0
(dp1
S'antagonists'
p2
c__builtin__
set
p3
((lp4
S"(27, u'\\\\bspiperone')"
p5
atp6
Rp7
sS'methods'
p8
g3
((lp9
S'Method.ANTAGONIST'
p10
aS'Method.AGONIST'
p11
atp12
Rp13
sS'topics'
p14
g3
((lp15
tp16
Rp17
sS'receptors'
p18
g3
((lp19
S'5ht1a'
p20
atp21
Rp22
sS'regions'
p23
g3
((lp24
S"(318, u'(?i)(raphes|raphe)(-|\\\\s+)?(nuclei|nucleus)')"
p25
aS"(94, u'(?i)(dorsals|dorsal)(-|\\\\s+)?(raphes|raphe)(-|\\\\s+)?(nuclei|nucleus)')"
p26
atp27
Rp28
sS'year'
p29
V1999
p30
sS'agonists'
p31
g3
((lp32
S"(92, u'\\\\b8 ?oh ?dpat')"
p33
atp34
Rp35
sS'species'
p36
g3
((lp37
S"(5958, u'(?i)(rats|rat)')"
p38
aS"(6753, u'(?i)(da|das)')"
p39
aS"(6391, u'(?i)(asses|ass)')"
p40
aS"(1055, u'(?i)(men|man)')"
p41
aS"(4979, u'(?i)(cats|cat)')"
p42
aS"(6249, u'(?i)(ants|ant)')"
p43
aS"(1057, u'(?i)(humans|human)')"
p44
aS"(1961, u'(?i)(pens|pen)')"
p45
aS"(3812, u'(?i)(studs|stud)')"
p46
aS"(3196, u'(?i)(human|humans)')"
p47
aS"(6356, u'(?i)(ais|ai)')"
p48
atp49
Rp50
sb.