(ifile_types
ParseObject
p0
(dp1
S'antagonists'
p2
c__builtin__
set
p3
((lp4
S"(102, u'\\\\bfluoxetine')"
p5
atp6
Rp7
sS'methods'
p8
g3
((lp9
S'Method.AGONIST'
p10
atp11
Rp12
sS'topics'
p13
g3
((lp14
tp15
Rp16
sS'receptors'
p17
g3
((lp18
S'5ht1b'
p19
aS'5ht5'
p20
aS'5ht3a'
p21
aS'5ht2c'
p22
aS'5ht2a'
p23
aS'5ht1a'
p24
aS'5ht2'
p25
atp26
Rp27
sS'regions'
p28
g3
((lp29
S"(159, u'(?i)(paraventriculars|paraventricular)(-|\\\\s+)?(nuclei|nucleus)')"
p30
aS"(34, u'(?i)(pon|pons)')"
p31
atp32
Rp33
sS'year'
p34
V2002
p35
sS'agonists'
p36
g3
((lp37
tp38
Rp39
sS'species'
p40
g3
((lp41
S"(5958, u'(?i)(rats|rat)')"
p42
aS"(4979, u'(?i)(cats|cat)')"
p43
aS"(5967, u'(?i)(males|male)')"
p44
aS"(468, u'(?i)(oxen|ox)')"
p45
aS"(1055, u'(?i)(men|man)')"
p46
aS"(7094, u'(?i)(curs|cur)')"
p47
aS"(3592, u'(?i)(ravens|raven)')"
p48
aS"(853, u'(?i)(minas|mina)')"
p49
aS"(6249, u'(?i)(ants|ant)')"
p50
aS"(6356, u'(?i)(ais|ai)')"
p51
atp52
Rp53
sb.