(ifile_types
ParseObject
p0
(dp1
S'antagonists'
p2
c__builtin__
set
p3
((lp4
S"(50, u'\\\\bquetiapine')"
p5
aS"(112, u'\\\\bquetiapine')"
p6
aS"(110, u'\\\\bclozapine')"
p7
atp8
Rp9
sS'methods'
p10
g3
((lp11
S'Method.PET'
p12
atp13
Rp14
sS'topics'
p15
g3
((lp16
S"(15, u'\\\\bschizophreni')"
p17
aS"(9, u'\\\\bdepress')"
p18
aS"(29, u'\\\\bsex')"
p19
atp20
Rp21
sS'receptors'
p22
g3
((lp23
S'5ht1a'
p24
atp25
Rp26
sS'regions'
p27
g3
((lp28
S"(84, u'(?i)\\\\b(mesencephalons|mesencephalon)\\\\b')"
p29
aS"(220, u'(?i)\\\\b(striatums|striatum)\\\\b')"
p30
aS"(126, u'(?i)\\\\b(thalamuses|thalamus)\\\\b')"
p31
aS"(34, u'(?i)\\\\b(pon|pons)\\\\b')"
p32
atp33
Rp34
sS'year'
p35
V2002
p36
sS'agonists'
p37
g3
((lp38
S"(64, u'\\\\bquetiapine')"
p39
aS"(23, u'\\\\bclozapine')"
p40
atp41
Rp42
sS'species'
p43
g3
((lp44
S"(3191, u'(?i)\\\\b(worlds|world)\\\\b')"
p45
aS"(1070, u'(?i)\\\\b(pets|pet)\\\\b')"
p46
atp47
Rp48
sb.