(ifile_types
ParseObject
p0
(dp1
S'methods'
p2
c__builtin__
set
p3
((lp4
S'Method.ANTAGONIST'
p5
aS'Method.AGONIST'
p6
atp7
Rp8
sS'topics'
p9
g3
((lp10
tp11
Rp12
sS'receptors'
p13
g3
((lp14
(S'5ht2a'
p15
I1353
I1359
tp16
a(S'5ht2'
p17
I625
I630
tp18
a(S'5ht2'
p19
I1915
I1920
tp20
a(S'5ht2'
p21
I1424
I1429
tp22
a(S'5ht2'
p23
I891
I896
tp24
a(S'5ht5'
p25
I176
I186
tp26
a(S'5ht2'
p27
I407
I412
tp28
a(S'5ht2a'
p29
I72
I78
tp30
a(S'5ht2'
p31
I1517
I1522
tp32
a(S'5ht2'
p33
I1602
I1607
tp34
a(S'5ht2'
p35
I1395
I1400
tp36
atp37
Rp38
sS'raw_text_methods'
p39
g3
((lp40
S"(13, u'\\\\bagonist')"
p41
aS"(53, u'\\\\bketanserin')"
p42
aS"(12, u'\\\\bantagonist')"
p43
atp44
Rp45
sS'regions'
p46
g3
((lp47
tp48
Rp49
sS'year'
p50
V2008
p51
sS'species'
p52
g3
((lp53
S"(4, u'(?i)\\\\b(rats|rat)\\\\b')"
p54
atp55
Rp56
sb.