(ifile_types
ParseObject
p0
(dp1
S'methods'
p2
c__builtin__
set
p3
((lp4
S'Method.AGONIST'
p5
atp6
Rp7
sS'topics'
p8
g3
((lp9
S"(26, u'\\\\bbehav')"
p10
aS"(33, u'\\\\blocomot')"
p11
aS"(4, u'\\\\btreatment')"
p12
atp13
Rp14
sS'receptors'
p15
g3
((lp16
(S'5ht2c'
p17
I38
I44
tp18
a(S'5ht2'
p19
I504
I509
tp20
a(S'5ht5'
p21
I195
I205
tp22
a(S'5ht2'
p23
I1735
I1740
tp24
a(S'5ht2'
p25
I782
I787
tp26
a(S'5ht2'
p27
I1628
I1633
tp28
a(S'5ht2c'
p29
I334
I345
tp30
a(S'5ht2'
p31
I918
I923
tp32
a(S'5ht2'
p33
I1909
I1914
tp34
a(S'5ht2'
p35
I357
I362
tp36
atp37
Rp38
sS'raw_text_methods'
p39
g3
((lp40
S"(13, u'\\\\bagonist')"
p41
atp42
Rp43
sS'regions'
p44
g3
((lp45
tp46
Rp47
sS'year'
p48
V2008
p49
sS'species'
p50
g3
((lp51
S"(1, u'(?i)\\\\b(mice|mouse)\\\\b')"
p52
aS"(5, u'(?i)\\\\b(mices|mice)\\\\b')"
p53
atp54
Rp55
sb.