(ifile_types
ParseObject
p0
(dp1
S'antagonists'
p2
c__builtin__
set
p3
((lp4
tp5
Rp6
sS'methods'
p7
g3
((lp8
S'Method.ANTAGONIST'
p9
aS'Method.AGONIST'
p10
atp11
Rp12
sS'topics'
p13
g3
((lp14
S"(8, u'\\\\blearning')"
p15
aS"(6, u'\\\\bcognit')"
p16
aS"(7, u'\\\\bmemory')"
p17
aS"(4, u'\\\\blocomot')"
p18
atp19
Rp20
sS'receptors'
p21
g3
((lp22
S'5ht5'
p23
aS'5ht2c'
p24
atp25
Rp26
sS'regions'
p27
g3
((lp28
tp29
Rp30
sS'year'
p31
V2008
p32
sS'agonists'
p33
g3
((lp34
S"(161, u'\\\\bmcpp')"
p35
aS"(155, u'\\\\bmem')"
p36
atp37
Rp38
sS'species'
p39
g3
((lp40
S"(2323, u'(?i)(bees|bee)')"
p41
aS"(4624, u'(?i)(apes|ape)')"
p42
aS"(2568, u'(?i)(hens|hen)')"
p43
aS"(6753, u'(?i)(da|das)')"
p44
aS"(4091, u'(?i)(adults|adult)')"
p45
aS"(5967, u'(?i)(males|male)')"
p46
aS"(468, u'(?i)(oxen|ox)')"
p47
aS"(1055, u'(?i)(men|man)')"
p48
aS"(6249, u'(?i)(ants|ant)')"
p49
aS"(6356, u'(?i)(ais|ai)')"
p50
aS"(5958, u'(?i)(rats|rat)')"
p51
aS"(7127, u'(?i)(monitors|monitor)')"
p52
aS"(1961, u'(?i)(pens|pen)')"
p53
aS"(3812, u'(?i)(studs|stud)')"
p54
aS"(6391, u'(?i)(asses|ass)')"
p55
aS"(7058, u'(?i)(does|doe)')"
p56
atp57
Rp58
sb.