(ifile_types
ParseObject
p0
(dp1
S'methods'
p2
c__builtin__
set
p3
((lp4
S'Method.ANTAGONIST'
p5
aS'Method.AGONIST'
p6
atp7
Rp8
sS'topics'
p9
g3
((lp10
tp11
Rp12
sS'receptors'
p13
g3
((lp14
(S'5ht1a'
p15
I791
I797
tp16
a(S'5ht1b'
p17
I1069
I1075
tp18
a(S'5ht1a'
p19
I148
I154
tp20
a(S'5ht1b'
p21
I1582
I1588
tp22
a(S'5ht1d'
p23
I159
I166
tp24
a(S'5ht5'
p25
I221
I231
tp26
a(S'5ht1a'
p27
I596
I602
tp28
a(S'5ht1a'
p29
I1571
I1577
tp30
a(S'5ht1b'
p31
I159
I165
tp32
a(S'5ht1d'
p33
I1582
I1590
tp34
a(S'5ht1d'
p35
I1069
I1076
tp36
atp37
Rp38
sS'raw_text_methods'
p39
g3
((lp40
S"(13, u'\\\\bagonist')"
p41
aS"(15, u'\\\\b8ohdpat')"
p42
aS"(11, u'\\\\bfluoxetine')"
p43
aS"(39, u'\\\\bselective serotonin reuptake inhibitor')"
p44
aS"(12, u'\\\\bantagonist')"
p45
atp46
Rp47
sS'regions'
p48
g3
((lp49
tp50
Rp51
sS'year'
p52
V1999
p53
sS'species'
p54
g3
((lp55
S"(4, u'(?i)\\\\b(rats|rat)\\\\b')"
p56
atp57
Rp58
sb.