(ifile_types
ParseObject
p0
(dp1
S'antagonists'
p2
c__builtin__
set
p3
((lp4
S"(132, u'\\\\bsb ?243213')"
p5
aS"(95, u'\\\\bsb ?206553')"
p6
atp7
Rp8
sS'methods'
p9
g3
((lp10
S'Method.ANTAGONIST'
p11
aS'Method.AGONIST'
p12
atp13
Rp14
sS'topics'
p15
g3
((lp16
tp17
Rp18
sS'receptors'
p19
g3
((lp20
S'5ht2b'
p21
aS'5ht2c'
p22
atp23
Rp24
sS'regions'
p25
g3
((lp26
S"(103, u'(?i)(substantias|substantia)(-|\\\\s+)?(nigras|nigra)')"
p27
aS"(219, u'(?i)(basals|basal)(-|\\\\s+)?(ganglias|ganglia)')"
p28
aS"(34, u'(?i)(pon|pons)')"
p29
aS"(96, u'(?i)(ventrals|ventral)(-|\\\\s+)?(tegmentals|tegmental)(-|\\\\s+)?(areas|area)')"
p30
aS"(105, u'(?i)(par|pars)(-|\\\\s+)?(reticulatas|reticulata)')"
p31
aS"(220, u'(?i)(striatums|striatum)')"
p32
aS"(226, u'(?i)(nuclei|nucleus)(-|\\\\s+)?(accumben|accumbens)')"
p33
aS"(189, u'(?i)(subthalamics|subthalamic)(-|\\\\s+)?(nuclei|nucleus)')"
p34
atp35
Rp36
sS'year'
p37
V2012
p38
sS'agonists'
p39
g3
((lp40
tp41
Rp42
sS'species'
p43
g3
((lp44
S"(4404, u'(?i)(duns|dun)')"
p45
aS"(5958, u'(?i)(rats|rat)')"
p46
aS"(931, u'(?i)(divers|diver)')"
p47
aS"(867, u'(?i)(tits|tit)')"
p48
aS"(468, u'(?i)(oxen|ox)')"
p49
aS"(1055, u'(?i)(men|man)')"
p50
aS"(5176, u'(?i)(tegs|teg)')"
p51
aS"(6249, u'(?i)(ants|ant)')"
p52
aS"(3522, u'(?i)(tetras|tetra)')"
p53
aS"(1961, u'(?i)(pens|pen)')"
p54
aS"(3812, u'(?i)(studs|stud)')"
p55
aS"(7609, u'(?i)(erns|ern)')"
p56
aS"(391, u'(?i)(alli|allis)')"
p57
aS"(1683, u'(?i)(terns|tern)')"
p58
aS"(5949, u'(?i)(dogs|dog)')"
p59
atp60
Rp61
sb.