(ifile_types
ParseObject
p0
(dp1
S'methods'
p2
c__builtin__
set
p3
((lp4
S'Method.AGONIST'
p5
atp6
Rp7
sS'topics'
p8
g3
((lp9
S"(26, u'\\\\bbehav')"
p10
aS"(9, u'\\\\bstress')"
p11
aS"(4, u'\\\\btreatment')"
p12
atp13
Rp14
sS'receptors'
p15
g3
((lp16
(S'5ht2a'
p17
I236
I242
tp18
a(S'5ht2a'
p19
I766
I772
tp20
a(S'5ht2a'
p21
I427
I433
tp22
atp23
Rp24
sS'raw_text_methods'
p25
g3
((lp26
S"(13, u'\\\\bagonist')"
p27
atp28
Rp29
sS'regions'
p30
g3
((lp31
S"(1, u'(?i)\\\\b(neocortexes|neocortex)\\\\b')"
p32
aS"(21, u'(?i)\\\\b(mpfcs|mpfc)\\\\b')"
p33
aS"(19, u'(?i)\\\\b(cortexes|cortex)\\\\b')"
p34
aS"(20, u'(?i)\\\\b(prefrontals|prefrontal)\\\\b')"
p35
atp36
Rp37
sS'year'
p38
V2006
p39
sS'species'
p40
g3
((lp41
S"(4, u'(?i)\\\\b(rats|rat)\\\\b')"
p42
atp43
Rp44
sb.