(ifile_types
ParseObject
p0
(dp1
S'methods'
p2
c__builtin__
set
p3
((lp4
S'Method.AGONIST'
p5
atp6
Rp7
sS'topics'
p8
g3
((lp9
S"(4, u'\\\\btreatment')"
p10
atp11
Rp12
sS'receptors'
p13
g3
((lp14
(S'5ht1a'
p15
I233
I239
tp16
a(S'5ht1'
p17
I2062
I2067
tp18
a(S'5ht1'
p19
I443
I453
tp20
a(S'5ht1'
p21
I2160
I2165
tp22
a(S'5ht1'
p23
I3190
I3195
tp24
a(S'5ht1a'
p25
I2045
I2051
tp26
atp27
Rp28
sS'raw_text_methods'
p29
g3
((lp30
S"(13, u'\\\\bagonist')"
p31
aS"(15, u'\\\\b8ohdpat')"
p32
atp33
Rp34
sS'regions'
p35
g3
((lp36
tp37
Rp38
sS'year'
p39
V1993
p40
sS'species'
p41
g3
((lp42
tp43
Rp44
sb.