(ifile_types
ParseObject
p0
(dp1
S'methods'
p2
c__builtin__
set
p3
((lp4
S'Method.ANTAGONIST'
p5
aS'Method.AGONIST'
p6
atp7
Rp8
sS'topics'
p9
g3
((lp10
S"(26, u'\\\\bbehav')"
p11
atp12
Rp13
sS'receptors'
p14
g3
((lp15
(S'5ht1a'
p16
I801
I807
tp17
a(S'5ht1a'
p18
I1529
I1535
tp19
a(S'5ht1a'
p20
I1669
I1675
tp21
a(S'5ht1a'
p22
I1087
I1093
tp23
a(S'5ht1a'
p24
I2194
I2200
tp25
a(S'5ht1a'
p26
I973
I979
tp27
atp28
Rp29
sS'raw_text_methods'
p30
g3
((lp31
S"(13, u'\\\\bagonist')"
p32
aS"(12, u'\\\\bantagonist')"
p33
atp34
Rp35
sS'regions'
p36
g3
((lp37
tp38
Rp39
sS'year'
p40
V1993
p41
sS'species'
p42
g3
((lp43
tp44
Rp45
sb.