(ifile_types
ParseObject
p0
(dp1
S'methods'
p2
c__builtin__
set
p3
((lp4
tp5
Rp6
sS'topics'
p7
g3
((lp8
S"(26, u'\\\\bbehav')"
p9
aS"(7, u'\\\\bdepressi')"
p10
aS"(13, u'\\\\bantidepress')"
p11
atp12
Rp13
sS'receptors'
p14
g3
((lp15
(S'5ht1a'
p16
I1233
I1239
tp17
atp18
Rp19
sS'raw_text_methods'
p20
g3
((lp21
tp22
Rp23
sS'regions'
p24
g3
((lp25
S"(20, u'(?i)\\\\b(prefrontals|prefrontal)\\\\b')"
p26
aS"(19, u'(?i)\\\\b(cortexes|cortex)\\\\b')"
p27
atp28
Rp29
sS'year'
p30
V2019
p31
sS'species'
p32
g3
((lp33
tp34
Rp35
sb.