(ifile_types
ParseObject
p0
(dp1
S'methods'
p2
c__builtin__
set
p3
((lp4
S'Method.AGONIST'
p5
atp6
Rp7
sS'topics'
p8
g3
((lp9
S"(6, u'\\\\baggressi')"
p10
aS"(26, u'\\\\bbehav')"
p11
aS"(4, u'\\\\btreatment')"
p12
atp13
Rp14
sS'receptors'
p15
g3
((lp16
(S'5ht1a'
p17
I271
I277
tp18
atp19
Rp20
sS'raw_text_methods'
p21
g3
((lp22
S"(13, u'\\\\bagonist')"
p23
aS"(22, u'\\\\bbuspirone')"
p24
atp25
Rp26
sS'regions'
p27
g3
((lp28
S"(1, u'(?i)\\\\b(neocortexes|neocortex)\\\\b')"
p29
atp30
Rp31
sS'year'
p32
V2006
p33
sS'species'
p34
g3
((lp35
S"(1, u'(?i)\\\\b(mice|mouse)\\\\b')"
p36
aS"(5, u'(?i)\\\\b(mices|mice)\\\\b')"
p37
aS"(3, u'(?i)\\\\b(males|male)\\\\b')"
p38
atp39
Rp40
sb.