(ifile_types
ParseObject
p0
(dp1
S'methods'
p2
c__builtin__
set
p3
((lp4
S'Method.PET'
p5
aS'Method.KNOCKOUT'
p6
atp7
Rp8
sS'topics'
p9
g3
((lp10
S"(5, u'\\\\btherap')"
p11
aS"(20, u'\\\\bmood')"
p12
aS"(2, u'\\\\bdisorder')"
p13
atp14
Rp15
sS'receptors'
p16
g3
((lp17
(S'5ht1b'
p18
I1738
I1744
tp19
a(S'5ht2a'
p20
I1746
I1752
tp21
a(S'5ht2c'
p22
I1758
I1764
tp23
a(S'5ht2'
p24
I1746
I1752
tp25
a(S'5ht1a'
p26
I1730
I1736
tp27
atp28
Rp29
sS'raw_text_methods'
p30
g3
((lp31
S"(17, u'\\\\bpet')"
p32
aS"(19, u'\\\\bpositron emission tomography')"
p33
aS"(18, u'\\\\bimaging')"
p34
aS"(54, u'\\\\bautoradiography')"
p35
atp36
Rp37
sS'regions'
p38
g3
((lp39
S"(19, u'(?i)\\\\b(cortexes|cortex)\\\\b')"
p40
atp41
Rp42
sS'year'
p43
V2004
p44
sS'species'
p45
g3
((lp46
S"(1, u'(?i)\\\\b(mice|mouse)\\\\b')"
p47
aS"(5, u'(?i)\\\\b(mices|mice)\\\\b')"
p48
atp49
Rp50
sb.