(ifile_types
ParseObject
p0
(dp1
S'antagonists'
p2
c__builtin__
set
p3
((lp4
S"(67, u'\\\\bhaloperidol')"
p5
atp6
Rp7
sS'methods'
p8
g3
((lp9
S'Method.ANTAGONIST'
p10
aS'Method.AGONIST'
p11
atp12
Rp13
sS'topics'
p14
g3
((lp15
S"(35, u'\\\\bstress')"
p16
atp17
Rp18
sS'receptors'
p19
g3
((lp20
S'5ht5'
p21
aS'5ht2a'
p22
atp23
Rp24
sS'regions'
p25
g3
((lp26
tp27
Rp28
sS'year'
p29
V2002
p30
sS'agonists'
p31
g3
((lp32
S"(48, u'\\\\bhaloperidol')"
p33
aS"(14, u'\\\\bamphetamine')"
p34
aS"(33, u'\\\\bdoi')"
p35
atp36
Rp37
sS'species'
p38
g3
((lp39
S"(2323, u'(?i)(bees|bee)')"
p40
aS"(6753, u'(?i)(da|das)')"
p41
aS"(2568, u'(?i)(hens|hen)')"
p42
aS"(6125, u'(?i)(females|female)')"
p43
aS"(5176, u'(?i)(tegs|teg)')"
p44
aS"(5967, u'(?i)(males|male)')"
p45
aS"(468, u'(?i)(oxen|ox)')"
p46
aS"(1055, u'(?i)(men|man)')"
p47
aS"(3726, u'(?i)(mates|mate)')"
p48
aS"(4979, u'(?i)(cats|cat)')"
p49
aS"(5958, u'(?i)(rats|rat)')"
p50
aS"(4462, u'(?i)(monals|monal)')"
p51
aS"(4371, u'(?i)(lizas|liza)')"
p52
aS"(3247, u'(?i)(youngs|young)')"
p53
aS"(6391, u'(?i)(asses|ass)')"
p54
aS"(2809, u'(?i)(toms|tom)')"
p55
aS"(5743, u'(?i)(bots|bot)')"
p56
aS"(6356, u'(?i)(ais|ai)')"
p57
aS"(6249, u'(?i)(ants|ant)')"
p58
atp59
Rp60
sb.