(ifile_types
ParseObject
p0
(dp1
S'methods'
p2
c__builtin__
set
p3
((lp4
S'Method.AGONIST'
p5
atp6
Rp7
sS'topics'
p8
g3
((lp9
S"(26, u'\\\\bbehav')"
p10
aS"(4, u'\\\\btreatment')"
p11
atp12
Rp13
sS'receptors'
p14
g3
((lp15
(S'5ht1b'
p16
I523
I529
tp17
a(S'5ht1'
p18
I509
I515
tp19
a(S'5ht1a'
p20
I684
I690
tp21
a(S'5ht1b'
p22
I709
I715
tp23
a(S'5ht1a'
p24
I987
I993
tp25
a(S'5ht1b'
p26
I872
I878
tp27
a(S'5ht1a'
p28
I509
I515
tp29
a(S'5ht1'
p30
I140
I145
tp31
atp32
Rp33
sS'raw_text_methods'
p34
g3
((lp35
S"(13, u'\\\\bagonist')"
p36
aS"(15, u'\\\\b8ohdpat')"
p37
aS"(38, u'\\\\bssri')"
p38
aS"(39, u'\\\\bselective serotonin reuptake inhibitor')"
p39
atp40
Rp41
sS'regions'
p42
g3
((lp43
tp44
Rp45
sS'year'
p46
V2006
p47
sS'species'
p48
g3
((lp49
S"(3, u'(?i)\\\\b(males|male)\\\\b')"
p50
aS"(4, u'(?i)\\\\b(rats|rat)\\\\b')"
p51
atp52
Rp53
sb.