(ifile_types
ParseObject
p0
(dp1
S'methods'
p2
c__builtin__
set
p3
((lp4
tp5
Rp6
sS'topics'
p7
g3
((lp8
tp9
Rp10
sS'receptors'
p11
g3
((lp12
(S'5ht1b'
p13
I643
I648
tp14
a(S'5ht1b'
p15
I840
I845
tp16
a(S'5ht1b'
p17
I985
I990
tp18
a(S'5ht1b'
p19
I1174
I1179
tp20
a(S'5ht1b'
p21
I37
I42
tp22
a(S'5ht1b'
p23
I1405
I1410
tp24
atp25
Rp26
sS'raw_text_methods'
p27
g3
((lp28
tp29
Rp30
sS'regions'
p31
g3
((lp32
S"(9, u'(?i)\\\\b(cerebellums|cerebellum)\\\\b')"
p33
atp34
Rp35
sS'year'
p36
V1992
p37
sS'species'
p38
g3
((lp39
S"(1, u'(?i)\\\\b(mice|mouse)\\\\b')"
p40
atp41
Rp42
sb.