(ifile_types
ParseObject
p0
(dp1
S'antagonists'
p2
c__builtin__
set
p3
((lp4
S"(31, u'\\\\bway ?100635')"
p5
atp6
Rp7
sS'methods'
p8
g3
((lp9
S'Method.STAINING'
p10
aS'Method.ANTAGONIST'
p11
atp12
Rp13
sS'topics'
p14
g3
((lp15
tp16
Rp17
sS'receptors'
p18
g3
((lp19
S'5ht1a'
p20
aS'5ht5'
p21
atp22
Rp23
sS'regions'
p24
g3
((lp25
S"(209, u'(?i)\\\\b(amygdalas|amygdala)\\\\b')"
p26
aS"(220, u'(?i)\\\\b(striatums|striatum)\\\\b')"
p27
aS"(159, u'(?i)\\\\b(paraventriculars|paraventricular)(-|\\\\s+)?(nuclei|nucleus)\\\\b')"
p28
aS"(226, u'(?i)\\\\b(nuclei|nucleus)(-|\\\\s+)?(accumben|accumbens)\\\\b')"
p29
atp30
Rp31
sS'year'
p32
V2002
p33
sS'agonists'
p34
g3
((lp35
tp36
Rp37
sS'species'
p38
g3
((lp39
S"(5958, u'(?i)\\\\b(rats|rat)\\\\b')"
p40
atp41
Rp42
sb.