(ifile_types
ParseObject
p0
(dp1
S'antagonists'
p2
c__builtin__
set
p3
((lp4
tp5
Rp6
sS'methods'
p7
g3
((lp8
S'Method.AGONIST'
p9
atp10
Rp11
sS'topics'
p12
g3
((lp13
S"(25, u'\\\\bvasoconstrict')"
p14
atp15
Rp16
sS'receptors'
p17
g3
((lp18
S'5ht1b'
p19
aS'5ht1a'
p20
aS'5ht1f'
p21
aS'5ht1d'
p22
atp23
Rp24
sS'regions'
p25
g3
((lp26
S"(34, u'(?i)(pon|pons)')"
p27
atp28
Rp29
sS'year'
p30
V1999
p31
sS'agonists'
p32
g3
((lp33
S"(103, u'\\\\bsumatriptan')"
p34
atp35
Rp36
sS'species'
p37
g3
((lp38
S"(7094, u'(?i)(curs|cur)')"
p39
aS"(1349, u'(?i)(rams|ram)')"
p40
aS"(6249, u'(?i)(ants|ant)')"
p41
aS"(6356, u'(?i)(ais|ai)')"
p42
aS"(3196, u'(?i)(human|humans)')"
p43
aS"(6878, u'(?i)(guans|guan)')"
p44
aS"(6642, u'(?i)(lions|lion)')"
p45
aS"(468, u'(?i)(oxen|ox)')"
p46
aS"(3062, u'(?i)(guineas|guinea)')"
p47
aS"(3550, u'(?i)(anis|ani)')"
p48
aS"(5958, u'(?i)(rats|rat)')"
p49
aS"(473, u'(?i)(rabbits|rabbit)')"
p50
aS"(7488, u'(?i)(molas|mola)')"
p51
aS"(1055, u'(?i)(men|man)')"
p52
aS"(853, u'(?i)(minas|mina)')"
p53
aS"(1057, u'(?i)(humans|human)')"
p54
aS"(1961, u'(?i)(pens|pen)')"
p55
aS"(1414, u'(?i)(chars|char)')"
p56
aS"(4480, u'(?i)(guineas|guinea)(-|\\\\s+)?(pigs|pig)')"
p57
aS"(5949, u'(?i)(dogs|dog)')"
p58
aS"(2568, u'(?i)(hens|hen)')"
p59
aS"(3051, u'(?i)(pigs|pig)')"
p60
atp61
Rp62
sb.