(ifile_types
ParseObject
p0
(dp1
S'methods'
p2
c__builtin__
set
p3
((lp4
S'Method.AGONIST'
p5
atp6
Rp7
sS'topics'
p8
g3
((lp9
S"(6, u'\\\\baggressi')"
p10
aS"(29, u'\\\\bhyperactiv')"
p11
aS"(13, u'\\\\bantidepress')"
p12
aS"(26, u'\\\\bbehav')"
p13
aS"(4, u'\\\\btreatment')"
p14
atp15
Rp16
sS'receptors'
p17
g3
((lp18
(S'5ht2a'
p19
I148
I154
tp20
a(S'5ht2a'
p21
I596
I602
tp22
a(S'5ht2a'
p23
I1464
I1470
tp24
a(S'5ht2a'
p25
I1544
I1550
tp26
a(S'5ht2a'
p27
I1796
I1802
tp28
atp29
Rp30
sS'raw_text_methods'
p31
g3
((lp32
S"(13, u'\\\\bagonist')"
p33
aS"(49, u'\\\\bdoi')"
p34
atp35
Rp36
sS'regions'
p37
g3
((lp38
S"(11, u'(?i)\\\\b(cerebrals|cerebral)\\\\b')"
p39
aS"(19, u'(?i)\\\\b(cortexes|cortex)\\\\b')"
p40
atp41
Rp42
sS'year'
p43
V2000
p44
sS'species'
p45
g3
((lp46
S"(1, u'(?i)\\\\b(mice|mouse)\\\\b')"
p47
aS"(5, u'(?i)\\\\b(mices|mice)\\\\b')"
p48
aS"(3, u'(?i)\\\\b(males|male)\\\\b')"
p49
aS"(4, u'(?i)\\\\b(rats|rat)\\\\b')"
p50
atp51
Rp52
sb.