(ifile_types
ParseObject
p0
(dp1
S'antagonists'
p2
c__builtin__
set
p3
((lp4
S"(129, u'\\\\bly ?53857')"
p5
aS"(135, u'\\\\bondansetron')"
p6
aS"(102, u'\\\\bfluoxetine')"
p7
aS"(105, u'\\\\bmethysergide')"
p8
atp9
Rp10
sS'methods'
p11
g3
((lp12
S'Method.ANTAGONIST'
p13
aS'Method.AGONIST'
p14
atp15
Rp16
sS'topics'
p17
g3
((lp18
S"(35, u'\\\\bstress')"
p19
atp20
Rp21
sS'receptors'
p22
g3
((lp23
S'5ht5'
p24
aS'5ht1a'
p25
aS'5ht3'
p26
aS'5ht2'
p27
aS'5ht1'
p28
atp29
Rp30
sS'regions'
p31
g3
((lp32
S"(34, u'(?i)(pon|pons)')"
p33
atp34
Rp35
sS'year'
p36
V1996
p37
sS'agonists'
p38
g3
((lp39
S"(60, u'\\\\bmethysergide')"
p40
atp41
Rp42
sS'species'
p43
g3
((lp44
S"(6753, u'(?i)(da|das)')"
p45
aS"(5958, u'(?i)(rats|rat)')"
p46
aS"(4979, u'(?i)(cats|cat)')"
p47
aS"(6682, u'(?i)(tera|teras)')"
p48
aS"(5967, u'(?i)(males|male)')"
p49
aS"(468, u'(?i)(oxen|ox)')"
p50
aS"(1055, u'(?i)(men|man)')"
p51
aS"(6249, u'(?i)(ants|ant)')"
p52
aS"(1349, u'(?i)(rams|ram)')"
p53
aS"(6215, u'(?i)(racers|racer)')"
p54
aS"(5743, u'(?i)(bots|bot)')"
p55
aS"(3550, u'(?i)(anis|ani)')"
p56
aS"(7094, u'(?i)(curs|cur)')"
p57
atp58
Rp59
sb.