(ifile_types
ParseObject
p0
(dp1
S'antagonists'
p2
c__builtin__
set
p3
((lp4
S"(156, u'\\\\brs ?39604')"
p5
atp6
Rp7
sS'methods'
p8
g3
((lp9
S'Method.ANTAGONIST'
p10
aS'Method.AGONIST'
p11
atp12
Rp13
sS'topics'
p14
g3
((lp15
S"(8, u'\\\\blearning')"
p16
aS"(6, u'\\\\bcognit')"
p17
aS"(7, u'\\\\bmemory')"
p18
atp19
Rp20
sS'receptors'
p21
g3
((lp22
S'5ht4a'
p23
aS'5ht5'
p24
aS'5ht4'
p25
atp26
Rp27
sS'regions'
p28
g3
((lp29
S"(203, u'(?i)(dentates|dentate)(-|\\\\s+)?(gyruses|gyrus)')"
p30
aS"(390, u'(?i)(laterals|lateral)(-|\\\\s+)?(ventricle|ventricles)')"
p31
atp32
Rp33
sS'year'
p34
V2002
p35
sS'agonists'
p36
g3
((lp37
S"(155, u'\\\\bmem')"
p38
aS"(209, u'\\\\brs ?67333')"
p39
atp40
Rp41
sS'species'
p42
g3
((lp43
S"(2323, u'(?i)(bees|bee)')"
p44
aS"(5537, u'(?i)(hippos|hippo)')"
p45
aS"(5958, u'(?i)(rats|rat)')"
p46
aS"(468, u'(?i)(oxen|ox)')"
p47
aS"(5967, u'(?i)(males|male)')"
p48
aS"(2183, u'(?i)(gars|gar)')"
p49
aS"(1055, u'(?i)(men|man)')"
p50
aS"(6249, u'(?i)(ants|ant)')"
p51
aS"(3152, u'(?i)(layers|layer)')"
p52
aS"(2334, u'(?i)(eels|eel)')"
p53
aS"(3812, u'(?i)(studs|stud)')"
p54
aS"(3550, u'(?i)(anis|ani)')"
p55
aS"(6682, u'(?i)(tera|teras)')"
p56
aS"(1961, u'(?i)(pens|pen)')"
p57
aS"(1414, u'(?i)(chars|char)')"
p58
atp59
Rp60
sb.