(ifile_types
ParseObject
p0
(dp1
S'antagonists'
p2
c__builtin__
set
p3
((lp4
S"(113, u'\\\\bclomipramine')"
p5
atp6
Rp7
sS'methods'
p8
g3
((lp9
tp10
Rp11
sS'topics'
p12
g3
((lp13
S"(9, u'\\\\bdepress')"
p14
aS"(35, u'\\\\bstress')"
p15
atp16
Rp17
sS'receptors'
p18
g3
((lp19
S'5ht1a'
p20
atp21
Rp22
sS'regions'
p23
g3
((lp24
S"(34, u'(?i)(pon|pons)')"
p25
atp26
Rp27
sS'year'
p28
V2013
p29
sS'agonists'
p30
g3
((lp31
tp32
Rp33
sS'species'
p34
g3
((lp35
S"(6753, u'(?i)(da|das)')"
p36
aS"(2568, u'(?i)(hens|hen)')"
p37
aS"(5958, u'(?i)(rats|rat)')"
p38
aS"(163, u'(?i)(mice|mouse)')"
p39
aS"(4091, u'(?i)(adults|adult)')"
p40
aS"(6682, u'(?i)(tera|teras)')"
p41
aS"(1349, u'(?i)(rams|ram)')"
p42
aS"(6249, u'(?i)(ants|ant)')"
p43
aS"(1055, u'(?i)(men|man)')"
p44
aS"(4979, u'(?i)(cats|cat)')"
p45
aS"(7094, u'(?i)(curs|cur)')"
p46
aS"(3550, u'(?i)(anis|ani)')"
p47
aS"(6981, u'(?i)(moths|moth)')"
p48
aS"(3812, u'(?i)(studs|stud)')"
p49
aS"(6356, u'(?i)(ais|ai)')"
p50
atp51
Rp52
sb.