(ifile_types
ParseObject
p0
(dp1
S'methods'
p2
c__builtin__
set
p3
((lp4
S'Method.ANTAGONIST'
p5
aS'Method.AGONIST'
p6
atp7
Rp8
sS'topics'
p9
g3
((lp10
S"(13, u'\\\\bantidepress')"
p11
aS"(4, u'\\\\btreatment')"
p12
atp13
Rp14
sS'receptors'
p15
g3
((lp16
(S'5ht1a'
p17
I1593
I1599
tp18
a(S'5ht1a'
p19
I330
I336
tp20
a(S'5ht1a'
p21
I1013
I1019
tp22
a(S'5ht1a'
p23
I1873
I1879
tp24
a(S'5ht1a'
p25
I1272
I1278
tp26
a(S'5ht1a'
p27
I70
I76
tp28
a(S'5ht1a'
p29
I718
I724
tp30
atp31
Rp32
sS'raw_text_methods'
p33
g3
((lp34
S"(13, u'\\\\bagonist')"
p35
aS"(15, u'\\\\b8ohdpat')"
p36
aS"(11, u'\\\\bfluoxetine')"
p37
aS"(39, u'\\\\bselective serotonin reuptake inhibitor')"
p38
aS"(12, u'\\\\bantagonist')"
p39
atp40
Rp41
sS'regions'
p42
g3
((lp43
tp44
Rp45
sS'year'
p46
V1995
p47
sS'species'
p48
g3
((lp49
S"(4, u'(?i)\\\\b(rats|rat)\\\\b')"
p50
atp51
Rp52
sb.