(ifile_types
ParseObject
p0
(dp1
S'methods'
p2
c__builtin__
set
p3
((lp4
S'Method.ANTAGONIST'
p5
atp6
Rp7
sS'topics'
p8
g3
((lp9
S"(24, u'\\\\banxiolytic')"
p10
aS"(26, u'\\\\bbehav')"
p11
aS"(2, u'\\\\bdisorder')"
p12
aS"(16, u'\\\\blearning')"
p13
aS"(8, u'\\\\banxi')"
p14
aS"(1, u'\\\\bpatient')"
p15
aS"(4, u'\\\\btreatment')"
p16
aS"(3, u'\\\\bclinical')"
p17
atp18
Rp19
sS'receptors'
p20
g3
((lp21
(S'5ht2e'
p22
I710
I716
tp23
a(S'5ht2c'
p24
I690
I696
tp25
a(S'5ht2'
p26
I710
I715
tp27
atp28
Rp29
sS'raw_text_methods'
p30
g3
((lp31
S"(38, u'\\\\bssri')"
p32
aS"(39, u'\\\\bselective serotonin reuptake inhibitor')"
p33
atp34
Rp35
sS'regions'
p36
g3
((lp37
S"(12, u'(?i)\\\\b(amygdalas|amygdala)\\\\b')"
p38
aS"(16, u'(?i)\\\\b(drns|drn)\\\\b')"
p39
atp40
Rp41
sS'year'
p42
V2016
p43
sS'species'
p44
g3
((lp45
S"(1, u'(?i)\\\\b(mice|mouse)\\\\b')"
p46
aS"(5, u'(?i)\\\\b(mices|mice)\\\\b')"
p47
atp48
Rp49
sb.