(ifile_types
ParseObject
p0
(dp1
S'antagonists'
p2
c__builtin__
set
p3
((lp4
tp5
Rp6
sS'methods'
p7
g3
((lp8
S'Method.AGONIST'
p9
atp10
Rp11
sS'topics'
p12
g3
((lp13
tp14
Rp15
sS'receptors'
p16
g3
((lp17
S'5ht5'
p18
aS'5ht1a'
p19
aS'5ht2c'
p20
atp21
Rp22
sS'regions'
p23
g3
((lp24
S"(124, u'(?i)(thirds|third)(-|\\\\s+)?(ventricles|ventricle)')"
p25
aS"(34, u'(?i)(pon|pons)')"
p26
atp27
Rp28
sS'year'
p29
V2014
p30
sS'agonists'
p31
g3
((lp32
S"(92, u'\\\\b8 ?oh ?dpat')"
p33
aS"(141, u'\\\\br ?doi')"
p34
aS"(33, u'\\\\bdoi')"
p35
atp36
Rp37
sS'species'
p38
g3
((lp39
S"(6753, u'(?i)(da|das)')"
p40
aS"(2568, u'(?i)(hens|hen)')"
p41
aS"(5743, u'(?i)(bots|bot)')"
p42
aS"(468, u'(?i)(oxen|ox)')"
p43
aS"(4163, u'(?i)(ermines|ermine)')"
p44
aS"(1055, u'(?i)(men|man)')"
p45
aS"(6249, u'(?i)(ants|ant)')"
p46
aS"(107, u'(?i)(stags|stag)')"
p47
aS"(4979, u'(?i)(cats|cat)')"
p48
aS"(5958, u'(?i)(rats|rat)')"
p49
aS"(4371, u'(?i)(lizas|liza)')"
p50
aS"(3812, u'(?i)(studs|stud)')"
p51
aS"(6517, u'(?i)(birds|bird)')"
p52
aS"(4476, u'(?i)(turkeys|turkey)')"
p53
atp54
Rp55
sb.