(ifile_types
ParseObject
p0
(dp1
S'methods'
p2
c__builtin__
set
p3
((lp4
S'Method.AGONIST'
p5
atp6
Rp7
sS'topics'
p8
g3
((lp9
S"(13, u'\\\\bantidepress')"
p10
atp11
Rp12
sS'receptors'
p13
g3
((lp14
(S'5ht1a'
p15
I1273
I1279
tp16
a(S'5ht1a'
p17
I115
I121
tp18
a(S'5ht1a'
p19
I1738
I1744
tp20
a(S'5ht1a'
p21
I1144
I1150
tp22
a(S'5ht1a'
p23
I238
I244
tp24
a(S'5ht1a'
p25
I349
I355
tp26
a(S'5ht1a'
p27
I576
I582
tp28
atp29
Rp30
sS'raw_text_methods'
p31
g3
((lp32
S"(13, u'\\\\bagonist')"
p33
aS"(15, u'\\\\b8ohdpat')"
p34
aS"(11, u'\\\\bfluoxetine')"
p35
atp36
Rp37
sS'regions'
p38
g3
((lp39
S"(11, u'(?i)\\\\b(cerebrals|cerebral)\\\\b')"
p40
aS"(19, u'(?i)\\\\b(cortexes|cortex)\\\\b')"
p41
atp42
Rp43
sS'year'
p44
V1993
p45
sS'species'
p46
g3
((lp47
S"(3, u'(?i)\\\\b(males|male)\\\\b')"
p48
aS"(4, u'(?i)\\\\b(rats|rat)\\\\b')"
p49
atp50
Rp51
sb.