(ifile_types
ParseObject
p0
(dp1
S'methods'
p2
c__builtin__
set
p3
((lp4
tp5
Rp6
sS'topics'
p7
g3
((lp8
tp9
Rp10
sS'receptors'
p11
g3
((lp12
(S'5ht1d'
p13
I1065
I1071
tp14
a(S'5ht1b'
p15
I1382
I1388
tp16
a(S'5ht1b'
p17
I561
I567
tp18
a(S'5ht5'
p19
I273
I283
tp20
a(S'5ht1d'
p21
I573
I579
tp22
a(S'5ht1d'
p23
I154
I160
tp24
a(S'5ht1a'
p25
I552
I558
tp26
a(S'5ht1b'
p27
I142
I148
tp28
a(S'5ht1d'
p29
I653
I659
tp30
a(S'5ht1b'
p31
I995
I1001
tp32
a(S'5ht1'
p33
I552
I558
tp34
a(S'5ht1d'
p35
I905
I911
tp36
a(S'5ht1a'
p37
I983
I989
tp38
atp39
Rp40
sS'raw_text_methods'
p41
g3
((lp42
tp43
Rp44
sS'regions'
p45
g3
((lp46
tp47
Rp48
sS'year'
p49
V1998
p50
sS'species'
p51
g3
((lp52
tp53
Rp54
sb.