(ifile_types
ParseObject
p0
(dp1
S'methods'
p2
c__builtin__
set
p3
((lp4
S'Method.ANTAGONIST'
p5
atp6
Rp7
sS'topics'
p8
g3
((lp9
S"(14, u'\\\\bcogniti')"
p10
aS"(16, u'\\\\blearning')"
p11
aS"(15, u'\\\\bmemory')"
p12
atp13
Rp14
sS'receptors'
p15
g3
((lp16
(S'5ht6'
p17
I431
I436
tp18
a(S'5ht6'
p19
I643
I648
tp20
a(S'5ht6'
p21
I739
I744
tp22
a(S'5ht6'
p23
I363
I368
tp24
a(S'5ht6'
p25
I1436
I1441
tp26
a(S'5ht6'
p27
I1710
I1715
tp28
a(S'5ht6'
p29
I52
I57
tp30
a(S'5ht6'
p31
I144
I149
tp32
a(S'5ht6'
p33
I799
I804
tp34
atp35
Rp36
sS'raw_text_methods'
p37
g3
((lp38
S"(44, u'\\\\btetrodotoxin')"
p39
aS"(5, u'\\\\bmk801')"
p40
aS"(12, u'\\\\bantagonist')"
p41
atp42
Rp43
sS'regions'
p44
g3
((lp45
S"(19, u'(?i)\\\\b(cortexes|cortex)\\\\b')"
p46
atp47
Rp48
sS'year'
p49
V2006
p50
sS'species'
p51
g3
((lp52
S"(4, u'(?i)\\\\b(rats|rat)\\\\b')"
p53
atp54
Rp55
sb.