(ifile_types
ParseObject
p0
(dp1
S'antagonists'
p2
c__builtin__
set
p3
((lp4
S"(209, u'\\\\btfmpp')"
p5
atp6
Rp7
sS'methods'
p8
g3
((lp9
S'Method.AGONIST'
p10
atp11
Rp12
sS'topics'
p13
g3
((lp14
S"(16, u'\\\\bfeed')"
p15
atp16
Rp17
sS'receptors'
p18
g3
((lp19
S'5ht1c'
p20
aS'5ht1b'
p21
aS'5ht5'
p22
aS'5ht2'
p23
aS'5ht2a'
p24
atp25
Rp26
sS'regions'
p27
g3
((lp28
S"(34, u'(?i)(pon|pons)')"
p29
atp30
Rp31
sS'year'
p32
V1994
p33
sS'agonists'
p34
g3
((lp35
S"(161, u'\\\\bmcpp')"
p36
aS"(74, u'\\\\bru ?24969')"
p37
aS"(183, u'\\\\btfmpp')"
p38
aS"(33, u'\\\\bdoi')"
p39
atp40
Rp41
sS'species'
p42
g3
((lp43
S"(1070, u'(?i)(pets|pet)')"
p44
aS"(2323, u'(?i)(bees|bee)')"
p45
aS"(2568, u'(?i)(hens|hen)')"
p46
aS"(7609, u'(?i)(erns|ern)')"
p47
aS"(5891, u'(?i)(kits|kit)')"
p48
aS"(867, u'(?i)(tits|tit)')"
p49
aS"(468, u'(?i)(oxen|ox)')"
p50
aS"(1055, u'(?i)(men|man)')"
p51
aS"(5131, u'(?i)(hags|hag)')"
p52
aS"(3404, u'(?i)(titis|titi)')"
p53
aS"(853, u'(?i)(minas|mina)')"
p54
aS"(3550, u'(?i)(anis|ani)')"
p55
aS"(3522, u'(?i)(tetras|tetra)')"
p56
aS"(5958, u'(?i)(rats|rat)')"
p57
aS"(1414, u'(?i)(chars|char)')"
p58
aS"(7058, u'(?i)(does|doe)')"
p59
aS"(3812, u'(?i)(studs|stud)')"
p60
atp61
Rp62
sb.