(ifile_types
ParseObject
p0
(dp1
S'antagonists'
p2
c__builtin__
set
p3
((lp4
tp5
Rp6
sS'methods'
p7
g3
((lp8
S'Method.ANTAGONIST'
p9
aS'Method.AGONIST'
p10
atp11
Rp12
sS'topics'
p13
g3
((lp14
tp15
Rp16
sS'receptors'
p17
g3
((lp18
S'5ht7'
p19
aS'5ht7a'
p20
aS'5ht5'
p21
aS'5ht7b'
p22
aS'5ht7d'
p23
atp24
Rp25
sS'regions'
p26
g3
((lp27
tp28
Rp29
sS'year'
p30
V2001
p31
sS'agonists'
p32
g3
((lp33
S"(220, u'\\\\b5 ?methoxytryptamine')"
p34
aS"(149, u'\\\\bmem')"
p35
aS"(222, u'\\\\b5 ?meot')"
p36
aS"(98, u'\\\\b5 ?carboxamidotryptamine')"
p37
aS"(85, u'\\\\b8 ?oh ?dpat')"
p38
aS"(219, u'\\\\b5 ?ct')"
p39
atp40
Rp41
sS'species'
p42
g3
((lp43
S"(1057, u'(?i)\\\\b(humans|human)\\\\b')"
p44
aS"(3196, u'(?i)\\\\b(human|humans)\\\\b')"
p45
atp46
Rp47
sb.