(ifile_types
ParseObject
p0
(dp1
S'methods'
p2
c__builtin__
set
p3
((lp4
S'Method.ANTAGONIST'
p5
atp6
Rp7
sS'topics'
p8
g3
((lp9
tp10
Rp11
sS'receptors'
p12
g3
((lp13
(S'5ht1a'
p14
I758
I764
tp15
a(S'5ht1b'
p16
I395
I401
tp17
a(S'5ht1b'
p18
I664
I670
tp19
a(S'5ht1a'
p20
I384
I390
tp21
atp22
Rp23
sS'raw_text_methods'
p24
g3
((lp25
S"(15, u'\\\\b8ohdpat')"
p26
aS"(12, u'\\\\bantagonist')"
p27
atp28
Rp29
sS'regions'
p30
g3
((lp31
tp32
Rp33
sS'year'
p34
V1993
p35
sS'species'
p36
g3
((lp37
tp38
Rp39
sb.