(ifile_types
ParseObject
p0
(dp1
S'methods'
p2
c__builtin__
set
p3
((lp4
S'Method.AGONIST'
p5
atp6
Rp7
sS'topics'
p8
g3
((lp9
S"(5, u'\\\\btherap')"
p10
aS"(3, u'\\\\bclinical')"
p11
atp12
Rp13
sS'receptors'
p14
g3
((lp15
(S'5ht1'
p16
I437
I441
tp17
a(S'5ht1d'
p18
I59
I64
tp19
a(S'5ht1'
p20
I977
I981
tp21
a(S'5ht1b'
p22
I249
I254
tp23
a(S'5ht1'
p24
I249
I255
tp25
a(S'5ht1'
p26
I904
I908
tp27
a(S'5ht1b'
p28
I660
I665
tp29
a(S'5ht1'
p30
I1151
I1155
tp31
a(S'5ht1d'
p32
I726
I731
tp33
a(S'5ht1'
p34
I70
I74
tp35
a(S'5ht1'
p36
I660
I666
tp37
a(S'5ht1'
p38
I737
I741
tp39
atp40
Rp41
sS'raw_text_methods'
p42
g3
((lp43
S"(13, u'\\\\bagonist')"
p44
aS"(47, u'\\\\bsumatriptan')"
p45
atp46
Rp47
sS'regions'
p48
g3
((lp49
tp50
Rp51
sS'year'
p52
V1997
p53
sS'species'
p54
g3
((lp55
tp56
Rp57
sb.