(ifile_types
ParseObject
p0
(dp1
S'antagonists'
p2
c__builtin__
set
p3
((lp4
S"(85, u'\\\\blisuride')"
p5
atp6
Rp7
sS'methods'
p8
g3
((lp9
S'Method.AGONIST'
p10
atp11
Rp12
sS'topics'
p13
g3
((lp14
S"(15, u'\\\\bschizophreni')"
p15
aS"(13, u'\\\\bpsychedel')"
p16
atp17
Rp18
sS'receptors'
p19
g3
((lp20
S'5ht5'
p21
aS'5ht2a'
p22
atp23
Rp24
sS'regions'
p25
g3
((lp26
S"(254, u'(?i)(prefrontals|prefrontal)(-|\\\\s+)?(cortexes|cortex)')"
p27
aS"(255, u'(?i)(pres|pre)(-|\\\\s+)?(frontals|frontal)(-|\\\\s+)?(cortexes|cortex)')"
p28
aS"(34, u'(?i)(pon|pons)')"
p29
atp30
Rp31
sS'year'
p32
V2014
p33
sS'agonists'
p34
g3
((lp35
S"(57, u'\\\\bmescaline')"
p36
aS"(70, u'\\\\bpsilocybin')"
p37
aS"(52, u'\\\\blisuride')"
p38
aS"(33, u'\\\\bdoi')"
p39
atp40
Rp41
sS'species'
p42
g3
((lp43
S"(5958, u'(?i)(rats|rat)')"
p44
aS"(3812, u'(?i)(studs|stud)')"
p45
aS"(6391, u'(?i)(asses|ass)')"
p46
aS"(1688, u'(?i)(ounces|ounce)')"
p47
aS"(479, u'(?i)(lings|ling)')"
p48
aS"(81, u'(?i)(asps|asp)')"
p49
aS"(468, u'(?i)(oxen|ox)')"
p50
aS"(3550, u'(?i)(anis|ani)')"
p51
aS"(2809, u'(?i)(toms|tom)')"
p52
aS"(2670, u'(?i)(arabs|arab)')"
p53
aS"(6249, u'(?i)(ants|ant)')"
p54
aS"(7609, u'(?i)(erns|ern)')"
p55
aS"(867, u'(?i)(tits|tit)')"
p56
aS"(163, u'(?i)(mice|mouse)')"
p57
aS"(6682, u'(?i)(tera|teras)')"
p58
aS"(1055, u'(?i)(men|man)')"
p59
aS"(5176, u'(?i)(tegs|teg)')"
p60
aS"(4979, u'(?i)(cats|cat)')"
p61
aS"(2568, u'(?i)(hens|hen)')"
p62
aS"(6753, u'(?i)(da|das)')"
p63
aS"(4964, u'(?i)(serins|serin)')"
p64
aS"(1683, u'(?i)(terns|tern)')"
p65
atp66
Rp67
sb.