(ifile_types
ParseObject
p0
(dp1
S'antagonists'
p2
c__builtin__
set
p3
((lp4
tp5
Rp6
sS'methods'
p7
g3
((lp8
S'Method.ANTAGONIST'
p9
atp10
Rp11
sS'topics'
p12
g3
((lp13
tp14
Rp15
sS'receptors'
p16
g3
((lp17
S'5ht7'
p18
aS'5ht5'
p19
aS'5ht3'
p20
aS'5ht2'
p21
aS'5ht1'
p22
aS'5ht1a'
p23
aS'5ht4a'
p24
aS'5ht2b'
p25
aS'5ht2c'
p26
atp27
Rp28
sS'regions'
p29
g3
((lp30
S"(362, u'(?i)(brains|brain)(-|\\\\s+)?(stems|stem)')"
p31
aS"(6, u'(?i)(rostrals|rostral)(-|\\\\s+)?(ventrolaterals|ventrolateral)(-|\\\\s+)?(medullas|medulla)')"
p32
aS"(30, u'(?i)(nuclei|nucleus)(-|\\\\s+)?(ambiguuses|ambiguus)')"
p33
atp34
Rp35
sS'year'
p36
V2005
p37
sS'agonists'
p38
g3
((lp39
tp40
Rp41
sS'species'
p42
g3
((lp43
S"(6753, u'(?i)(da|das)')"
p44
aS"(5958, u'(?i)(rats|rat)')"
p45
aS"(6356, u'(?i)(ais|ai)')"
p46
aS"(4979, u'(?i)(cats|cat)')"
p47
aS"(7539, u'(?i)(mammals|mammal)')"
p48
aS"(479, u'(?i)(lings|ling)')"
p49
aS"(6249, u'(?i)(ants|ant)')"
p50
aS"(6682, u'(?i)(tera|teras)')"
p51
aS"(1055, u'(?i)(men|man)')"
p52
aS"(3726, u'(?i)(mates|mate)')"
p53
aS"(853, u'(?i)(minas|mina)')"
p54
aS"(3550, u'(?i)(anis|ani)')"
p55
aS"(1961, u'(?i)(pens|pen)')"
p56
aS"(3812, u'(?i)(studs|stud)')"
p57
aS"(7609, u'(?i)(erns|ern)')"
p58
aS"(6642, u'(?i)(lions|lion)')"
p59
aS"(1683, u'(?i)(terns|tern)')"
p60
atp61
Rp62
sb.