(ifile_types
ParseObject
p0
(dp1
S'methods'
p2
c__builtin__
set
p3
((lp4
S'Method.ANTAGONIST'
p5
atp6
Rp7
sS'topics'
p8
g3
((lp9
S"(14, u'\\\\bcogniti')"
p10
aS"(16, u'\\\\blearning')"
p11
aS"(26, u'\\\\bbehav')"
p12
atp13
Rp14
sS'receptors'
p15
g3
((lp16
(S'5ht3'
p17
I61
I66
tp18
a(S'5ht3'
p19
I184
I189
tp20
atp21
Rp22
sS'raw_text_methods'
p23
g3
((lp24
S"(20, u'\\\\bondansetron')"
p25
aS"(32, u'\\\\blesions')"
p26
aS"(12, u'\\\\bantagonist')"
p27
atp28
Rp29
sS'regions'
p30
g3
((lp31
tp32
Rp33
sS'year'
p34
V1990
p35
sS'species'
p36
g3
((lp37
S"(1, u'(?i)\\\\b(mice|mouse)\\\\b')"
p38
aS"(6, u'(?i)\\\\b(rodents|rodent)\\\\b')"
p39
aS"(5, u'(?i)\\\\b(mices|mice)\\\\b')"
p40
aS"(8, u'(?i)\\\\b(primates|primate)\\\\b')"
p41
aS"(4, u'(?i)\\\\b(rats|rat)\\\\b')"
p42
atp43
Rp44
sb.