(ifile_types
ParseObject
p0
(dp1
S'antagonists'
p2
c__builtin__
set
p3
((lp4
S"(143, u'\\\\bmosapride')"
p5
aS"(155, u'\\\\bgr ?125487')"
p6
atp7
Rp8
sS'methods'
p9
g3
((lp10
S'Method.ANTAGONIST'
p11
aS'Method.AGONIST'
p12
atp13
Rp14
sS'topics'
p15
g3
((lp16
S"(21, u'\\\\bpain')"
p17
aS"(9, u'\\\\bdepress')"
p18
aS"(24, u'\\\\banalgesi')"
p19
atp20
Rp21
sS'receptors'
p22
g3
((lp23
S'5ht4a'
p24
aS'5ht5'
p25
aS'5ht4'
p26
atp27
Rp28
sS'regions'
p29
g3
((lp30
S"(362, u'(?i)(brains|brain)(-|\\\\s+)?(stems|stem)')"
p31
atp32
Rp33
sS'year'
p34
V2011
p35
sS'agonists'
p36
g3
((lp37
S"(205, u'\\\\bmosapride')"
p38
atp39
Rp40
sS'species'
p41
g3
((lp42
S"(6753, u'(?i)(da|das)')"
p43
aS"(2568, u'(?i)(hens|hen)')"
p44
aS"(5958, u'(?i)(rats|rat)')"
p45
aS"(163, u'(?i)(mice|mouse)')"
p46
aS"(1055, u'(?i)(men|man)')"
p47
aS"(6249, u'(?i)(ants|ant)')"
p48
aS"(6356, u'(?i)(ais|ai)')"
p49
aS"(3550, u'(?i)(anis|ani)')"
p50
aS"(1961, u'(?i)(pens|pen)')"
p51
aS"(3812, u'(?i)(studs|stud)')"
p52
atp53
Rp54
sb.