(ifile_types
ParseObject
p0
(dp1
S'methods'
p2
c__builtin__
set
p3
((lp4
S'Method.ANTAGONIST'
p5
aS'Method.AGONIST'
p6
atp7
Rp8
sS'topics'
p9
g3
((lp10
S"(24, u'\\\\banxiolytic')"
p11
aS"(8, u'\\\\banxi')"
p12
aS"(26, u'\\\\bbehav')"
p13
atp14
Rp15
sS'receptors'
p16
g3
((lp17
(S'5ht1a'
p18
I117
I123
tp19
a(S'5ht1a'
p20
I1568
I1574
tp21
a(S'5ht1a'
p22
I295
I301
tp23
a(S'5ht1a'
p24
I735
I741
tp25
atp26
Rp27
sS'raw_text_methods'
p28
g3
((lp29
S"(13, u'\\\\bagonist')"
p30
aS"(15, u'\\\\b8ohdpat')"
p31
aS"(21, u'\\\\bipsapirone')"
p32
aS"(22, u'\\\\bbuspirone')"
p33
aS"(12, u'\\\\bantagonist')"
p34
atp35
Rp36
sS'regions'
p37
g3
((lp38
tp39
Rp40
sS'year'
p41
V1994
p42
sS'species'
p43
g3
((lp44
tp45
Rp46
sb.