(ifile_types
ParseObject
p0
(dp1
S'methods'
p2
c__builtin__
set
p3
((lp4
S'Method.ANTAGONIST'
p5
aS'Method.AGONIST'
p6
atp7
Rp8
sS'topics'
p9
g3
((lp10
S"(26, u'\\\\bbehav')"
p11
aS"(2, u'\\\\bdisorder')"
p12
aS"(7, u'\\\\bdepressi')"
p13
aS"(33, u'\\\\blocomot')"
p14
aS"(5, u'\\\\btherap')"
p15
aS"(8, u'\\\\banxi')"
p16
aS"(4, u'\\\\btreatment')"
p17
atp18
Rp19
sS'receptors'
p20
g3
((lp21
(S'5ht1b'
p22
I665
I671
tp23
a(S'5ht1b'
p24
I551
I557
tp25
a(S'5ht1b'
p26
I61
I72
tp27
a(S'5ht1b'
p28
I1264
I1270
tp29
a(S'5ht1b'
p30
I915
I921
tp31
a(S'5ht1b'
p32
I1039
I1045
tp33
a(S'5ht1b'
p34
I1380
I1386
tp35
atp36
Rp37
sS'raw_text_methods'
p38
g3
((lp39
S"(13, u'\\\\bagonist')"
p40
aS"(30, u'\\\\b2methyl')"
p41
aS"(12, u'\\\\bantagonist')"
p42
atp43
Rp44
sS'regions'
p45
g3
((lp46
tp47
Rp48
sS'year'
p49
V2002
p50
sS'species'
p51
g3
((lp52
S"(4, u'(?i)\\\\b(rats|rat)\\\\b')"
p53
atp54
Rp55
sb.