(ifile_types
ParseObject
p0
(dp1
S'antagonists'
p2
c__builtin__
set
p3
((lp4
tp5
Rp6
sS'methods'
p7
g3
((lp8
S'Method.STIMULATION'
p9
aS'Method.ANTAGONIST'
p10
aS'Method.AGONIST'
p11
atp12
Rp13
sS'topics'
p14
g3
((lp15
tp16
Rp17
sS'receptors'
p18
g3
((lp19
S'5ht1a'
p20
aS'5ht2c'
p21
aS'5ht5'
p22
aS'5ht2'
p23
aS'5ht2a'
p24
atp25
Rp26
sS'regions'
p27
g3
((lp28
S"(159, u'(?i)(paraventriculars|paraventricular)(-|\\\\s+)?(nuclei|nucleus)')"
p29
aS"(34, u'(?i)(pon|pons)')"
p30
atp31
Rp32
sS'year'
p33
V1996
p34
sS'agonists'
p35
g3
((lp36
S"(161, u'\\\\bmcpp')"
p37
aS"(50, u'\\\\bipsapirone')"
p38
aS"(33, u'\\\\bdoi')"
p39
atp40
Rp41
sS'species'
p42
g3
((lp43
S"(6249, u'(?i)(ants|ant)')"
p44
aS"(2568, u'(?i)(hens|hen)')"
p45
aS"(5958, u'(?i)(rats|rat)')"
p46
aS"(5967, u'(?i)(males|male)')"
p47
aS"(468, u'(?i)(oxen|ox)')"
p48
aS"(3592, u'(?i)(ravens|raven)')"
p49
aS"(4462, u'(?i)(monals|monal)')"
p50
aS"(2334, u'(?i)(eels|eel)')"
p51
aS"(6356, u'(?i)(ais|ai)')"
p52
aS"(3550, u'(?i)(anis|ani)')"
p53
aS"(1414, u'(?i)(chars|char)')"
p54
atp55
Rp56
sb.