(ifile_types
ParseObject
p0
(dp1
S'antagonists'
p2
c__builtin__
set
p3
((lp4
S"(89, u'\\\\beltoprazine')"
p5
atp6
Rp7
sS'methods'
p8
g3
((lp9
S'Method.AGONIST'
p10
atp11
Rp12
sS'topics'
p13
g3
((lp14
S"(18, u'\\\\bpsychostim')"
p15
aS"(19, u'\\\\bimpulsiv')"
p16
atp17
Rp18
sS'receptors'
p19
g3
((lp20
S'5ht1b'
p21
aS'5ht1a'
p22
atp23
Rp24
sS'regions'
p25
g3
((lp26
S"(256, u'(?i)\\\\b(orbitofrontals|orbitofrontal)(-|\\\\s+)?(cortexes|cortex)\\\\b')"
p27
aS"(254, u'(?i)\\\\b(prefrontals|prefrontal)(-|\\\\s+)?(cortexes|cortex)\\\\b')"
p28
aS"(255, u'(?i)\\\\b(pres|pre)(-|\\\\s+)?(frontals|frontal)(-|\\\\s+)?(cortexes|cortex)\\\\b')"
p29
aS"(226, u'(?i)\\\\b(nuclei|nucleus)(-|\\\\s+)?(accumben|accumbens)\\\\b')"
p30
atp31
Rp32
sS'year'
p33
V2017
p34
sS'agonists'
p35
g3
((lp36
S"(11, u'\\\\bamphetamine')"
p37
aS"(52, u'\\\\bmethylphenidate')"
p38
aS"(31, u'\\\\beltoprazine')"
p39
atp40
Rp41
sS'species'
p42
g3
((lp43
S"(6753, u'(?i)\\\\b(da|das)\\\\b')"
p44
aS"(5958, u'(?i)\\\\b(rats|rat)\\\\b')"
p45
atp46
Rp47
sb.