(ifile_types
ParseObject
p0
(dp1
S'methods'
p2
c__builtin__
set
p3
((lp4
S'Method.ANTAGONIST'
p5
aS'Method.AGONIST'
p6
atp7
Rp8
sS'topics'
p9
g3
((lp10
tp11
Rp12
sS'receptors'
p13
g3
((lp14
(S'5ht3'
p15
I1537
I1542
tp16
a(S'5ht3'
p17
I1929
I1934
tp18
a(S'5ht3'
p19
I3231
I3236
tp20
a(S'5ht3'
p21
I155
I160
tp22
a(S'5ht3'
p23
I2168
I2173
tp24
a(S'5ht3'
p25
I3715
I3720
tp26
a(S'5ht3'
p27
I3336
I3341
tp28
a(S'5ht3'
p29
I3557
I3562
tp30
a(S'5ht3'
p31
I2847
I2852
tp32
a(S'5ht3'
p33
I3090
I3095
tp34
a(S'5ht3'
p35
I2535
I2540
tp36
a(S'5ht3'
p37
I3285
I3290
tp38
a(S'5ht3'
p39
I2399
I2404
tp40
a(S'5ht3'
p41
I1736
I1741
tp42
atp43
Rp44
sS'raw_text_methods'
p45
g3
((lp46
S"(13, u'\\\\bagonist')"
p47
aS"(41, u'\\\\bhaloperidol')"
p48
aS"(20, u'\\\\bondansetron')"
p49
aS"(30, u'\\\\b2methyl')"
p50
aS"(12, u'\\\\bantagonist')"
p51
atp52
Rp53
sS'regions'
p54
g3
((lp55
S"(19, u'(?i)\\\\b(cortexes|cortex)\\\\b')"
p56
atp57
Rp58
sS'year'
p59
V1995
p60
sS'species'
p61
g3
((lp62
S"(7, u'(?i)\\\\b(guineas|guinea)(-|\\\\s+)?(pigs|pig)\\\\b')"
p63
aS"(4, u'(?i)\\\\b(rats|rat)\\\\b')"
p64
atp65
Rp66
sb.