(ifile_types
ParseObject
p0
(dp1
S'antagonists'
p2
c__builtin__
set
p3
((lp4
S"(117, u'\\\\bketanserin')"
p5
atp6
Rp7
sS'methods'
p8
g3
((lp9
S'Method.ANTAGONIST'
p10
atp11
Rp12
sS'topics'
p13
g3
((lp14
S"(13, u'\\\\bpsychedel')"
p15
atp16
Rp17
sS'receptors'
p18
g3
((lp19
S'5ht2a'
p20
atp21
Rp22
sS'regions'
p23
g3
((lp24
tp25
Rp26
sS'year'
p27
V2017
p28
sS'agonists'
p29
g3
((lp30
S"(63, u'\\\\bpsilocybin')"
p31
aS"(49, u'\\\\blysergic acid diethylamide')"
p32
aS"(158, u'\\\\blsd')"
p33
atp34
Rp35
sS'species'
p36
g3
((lp37
tp38
Rp39
sb.