(ifile_types
ParseObject
p0
(dp1
S'antagonists'
p2
c__builtin__
set
p3
((lp4
S"(33, u'\\\\byohimbine')"
p5
atp6
Rp7
sS'methods'
p8
g3
((lp9
tp10
Rp11
sS'topics'
p12
g3
((lp13
S"(29, u'\\\\bsex')"
p14
atp15
Rp16
sS'receptors'
p17
g3
((lp18
S'5ht1a'
p19
atp20
Rp21
sS'regions'
p22
g3
((lp23
tp24
Rp25
sS'year'
p26
V1986
p27
sS'agonists'
p28
g3
((lp29
S"(149, u'\\\\bmem')"
p30
aS"(85, u'\\\\b8 ?oh ?dpat')"
p31
aS"(82, u'\\\\byohimbine')"
p32
atp33
Rp34
sS'species'
p35
g3
((lp36
S"(5958, u'(?i)\\\\b(rats|rat)\\\\b')"
p37
atp38
Rp39
sb.