(ifile_types
ParseObject
p0
(dp1
S'methods'
p2
c__builtin__
set
p3
((lp4
S'Method.AGONIST'
p5
atp6
Rp7
sS'topics'
p8
g3
((lp9
S"(13, u'\\\\bantidepress')"
p10
aS"(26, u'\\\\bbehav')"
p11
atp12
Rp13
sS'receptors'
p14
g3
((lp15
(S'5ht2'
p16
I1654
I1659
tp17
a(S'5ht1a'
p18
I1558
I1564
tp19
atp20
Rp21
sS'raw_text_methods'
p22
g3
((lp23
S"(13, u'\\\\bagonist')"
p24
atp25
Rp26
sS'regions'
p27
g3
((lp28
S"(11, u'(?i)\\\\b(cerebrals|cerebral)\\\\b')"
p29
aS"(19, u'(?i)\\\\b(cortexes|cortex)\\\\b')"
p30
aS"(23, u'(?i)\\\\b(forebrains|forebrain)\\\\b')"
p31
atp32
Rp33
sS'year'
p34
V1999
p35
sS'species'
p36
g3
((lp37
S"(3, u'(?i)\\\\b(males|male)\\\\b')"
p38
aS"(4, u'(?i)\\\\b(rats|rat)\\\\b')"
p39
atp40
Rp41
sb.