(ifile_types
ParseObject
p0
(dp1
S'methods'
p2
c__builtin__
set
p3
((lp4
S'Method.ANTAGONIST'
p5
atp6
Rp7
sS'topics'
p8
g3
((lp9
S"(13, u'\\\\bantidepress')"
p10
aS"(7, u'\\\\bdepressi')"
p11
aS"(33, u'\\\\blocomot')"
p12
aS"(5, u'\\\\btherap')"
p13
aS"(26, u'\\\\bbehav')"
p14
aS"(4, u'\\\\btreatment')"
p15
atp16
Rp17
sS'receptors'
p18
g3
((lp19
(S'5ht1a'
p20
I1767
I1773
tp21
atp22
Rp23
sS'raw_text_methods'
p24
g3
((lp25
S"(7, u'\\\\bpropranolol')"
p26
aS"(11, u'\\\\bfluoxetine')"
p27
aS"(45, u'\\\\bmetergoline')"
p28
aS"(12, u'\\\\bantagonist')"
p29
atp30
Rp31
sS'regions'
p32
g3
((lp33
tp34
Rp35
sS'year'
p36
V2014
p37
sS'species'
p38
g3
((lp39
S"(1, u'(?i)\\\\b(mice|mouse)\\\\b')"
p40
aS"(5, u'(?i)\\\\b(mices|mice)\\\\b')"
p41
atp42
Rp43
sb.