(ifile_types
ParseObject
p0
(dp1
S'antagonists'
p2
c__builtin__
set
p3
((lp4
S"(141, u'\\\\bzacopride')"
p5
aS"(6, u'\\\\bcyproheptadine')"
p6
aS"(62, u'\\\\bcyproheptadine')"
p7
aS"(102, u'\\\\bfluoxetine')"
p8
aS"(22, u'\\\\bpropranolol')"
p9
atp10
Rp11
sS'methods'
p12
g3
((lp13
S'Method.ANTAGONIST'
p14
aS'Method.AGONIST'
p15
atp16
Rp17
sS'topics'
p18
g3
((lp19
S"(12, u'\\\\banxiogen')"
p20
aS"(35, u'\\\\bstress')"
p21
aS"(11, u'\\\\banxiolyt')"
p22
aS"(10, u'\\\\banxiety')"
p23
atp24
Rp25
sS'receptors'
p26
g3
((lp27
S'5ht5'
p28
aS'5ht3a'
p29
aS'5ht2'
p30
aS'5ht1'
p31
aS'5ht2a'
p32
aS'5ht1a'
p33
atp34
Rp35
sS'regions'
p36
g3
((lp37
S"(34, u'(?i)(pon|pons)')"
p38
atp39
Rp40
sS'year'
p41
V1990
p42
sS'agonists'
p43
g3
((lp44
S"(92, u'\\\\b8 ?oh ?dpat')"
p45
aS"(24, u'\\\\bbuspirone')"
p46
aS"(196, u'\\\\bquipazine')"
p47
aS"(172, u'\\\\bmk ?212')"
p48
aS"(212, u'\\\\bzacopride')"
p49
atp50
Rp51
sS'species'
p52
g3
((lp53
S"(5799, u'(?i)(rodents|rodent)')"
p54
aS"(2568, u'(?i)(hens|hen)')"
p55
aS"(3527, u'(?i)(permits|permit)')"
p56
aS"(5958, u'(?i)(rats|rat)')"
p57
aS"(6753, u'(?i)(da|das)')"
p58
aS"(6682, u'(?i)(tera|teras)')"
p59
aS"(5967, u'(?i)(males|male)')"
p60
aS"(468, u'(?i)(oxen|ox)')"
p61
aS"(1055, u'(?i)(men|man)')"
p62
aS"(6249, u'(?i)(ants|ant)')"
p63
aS"(6356, u'(?i)(ais|ai)')"
p64
aS"(3550, u'(?i)(anis|ani)')"
p65
aS"(5917, u'(?i)(roaches|roach)')"
p66
aS"(3812, u'(?i)(studs|stud)')"
p67
aS"(1795, u'(?i)(mounts|mount)')"
p68
aS"(1345, u'(?i)(boas|boa)')"
p69
aS"(1085, u'(?i)(boars|boar)')"
p70
aS"(7552, u'(?i)(bats|bat)')"
p71
atp72
Rp73
sb.