(ifile_types
ParseObject
p0
(dp1
S'methods'
p2
c__builtin__
set
p3
((lp4
S'Method.AGONIST'
p5
atp6
Rp7
sS'topics'
p8
g3
((lp9
S"(9, u'\\\\bstress')"
p10
aS"(4, u'\\\\btreatment')"
p11
atp12
Rp13
sS'receptors'
p14
g3
((lp15
(S'5ht2a'
p16
I28
I34
tp17
a(S'5ht2a'
p18
I548
I554
tp19
a(S'5ht2a'
p20
I1209
I1215
tp21
a(S'5ht2c'
p22
I909
I917
tp23
a(S'5ht2a'
p24
I909
I915
tp25
atp26
Rp27
sS'raw_text_methods'
p28
g3
((lp29
S"(13, u'\\\\bagonist')"
p30
aS"(49, u'\\\\bdoi')"
p31
atp32
Rp33
sS'regions'
p34
g3
((lp35
tp36
Rp37
sS'year'
p38
V2009
p39
sS'species'
p40
g3
((lp41
tp42
Rp43
sb.