(ifile_types
ParseObject
p0
(dp1
S'methods'
p2
c__builtin__
set
p3
((lp4
tp5
Rp6
sS'topics'
p7
g3
((lp8
S"(26, u'\\\\bbehav')"
p9
aS"(9, u'\\\\bstress')"
p10
aS"(20, u'\\\\bmood')"
p11
aS"(2, u'\\\\bdisorder')"
p12
atp13
Rp14
sS'receptors'
p15
g3
((lp16
(S'5ht1a'
p17
I1402
I1413
tp18
a(S'5ht1'
p19
I995
I1000
tp20
a(S'5ht1a'
p21
I1738
I1749
tp22
a(S'5ht1a'
p23
I972
I983
tp24
atp25
Rp26
sS'raw_text_methods'
p27
g3
((lp28
tp29
Rp30
sS'regions'
p31
g3
((lp32
tp33
Rp34
sS'year'
p35
V2009
p36
sS'species'
p37
g3
((lp38
S"(8, u'(?i)\\\\b(primates|primate)\\\\b')"
p39
atp40
Rp41
sb.