(ifile_types
ParseObject
p0
(dp1
S'methods'
p2
c__builtin__
set
p3
((lp4
S'Method.ANTAGONIST'
p5
atp6
Rp7
sS'topics'
p8
g3
((lp9
tp10
Rp11
sS'receptors'
p12
g3
((lp13
(S'5ht2c'
p14
I473
I479
tp15
a(S'5ht2a'
p16
I437
I443
tp17
a(S'5ht1c'
p18
I831
I837
tp19
a(S'5ht2c'
p20
I1293
I1299
tp21
a(S'5ht2a'
p22
I1274
I1280
tp23
a(S'5ht2a'
p24
I158
I164
tp25
a(S'5ht2a'
p26
I819
I825
tp27
a(S'5ht2a'
p28
I652
I658
tp29
a(S'5ht1c'
p30
I490
I496
tp31
a(S'5ht5'
p32
I395
I405
tp33
a(S'5ht2a'
p34
I1490
I1496
tp35
a(S'5ht2'
p36
I454
I459
tp37
atp38
Rp39
sS'raw_text_methods'
p40
g3
((lp41
S"(23, u'\\\\bmdl')"
p42
aS"(12, u'\\\\bantagonist')"
p43
atp44
Rp45
sS'regions'
p46
g3
((lp47
S"(19, u'(?i)\\\\b(cortexes|cortex)\\\\b')"
p48
atp49
Rp50
sS'year'
p51
V1994
p52
sS'species'
p53
g3
((lp54
S"(4, u'(?i)\\\\b(rats|rat)\\\\b')"
p55
atp56
Rp57
sb.