(ifile_types
ParseObject
p0
(dp1
S'methods'
p2
c__builtin__
set
p3
((lp4
S'Method.ANTAGONIST'
p5
aS'Method.AGONIST'
p6
atp7
Rp8
sS'topics'
p9
g3
((lp10
S"(13, u'\\\\bantidepress')"
p11
aS"(23, u'\\\\bantipsychotic')"
p12
atp13
Rp14
sS'receptors'
p15
g3
((lp16
(S'5ht2b'
p17
I1232
I1238
tp18
a(S'5ht3'
p19
I827
I832
tp20
a(S'5ht2a'
p21
I1529
I1535
tp22
a(S'5ht2c'
p23
I1141
I1147
tp24
a(S'5ht2a'
p25
I1803
I1809
tp26
a(S'5ht2a'
p27
I1340
I1346
tp28
a(S'5ht2a'
p29
I304
I310
tp30
a(S'5ht2a'
p31
I555
I561
tp32
a(S'5ht2a'
p33
I136
I142
tp34
a(S'5ht2c'
p35
I908
I914
tp36
a(S'5ht2a'
p37
I1958
I1964
tp38
a(S'5ht2a'
p39
I895
I901
tp40
a(S'5ht2b'
p41
I917
I923
tp42
atp43
Rp44
sS'raw_text_methods'
p45
g3
((lp46
S"(53, u'\\\\bketanserin')"
p47
aS"(23, u'\\\\bmdl')"
p48
aS"(40, u'\\\\bclozapine')"
p49
aS"(13, u'\\\\bagonist')"
p50
aS"(49, u'\\\\bdoi')"
p51
aS"(12, u'\\\\bantagonist')"
p52
atp53
Rp54
sS'regions'
p55
g3
((lp56
S"(11, u'(?i)\\\\b(cerebrals|cerebral)\\\\b')"
p57
aS"(19, u'(?i)\\\\b(cortexes|cortex)\\\\b')"
p58
atp59
Rp60
sS'year'
p61
V2009
p62
sS'species'
p63
g3
((lp64
S"(4, u'(?i)\\\\b(rats|rat)\\\\b')"
p65
atp66
Rp67
sb.