(ifile_types
ParseObject
p0
(dp1
S'methods'
p2
c__builtin__
set
p3
((lp4
S'Method.KNOCKDOWN'
p5
aS'Method.ANTAGONIST'
p6
atp7
Rp8
sS'topics'
p9
g3
((lp10
S"(9, u'\\\\bstress')"
p11
atp12
Rp13
sS'receptors'
p14
g3
((lp15
(S'5ht1a'
p16
I857
I863
tp17
a(S'5ht1a'
p18
I1363
I1369
tp19
a(S'5ht1a'
p20
I1297
I1303
tp21
a(S'5ht1a'
p22
I1448
I1455
tp23
a(S'5ht1a'
p24
I1610
I1616
tp25
a(S'5ht1'
p26
I857
I863
tp27
a(S'5ht1a'
p28
I1448
I1454
tp29
a(S'5ht7'
p30
I887
I892
tp31
a(S'5ht1a'
p32
I116
I122
tp33
a(S'5ht1a'
p34
I989
I995
tp35
a(S'5ht1b'
p36
I877
I883
tp37
a(S'5ht1a'
p38
I1479
I1485
tp39
atp40
Rp41
sS'raw_text_methods'
p42
g3
((lp43
S"(51, u'\\\\bway100635')"
p44
aS"(14, u'\\\\bknockdown')"
p45
aS"(12, u'\\\\bantagonist')"
p46
atp47
Rp48
sS'regions'
p49
g3
((lp50
tp51
Rp52
sS'year'
p53
V2012
p54
sS'species'
p55
g3
((lp56
tp57
Rp58
sb.