(ifile_types
ParseObject
p0
(dp1
S'antagonists'
p2
c__builtin__
set
p3
((lp4
tp5
Rp6
sS'methods'
p7
g3
((lp8
S'Method.AGONIST'
p9
atp10
Rp11
sS'topics'
p12
g3
((lp13
tp14
Rp15
sS'receptors'
p16
g3
((lp17
S'5ht1a'
p18
atp19
Rp20
sS'regions'
p21
g3
((lp22
S"(220, u'(?i)(striatums|striatum)')"
p23
aS"(318, u'(?i)(raphes|raphe)(-|\\\\s+)?(nuclei|nucleus)')"
p24
aS"(94, u'(?i)(dorsals|dorsal)(-|\\\\s+)?(raphes|raphe)(-|\\\\s+)?(nuclei|nucleus)')"
p25
atp26
Rp27
sS'year'
p28
V2008
p29
sS'agonists'
p30
g3
((lp31
S"(50, u'\\\\bipsapirone')"
p32
aS"(193, u'\\\\bethanol')"
p33
atp34
Rp35
sS'species'
p36
g3
((lp37
S"(2323, u'(?i)(bees|bee)')"
p38
aS"(6753, u'(?i)(da|das)')"
p39
aS"(949, u'(?i)(cohoes|coho)')"
p40
aS"(163, u'(?i)(mice|mouse)')"
p41
aS"(468, u'(?i)(oxen|ox)')"
p42
aS"(6249, u'(?i)(ants|ant)')"
p43
aS"(5743, u'(?i)(bots|bot)')"
p44
aS"(5958, u'(?i)(rats|rat)')"
p45
aS"(5917, u'(?i)(roaches|roach)')"
p46
aS"(6356, u'(?i)(ais|ai)')"
p47
aS"(6391, u'(?i)(asses|ass)')"
p48
atp49
Rp50
sb.