(ifile_types
ParseObject
p0
(dp1
S'antagonists'
p2
c__builtin__
set
p3
((lp4
S"(193, u'\\\\bmesulergine')"
p5
aS"(14, u'\\\\bmethiothepin')"
p6
aS"(144, u'\\\\bgr ?113808')"
p7
aS"(31, u'\\\\bway ?100635')"
p8
aS"(119, u'\\\\britanserin')"
p9
atp10
Rp11
sS'methods'
p12
g3
((lp13
S'Method.ANTAGONIST'
p14
aS'Method.AGONIST'
p15
atp16
Rp17
sS'topics'
p18
g3
((lp19
tp20
Rp21
sS'receptors'
p22
g3
((lp23
S'5ht7'
p24
aS'5ht1b'
p25
aS'5ht1a'
p26
aS'5ht4'
p27
aS'5ht3'
p28
aS'5ht2'
p29
aS'5ht1'
p30
aS'5ht1d'
p31
aS'5ht6'
p32
atp33
Rp34
sS'regions'
p35
g3
((lp36
tp37
Rp38
sS'year'
p39
V2000
p40
sS'agonists'
p41
g3
((lp42
S"(165, u'\\\\bmesulergine')"
p43
aS"(220, u'\\\\b5 ?methoxytryptamine')"
p44
aS"(222, u'\\\\b5 ?meot')"
p45
aS"(219, u'\\\\b5 ?ct')"
p46
atp47
Rp48
sS'species'
p49
g3
((lp50
tp51
Rp52
sb.