(ifile_types
ParseObject
p0
(dp1
S'antagonists'
p2
c__builtin__
set
p3
((lp4
S"(110, u'\\\\bclozapine')"
p5
aS"(131, u'\\\\bm1')"
p6
aS"(22, u'\\\\bpropranolol')"
p7
atp8
Rp9
sS'methods'
p10
g3
((lp11
S'Method.ANTAGONIST'
p12
aS'Method.AGONIST'
p13
atp14
Rp15
sS'topics'
p16
g3
((lp17
tp18
Rp19
sS'receptors'
p20
g3
((lp21
S'5ht2d'
p22
aS'5ht4'
p23
aS'5ht3'
p24
aS'5ht2'
p25
aS'5ht1a'
p26
aS'5ht4a'
p27
atp28
Rp29
sS'regions'
p30
g3
((lp31
S"(94, u'(?i)\\\\b(dorsals|dorsal)(-|\\\\s+)?(raphes|raphe)(-|\\\\s+)?(nuclei|nucleus)\\\\b')"
p32
aS"(96, u'(?i)\\\\b(ventrals|ventral)(-|\\\\s+)?(tegmentals|tegmental)(-|\\\\s+)?(areas|area)\\\\b')"
p33
aS"(103, u'(?i)\\\\b(substantias|substantia)(-|\\\\s+)?(nigras|nigra)\\\\b')"
p34
aS"(318, u'(?i)\\\\b(raphes|raphe)(-|\\\\s+)?(nuclei|nucleus)\\\\b')"
p35
atp36
Rp37
sS'year'
p38
V1996
p39
sS'agonists'
p40
g3
((lp41
S"(23, u'\\\\bclozapine')"
p42
aS"(85, u'\\\\b8 ?oh ?dpat')"
p43
atp44
Rp45
sS'species'
p46
g3
((lp47
S"(5958, u'(?i)\\\\b(rats|rat)\\\\b')"
p48
atp49
Rp50
sb.