(ifile_types
ParseObject
p0
(dp1
S'methods'
p2
c__builtin__
set
p3
((lp4
S'Method.KNOCKOUT'
p5
aS'Method.ANTAGONIST'
p6
aS'Method.AGONIST'
p7
atp8
Rp9
sS'topics'
p10
g3
((lp11
S"(26, u'\\\\bbehav')"
p12
atp13
Rp14
sS'receptors'
p15
g3
((lp16
(S'5ht2c'
p17
I81
I87
tp18
a(S'5ht1b'
p19
I1672
I1678
tp20
a(S'5ht1b'
p21
I113
I119
tp22
a(S'5ht1b'
p23
I1224
I1230
tp24
a(S'5ht2c'
p25
I402
I408
tp26
a(S'5ht1b'
p27
I1444
I1450
tp28
a(S'5ht1b'
p29
I485
I491
tp30
a(S'5ht1b'
p31
I1375
I1381
tp32
a(S'5ht1b'
p33
I309
I315
tp34
a(S'5ht1b'
p35
I1562
I1568
tp36
a(S'5ht1b'
p37
I1148
I1154
tp38
a(S'5ht2c'
p39
I456
I462
tp40
a(S'5ht1d'
p41
I1148
I1156
tp42
a(S'5ht2c'
p43
I238
I244
tp44
a(S'5ht2c'
p45
I1637
I1643
tp46
a(S'5ht1b'
p47
I547
I553
tp48
a(S'5ht2c'
p49
I1404
I1410
tp50
a(S'5ht1b'
p51
I1099
I1105
tp52
a(S'5ht1b'
p53
I788
I794
tp54
a(S'5ht2a'
p55
I456
I463
tp56
atp57
Rp58
sS'raw_text_methods'
p59
g3
((lp60
S"(13, u'\\\\bagonist')"
p61
aS"(33, u'\\\\bmcpp')"
p62
aS"(12, u'\\\\bantagonist')"
p63
atp64
Rp65
sS'regions'
p66
g3
((lp67
tp68
Rp69
sS'year'
p70
V2004
p71
sS'species'
p72
g3
((lp73
S"(1, u'(?i)\\\\b(mice|mouse)\\\\b')"
p74
aS"(5, u'(?i)\\\\b(mices|mice)\\\\b')"
p75
atp76
Rp77
sb.