(ifile_types
ParseObject
p0
(dp1
S'methods'
p2
c__builtin__
set
p3
((lp4
S'Method.KNOCKOUT'
p5
atp6
Rp7
sS'topics'
p8
g3
((lp9
S"(20, u'\\\\bmood')"
p10
aS"(4, u'\\\\btreatment')"
p11
aS"(2, u'\\\\bdisorder')"
p12
atp13
Rp14
sS'receptors'
p15
g3
((lp16
(S'5ht1'
p17
I746
I752
tp18
a(S'5ht1a'
p19
I746
I752
tp20
a(S'5ht1a'
p21
I234
I240
tp22
a(S'5ht1a'
p23
I1480
I1486
tp24
a(S'5ht1a'
p25
I1678
I1684
tp26
a(S'5ht1a'
p27
I1038
I1044
tp28
atp29
Rp30
sS'raw_text_methods'
p31
g3
((lp32
tp33
Rp34
sS'regions'
p35
g3
((lp36
S"(4, u'(?i)\\\\b(presynaptics|presynaptic)\\\\b')"
p37
aS"(3, u'(?i)\\\\b(postsynaptics|postsynaptic)\\\\b')"
p38
atp39
Rp40
sS'year'
p41
V2017
p42
sS'species'
p43
g3
((lp44
S"(1, u'(?i)\\\\b(mice|mouse)\\\\b')"
p45
aS"(5, u'(?i)\\\\b(mices|mice)\\\\b')"
p46
atp47
Rp48
sb.