(ifile_types
ParseObject
p0
(dp1
S'methods'
p2
c__builtin__
set
p3
((lp4
S'Method.KNOCKOUT'
p5
atp6
Rp7
sS'topics'
p8
g3
((lp9
S"(24, u'\\\\banxiolytic')"
p10
aS"(8, u'\\\\banxi')"
p11
aS"(26, u'\\\\bbehav')"
p12
aS"(4, u'\\\\btreatment')"
p13
aS"(35, u'\\\\bnocicept')"
p14
atp15
Rp16
sS'receptors'
p17
g3
((lp18
(S'5ht1b'
p19
I1367
I1373
tp20
a(S'5ht1b'
p21
I364
I370
tp22
a(S'5ht1b'
p23
I152
I158
tp24
atp25
Rp26
sS'raw_text_methods'
p27
g3
((lp28
tp29
Rp30
sS'regions'
p31
g3
((lp32
tp33
Rp34
sS'year'
p35
V2000
p36
sS'species'
p37
g3
((lp38
S"(1, u'(?i)\\\\b(mice|mouse)\\\\b')"
p39
aS"(5, u'(?i)\\\\b(mices|mice)\\\\b')"
p40
atp41
Rp42
sb.