(ifile_types
ParseObject
p0
(dp1
S'methods'
p2
c__builtin__
set
p3
((lp4
S'Method.AGONIST'
p5
atp6
Rp7
sS'topics'
p8
g3
((lp9
S"(27, u'\\\\bdyskinesia')"
p10
aS"(34, u'\\\\bparkinson')"
p11
atp12
Rp13
sS'receptors'
p14
g3
((lp15
(S'5ht1b'
p16
I1169
I1175
tp17
a(S'5ht1a'
p18
I1162
I1168
tp19
atp20
Rp21
sS'raw_text_methods'
p22
g3
((lp23
S"(13, u'\\\\bagonist')"
p24
aS"(32, u'\\\\blesions')"
p25
aS"(44, u'\\\\btetrodotoxin')"
p26
atp27
Rp28
sS'regions'
p29
g3
((lp30
S"(15, u'(?i)\\\\b(substantias|substantia)(-|\\\\s+)?(nigras|nigra)\\\\b')"
p31
atp32
Rp33
sS'year'
p34
V2010
p35
sS'species'
p36
g3
((lp37
S"(4, u'(?i)\\\\b(rats|rat)\\\\b')"
p38
atp39
Rp40
sb.