(ifile_types
ParseObject
p0
(dp1
S'antagonists'
p2
c__builtin__
set
p3
((lp4
tp5
Rp6
sS'methods'
p7
g3
((lp8
S'Method.AGONIST'
p9
atp10
Rp11
sS'topics'
p12
g3
((lp13
S"(35, u'\\\\bstress')"
p14
aS"(7, u'\\\\bmemory')"
p15
atp16
Rp17
sS'receptors'
p18
g3
((lp19
S'5ht1a'
p20
aS'5ht5'
p21
atp22
Rp23
sS'regions'
p24
g3
((lp25
S"(254, u'(?i)(prefrontals|prefrontal)(-|\\\\s+)?(cortexes|cortex)')"
p26
aS"(255, u'(?i)(pres|pre)(-|\\\\s+)?(frontals|frontal)(-|\\\\s+)?(cortexes|cortex)')"
p27
aS"(34, u'(?i)(pon|pons)')"
p28
atp29
Rp30
sS'year'
p31
V2011
p32
sS'agonists'
p33
g3
((lp34
S"(92, u'\\\\b8 ?oh ?dpat')"
p35
aS"(155, u'\\\\bmem')"
p36
atp37
Rp38
sS'species'
p39
g3
((lp40
S"(5958, u'(?i)(rats|rat)')"
p41
aS"(6753, u'(?i)(da|das)')"
p42
aS"(4091, u'(?i)(adults|adult)')"
p43
aS"(1725, u'(?i)(clams|clam)')"
p44
aS"(1055, u'(?i)(men|man)')"
p45
aS"(1349, u'(?i)(rams|ram)')"
p46
aS"(4979, u'(?i)(cats|cat)')"
p47
aS"(3550, u'(?i)(anis|ani)')"
p48
aS"(1488, u'(?i)(yaks|yak)')"
p49
aS"(3812, u'(?i)(studs|stud)')"
p50
aS"(6391, u'(?i)(asses|ass)')"
p51
atp52
Rp53
sb.