(ifile_types
ParseObject
p0
(dp1
S'antagonists'
p2
c__builtin__
set
p3
((lp4
S"(124, u'\\\\bondansetron')"
p5
atp6
Rp7
sS'methods'
p8
g3
((lp9
S'Method.ANTAGONIST'
p10
atp11
Rp12
sS'topics'
p13
g3
((lp14
S"(32, u'\\\\bnausea')"
p15
aS"(28, u'\\\\bemesis')"
p16
atp17
Rp18
sS'receptors'
p19
g3
((lp20
S'5ht3'
p21
aS'5ht5'
p22
aS'5ht3a'
p23
atp24
Rp25
sS'regions'
p26
g3
((lp27
tp28
Rp29
sS'year'
p30
V1996
p31
sS'agonists'
p32
g3
((lp33
tp34
Rp35
sS'species'
p36
g3
((lp37
S"(7058, u'(?i)\\\\b(does|doe)\\\\b')"
p38
atp39
Rp40
sb.