(ifile_types
ParseObject
p0
(dp1
S'antagonists'
p2
c__builtin__
set
p3
((lp4
S"(36, u'\\\\baripiprazole')"
p5
atp6
Rp7
sS'methods'
p8
g3
((lp9
S'Method.ANTAGONIST'
p10
aS'Method.AGONIST'
p11
atp12
Rp13
sS'topics'
p14
g3
((lp15
S"(4, u'\\\\blocomot')"
p16
atp17
Rp18
sS'receptors'
p19
g3
((lp20
S'5ht5'
p21
aS'5ht1a'
p22
aS'5ht2a'
p23
atp24
Rp25
sS'regions'
p26
g3
((lp27
S"(34, u'(?i)(pon|pons)')"
p28
atp29
Rp30
sS'year'
p31
V2011
p32
sS'agonists'
p33
g3
((lp34
S"(16, u'\\\\baripiprazole')"
p35
aS"(14, u'\\\\bamphetamine')"
p36
atp37
Rp38
sS'species'
p39
g3
((lp40
S"(2323, u'(?i)(bees|bee)')"
p41
aS"(4624, u'(?i)(apes|ape)')"
p42
aS"(5958, u'(?i)(rats|rat)')"
p43
aS"(5967, u'(?i)(males|male)')"
p44
aS"(3592, u'(?i)(ravens|raven)')"
p45
aS"(4604, u'(?i)(mites|mite)')"
p46
aS"(1055, u'(?i)(men|man)')"
p47
aS"(1054, u'(?i)(homoes|homo)')"
p48
aS"(4979, u'(?i)(cats|cat)')"
p49
aS"(6249, u'(?i)(ants|ant)')"
p50
aS"(1961, u'(?i)(pens|pen)')"
p51
aS"(3812, u'(?i)(studs|stud)')"
p52
aS"(6356, u'(?i)(ais|ai)')"
p53
atp54
Rp55
sb.