(ifile_types
ParseObject
p0
(dp1
S'methods'
p2
c__builtin__
set
p3
((lp4
S'Method.ANTAGONIST'
p5
atp6
Rp7
sS'topics'
p8
g3
((lp9
S"(26, u'\\\\bbehav')"
p10
aS"(2, u'\\\\bdisorder')"
p11
aS"(7, u'\\\\bdepressi')"
p12
aS"(9, u'\\\\bstress')"
p13
aS"(5, u'\\\\btherap')"
p14
aS"(30, u'\\\\bpain')"
p15
atp16
Rp17
sS'receptors'
p18
g3
((lp19
(S'5ht1a'
p20
I1004
I1010
tp21
a(S'5ht1a'
p22
I1192
I1198
tp23
a(S'5ht1a'
p24
I27
I33
tp25
a(S'5ht1a'
p26
I918
I924
tp27
atp28
Rp29
sS'raw_text_methods'
p30
g3
((lp31
S"(12, u'\\\\bantagonist')"
p32
atp33
Rp34
sS'regions'
p35
g3
((lp36
S"(16, u'(?i)\\\\b(drns|drn)\\\\b')"
p37
atp38
Rp39
sS'year'
p40
V2019
p41
sS'species'
p42
g3
((lp43
S"(1, u'(?i)\\\\b(mice|mouse)\\\\b')"
p44
aS"(5, u'(?i)\\\\b(mices|mice)\\\\b')"
p45
atp46
Rp47
sb.