(ifile_types
ParseObject
p0
(dp1
S'antagonists'
p2
c__builtin__
set
p3
((lp4
S"(209, u'\\\\btfmpp')"
p5
aS"(67, u'\\\\bhaloperidol')"
p6
aS"(54, u'\\\\britanserin')"
p7
aS"(130, u'\\\\britanserin')"
p8
atp9
Rp10
sS'methods'
p11
g3
((lp12
S'Method.AGONIST'
p13
atp14
Rp15
sS'topics'
p16
g3
((lp17
tp18
Rp19
sS'receptors'
p20
g3
((lp21
S'5ht1b'
p22
aS'5ht5'
p23
aS'5ht1a'
p24
atp25
Rp26
sS'regions'
p27
g3
((lp28
S"(34, u'(?i)(pon|pons)')"
p29
atp30
Rp31
sS'year'
p32
V1987
p33
sS'agonists'
p34
g3
((lp35
S"(48, u'\\\\bhaloperidol')"
p36
aS"(92, u'\\\\b8 ?oh ?dpat')"
p37
aS"(24, u'\\\\bbuspirone')"
p38
aS"(183, u'\\\\btfmpp')"
p39
aS"(155, u'\\\\bmem')"
p40
atp41
Rp42
sS'species'
p43
g3
((lp44
S"(2568, u'(?i)(hens|hen)')"
p45
aS"(6356, u'(?i)(ais|ai)')"
p46
aS"(6753, u'(?i)(da|das)')"
p47
aS"(6682, u'(?i)(tera|teras)')"
p48
aS"(468, u'(?i)(oxen|ox)')"
p49
aS"(1055, u'(?i)(men|man)')"
p50
aS"(4964, u'(?i)(serins|serin)')"
p51
aS"(5958, u'(?i)(rats|rat)')"
p52
aS"(3522, u'(?i)(tetras|tetra)')"
p53
aS"(1961, u'(?i)(pens|pen)')"
p54
aS"(3812, u'(?i)(studs|stud)')"
p55
aS"(6391, u'(?i)(asses|ass)')"
p56
aS"(821, u'(?i)(lice|louse)')"
p57
atp58
Rp59
sb.