(ifile_types
ParseObject
p0
(dp1
S'methods'
p2
c__builtin__
set
p3
((lp4
tp5
Rp6
sS'topics'
p7
g3
((lp8
S"(4, u'\\\\btreatment')"
p9
atp10
Rp11
sS'receptors'
p12
g3
((lp13
(S'5ht1b'
p14
I1120
I1126
tp15
a(S'5ht1b'
p16
I213
I219
tp17
a(S'5ht1b'
p18
I107
I112
tp19
a(S'5ht1b'
p20
I695
I701
tp21
a(S'5ht1b'
p22
I1004
I1010
tp23
a(S'5ht1b'
p24
I488
I494
tp25
a(S'5ht1b'
p26
I200
I211
tp27
atp28
Rp29
sS'raw_text_methods'
p30
g3
((lp31
S"(54, u'\\\\bautoradiography')"
p32
atp33
Rp34
sS'regions'
p35
g3
((lp36
tp37
Rp38
sS'year'
p39
V1994
p40
sS'species'
p41
g3
((lp42
S"(4, u'(?i)\\\\b(rats|rat)\\\\b')"
p43
atp44
Rp45
sb.