(ifile_types
ParseObject
p0
(dp1
S'antagonists'
p2
c__builtin__
set
p3
((lp4
tp5
Rp6
sS'methods'
p7
g3
((lp8
S'Method.AGONIST'
p9
atp10
Rp11
sS'topics'
p12
g3
((lp13
S"(22, u'\\\\bsuicide')"
p14
aS"(9, u'\\\\bdepress')"
p15
aS"(35, u'\\\\bstress')"
p16
atp17
Rp18
sS'receptors'
p19
g3
((lp20
S'5ht1a'
p21
atp22
Rp23
sS'regions'
p24
g3
((lp25
tp26
Rp27
sS'year'
p28
V2017
p29
sS'agonists'
p30
g3
((lp31
S"(92, u'\\\\b8 ?oh ?dpat')"
p32
atp33
Rp34
sS'species'
p35
g3
((lp36
S"(949, u'(?i)(cohoes|coho)')"
p37
aS"(4163, u'(?i)(ermines|ermine)')"
p38
aS"(6356, u'(?i)(ais|ai)')"
p39
aS"(6249, u'(?i)(ants|ant)')"
p40
aS"(5229, u'(?i)(moles|mole)')"
p41
aS"(3196, u'(?i)(human|humans)')"
p42
aS"(3812, u'(?i)(studs|stud)')"
p43
aS"(6391, u'(?i)(asses|ass)')"
p44
aS"(1688, u'(?i)(ounces|ounce)')"
p45
aS"(702, u'(?i)(genets|genet)')"
p46
aS"(4091, u'(?i)(adults|adult)')"
p47
aS"(1349, u'(?i)(rams|ram)')"
p48
aS"(2809, u'(?i)(toms|tom)')"
p49
aS"(5537, u'(?i)(hippos|hippo)')"
p50
aS"(5958, u'(?i)(rats|rat)')"
p51
aS"(163, u'(?i)(mice|mouse)')"
p52
aS"(6682, u'(?i)(tera|teras)')"
p53
aS"(1055, u'(?i)(men|man)')"
p54
aS"(4979, u'(?i)(cats|cat)')"
p55
aS"(1057, u'(?i)(humans|human)')"
p56
aS"(1961, u'(?i)(pens|pen)')"
p57
aS"(2568, u'(?i)(hens|hen)')"
p58
aS"(6753, u'(?i)(da|das)')"
p59
atp60
Rp61
sb.