(ifile_types
ParseObject
p0
(dp1
S'antagonists'
p2
c__builtin__
set
p3
((lp4
S"(194, u'\\\\bmethysergide')"
p5
aS"(119, u'\\\\britanserin')"
p6
atp7
Rp8
sS'methods'
p9
g3
((lp10
S'Method.ANTAGONIST'
p11
atp12
Rp13
sS'topics'
p14
g3
((lp15
S"(21, u'\\\\bpain')"
p16
aS"(24, u'\\\\banalgesi')"
p17
atp18
Rp19
sS'receptors'
p20
g3
((lp21
S'5ht3'
p22
aS'5ht3a'
p23
aS'5ht2a'
p24
atp25
Rp26
sS'regions'
p27
g3
((lp28
S"(91, u'(?i)\\\\b(periaqueductals|periaqueductal)(-|\\\\s+)?(grays|gray)\\\\b')"
p29
atp30
Rp31
sS'year'
p32
V1992
p33
sS'agonists'
p34
g3
((lp35
S"(53, u'\\\\bmethysergide')"
p36
atp37
Rp38
sS'species'
p39
g3
((lp40
S"(4177, u'(?i)\\\\b(grays|gray)\\\\b')"
p41
aS"(5958, u'(?i)\\\\b(rats|rat)\\\\b')"
p42
atp43
Rp44
sb.