(ifile_types
ParseObject
p0
(dp1
S'antagonists'
p2
c__builtin__
set
p3
((lp4
tp5
Rp6
sS'methods'
p7
g3
((lp8
S'Method.STIMULATION'
p9
aS'Method.AGONIST'
p10
atp11
Rp12
sS'topics'
p13
g3
((lp14
tp15
Rp16
sS'receptors'
p17
g3
((lp18
tp19
Rp20
sS'regions'
p21
g3
((lp22
S"(374, u'(?i)\\\\b(duras|dura)(-|\\\\s+)?(maters|mater)\\\\b')"
p23
atp24
Rp25
sS'year'
p26
V1997
p27
sS'agonists'
p28
g3
((lp29
S"(96, u'\\\\bsumatriptan')"
p30
atp31
Rp32
sS'species'
p33
g3
((lp34
S"(5958, u'(?i)\\\\b(rats|rat)\\\\b')"
p35
atp36
Rp37
sb.