(ifile_types
ParseObject
p0
(dp1
S'methods'
p2
c__builtin__
set
p3
((lp4
S'Method.ANTAGONIST'
p5
atp6
Rp7
sS'topics'
p8
g3
((lp9
tp10
Rp11
sS'receptors'
p12
g3
((lp13
(S'5ht2'
p14
I1432
I1437
tp15
a(S'5ht2c'
p16
I1526
I1532
tp17
a(S'5ht2'
p18
I544
I549
tp19
a(S'5ht2b'
p20
I47
I53
tp21
a(S'5ht2'
p22
I877
I882
tp23
a(S'5ht2a'
p24
I1516
I1522
tp25
a(S'5ht2'
p26
I855
I860
tp27
a(S'5ht2'
p28
I256
I261
tp29
a(S'5ht2b'
p30
I1173
I1179
tp31
a(S'5ht2b'
p32
I1466
I1472
tp33
a(S'5ht2'
p34
I628
I633
tp35
atp36
Rp37
sS'raw_text_methods'
p38
g3
((lp39
S"(11, u'\\\\bfluoxetine')"
p40
aS"(50, u'\\\\bm100907')"
p41
aS"(12, u'\\\\bantagonist')"
p42
atp43
Rp44
sS'regions'
p45
g3
((lp46
tp47
Rp48
sS'year'
p49
V2008
p50
sS'species'
p51
g3
((lp52
S"(1, u'(?i)\\\\b(mice|mouse)\\\\b')"
p53
atp54
Rp55
sb.