(ifile_types
ParseObject
p0
(dp1
S'methods'
p2
c__builtin__
set
p3
((lp4
tp5
Rp6
sS'topics'
p7
g3
((lp8
S"(22, u'\\\\bschizophreni')"
p9
aS"(7, u'\\\\bdepressi')"
p10
aS"(20, u'\\\\bmood')"
p11
aS"(2, u'\\\\bdisorder')"
p12
atp13
Rp14
sS'receptors'
p15
g3
((lp16
(S'5ht2a'
p17
I692
I698
tp18
a(S'5ht1a'
p19
I49
I55
tp20
a(S'5ht1b'
p21
I678
I684
tp22
a(S'5ht1'
p23
I678
I684
tp24
a(S'5ht1b'
p25
I57
I63
tp26
a(S'5ht2a'
p27
I1289
I1295
tp28
a(S'5ht2a'
p29
I69
I75
tp30
a(S'5ht1a'
p31
I668
I674
tp32
a(S'5ht1a'
p33
I741
I747
tp34
a(S'5ht1a'
p35
I1036
I1042
tp36
a(S'5ht1b'
p37
I1378
I1384
tp38
a(S'5ht1'
p39
I57
I63
tp40
a(S'5ht1a'
p41
I1368
I1374
tp42
a(S'5ht5'
p43
I39
I49
tp44
a(S'5ht1a'
p45
I1163
I1169
tp46
a(S'5ht2a'
p47
I1078
I1084
tp48
a(S'5ht2a'
p49
I1392
I1398
tp50
a(S'5ht1'
p51
I1378
I1384
tp52
a(S'5ht2a'
p53
I754
I760
tp54
a(S'5ht1b'
p55
I1238
I1244
tp56
atp57
Rp58
sS'raw_text_methods'
p59
g3
((lp60
tp61
Rp62
sS'regions'
p63
g3
((lp64
S"(20, u'(?i)\\\\b(prefrontals|prefrontal)\\\\b')"
p65
aS"(19, u'(?i)\\\\b(cortexes|cortex)\\\\b')"
p66
atp67
Rp68
sS'year'
p69
V2004
p70
sS'species'
p71
g3
((lp72
tp73
Rp74
sb.