(ifile_types
ParseObject
p0
(dp1
S'methods'
p2
c__builtin__
set
p3
((lp4
tp5
Rp6
sS'topics'
p7
g3
((lp8
S"(12, u'\\\\bsleep')"
p9
aS"(3, u'\\\\bclinical')"
p10
atp11
Rp12
sS'receptors'
p13
g3
((lp14
(S'5ht1'
p15
I406
I410
tp16
a(S'5ht1'
p17
I1141
I1145
tp18
a(S'5ht1'
p19
I807
I811
tp20
a(S'5ht1'
p21
I260
I264
tp22
a(S'5ht1'
p23
I1094
I1098
tp24
atp25
Rp26
sS'raw_text_methods'
p27
g3
((lp28
S"(3, u'\\\\bimmunoreactiv')"
p29
atp30
Rp31
sS'regions'
p32
g3
((lp33
S"(14, u'(?i)\\\\b(caudals|caudal)\\\\b')"
p34
atp35
Rp36
sS'year'
p37
V2009
p38
sS'species'
p39
g3
((lp40
tp41
Rp42
sb.