(ifile_types
ParseObject
p0
(dp1
S'methods'
p2
c__builtin__
set
p3
((lp4
S'Method.AGONIST'
p5
atp6
Rp7
sS'topics'
p8
g3
((lp9
S"(26, u'\\\\bbehav')"
p10
atp11
Rp12
sS'receptors'
p13
g3
((lp14
(S'5ht2a'
p15
I352
I358
tp16
a(S'5ht2a'
p17
I971
I977
tp18
a(S'5ht2a'
p19
I839
I845
tp20
atp21
Rp22
sS'raw_text_methods'
p23
g3
((lp24
S"(13, u'\\\\bagonist')"
p25
aS"(49, u'\\\\bdoi')"
p26
atp27
Rp28
sS'regions'
p29
g3
((lp30
S"(12, u'(?i)\\\\b(amygdalas|amygdala)\\\\b')"
p31
atp32
Rp33
sS'year'
p34
V2005
p35
sS'species'
p36
g3
((lp37
S"(2, u'(?i)\\\\b(females|female)\\\\b')"
p38
aS"(3, u'(?i)\\\\b(males|male)\\\\b')"
p39
aS"(4, u'(?i)\\\\b(rats|rat)\\\\b')"
p40
atp41
Rp42
sb.