(ifile_types
ParseObject
p0
(dp1
S'methods'
p2
c__builtin__
set
p3
((lp4
S'Method.ANTAGONIST'
p5
aS'Method.AGONIST'
p6
atp7
Rp8
sS'topics'
p9
g3
((lp10
S"(14, u'\\\\bcogniti')"
p11
aS"(26, u'\\\\bbehav')"
p12
aS"(13, u'\\\\bantidepress')"
p13
aS"(12, u'\\\\bsleep')"
p14
aS"(4, u'\\\\btreatment')"
p15
aS"(3, u'\\\\bclinical')"
p16
atp17
Rp18
sS'receptors'
p19
g3
((lp20
(S'5ht7'
p21
I379
I384
tp22
a(S'5ht1a'
p23
I873
I879
tp24
a(S'5ht7'
p25
I943
I948
tp26
a(S'5ht1b'
p27
I419
I425
tp28
a(S'5ht7'
p29
I1759
I1764
tp30
a(S'5ht1d'
p31
I391
I397
tp32
a(S'5ht1a'
p33
I1790
I1796
tp34
a(S'5ht3'
p35
I371
I376
tp36
a(S'5ht1a'
p37
I443
I449
tp38
a(S'5ht3'
p39
I906
I911
tp40
a(S'5ht3'
p41
I1769
I1774
tp42
atp43
Rp44
sS'raw_text_methods'
p45
g3
((lp46
S"(13, u'\\\\bagonist')"
p47
aS"(20, u'\\\\bondansetron')"
p48
aS"(54, u'\\\\bautoradiography')"
p49
aS"(12, u'\\\\bantagonist')"
p50
atp51
Rp52
sS'regions'
p53
g3
((lp54
tp55
Rp56
sS'year'
p57
V2014
p58
sS'species'
p59
g3
((lp60
S"(4, u'(?i)\\\\b(rats|rat)\\\\b')"
p61
atp62
Rp63
sb.