(ifile_types
ParseObject
p0
(dp1
S'antagonists'
p2
c__builtin__
set
p3
((lp4
S"(135, u'\\\\bondansetron')"
p5
atp6
Rp7
sS'methods'
p8
g3
((lp9
tp10
Rp11
sS'topics'
p12
g3
((lp13
tp14
Rp15
sS'receptors'
p16
g3
((lp17
S'5ht3'
p18
atp19
Rp20
sS'regions'
p21
g3
((lp22
S"(226, u'(?i)(nuclei|nucleus)(-|\\\\s+)?(accumben|accumbens)')"
p23
atp24
Rp25
sS'year'
p26
V1999
p27
sS'agonists'
p28
g3
((lp29
tp30
Rp31
sS'species'
p32
g3
((lp33
S"(2568, u'(?i)(hens|hen)')"
p34
aS"(3137, u'(?i)(iguanids|iguanid)')"
p35
aS"(5958, u'(?i)(rats|rat)')"
p36
aS"(1055, u'(?i)(men|man)')"
p37
aS"(6249, u'(?i)(ants|ant)')"
p38
aS"(6753, u'(?i)(da|das)')"
p39
aS"(3550, u'(?i)(anis|ani)')"
p40
aS"(5863, u'(?i)(entires|entire)')"
p41
aS"(1961, u'(?i)(pens|pen)')"
p42
aS"(6356, u'(?i)(ais|ai)')"
p43
aS"(6391, u'(?i)(asses|ass)')"
p44
aS"(6878, u'(?i)(guans|guan)')"
p45
aS"(821, u'(?i)(lice|louse)')"
p46
atp47
Rp48
sb.