(ifile_types
ParseObject
p0
(dp1
S'methods'
p2
c__builtin__
set
p3
((lp4
S'Method.ANTAGONIST'
p5
aS'Method.AGONIST'
p6
atp7
Rp8
sS'topics'
p9
g3
((lp10
tp11
Rp12
sS'receptors'
p13
g3
((lp14
(S'5ht1a'
p15
I105
I111
tp16
a(S'5ht1a'
p17
I727
I733
tp18
a(S'5ht1a'
p19
I617
I623
tp20
a(S'5ht1a'
p21
I1797
I1803
tp22
a(S'5ht1a'
p23
I1332
I1338
tp24
a(S'5ht5'
p25
I939
I944
tp26
a(S'5ht1a'
p27
I862
I868
tp28
a(S'5ht1a'
p29
I1236
I1242
tp30
a(S'5ht1a'
p31
I2019
I2025
tp32
atp33
Rp34
sS'raw_text_methods'
p35
g3
((lp36
S"(13, u'\\\\bagonist')"
p37
aS"(15, u'\\\\b8ohdpat')"
p38
aS"(12, u'\\\\bantagonist')"
p39
atp40
Rp41
sS'regions'
p42
g3
((lp43
S"(4, u'(?i)\\\\b(presynaptics|presynaptic)\\\\b')"
p44
aS"(3, u'(?i)\\\\b(postsynaptics|postsynaptic)\\\\b')"
p45
atp46
Rp47
sS'year'
p48
V1993
p49
sS'species'
p50
g3
((lp51
S"(4, u'(?i)\\\\b(rats|rat)\\\\b')"
p52
atp53
Rp54
sb.