(ifile_types
ParseObject
p0
(dp1
S'antagonists'
p2
c__builtin__
set
p3
((lp4
S"(135, u'\\\\bondansetron')"
p5
atp6
Rp7
sS'methods'
p8
g3
((lp9
S'Method.ANTAGONIST'
p10
atp11
Rp12
sS'topics'
p13
g3
((lp14
S"(12, u'\\\\banxiogen')"
p15
aS"(9, u'\\\\bdepress')"
p16
aS"(11, u'\\\\banxiolyt')"
p17
aS"(10, u'\\\\banxiety')"
p18
aS"(4, u'\\\\blocomot')"
p19
atp20
Rp21
sS'receptors'
p22
g3
((lp23
S'5ht3'
p24
atp25
Rp26
sS'regions'
p27
g3
((lp28
S"(241, u'(?i)(olfactories|olfactory)(-|\\\\s+)?(bulbs|bulb)')"
p29
aS"(34, u'(?i)(pon|pons)')"
p30
atp31
Rp32
sS'year'
p33
V2012
p34
sS'agonists'
p35
g3
((lp36
tp37
Rp38
sS'species'
p39
g3
((lp40
S"(2054, u'(?i)(heads|head)')"
p41
aS"(5799, u'(?i)(rodents|rodent)')"
p42
aS"(5958, u'(?i)(rats|rat)')"
p43
aS"(163, u'(?i)(mice|mouse)')"
p44
aS"(6753, u'(?i)(da|das)')"
p45
aS"(6682, u'(?i)(tera|teras)')"
p46
aS"(468, u'(?i)(oxen|ox)')"
p47
aS"(1055, u'(?i)(men|man)')"
p48
aS"(853, u'(?i)(minas|mina)')"
p49
aS"(6249, u'(?i)(ants|ant)')"
p50
aS"(1961, u'(?i)(pens|pen)')"
p51
aS"(3812, u'(?i)(studs|stud)')"
p52
aS"(2809, u'(?i)(toms|tom)')"
p53
atp54
Rp55
sb.