(ifile_types
ParseObject
p0
(dp1
S'methods'
p2
c__builtin__
set
p3
((lp4
S'Method.PET'
p5
atp6
Rp7
sS'topics'
p8
g3
((lp9
S"(3, u'\\\\bclinical')"
p10
atp11
Rp12
sS'receptors'
p13
g3
((lp14
(S'5ht1b'
p15
I257
I263
tp16
a(S'5ht1b'
p17
I88
I94
tp18
a(S'5ht1b'
p19
I1415
I1421
tp20
a(S'5ht1b'
p21
I1543
I1549
tp22
a(S'5ht1b'
p23
I632
I638
tp24
a(S'5ht1b'
p25
I1715
I1721
tp26
atp27
Rp28
sS'raw_text_methods'
p29
g3
((lp30
S"(17, u'\\\\bpet')"
p31
aS"(18, u'\\\\bimaging')"
p32
atp33
Rp34
sS'regions'
p35
g3
((lp36
S"(19, u'(?i)\\\\b(cortexes|cortex)\\\\b')"
p37
aS"(9, u'(?i)\\\\b(cerebellums|cerebellum)\\\\b')"
p38
atp39
Rp40
sS'year'
p41
V2019
p42
sS'species'
p43
g3
((lp44
S"(8, u'(?i)\\\\b(primates|primate)\\\\b')"
p45
atp46
Rp47
sb.