(ifile_types
ParseObject
p0
(dp1
S'methods'
p2
c__builtin__
set
p3
((lp4
S'Method.ANTAGONIST'
p5
atp6
Rp7
sS'topics'
p8
g3
((lp9
S"(5, u'\\\\btherap')"
p10
aS"(28, u'\\\\bgastrointestin')"
p11
aS"(4, u'\\\\btreatment')"
p12
aS"(32, u'\\\\bvomit')"
p13
atp14
Rp15
sS'receptors'
p16
g3
((lp17
(S'5ht3'
p18
I585
I590
tp19
a(S'5ht3'
p20
I1081
I1086
tp21
a(S'5ht3'
p22
I159
I164
tp23
a(S'5ht3a'
p24
I92
I98
tp25
a(S'5ht3'
p26
I685
I690
tp27
a(S'5ht3'
p28
I1187
I1192
tp29
a(S'5ht3'
p30
I392
I397
tp31
atp32
Rp33
sS'raw_text_methods'
p34
g3
((lp35
S"(12, u'\\\\bantagonist')"
p36
atp37
Rp38
sS'regions'
p39
g3
((lp40
tp41
Rp42
sS'year'
p43
V2019
p44
sS'species'
p45
g3
((lp46
tp47
Rp48
sb.