(ifile_types
ParseObject
p0
(dp1
S'methods'
p2
c__builtin__
set
p3
((lp4
S'Method.AGONIST'
p5
atp6
Rp7
sS'topics'
p8
g3
((lp9
S"(14, u'\\\\bcogniti')"
p10
aS"(5, u'\\\\btherap')"
p11
aS"(13, u'\\\\bantidepress')"
p12
aS"(26, u'\\\\bbehav')"
p13
aS"(23, u'\\\\bantipsychotic')"
p14
atp15
Rp16
sS'receptors'
p17
g3
((lp18
(S'5ht2a'
p19
I1733
I1739
tp20
a(S'5ht2a'
p21
I387
I393
tp22
a(S'5ht2a'
p23
I828
I834
tp24
a(S'5ht2a'
p25
I215
I221
tp26
a(S'5ht2a'
p27
I1592
I1598
tp28
a(S'5ht2a'
p29
I1878
I1884
tp30
atp31
Rp32
sS'raw_text_methods'
p33
g3
((lp34
S"(13, u'\\\\bagonist')"
p35
aS"(32, u'\\\\blesions')"
p36
atp37
Rp38
sS'regions'
p39
g3
((lp40
S"(20, u'(?i)\\\\b(prefrontals|prefrontal)\\\\b')"
p41
aS"(4, u'(?i)\\\\b(presynaptics|presynaptic)\\\\b')"
p42
aS"(1, u'(?i)\\\\b(neocortexes|neocortex)\\\\b')"
p43
aS"(19, u'(?i)\\\\b(cortexes|cortex)\\\\b')"
p44
aS"(12, u'(?i)\\\\b(amygdalas|amygdala)\\\\b')"
p45
aS"(3, u'(?i)\\\\b(postsynaptics|postsynaptic)\\\\b')"
p46
atp47
Rp48
sS'year'
p49
V2001
p50
sS'species'
p51
g3
((lp52
S"(4, u'(?i)\\\\b(rats|rat)\\\\b')"
p53
atp54
Rp55
sb.