(ifile_types
ParseObject
p0
(dp1
S'antagonists'
p2
c__builtin__
set
p3
((lp4
tp5
Rp6
sS'methods'
p7
g3
((lp8
S'Method.AGONIST'
p9
atp10
Rp11
sS'topics'
p12
g3
((lp13
S"(9, u'\\\\bdepress')"
p14
aS"(4, u'\\\\blocomot')"
p15
atp16
Rp17
sS'receptors'
p18
g3
((lp19
S'5ht1a'
p20
atp21
Rp22
sS'regions'
p23
g3
((lp24
S"(270, u'(?i)(v1s|v1)')"
p25
aS"(34, u'(?i)(pon|pons)')"
p26
atp27
Rp28
sS'year'
p29
V2016
p30
sS'agonists'
p31
g3
((lp32
S"(92, u'\\\\b8 ?oh ?dpat')"
p33
atp34
Rp35
sS'species'
p36
g3
((lp37
S"(5537, u'(?i)(hippos|hippo)')"
p38
aS"(6753, u'(?i)(da|das)')"
p39
aS"(5958, u'(?i)(rats|rat)')"
p40
aS"(702, u'(?i)(genets|genet)')"
p41
aS"(163, u'(?i)(mice|mouse)')"
p42
aS"(6682, u'(?i)(tera|teras)')"
p43
aS"(1055, u'(?i)(men|man)')"
p44
aS"(6249, u'(?i)(ants|ant)')"
p45
aS"(4979, u'(?i)(cats|cat)')"
p46
aS"(3550, u'(?i)(anis|ani)')"
p47
aS"(1057, u'(?i)(humans|human)')"
p48
aS"(5917, u'(?i)(roaches|roach)')"
p49
aS"(1961, u'(?i)(pens|pen)')"
p50
aS"(1414, u'(?i)(chars|char)')"
p51
aS"(3196, u'(?i)(human|humans)')"
p52
aS"(5743, u'(?i)(bots|bot)')"
p53
aS"(6356, u'(?i)(ais|ai)')"
p54
atp55
Rp56
sb.