(ifile_types
ParseObject
p0
(dp1
S'methods'
p2
c__builtin__
set
p3
((lp4
S'Method.KNOCKOUT'
p5
atp6
Rp7
sS'topics'
p8
g3
((lp9
S"(26, u'\\\\bbehav')"
p10
atp11
Rp12
sS'receptors'
p13
g3
((lp14
(S'5ht2c'
p15
I679
I685
tp16
a(S'5ht2c'
p17
I311
I317
tp18
a(S'5ht2a'
p19
I621
I627
tp20
a(S'5ht2a'
p21
I61
I67
tp22
a(S'5ht2c'
p23
I344
I350
tp24
a(S'5ht2a'
p25
I300
I306
tp26
a(S'5ht2c'
p27
I1267
I1273
tp28
a(S'5ht2c'
p29
I72
I78
tp30
a(S'5ht2a'
p31
I1256
I1262
tp32
a(S'5ht2a'
p33
I482
I488
tp34
a(S'5ht2a'
p35
I799
I805
tp36
atp37
Rp38
sS'raw_text_methods'
p39
g3
((lp40
S"(49, u'\\\\bdoi')"
p41
atp42
Rp43
sS'regions'
p44
g3
((lp45
S"(13, u'(?i)\\\\b(septums|septum)\\\\b')"
p46
aS"(12, u'(?i)\\\\b(amygdalas|amygdala)\\\\b')"
p47
atp48
Rp49
sS'year'
p50
V2003
p51
sS'species'
p52
g3
((lp53
S"(1, u'(?i)\\\\b(mice|mouse)\\\\b')"
p54
aS"(5, u'(?i)\\\\b(mices|mice)\\\\b')"
p55
atp56
Rp57
sb.