(ifile_types
ParseObject
p0
(dp1
S'antagonists'
p2
c__builtin__
set
p3
((lp4
S"(34, u'\\\\bmetergoline')"
p5
aS"(123, u'\\\\bgranisetron')"
p6
atp7
Rp8
sS'methods'
p9
g3
((lp10
S'Method.ANTAGONIST'
p11
aS'Method.AGONIST'
p12
atp13
Rp14
sS'topics'
p15
g3
((lp16
tp17
Rp18
sS'receptors'
p19
g3
((lp20
S'5ht1c'
p21
aS'5ht1a'
p22
aS'5ht3a'
p23
aS'5ht2'
p24
aS'5ht1'
p25
aS'5ht2a'
p26
aS'5ht3'
p27
atp28
Rp29
sS'regions'
p30
g3
((lp31
S"(310, u'(?i)\\\\b(medials|medial)(-|\\\\s+)?(forebrains|forebrain)(-|\\\\s+)?(bundles|bundle)\\\\b')"
p32
aS"(226, u'(?i)\\\\b(nuclei|nucleus)(-|\\\\s+)?(accumben|accumbens)\\\\b')"
p33
atp34
Rp35
sS'year'
p36
V1990
p37
sS'agonists'
p38
g3
((lp39
S"(85, u'\\\\b8 ?oh ?dpat')"
p40
aS"(175, u'\\\\bdoi')"
p41
atp42
Rp43
sS'species'
p44
g3
((lp45
S"(6753, u'(?i)\\\\b(da|das)\\\\b')"
p46
aS"(5958, u'(?i)\\\\b(rats|rat)\\\\b')"
p47
atp48
Rp49
sb.