(ifile_types
ParseObject
p0
(dp1
S'antagonists'
p2
c__builtin__
set
p3
((lp4
S"(34, u'\\\\byohimbine')"
p5
atp6
Rp7
sS'methods'
p8
g3
((lp9
tp10
Rp11
sS'topics'
p12
g3
((lp13
S"(29, u'\\\\bsex')"
p14
atp15
Rp16
sS'receptors'
p17
g3
((lp18
S'5ht1a'
p19
atp20
Rp21
sS'regions'
p22
g3
((lp23
tp24
Rp25
sS'year'
p26
V1986
p27
sS'agonists'
p28
g3
((lp29
S"(89, u'\\\\byohimbine')"
p30
aS"(92, u'\\\\b8 ?oh ?dpat')"
p31
aS"(155, u'\\\\bmem')"
p32
atp33
Rp34
sS'species'
p35
g3
((lp36
S"(5958, u'(?i)(rats|rat)')"
p37
aS"(6753, u'(?i)(da|das)')"
p38
aS"(6682, u'(?i)(tera|teras)')"
p39
aS"(468, u'(?i)(oxen|ox)')"
p40
aS"(853, u'(?i)(minas|mina)')"
p41
aS"(3522, u'(?i)(tetras|tetra)')"
p42
aS"(3812, u'(?i)(studs|stud)')"
p43
aS"(6356, u'(?i)(ais|ai)')"
p44
atp45
Rp46
sb.