(ifile_types
ParseObject
p0
(dp1
S'antagonists'
p2
c__builtin__
set
p3
((lp4
S"(135, u'\\\\bondansetron')"
p5
aS"(117, u'\\\\bmianserin')"
p6
atp7
Rp8
sS'methods'
p9
g3
((lp10
S'Method.ANTAGONIST'
p11
atp12
Rp13
sS'topics'
p14
g3
((lp15
tp16
Rp17
sS'receptors'
p18
g3
((lp19
S'5ht3'
p20
atp21
Rp22
sS'regions'
p23
g3
((lp24
S"(285, u'(?i)(entorhinals|entorhinal)(-|\\\\s+)?(cortexes|cortex)')"
p25
aS"(248, u'(?i)(cerebrals|cerebral)(-|\\\\s+)?(cortexes|cortex)')"
p26
aS"(34, u'(?i)(pon|pons)')"
p27
atp28
Rp29
sS'year'
p30
V1993
p31
sS'agonists'
p32
g3
((lp33
S"(155, u'\\\\bmem')"
p34
atp35
Rp36
sS'species'
p37
g3
((lp38
S"(5537, u'(?i)(hippos|hippo)')"
p39
aS"(4979, u'(?i)(cats|cat)')"
p40
aS"(5958, u'(?i)(rats|rat)')"
p41
aS"(6356, u'(?i)(ais|ai)')"
p42
aS"(4964, u'(?i)(serins|serin)')"
p43
aS"(6753, u'(?i)(da|das)')"
p44
aS"(479, u'(?i)(lings|ling)')"
p45
aS"(1055, u'(?i)(men|man)')"
p46
aS"(937, u'(?i)(kids|kid)')"
p47
aS"(853, u'(?i)(minas|mina)')"
p48
aS"(6249, u'(?i)(ants|ant)')"
p49
aS"(1057, u'(?i)(humans|human)')"
p50
aS"(5229, u'(?i)(moles|mole)')"
p51
aS"(6391, u'(?i)(asses|ass)')"
p52
aS"(1414, u'(?i)(chars|char)')"
p53
aS"(3196, u'(?i)(human|humans)')"
p54
aS"(2809, u'(?i)(toms|tom)')"
p55
aS"(5743, u'(?i)(bots|bot)')"
p56
aS"(3812, u'(?i)(studs|stud)')"
p57
atp58
Rp59
sb.