(ifile_types
ParseObject
p0
(dp1
S'methods'
p2
c__builtin__
set
p3
((lp4
S'Method.PET'
p5
atp6
Rp7
sS'topics'
p8
g3
((lp9
S"(1, u'\\\\bpatient')"
p10
aS"(7, u'\\\\bdepressi')"
p11
aS"(13, u'\\\\bantidepress')"
p12
aS"(4, u'\\\\btreatment')"
p13
aS"(2, u'\\\\bdisorder')"
p14
atp15
Rp16
sS'receptors'
p17
g3
((lp18
(S'5ht1a'
p19
I27
I33
tp20
atp21
Rp22
sS'raw_text_methods'
p23
g3
((lp24
S"(17, u'\\\\bpet')"
p25
aS"(19, u'\\\\bpositron emission tomography')"
p26
aS"(38, u'\\\\bssri')"
p27
aS"(39, u'\\\\bselective serotonin reuptake inhibitor')"
p28
atp29
Rp30
sS'regions'
p31
g3
((lp32
tp33
Rp34
sS'year'
p35
V2012
p36
sS'species'
p37
g3
((lp38
tp39
Rp40
sb.