(ifile_types
ParseObject
p0
(dp1
S'antagonists'
p2
c__builtin__
set
p3
((lp4
S"(54, u'\\\\britanserin')"
p5
aS"(21, u'\\\\bpindolol')"
p6
aS"(130, u'\\\\britanserin')"
p7
atp8
Rp9
sS'methods'
p10
g3
((lp11
S'Method.ANTAGONIST'
p12
aS'Method.AGONIST'
p13
atp14
Rp15
sS'topics'
p16
g3
((lp17
S"(4, u'\\\\blocomot')"
p18
atp19
Rp20
sS'receptors'
p21
g3
((lp22
S'5ht1b'
p23
aS'5ht1a'
p24
aS'5ht2c'
p25
aS'5ht2a'
p26
atp27
Rp28
sS'regions'
p29
g3
((lp30
S"(34, u'(?i)(pon|pons)')"
p31
atp32
Rp33
sS'year'
p34
V1997
p35
sS'agonists'
p36
g3
((lp37
S"(33, u'\\\\bdoi')"
p38
atp39
Rp40
sS'species'
p41
g3
((lp42
S"(6249, u'(?i)(ants|ant)')"
p43
aS"(5958, u'(?i)(rats|rat)')"
p44
aS"(6682, u'(?i)(tera|teras)')"
p45
aS"(1055, u'(?i)(men|man)')"
p46
aS"(4964, u'(?i)(serins|serin)')"
p47
aS"(3550, u'(?i)(anis|ani)')"
p48
aS"(1961, u'(?i)(pens|pen)')"
p49
aS"(6356, u'(?i)(ais|ai)')"
p50
atp51
Rp52
sb.