(ifile_types
ParseObject
p0
(dp1
S'antagonists'
p2
c__builtin__
set
p3
((lp4
S"(27, u'\\\\bspiperone')"
p5
aS"(21, u'\\\\bpindolol')"
p6
atp7
Rp8
sS'methods'
p9
g3
((lp10
S'Method.ANTAGONIST'
p11
aS'Method.AGONIST'
p12
atp13
Rp14
sS'topics'
p15
g3
((lp16
S"(9, u'\\\\bdepress')"
p17
atp18
Rp19
sS'receptors'
p20
g3
((lp21
S'5ht1a'
p22
atp23
Rp24
sS'regions'
p25
g3
((lp26
S"(6, u'(?i)(rostrals|rostral)(-|\\\\s+)?(ventrolaterals|ventrolateral)(-|\\\\s+)?(medullas|medulla)')"
p27
aS"(34, u'(?i)(pon|pons)')"
p28
atp29
Rp30
sS'year'
p31
V1995
p32
sS'agonists'
p33
g3
((lp34
S"(92, u'\\\\b8 ?oh ?dpat')"
p35
aS"(24, u'\\\\bbuspirone')"
p36
atp37
Rp38
sS'species'
p39
g3
((lp40
S"(5958, u'(?i)(rats|rat)')"
p41
aS"(6682, u'(?i)(tera|teras)')"
p42
aS"(468, u'(?i)(oxen|ox)')"
p43
aS"(3592, u'(?i)(ravens|raven)')"
p44
aS"(4979, u'(?i)(cats|cat)')"
p45
aS"(6249, u'(?i)(ants|ant)')"
p46
aS"(3522, u'(?i)(tetras|tetra)')"
p47
aS"(1961, u'(?i)(pens|pen)')"
p48
aS"(6356, u'(?i)(ais|ai)')"
p49
aS"(4074, u'(?i)(bulls|bull)')"
p50
atp51
Rp52
sb.