(ifile_types
ParseObject
p0
(dp1
S'methods'
p2
c__builtin__
set
p3
((lp4
tp5
Rp6
sS'topics'
p7
g3
((lp8
S"(2, u'\\\\bdisorder')"
p9
atp10
Rp11
sS'receptors'
p12
g3
((lp13
(S'5ht7'
p14
I783
I788
tp15
a(S'5ht1a'
p16
I545
I551
tp17
a(S'5ht7'
p18
I42
I47
tp19
a(S'5ht1a'
p20
I689
I695
tp21
a(S'5ht1a'
p22
I74
I85
tp23
a(S'5ht7'
p24
I49
I59
tp25
a(S'5ht7'
p26
I679
I684
tp27
a(S'5ht7'
p28
I1184
I1189
tp29
a(S'5ht7'
p30
I1304
I1309
tp31
a(S'5ht1a'
p32
I363
I369
tp33
a(S'5ht1a'
p34
I66
I72
tp35
a(S'5ht7'
p36
I462
I467
tp37
a(S'5ht1a'
p38
I988
I994
tp39
a(S'5ht1a'
p40
I1211
I1217
tp41
atp42
Rp43
sS'raw_text_methods'
p44
g3
((lp45
tp46
Rp47
sS'regions'
p48
g3
((lp49
S"(19, u'(?i)\\\\b(cortexes|cortex)\\\\b')"
p50
atp51
Rp52
sS'year'
p53
V1997
p54
sS'species'
p55
g3
((lp56
S"(4, u'(?i)\\\\b(rats|rat)\\\\b')"
p57
atp58
Rp59
sb.