(ifile_types
ParseObject
p0
(dp1
S'methods'
p2
c__builtin__
set
p3
((lp4
S'Method.PET'
p5
atp6
Rp7
sS'topics'
p8
g3
((lp9
S"(1, u'\\\\bpatient')"
p10
aS"(17, u'\\\\balzheimer')"
p11
atp12
Rp13
sS'receptors'
p14
g3
((lp15
(S'5ht2a'
p16
I349
I360
tp17
a(S'5ht2a'
p18
I36
I47
tp19
a(S'5ht2a'
p20
I498
I504
tp21
a(S'5ht2a'
p22
I1255
I1261
tp23
a(S'5ht2a'
p24
I363
I369
tp25
atp26
Rp27
sS'raw_text_methods'
p28
g3
((lp29
S"(17, u'\\\\bpet')"
p30
aS"(19, u'\\\\bpositron emission tomography')"
p31
aS"(18, u'\\\\bimaging')"
p32
atp33
Rp34
sS'regions'
p35
g3
((lp36
S"(11, u'(?i)\\\\b(cerebrals|cerebral)\\\\b')"
p37
aS"(19, u'(?i)\\\\b(cortexes|cortex)\\\\b')"
p38
atp39
Rp40
sS'year'
p41
V2012
p42
sS'species'
p43
g3
((lp44
tp45
Rp46
sb.