(ifile_types
ParseObject
p0
(dp1
S'antagonists'
p2
c__builtin__
set
p3
((lp4
tp5
Rp6
sS'methods'
p7
g3
((lp8
S'Method.AGONIST'
p9
atp10
Rp11
sS'topics'
p12
g3
((lp13
tp14
Rp15
sS'receptors'
p16
g3
((lp17
S'5ht5'
p18
aS'5ht3a'
p19
aS'5ht3c'
p20
aS'5ht2a'
p21
aS'5ht1a'
p22
aS'5ht3'
p23
atp24
Rp25
sS'regions'
p26
g3
((lp27
S"(34, u'(?i)(pon|pons)')"
p28
atp29
Rp30
sS'year'
p31
V2012
p32
sS'agonists'
p33
g3
((lp34
S"(92, u'\\\\b8 ?oh ?dpat')"
p35
atp36
Rp37
sS'species'
p38
g3
((lp39
S"(5537, u'(?i)(hippos|hippo)')"
p40
aS"(2568, u'(?i)(hens|hen)')"
p41
aS"(3137, u'(?i)(iguanids|iguanid)')"
p42
aS"(6878, u'(?i)(guans|guan)')"
p43
aS"(5958, u'(?i)(rats|rat)')"
p44
aS"(163, u'(?i)(mice|mouse)')"
p45
aS"(6682, u'(?i)(tera|teras)')"
p46
aS"(468, u'(?i)(oxen|ox)')"
p47
aS"(6249, u'(?i)(ants|ant)')"
p48
aS"(6215, u'(?i)(racers|racer)')"
p49
aS"(6753, u'(?i)(da|das)')"
p50
aS"(3550, u'(?i)(anis|ani)')"
p51
aS"(3522, u'(?i)(tetras|tetra)')"
p52
aS"(6356, u'(?i)(ais|ai)')"
p53
aS"(1628, u'(?i)(cod|cod)')"
p54
atp55
Rp56
sb.