(ifile_types
ParseObject
p0
(dp1
S'antagonists'
p2
c__builtin__
set
p3
((lp4
S"(53, u'\\\\bketanserin')"
p5
aS"(32, u'\\\\bway ?100635')"
p6
aS"(34, u'\\\\byohimbine')"
p7
aS"(128, u'\\\\bketanserin')"
p8
aS"(22, u'\\\\bpropranolol')"
p9
aS"(102, u'\\\\bfluoxetine')"
p10
atp11
Rp12
sS'methods'
p13
g3
((lp14
S'Method.ANTAGONIST'
p15
atp16
Rp17
sS'topics'
p18
g3
((lp19
tp20
Rp21
sS'receptors'
p22
g3
((lp23
S'5ht1a'
p24
aS'5ht3'
p25
aS'5ht2c'
p26
aS'5ht2a'
p27
atp28
Rp29
sS'regions'
p30
g3
((lp31
tp32
Rp33
sS'year'
p34
V2010
p35
sS'agonists'
p36
g3
((lp37
S"(89, u'\\\\byohimbine')"
p38
aS"(214, u'\\\\bsulpiride')"
p39
atp40
Rp41
sS'species'
p42
g3
((lp43
S"(5799, u'(?i)(rodents|rodent)')"
p44
aS"(2568, u'(?i)(hens|hen)')"
p45
aS"(5958, u'(?i)(rats|rat)')"
p46
aS"(163, u'(?i)(mice|mouse)')"
p47
aS"(6753, u'(?i)(da|das)')"
p48
aS"(468, u'(?i)(oxen|ox)')"
p49
aS"(1055, u'(?i)(men|man)')"
p50
aS"(6249, u'(?i)(ants|ant)')"
p51
aS"(4964, u'(?i)(serins|serin)')"
p52
aS"(3550, u'(?i)(anis|ani)')"
p53
aS"(1961, u'(?i)(pens|pen)')"
p54
aS"(3812, u'(?i)(studs|stud)')"
p55
aS"(6356, u'(?i)(ais|ai)')"
p56
atp57
Rp58
sb.