(ifile_types
ParseObject
p0
(dp1
S'methods'
p2
c__builtin__
set
p3
((lp4
S'Method.AGONIST'
p5
atp6
Rp7
sS'topics'
p8
g3
((lp9
tp10
Rp11
sS'receptors'
p12
g3
((lp13
(S'5ht1a'
p14
I40
I45
tp15
a(S'5ht1a'
p16
I592
I597
tp17
atp18
Rp19
sS'raw_text_methods'
p20
g3
((lp21
S"(13, u'\\\\bagonist')"
p22
aS"(36, u'\\\\bbenzodiazepine')"
p23
aS"(31, u'\\\\bbenzodiazepines')"
p24
atp25
Rp26
sS'regions'
p27
g3
((lp28
S"(4, u'(?i)\\\\b(presynaptics|presynaptic)\\\\b')"
p29
atp30
Rp31
sS'year'
p32
V1993
p33
sS'species'
p34
g3
((lp35
S"(4, u'(?i)\\\\b(rats|rat)\\\\b')"
p36
atp37
Rp38
sb.