(ifile_types
ParseObject
p0
(dp1
S'antagonists'
p2
c__builtin__
set
p3
((lp4
S"(17, u'\\\\bnan ?190')"
p5
atp6
Rp7
sS'methods'
p8
g3
((lp9
S'Method.ANTAGONIST'
p10
aS'Method.AGONIST'
p11
atp12
Rp13
sS'topics'
p14
g3
((lp15
S"(11, u'\\\\banxiolyt')"
p16
atp17
Rp18
sS'receptors'
p19
g3
((lp20
S'5ht1a'
p21
atp22
Rp23
sS'regions'
p24
g3
((lp25
S"(220, u'(?i)\\\\b(striatums|striatum)\\\\b')"
p26
atp27
Rp28
sS'year'
p29
V1996
p30
sS'agonists'
p31
g3
((lp32
S"(20, u'\\\\bbuspirone')"
p33
aS"(210, u'\\\\bsulpiride')"
p34
aS"(45, u'\\\\bipsapirone')"
p35
aS"(85, u'\\\\b8 ?oh ?dpat')"
p36
aS"(42, u'\\\\bgepirone')"
p37
atp38
Rp39
sS'species'
p40
g3
((lp41
S"(5958, u'(?i)\\\\b(rats|rat)\\\\b')"
p42
atp43
Rp44
sb.