(ifile_types
ParseObject
p0
(dp1
S'antagonists'
p2
c__builtin__
set
p3
((lp4
S"(200, u'\\\\bmesulergine')"
p5
aS"(32, u'\\\\bway ?100635')"
p6
aS"(130, u'\\\\britanserin')"
p7
aS"(14, u'\\\\bmethiothepin')"
p8
aS"(153, u'\\\\bgr ?113808')"
p9
aS"(54, u'\\\\britanserin')"
p10
atp11
Rp12
sS'methods'
p13
g3
((lp14
S'Method.ANTAGONIST'
p15
aS'Method.AGONIST'
p16
atp17
Rp18
sS'topics'
p19
g3
((lp20
tp21
Rp22
sS'receptors'
p23
g3
((lp24
S'5ht7'
p25
aS'5ht1b'
p26
aS'5ht1a'
p27
aS'5ht4'
p28
aS'5ht3'
p29
aS'5ht2'
p30
aS'5ht1'
p31
aS'5ht1d'
p32
aS'5ht6'
p33
aS'5ht5'
p34
atp35
Rp36
sS'regions'
p37
g3
((lp38
S"(34, u'(?i)(pon|pons)')"
p39
atp40
Rp41
sS'year'
p42
V2000
p43
sS'agonists'
p44
g3
((lp45
S"(224, u'\\\\b5 ?methoxytryptamine')"
p46
aS"(5, u'\\\\b5 ?ct')"
p47
aS"(225, u'\\\\b5 ?meot')"
p48
aS"(171, u'\\\\bmesulergine')"
p49
atp50
Rp51
sS'species'
p52
g3
((lp53
S"(1070, u'(?i)(pets|pet)')"
p54
aS"(2323, u'(?i)(bees|bee)')"
p55
aS"(2568, u'(?i)(hens|hen)')"
p56
aS"(5537, u'(?i)(hippos|hippo)')"
p57
aS"(867, u'(?i)(tits|tit)')"
p58
aS"(6753, u'(?i)(da|das)')"
p59
aS"(468, u'(?i)(oxen|ox)')"
p60
aS"(1349, u'(?i)(rams|ram)')"
p61
aS"(6249, u'(?i)(ants|ant)')"
p62
aS"(1055, u'(?i)(men|man)')"
p63
aS"(4964, u'(?i)(serins|serin)')"
p64
aS"(5958, u'(?i)(rats|rat)')"
p65
aS"(3404, u'(?i)(titis|titi)')"
p66
aS"(5229, u'(?i)(moles|mole)')"
p67
aS"(1961, u'(?i)(pens|pen)')"
p68
aS"(6356, u'(?i)(ais|ai)')"
p69
aS"(4624, u'(?i)(apes|ape)')"
p70
aS"(1795, u'(?i)(mounts|mount)')"
p71
aS"(821, u'(?i)(lice|louse)')"
p72
aS"(4133, u'(?i)(pikes|pike)')"
p73
atp74
Rp75
sb.