(ifile_types
ParseObject
p0
(dp1
S'methods'
p2
c__builtin__
set
p3
((lp4
S'Method.AGONIST'
p5
atp6
Rp7
sS'topics'
p8
g3
((lp9
tp10
Rp11
sS'receptors'
p12
g3
((lp13
(S'5ht1'
p14
I420
I426
tp15
a(S'5ht1a'
p16
I420
I426
tp17
a(S'5ht1a'
p18
I1342
I1348
tp19
a(S'5ht1'
p20
I1342
I1348
tp21
a(S'5ht1a'
p22
I882
I888
tp23
a(S'5ht1'
p24
I882
I888
tp25
atp26
Rp27
sS'raw_text_methods'
p28
g3
((lp29
S"(13, u'\\\\bagonist')"
p30
atp31
Rp32
sS'regions'
p33
g3
((lp34
tp35
Rp36
sS'year'
p37
V2006
p38
sS'species'
p39
g3
((lp40
tp41
Rp42
sb.