(ifile_types
ParseObject
p0
(dp1
S'antagonists'
p2
c__builtin__
set
p3
((lp4
tp5
Rp6
sS'methods'
p7
g3
((lp8
S'Method.PET'
p9
aS'Method.AGONIST'
p10
atp11
Rp12
sS'topics'
p13
g3
((lp14
tp15
Rp16
sS'receptors'
p17
g3
((lp18
S'5ht1b'
p19
atp20
Rp21
sS'regions'
p22
g3
((lp23
tp24
Rp25
sS'year'
p26
V2018
p27
sS'agonists'
p28
g3
((lp29
S"(169, u'\\\\bfenfluramine')"
p30
atp31
Rp32
sS'species'
p33
g3
((lp34
S"(1070, u'(?i)(pets|pet)')"
p35
aS"(3404, u'(?i)(titis|titi)')"
p36
aS"(2568, u'(?i)(hens|hen)')"
p37
aS"(867, u'(?i)(tits|tit)')"
p38
aS"(6753, u'(?i)(da|das)')"
p39
aS"(2389, u'(?i)(spats|spat)')"
p40
aS"(3051, u'(?i)(pigs|pig)')"
p41
aS"(1055, u'(?i)(men|man)')"
p42
aS"(1349, u'(?i)(rams|ram)')"
p43
aS"(4979, u'(?i)(cats|cat)')"
p44
aS"(5917, u'(?i)(roaches|roach)')"
p45
aS"(6356, u'(?i)(ais|ai)')"
p46
aS"(2809, u'(?i)(toms|tom)')"
p47
aS"(5949, u'(?i)(dogs|dog)')"
p48
atp49
Rp50
sb.