(ifile_types
ParseObject
p0
(dp1
S'antagonists'
p2
c__builtin__
set
p3
((lp4
tp5
Rp6
sS'methods'
p7
g3
((lp8
S'Method.ANTAGONIST'
p9
aS'Method.AGONIST'
p10
atp11
Rp12
sS'topics'
p13
g3
((lp14
S"(12, u'\\\\banxiogen')"
p15
aS"(4, u'\\\\blocomot')"
p16
atp17
Rp18
sS'receptors'
p19
g3
((lp20
S'5ht1b'
p21
atp22
Rp23
sS'regions'
p24
g3
((lp25
S"(217, u'(?i)\\\\b(beds|bed)(-|\\\\s+)?(nuclei|nucleus)(-|\\\\s+)?(ofs|of)(-|\\\\s+)?(thes|the)(-|\\\\s+)?(strias|stria)(-|\\\\s+)?(terminali|terminalis)\\\\b')"
p26
aS"(209, u'(?i)\\\\b(amygdalas|amygdala)\\\\b')"
p27
aS"(216, u'(?i)\\\\b(strias|stria)(-|\\\\s+)?(terminali|terminalis)\\\\b')"
p28
atp29
Rp30
sS'year'
p31
V2017
p32
sS'agonists'
p33
g3
((lp34
S"(101, u'\\\\bcp ?94253')"
p35
atp36
Rp37
sS'species'
p38
g3
((lp39
S"(5967, u'(?i)\\\\b(males|male)\\\\b')"
p40
aS"(5958, u'(?i)\\\\b(rats|rat)\\\\b')"
p41
atp42
Rp43
sb.