(ifile_types
ParseObject
p0
(dp1
S'methods'
p2
c__builtin__
set
p3
((lp4
S'Method.AGONIST'
p5
atp6
Rp7
sS'topics'
p8
g3
((lp9
S"(14, u'\\\\bcogniti')"
p10
aS"(34, u'\\\\bparkinson')"
p11
atp12
Rp13
sS'receptors'
p14
g3
((lp15
(S'5ht1a'
p16
I521
I527
tp17
a(S'5ht1a'
p18
I167
I173
tp19
a(S'5ht1a'
p20
I890
I896
tp21
a(S'5ht1a'
p22
I1160
I1166
tp23
a(S'5ht1a'
p24
I2139
I2145
tp25
a(S'5ht1a'
p26
I2226
I2232
tp27
a(S'5ht1a'
p28
I1917
I1923
tp29
a(S'5ht1a'
p30
I744
I750
tp31
atp32
Rp33
sS'raw_text_methods'
p34
g3
((lp35
S"(13, u'\\\\bagonist')"
p36
aS"(15, u'\\\\b8ohdpat')"
p37
aS"(32, u'\\\\blesions')"
p38
atp39
Rp40
sS'regions'
p41
g3
((lp42
S"(15, u'(?i)\\\\b(substantias|substantia)(-|\\\\s+)?(nigras|nigra)\\\\b')"
p43
aS"(13, u'(?i)\\\\b(septums|septum)\\\\b')"
p44
atp45
Rp46
sS'year'
p47
V2014
p48
sS'species'
p49
g3
((lp50
S"(4, u'(?i)\\\\b(rats|rat)\\\\b')"
p51
atp52
Rp53
sb.