(ifile_types
ParseObject
p0
(dp1
S'antagonists'
p2
c__builtin__
set
p3
((lp4
S"(5, u'\\\\bcyanopindolol')"
p5
aS"(34, u'\\\\bmetergoline')"
p6
aS"(118, u'\\\\bly ?53857')"
p7
aS"(31, u'\\\\bway ?100635')"
p8
aS"(194, u'\\\\bmethysergide')"
p9
atp10
Rp11
sS'methods'
p12
g3
((lp13
S'Method.ANTAGONIST'
p14
aS'Method.AGONIST'
p15
atp16
Rp17
sS'topics'
p18
g3
((lp19
tp20
Rp21
sS'receptors'
p22
g3
((lp23
S'5ht7'
p24
aS'5ht1b'
p25
aS'5ht5'
p26
aS'5ht4'
p27
aS'5ht3a'
p28
aS'5ht2c'
p29
aS'5ht1'
p30
aS'5ht2a'
p31
aS'5ht1a'
p32
aS'5ht4a'
p33
aS'5ht5a'
p34
aS'5ht3'
p35
aS'5ht2'
p36
atp37
Rp38
sS'regions'
p39
g3
((lp40
tp41
Rp42
sS'year'
p43
V2003
p44
sS'agonists'
p45
g3
((lp46
S"(166, u'\\\\bmk ?212')"
p47
aS"(53, u'\\\\bmethysergide')"
p48
aS"(204, u'\\\\brs ?67506')"
p49
aS"(175, u'\\\\bdoi')"
p50
aS"(155, u'\\\\bmcpp')"
p51
aS"(98, u'\\\\b5 ?carboxamidotryptamine')"
p52
aS"(85, u'\\\\b8 ?oh ?dpat')"
p53
aS"(219, u'\\\\b5 ?ct')"
p54
atp55
Rp56
sS'species'
p57
g3
((lp58
tp59
Rp60
sb.