(ifile_types
ParseObject
p0
(dp1
S'methods'
p2
c__builtin__
set
p3
((lp4
S'Method.ANTAGONIST'
p5
atp6
Rp7
sS'topics'
p8
g3
((lp9
S"(22, u'\\\\bschizophreni')"
p10
aS"(5, u'\\\\btherap')"
p11
aS"(23, u'\\\\bantipsychotic')"
p12
aS"(3, u'\\\\bclinical')"
p13
atp14
Rp15
sS'receptors'
p16
g3
((lp17
(S'5ht2a'
p18
I1182
I1188
tp19
a(S'5ht2a'
p20
I807
I813
tp21
a(S'5ht2a'
p22
I665
I671
tp23
a(S'5ht2'
p24
I1957
I1962
tp25
atp26
Rp27
sS'raw_text_methods'
p28
g3
((lp29
S"(41, u'\\\\bhaloperidol')"
p30
aS"(40, u'\\\\bclozapine')"
p31
aS"(54, u'\\\\bautoradiography')"
p32
atp33
Rp34
sS'regions'
p35
g3
((lp36
tp37
Rp38
sS'year'
p39
V1994
p40
sS'species'
p41
g3
((lp42
S"(7, u'(?i)\\\\b(guineas|guinea)(-|\\\\s+)?(pigs|pig)\\\\b')"
p43
aS"(4, u'(?i)\\\\b(rats|rat)\\\\b')"
p44
atp45
Rp46
sb.