(ifile_types
ParseObject
p0
(dp1
S'antagonists'
p2
c__builtin__
set
p3
((lp4
tp5
Rp6
sS'methods'
p7
g3
((lp8
S'Method.AGONIST'
p9
atp10
Rp11
sS'topics'
p12
g3
((lp13
S"(31, u'\\\\bobesity')"
p14
aS"(26, u'\\\\bcardiovascular')"
p15
aS"(16, u'\\\\bfeed')"
p16
atp17
Rp18
sS'receptors'
p19
g3
((lp20
S'5ht6'
p21
aS'5ht6a'
p22
atp23
Rp24
sS'regions'
p25
g3
((lp26
tp27
Rp28
sS'year'
p29
V2017
p30
sS'agonists'
p31
g3
((lp32
S"(223, u'\\\\bemd ?386088')"
p33
atp34
Rp35
sS'species'
p36
g3
((lp37
S"(1438, u'(?i)(ceroes|cero)')"
p38
aS"(5958, u'(?i)(rats|rat)')"
p39
aS"(479, u'(?i)(lings|ling)')"
p40
aS"(4163, u'(?i)(ermines|ermine)')"
p41
aS"(1055, u'(?i)(men|man)')"
p42
aS"(5743, u'(?i)(bots|bot)')"
p43
aS"(1961, u'(?i)(pens|pen)')"
p44
aS"(3812, u'(?i)(studs|stud)')"
p45
aS"(2809, u'(?i)(toms|tom)')"
p46
atp47
Rp48
sb.