(ifile_types
ParseObject
p0
(dp1
S'antagonists'
p2
c__builtin__
set
p3
((lp4
tp5
Rp6
sS'methods'
p7
g3
((lp8
tp9
Rp10
sS'topics'
p11
g3
((lp12
tp13
Rp14
sS'receptors'
p15
g3
((lp16
S'5ht1a'
p17
aS'5ht5'
p18
atp19
Rp20
sS'regions'
p21
g3
((lp22
S"(118, u'(?i)(diencephalons|diencephalon)')"
p23
aS"(34, u'(?i)(pon|pons)')"
p24
atp25
Rp26
sS'year'
p27
V2002
p28
sS'agonists'
p29
g3
((lp30
tp31
Rp32
sS'species'
p33
g3
((lp34
S"(6753, u'(?i)(da|das)')"
p35
aS"(3248, u'(?i)(offspring|offspring)')"
p36
aS"(6125, u'(?i)(females|female)')"
p37
aS"(7609, u'(?i)(erns|ern)')"
p38
aS"(5958, u'(?i)(rats|rat)')"
p39
aS"(4979, u'(?i)(cats|cat)')"
p40
aS"(5967, u'(?i)(males|male)')"
p41
aS"(2183, u'(?i)(gars|gar)')"
p42
aS"(1055, u'(?i)(men|man)')"
p43
aS"(6249, u'(?i)(ants|ant)')"
p44
aS"(6580, u'(?i)(dams|dam)')"
p45
aS"(3812, u'(?i)(studs|stud)')"
p46
aS"(3550, u'(?i)(anis|ani)')"
p47
aS"(3722, u'(?i)(pups|pup)')"
p48
aS"(6391, u'(?i)(asses|ass)')"
p49
aS"(6356, u'(?i)(ais|ai)')"
p50
aS"(1683, u'(?i)(terns|tern)')"
p51
atp52
Rp53
sb.