(ifile_types
ParseObject
p0
(dp1
S'antagonists'
p2
c__builtin__
set
p3
((lp4
tp5
Rp6
sS'methods'
p7
g3
((lp8
S'Method.ANTAGONIST'
p9
aS'Method.AGONIST'
p10
atp11
Rp12
sS'topics'
p13
g3
((lp14
tp15
Rp16
sS'receptors'
p17
g3
((lp18
S'5ht1b'
p19
aS'5ht1a'
p20
aS'5ht3'
p21
aS'5ht2'
p22
aS'5ht3d'
p23
atp24
Rp25
sS'regions'
p26
g3
((lp27
tp28
Rp29
sS'year'
p30
V1996
p31
sS'agonists'
p32
g3
((lp33
S"(149, u'\\\\bmem')"
p34
atp35
Rp36
sS'species'
p37
g3
((lp38
S"(709, u'(?i)\\\\b(chicks|chick)\\\\b')"
p39
aS"(3062, u'(?i)\\\\b(guineas|guinea)\\\\b')"
p40
aS"(331, u'(?i)\\\\b(taenias|taenia)\\\\b')"
p41
aS"(3051, u'(?i)\\\\b(pigs|pig)\\\\b')"
p42
aS"(4749, u'(?i)\\\\b(blues|blue)\\\\b')"
p43
aS"(4480, u'(?i)\\\\b(guineas|guinea)(-|\\\\s+)?(pigs|pig)\\\\b')"
p44
atp45
Rp46
sb.