(ifile_types
ParseObject
p0
(dp1
S'antagonists'
p2
c__builtin__
set
p3
((lp4
tp5
Rp6
sS'methods'
p7
g3
((lp8
S'Method.AGONIST'
p9
atp10
Rp11
sS'topics'
p12
g3
((lp13
tp14
Rp15
sS'receptors'
p16
g3
((lp17
S'5ht1b'
p18
atp19
Rp20
sS'regions'
p21
g3
((lp22
tp23
Rp24
sS'year'
p25
V1992
p26
sS'agonists'
p27
g3
((lp28
S"(155, u'\\\\bmem')"
p29
aS"(107, u'\\\\bcp ?93129')"
p30
atp31
Rp32
sS'species'
p33
g3
((lp34
S"(5958, u'(?i)(rats|rat)')"
p35
aS"(6753, u'(?i)(da|das)')"
p36
aS"(1055, u'(?i)(men|man)')"
p37
aS"(7094, u'(?i)(curs|cur)')"
p38
aS"(1349, u'(?i)(rams|ram)')"
p39
aS"(6356, u'(?i)(ais|ai)')"
p40
aS"(3522, u'(?i)(tetras|tetra)')"
p41
aS"(3812, u'(?i)(studs|stud)')"
p42
atp43
Rp44
sb.