(ifile_types
ParseObject
p0
(dp1
S'antagonists'
p2
c__builtin__
set
p3
((lp4
S"(26, u'\\\\bspiperone')"
p5
aS"(21, u'\\\\bpindolol')"
p6
aS"(22, u'\\\\bpropranolol')"
p7
atp8
Rp9
sS'methods'
p10
g3
((lp11
S'Method.ANTAGONIST'
p12
atp13
Rp14
sS'topics'
p15
g3
((lp16
S"(6, u'\\\\bcognit')"
p17
aS"(9, u'\\\\bdepress')"
p18
aS"(34, u'\\\\bdementia')"
p19
aS"(7, u'\\\\bmemory')"
p20
atp21
Rp22
sS'receptors'
p23
g3
((lp24
S'5ht1a'
p25
aS'5ht2a'
p26
atp27
Rp28
sS'regions'
p29
g3
((lp30
tp31
Rp32
sS'year'
p33
V2001
p34
sS'agonists'
p35
g3
((lp36
S"(210, u'\\\\bsulpiride')"
p37
aS"(149, u'\\\\bmem')"
p38
atp39
Rp40
sS'species'
p41
g3
((lp42
S"(163, u'(?i)\\\\b(mice|mouse)\\\\b')"
p43
atp44
Rp45
sb.