(ifile_types
ParseObject
p0
(dp1
S'antagonists'
p2
c__builtin__
set
p3
((lp4
S"(124, u'\\\\bondansetron')"
p5
atp6
Rp7
sS'methods'
p8
g3
((lp9
S'Method.ANTAGONIST'
p10
atp11
Rp12
sS'topics'
p13
g3
((lp14
tp15
Rp16
sS'receptors'
p17
g3
((lp18
S'5ht3'
p19
atp20
Rp21
sS'regions'
p22
g3
((lp23
S"(223, u'(?i)\\\\b(putamens|putamen)\\\\b')"
p24
aS"(209, u'(?i)\\\\b(amygdalas|amygdala)\\\\b')"
p25
atp26
Rp27
sS'year'
p28
V1990
p29
sS'agonists'
p30
g3
((lp31
tp32
Rp33
sS'species'
p34
g3
((lp35
S"(7058, u'(?i)\\\\b(does|doe)\\\\b')"
p36
aS"(6325, u'(?i)\\\\b(caudates|caudate)\\\\b')"
p37
aS"(6753, u'(?i)\\\\b(da|das)\\\\b')"
p38
atp39
Rp40
sb.