(ifile_types
ParseObject
p0
(dp1
S'methods'
p2
c__builtin__
set
p3
((lp4
S'Method.ANTAGONIST'
p5
aS'Method.AGONIST'
p6
atp7
Rp8
sS'topics'
p9
g3
((lp10
S"(34, u'\\\\bparkinson')"
p11
aS"(15, u'\\\\bmemory')"
p12
atp13
Rp14
sS'receptors'
p15
g3
((lp16
(S'5ht6'
p17
I451
I456
tp18
a(S'5ht6'
p19
I298
I303
tp20
a(S'5ht6'
p21
I284
I294
tp22
a(S'5ht6'
p23
I860
I865
tp24
a(S'5ht6'
p25
I55
I65
tp26
a(S'5ht6'
p27
I1943
I1948
tp28
a(S'5ht6'
p29
I1038
I1043
tp30
atp31
Rp32
sS'raw_text_methods'
p33
g3
((lp34
S"(13, u'\\\\bagonist')"
p35
aS"(32, u'\\\\blesions')"
p36
aS"(12, u'\\\\bantagonist')"
p37
atp38
Rp39
sS'regions'
p40
g3
((lp41
S"(20, u'(?i)\\\\b(prefrontals|prefrontal)\\\\b')"
p42
aS"(21, u'(?i)\\\\b(mpfcs|mpfc)\\\\b')"
p43
aS"(19, u'(?i)\\\\b(cortexes|cortex)\\\\b')"
p44
aS"(12, u'(?i)\\\\b(amygdalas|amygdala)\\\\b')"
p45
aS"(23, u'(?i)\\\\b(forebrains|forebrain)\\\\b')"
p46
atp47
Rp48
sS'year'
p49
V2016
p50
sS'species'
p51
g3
((lp52
S"(4, u'(?i)\\\\b(rats|rat)\\\\b')"
p53
atp54
Rp55
sb.