(ifile_types
ParseObject
p0
(dp1
S'antagonists'
p2
c__builtin__
set
p3
((lp4
S"(53, u'\\\\bketanserin')"
p5
aS"(32, u'\\\\bway ?100635')"
p6
aS"(128, u'\\\\bketanserin')"
p7
aS"(67, u'\\\\bhaloperidol')"
p8
aS"(135, u'\\\\bondansetron')"
p9
aS"(102, u'\\\\bfluoxetine')"
p10
atp11
Rp12
sS'methods'
p13
g3
((lp14
S'Method.ANTAGONIST'
p15
atp16
Rp17
sS'topics'
p18
g3
((lp19
S"(9, u'\\\\bdepress')"
p20
atp21
Rp22
sS'receptors'
p23
g3
((lp24
S'5ht3'
p25
aS'5ht1a'
p26
aS'5ht3a'
p27
aS'5ht5'
p28
aS'5ht2a'
p29
atp30
Rp31
sS'regions'
p32
g3
((lp33
tp34
Rp35
sS'year'
p36
V2018
p37
sS'agonists'
p38
g3
((lp39
S"(48, u'\\\\bhaloperidol')"
p40
atp41
Rp42
sS'species'
p43
g3
((lp44
S"(4624, u'(?i)(apes|ape)')"
p45
aS"(4163, u'(?i)(ermines|ermine)')"
p46
aS"(6356, u'(?i)(ais|ai)')"
p47
aS"(6249, u'(?i)(ants|ant)')"
p48
aS"(5229, u'(?i)(moles|mole)')"
p49
aS"(3812, u'(?i)(studs|stud)')"
p50
aS"(6391, u'(?i)(asses|ass)')"
p51
aS"(931, u'(?i)(divers|diver)')"
p52
aS"(468, u'(?i)(oxen|ox)')"
p53
aS"(3550, u'(?i)(anis|ani)')"
p54
aS"(5958, u'(?i)(rats|rat)')"
p55
aS"(7609, u'(?i)(erns|ern)')"
p56
aS"(867, u'(?i)(tits|tit)')"
p57
aS"(163, u'(?i)(mice|mouse)')"
p58
aS"(6682, u'(?i)(tera|teras)')"
p59
aS"(1055, u'(?i)(men|man)')"
p60
aS"(6753, u'(?i)(da|das)')"
p61
aS"(1961, u'(?i)(pens|pen)')"
p62
aS"(4979, u'(?i)(cats|cat)')"
p63
aS"(2323, u'(?i)(bees|bee)')"
p64
aS"(853, u'(?i)(minas|mina)')"
p65
aS"(4964, u'(?i)(serins|serin)')"
p66
atp67
Rp68
sb.