(ifile_types
ParseObject
p0
(dp1
S'antagonists'
p2
c__builtin__
set
p3
((lp4
tp5
Rp6
sS'methods'
p7
g3
((lp8
S'Method.AGONIST'
p9
atp10
Rp11
sS'topics'
p12
g3
((lp13
S"(10, u'\\\\banxiety')"
p14
atp15
Rp16
sS'receptors'
p17
g3
((lp18
S'5ht3a'
p19
aS'5ht1a'
p20
aS'5ht3'
p21
aS'5ht5'
p22
atp23
Rp24
sS'regions'
p25
g3
((lp26
S"(214, u'(?i)(laterals|lateral)(-|\\\\s+)?(amygdalas|amygdala)')"
p27
aS"(215, u'(?i)(basolaterals|basolateral)(-|\\\\s+)?(amygdalas|amygdala)')"
p28
aS"(209, u'(?i)(amygdalas|amygdala)')"
p29
aS"(34, u'(?i)(pon|pons)')"
p30
atp31
Rp32
sS'year'
p33
V2002
p34
sS'agonists'
p35
g3
((lp36
S"(92, u'\\\\b8 ?oh ?dpat')"
p37
atp38
Rp39
sS'species'
p40
g3
((lp41
S"(6753, u'(?i)(da|das)')"
p42
aS"(5958, u'(?i)(rats|rat)')"
p43
aS"(853, u'(?i)(minas|mina)')"
p44
aS"(6682, u'(?i)(tera|teras)')"
p45
aS"(5967, u'(?i)(males|male)')"
p46
aS"(468, u'(?i)(oxen|ox)')"
p47
aS"(1055, u'(?i)(men|man)')"
p48
aS"(6249, u'(?i)(ants|ant)')"
p49
aS"(5743, u'(?i)(bots|bot)')"
p50
aS"(3550, u'(?i)(anis|ani)')"
p51
aS"(7094, u'(?i)(curs|cur)')"
p52
aS"(6356, u'(?i)(ais|ai)')"
p53
aS"(4979, u'(?i)(cats|cat)')"
p54
atp55
Rp56
sb.