(ifile_types
ParseObject
p0
(dp1
S'methods'
p2
c__builtin__
set
p3
((lp4
S'Method.ANTAGONIST'
p5
aS'Method.AGONIST'
p6
atp7
Rp8
sS'topics'
p9
g3
((lp10
S"(22, u'\\\\bschizophreni')"
p11
aS"(14, u'\\\\bcogniti')"
p12
aS"(33, u'\\\\blocomot')"
p13
aS"(9, u'\\\\bstress')"
p14
aS"(23, u'\\\\bantipsychotic')"
p15
aS"(15, u'\\\\bmemory')"
p16
aS"(29, u'\\\\bhyperactiv')"
p17
aS"(3, u'\\\\bclinical')"
p18
atp19
Rp20
sS'receptors'
p21
g3
((lp22
(S'5ht1a'
p23
I51
I57
tp24
a(S'5ht1a'
p25
I1700
I1706
tp26
a(S'5ht1a'
p27
I1466
I1472
tp28
a(S'5ht1a'
p29
I2348
I2354
tp30
a(S'5ht1a'
p31
I644
I650
tp32
a(S'5ht1a'
p33
I832
I838
tp34
a(S'5ht1a'
p35
I1866
I1872
tp36
a(S'5ht1a'
p37
I1140
I1146
tp38
a(S'5ht1a'
p39
I1181
I1187
tp40
a(S'5ht1a'
p41
I2152
I2158
tp42
a(S'5ht1a'
p43
I2051
I2057
tp44
atp45
Rp46
sS'raw_text_methods'
p47
g3
((lp48
S"(13, u'\\\\bagonist')"
p49
aS"(12, u'\\\\bantagonist')"
p50
atp51
Rp52
sS'regions'
p53
g3
((lp54
S"(20, u'(?i)\\\\b(prefrontals|prefrontal)\\\\b')"
p55
aS"(19, u'(?i)\\\\b(cortexes|cortex)\\\\b')"
p56
atp57
Rp58
sS'year'
p59
V2000
p60
sS'species'
p61
g3
((lp62
S"(4, u'(?i)\\\\b(rats|rat)\\\\b')"
p63
atp64
Rp65
sb.