(ifile_types
ParseObject
p0
(dp1
S'antagonists'
p2
c__builtin__
set
p3
((lp4
tp5
Rp6
sS'methods'
p7
g3
((lp8
S'Method.KNOCKOUT'
p9
aS'Method.ANTAGONIST'
p10
atp11
Rp12
sS'topics'
p13
g3
((lp14
S"(15, u'\\\\bschizophreni')"
p15
aS"(9, u'\\\\bdepress')"
p16
aS"(7, u'\\\\bmemory')"
p17
aS"(16, u'\\\\bfeed')"
p18
aS"(11, u'\\\\banxiolyt')"
p19
aS"(14, u'\\\\bpsychosis')"
p20
aS"(10, u'\\\\banxiety')"
p21
atp22
Rp23
sS'receptors'
p24
g3
((lp25
S'5ht7'
p26
atp27
Rp28
sS'regions'
p29
g3
((lp30
tp31
Rp32
sS'year'
p33
V2019
p34
sS'agonists'
p35
g3
((lp36
S"(149, u'\\\\bmem')"
p37
atp38
Rp39
sS'species'
p40
g3
((lp41
S"(5799, u'(?i)\\\\b(rodents|rodent)\\\\b')"
p42
aS"(163, u'(?i)\\\\b(mice|mouse)\\\\b')"
p43
atp44
Rp45
sb.