(ifile_types
ParseObject
p0
(dp1
S'methods'
p2
c__builtin__
set
p3
((lp4
S'Method.ANTAGONIST'
p5
aS'Method.AGONIST'
p6
atp7
Rp8
sS'topics'
p9
g3
((lp10
S"(30, u'\\\\bpain')"
p11
aS"(1, u'\\\\bpatient')"
p12
aS"(35, u'\\\\bnocicept')"
p13
aS"(28, u'\\\\bgastrointestin')"
p14
aS"(2, u'\\\\bdisorder')"
p15
atp16
Rp17
sS'receptors'
p18
g3
((lp19
(S'5ht4'
p20
I1873
I1878
tp21
a(S'5ht4'
p22
I857
I862
tp23
a(S'5ht4'
p24
I1012
I1017
tp25
a(S'5ht4'
p26
I52
I57
tp27
a(S'5ht4'
p28
I229
I234
tp29
a(S'5ht4'
p30
I1658
I1663
tp31
a(S'5ht4'
p32
I1733
I1738
tp33
a(S'5ht4'
p34
I432
I437
tp35
atp36
Rp37
sS'raw_text_methods'
p38
g3
((lp39
S"(13, u'\\\\bagonist')"
p40
aS"(12, u'\\\\bantagonist')"
p41
atp42
Rp43
sS'regions'
p44
g3
((lp45
S"(14, u'(?i)\\\\b(caudals|caudal)\\\\b')"
p46
atp47
Rp48
sS'year'
p49
V2017
p50
sS'species'
p51
g3
((lp52
S"(3, u'(?i)\\\\b(males|male)\\\\b')"
p53
aS"(4, u'(?i)\\\\b(rats|rat)\\\\b')"
p54
atp55
Rp56
sb.