(ifile_types
ParseObject
p0
(dp1
S'methods'
p2
c__builtin__
set
p3
((lp4
S'Method.AGONIST'
p5
aS'Method.IMMUNOHISTOCHEMISTRY'
p6
aS'Method.ANTAGONIST'
p7
atp8
Rp9
sS'topics'
p10
g3
((lp11
S"(26, u'\\\\bbehav')"
p12
aS"(4, u'\\\\btreatment')"
p13
atp14
Rp15
sS'receptors'
p16
g3
((lp17
(S'5ht3'
p18
I284
I289
tp19
a(S'5ht3'
p20
I35
I40
tp21
a(S'5ht3'
p22
I627
I632
tp23
a(S'5ht3'
p24
I688
I693
tp25
a(S'5ht3'
p26
I371
I376
tp27
atp28
Rp29
sS'raw_text_methods'
p30
g3
((lp31
S"(13, u'\\\\bagonist')"
p32
aS"(20, u'\\\\bondansetron')"
p33
aS"(12, u'\\\\bantagonist')"
p34
atp35
Rp36
sS'regions'
p37
g3
((lp38
tp39
Rp40
sS'year'
p41
V2015
p42
sS'species'
p43
g3
((lp44
S"(1, u'(?i)\\\\b(mice|mouse)\\\\b')"
p45
aS"(5, u'(?i)\\\\b(mices|mice)\\\\b')"
p46
atp47
Rp48
sb.