(ifile_types
ParseObject
p0
(dp1
S'antagonists'
p2
c__builtin__
set
p3
((lp4
tp5
Rp6
sS'methods'
p7
g3
((lp8
S'Method.KNOCKOUT'
p9
atp10
Rp11
sS'topics'
p12
g3
((lp13
S"(4, u'\\\\blocomot')"
p14
aS"(7, u'\\\\bmemory')"
p15
aS"(29, u'\\\\bsex')"
p16
aS"(35, u'\\\\bstress')"
p17
aS"(20, u'\\\\baggressi')"
p18
aS"(10, u'\\\\banxiety')"
p19
atp20
Rp21
sS'receptors'
p22
g3
((lp23
S'5ht1a'
p24
atp25
Rp26
sS'regions'
p27
g3
((lp28
S"(34, u'(?i)(pon|pons)')"
p29
atp30
Rp31
sS'year'
p32
V2018
p33
sS'agonists'
p34
g3
((lp35
S"(155, u'\\\\bmem')"
p36
atp37
Rp38
sS'species'
p39
g3
((lp40
S"(4624, u'(?i)(apes|ape)')"
p41
aS"(3248, u'(?i)(offspring|offspring)')"
p42
aS"(1266, u'(?i)(embryos|embryo)')"
p43
aS"(6580, u'(?i)(dams|dam)')"
p44
aS"(6249, u'(?i)(ants|ant)')"
p45
aS"(6356, u'(?i)(ais|ai)')"
p46
aS"(6391, u'(?i)(asses|ass)')"
p47
aS"(6125, u'(?i)(females|female)')"
p48
aS"(4091, u'(?i)(adults|adult)')"
p49
aS"(5967, u'(?i)(males|male)')"
p50
aS"(3550, u'(?i)(anis|ani)')"
p51
aS"(5958, u'(?i)(rats|rat)')"
p52
aS"(7609, u'(?i)(erns|ern)')"
p53
aS"(163, u'(?i)(mice|mouse)')"
p54
aS"(1055, u'(?i)(men|man)')"
p55
aS"(6753, u'(?i)(da|das)')"
p56
aS"(1961, u'(?i)(pens|pen)')"
p57
aS"(2568, u'(?i)(hens|hen)')"
p58
aS"(4979, u'(?i)(cats|cat)')"
p59
aS"(3726, u'(?i)(mates|mate)')"
p60
aS"(7552, u'(?i)(bats|bat)')"
p61
aS"(1683, u'(?i)(terns|tern)')"
p62
atp63
Rp64
sb.