(ifile_types
ParseObject
p0
(dp1
S'antagonists'
p2
c__builtin__
set
p3
((lp4
S"(53, u'\\\\bketanserin')"
p5
aS"(128, u'\\\\bketanserin')"
p6
aS"(17, u'\\\\bnan ?190')"
p7
aS"(200, u'\\\\bmesulergine')"
p8
atp9
Rp10
sS'methods'
p11
g3
((lp12
S'Method.ANTAGONIST'
p13
atp14
Rp15
sS'topics'
p16
g3
((lp17
tp18
Rp19
sS'receptors'
p20
g3
((lp21
S'5ht2c'
p22
aS'5ht1'
p23
atp24
Rp25
sS'regions'
p26
g3
((lp27
tp28
Rp29
sS'year'
p30
V2014
p31
sS'agonists'
p32
g3
((lp33
S"(171, u'\\\\bmesulergine')"
p34
atp35
Rp36
sS'species'
p37
g3
((lp38
S"(2054, u'(?i)(heads|head)')"
p39
aS"(6249, u'(?i)(ants|ant)')"
p40
aS"(163, u'(?i)(mice|mouse)')"
p41
aS"(1055, u'(?i)(men|man)')"
p42
aS"(4964, u'(?i)(serins|serin)')"
p43
aS"(3550, u'(?i)(anis|ani)')"
p44
aS"(1057, u'(?i)(humans|human)')"
p45
aS"(6391, u'(?i)(asses|ass)')"
p46
aS"(3196, u'(?i)(human|humans)')"
p47
aS"(4074, u'(?i)(bulls|bull)')"
p48
atp49
Rp50
sb.