(ifile_types
ParseObject
p0
(dp1
S'antagonists'
p2
c__builtin__
set
p3
((lp4
S"(119, u'\\\\britanserin')"
p5
aS"(113, u'\\\\brisperidone')"
p6
aS"(58, u'\\\\bhaloperidol')"
p7
atp8
Rp9
sS'methods'
p10
g3
((lp11
S'Method.ANTAGONIST'
p12
atp13
Rp14
sS'topics'
p15
g3
((lp16
S"(15, u'\\\\bschizophreni')"
p17
aS"(14, u'\\\\bpsychosis')"
p18
atp19
Rp20
sS'receptors'
p21
g3
((lp22
S'5ht2d'
p23
aS'5ht2a'
p24
atp25
Rp26
sS'regions'
p27
g3
((lp28
S"(220, u'(?i)\\\\b(striatums|striatum)\\\\b')"
p29
atp30
Rp31
sS'year'
p32
V1994
p33
sS'agonists'
p34
g3
((lp35
S"(43, u'\\\\bhaloperidol')"
p36
atp37
Rp38
sS'species'
p39
g3
((lp40
S"(1057, u'(?i)\\\\b(humans|human)\\\\b')"
p41
aS"(2054, u'(?i)\\\\b(heads|head)\\\\b')"
p42
aS"(5958, u'(?i)\\\\b(rats|rat)\\\\b')"
p43
aS"(3196, u'(?i)\\\\b(human|humans)\\\\b')"
p44
atp45
Rp46
sb.