(ifile_types
ParseObject
p0
(dp1
S'antagonists'
p2
c__builtin__
set
p3
((lp4
tp5
Rp6
sS'methods'
p7
g3
((lp8
S'Method.ANTAGONIST'
p9
aS'Method.AGONIST'
p10
atp11
Rp12
sS'topics'
p13
g3
((lp14
S"(8, u'\\\\blearning')"
p15
aS"(6, u'\\\\bcognit')"
p16
aS"(7, u'\\\\bmemory')"
p17
aS"(4, u'\\\\blocomot')"
p18
atp19
Rp20
sS'receptors'
p21
g3
((lp22
S'5ht5'
p23
aS'5ht2c'
p24
atp25
Rp26
sS'regions'
p27
g3
((lp28
tp29
Rp30
sS'year'
p31
V2008
p32
sS'agonists'
p33
g3
((lp34
S"(149, u'\\\\bmem')"
p35
aS"(155, u'\\\\bmcpp')"
p36
atp37
Rp38
sS'species'
p39
g3
((lp40
S"(7058, u'(?i)\\\\b(does|doe)\\\\b')"
p41
aS"(5967, u'(?i)\\\\b(males|male)\\\\b')"
p42
aS"(4091, u'(?i)\\\\b(adults|adult)\\\\b')"
p43
aS"(5958, u'(?i)\\\\b(rats|rat)\\\\b')"
p44
atp45
Rp46
sb.