(ifile_types
ParseObject
p0
(dp1
S'methods'
p2
c__builtin__
set
p3
((lp4
tp5
Rp6
sS'topics'
p7
g3
((lp8
S"(7, u'\\\\bdepressi')"
p9
aS"(26, u'\\\\bbehav')"
p10
atp11
Rp12
sS'receptors'
p13
g3
((lp14
(S'5ht3'
p15
I106
I111
tp16
a(S'5ht3'
p17
I370
I375
tp18
a(S'5ht3'
p19
I832
I837
tp20
a(S'5ht3'
p21
I1083
I1088
tp22
a(S'5ht3'
p23
I846
I851
tp24
a(S'5ht3'
p25
I1009
I1014
tp26
a(S'5ht3'
p27
I654
I659
tp28
a(S'5ht3'
p29
I640
I645
tp30
a(S'5ht3'
p31
I92
I97
tp32
a(S'5ht3'
p33
I1286
I1291
tp34
a(S'5ht3'
p35
I326
I331
tp36
a(S'5ht3'
p37
I227
I232
tp38
a(S'5ht3'
p39
I1300
I1305
tp40
a(S'5ht3'
p41
I213
I218
tp42
a(S'5ht3'
p43
I1335
I1340
tp44
a(S'5ht3'
p45
I312
I317
tp46
a(S'5ht3'
p47
I1408
I1413
tp48
a(S'5ht3'
p49
I1433
I1438
tp50
a(S'5ht3'
p51
I1394
I1399
tp52
atp53
Rp54
sS'raw_text_methods'
p55
g3
((lp56
S"(11, u'\\\\bfluoxetine')"
p57
atp58
Rp59
sS'regions'
p60
g3
((lp61
tp62
Rp63
sS'year'
p64
V2016
p65
sS'species'
p66
g3
((lp67
S"(4, u'(?i)\\\\b(rats|rat)\\\\b')"
p68
atp69
Rp70
sb.