(ifile_types
ParseObject
p0
(dp1
S'methods'
p2
c__builtin__
set
p3
((lp4
S'Method.ANTAGONIST'
p5
atp6
Rp7
sS'topics'
p8
g3
((lp9
tp10
Rp11
sS'receptors'
p12
g3
((lp13
(S'5ht1a'
p14
I1073
I1079
tp15
a(S'5ht1a'
p16
I2061
I2067
tp17
a(S'5ht1'
p18
I1392
I1398
tp19
a(S'5ht1a'
p20
I135
I141
tp21
a(S'5ht1a'
p22
I2874
I2880
tp23
a(S'5ht1a'
p24
I1734
I1740
tp25
a(S'5ht1a'
p26
I632
I638
tp27
a(S'5ht1a'
p28
I1392
I1398
tp29
a(S'5ht1a'
p30
I2334
I2340
tp31
a(S'5ht1a'
p32
I1999
I2005
tp33
a(S'5ht1a'
p34
I523
I529
tp35
a(S'5ht1'
p36
I1693
I1699
tp37
a(S'5ht1a'
p38
I1693
I1699
tp39
a(S'5ht1'
p40
I135
I141
tp41
a(S'5ht1'
p42
I632
I638
tp43
a(S'5ht1'
p44
I2205
I2210
tp45
a(S'5ht1a'
p46
I1475
I1481
tp47
atp48
Rp49
sS'raw_text_methods'
p50
g3
((lp51
S"(12, u'\\\\bantagonist')"
p52
atp53
Rp54
sS'regions'
p55
g3
((lp56
S"(3, u'(?i)\\\\b(postsynaptics|postsynaptic)\\\\b')"
p57
atp58
Rp59
sS'year'
p60
V2001
p61
sS'species'
p62
g3
((lp63
tp64
Rp65
sb.