(ifile_types
ParseObject
p0
(dp1
S'antagonists'
p2
c__builtin__
set
p3
((lp4
S"(31, u'\\\\bway ?100635')"
p5
aS"(16, u'\\\\bnad ?299')"
p6
atp7
Rp8
sS'methods'
p9
g3
((lp10
S'Method.ANTAGONIST'
p11
atp12
Rp13
sS'topics'
p14
g3
((lp15
tp16
Rp17
sS'receptors'
p18
g3
((lp19
S'5ht1a'
p20
atp21
Rp22
sS'regions'
p23
g3
((lp24
tp25
Rp26
sS'year'
p27
V1997
p28
sS'agonists'
p29
g3
((lp30
tp31
Rp32
sS'species'
p33
g3
((lp34
tp35
Rp36
sb.