(ifile_types
ParseObject
p0
(dp1
S'antagonists'
p2
c__builtin__
set
p3
((lp4
S"(42, u'\\\\bvortioxetine')"
p5
atp6
Rp7
sS'methods'
p8
g3
((lp9
tp10
Rp11
sS'topics'
p12
g3
((lp13
S"(6, u'\\\\bcognit')"
p14
aS"(9, u'\\\\bdepress')"
p15
aS"(10, u'\\\\banxiety')"
p16
atp17
Rp18
sS'receptors'
p19
g3
((lp20
S'5ht7'
p21
aS'5ht1a'
p22
aS'5ht3a'
p23
atp24
Rp25
sS'regions'
p26
g3
((lp27
tp28
Rp29
sS'year'
p30
V2016
p31
sS'agonists'
p32
g3
((lp33
S"(94, u'\\\\bvortioxetine')"
p34
aS"(80, u'\\\\bvilazodone')"
p35
atp36
Rp37
sS'species'
p38
g3
((lp39
tp40
Rp41
sb.