(ifile_types
ParseObject
p0
(dp1
S'methods'
p2
c__builtin__
set
p3
((lp4
S'Method.AGONIST'
p5
atp6
Rp7
sS'topics'
p8
g3
((lp9
S"(24, u'\\\\banxiolytic')"
p10
aS"(8, u'\\\\banxi')"
p11
aS"(4, u'\\\\btreatment')"
p12
atp13
Rp14
sS'receptors'
p15
g3
((lp16
(S'5ht1a'
p17
I346
I352
tp18
a(S'5ht1a'
p19
I1655
I1661
tp20
a(S'5ht1a'
p21
I1126
I1132
tp22
a(S'5ht1a'
p23
I120
I126
tp24
atp25
Rp26
sS'raw_text_methods'
p27
g3
((lp28
S"(13, u'\\\\bagonist')"
p29
aS"(15, u'\\\\b8ohdpat')"
p30
aS"(16, u'\\\\bdiazepam')"
p31
aS"(36, u'\\\\bbenzodiazepine')"
p32
atp33
Rp34
sS'regions'
p35
g3
((lp36
tp37
Rp38
sS'year'
p39
V2009
p40
sS'species'
p41
g3
((lp42
S"(3, u'(?i)\\\\b(males|male)\\\\b')"
p43
aS"(4, u'(?i)\\\\b(rats|rat)\\\\b')"
p44
atp45
Rp46
sb.