(ifile_types
ParseObject
p0
(dp1
S'antagonists'
p2
c__builtin__
set
p3
((lp4
S"(105, u'\\\\bmethysergide')"
p5
atp6
Rp7
sS'methods'
p8
g3
((lp9
S'Method.ANTAGONIST'
p10
aS'Method.AGONIST'
p11
atp12
Rp13
sS'topics'
p14
g3
((lp15
S"(26, u'\\\\bcardiovascular')"
p16
atp17
Rp18
sS'receptors'
p19
g3
((lp20
S'5ht5'
p21
aS'5ht1a'
p22
aS'5ht2'
p23
aS'5ht1'
p24
atp25
Rp26
sS'regions'
p27
g3
((lp28
tp29
Rp30
sS'year'
p31
V2014
p32
sS'agonists'
p33
g3
((lp34
S"(60, u'\\\\bmethysergide')"
p35
atp36
Rp37
sS'species'
p38
g3
((lp39
S"(5958, u'(?i)(rats|rat)')"
p40
aS"(6753, u'(?i)(da|das)')"
p41
aS"(4163, u'(?i)(ermines|ermine)')"
p42
aS"(6249, u'(?i)(ants|ant)')"
p43
aS"(6215, u'(?i)(racers|racer)')"
p44
aS"(6356, u'(?i)(ais|ai)')"
p45
aS"(3550, u'(?i)(anis|ani)')"
p46
aS"(3522, u'(?i)(tetras|tetra)')"
p47
aS"(1961, u'(?i)(pens|pen)')"
p48
aS"(3812, u'(?i)(studs|stud)')"
p49
aS"(4392, u'(?i)(trout|trout)')"
p50
aS"(6417, u'(?i)(morgans|morgan)')"
p51
aS"(5949, u'(?i)(dogs|dog)')"
p52
atp53
Rp54
sb.