(ifile_types
ParseObject
p0
(dp1
S'antagonists'
p2
c__builtin__
set
p3
((lp4
S"(133, u'\\\\bmianserin')"
p5
aS"(26, u'\\\\bspiperone')"
p6
atp7
Rp8
sS'methods'
p9
g3
((lp10
S'Method.ANTAGONIST'
p11
aS'Method.AGONIST'
p12
atp13
Rp14
sS'topics'
p15
g3
((lp16
tp17
Rp18
sS'receptors'
p19
g3
((lp20
S'5ht1c'
p21
aS'5ht1b'
p22
aS'5ht1a'
p23
aS'5ht3'
p24
aS'5ht2a'
p25
atp26
Rp27
sS'regions'
p28
g3
((lp29
S"(390, u'(?i)\\\\b(laterals|lateral)(-|\\\\s+)?(ventricle|ventricles)\\\\b')"
p30
atp31
Rp32
sS'year'
p33
V1993
p34
sS'agonists'
p35
g3
((lp36
S"(155, u'\\\\bmcpp')"
p37
atp38
Rp39
sS'species'
p40
g3
((lp41
S"(6753, u'(?i)\\\\b(da|das)\\\\b')"
p42
aS"(4091, u'(?i)\\\\b(adults|adult)\\\\b')"
p43
aS"(5958, u'(?i)\\\\b(rats|rat)\\\\b')"
p44
atp45
Rp46
sb.