(ifile_types
ParseObject
p0
(dp1
S'methods'
p2
c__builtin__
set
p3
((lp4
S'Method.ANTAGONIST'
p5
aS'Method.AGONIST'
p6
atp7
Rp8
sS'topics'
p9
g3
((lp10
tp11
Rp12
sS'receptors'
p13
g3
((lp14
(S'5ht7'
p15
I1535
I1540
tp16
a(S'5ht7'
p17
I1044
I1049
tp18
a(S'5ht7a'
p19
I1145
I1151
tp20
a(S'5ht7'
p21
I1129
I1134
tp22
a(S'5ht7'
p23
I174
I179
tp24
a(S'5ht7'
p25
I36
I41
tp26
a(S'5ht6'
p27
I756
I761
tp28
a(S'5ht7'
p29
I1457
I1462
tp30
a(S'5ht5'
p31
I353
I358
tp32
a(S'5ht7b'
p33
I1145
I1152
tp34
a(S'5ht7'
p35
I893
I898
tp36
atp37
Rp38
sS'raw_text_methods'
p39
g3
((lp40
S"(13, u'\\\\bagonist')"
p41
aS"(15, u'\\\\b8ohdpat')"
p42
aS"(3, u'\\\\bimmunoreactiv')"
p43
aS"(34, u'\\\\b5ct')"
p44
aS"(12, u'\\\\bantagonist')"
p45
atp46
Rp47
sS'regions'
p48
g3
((lp49
tp50
Rp51
sS'year'
p52
V2005
p53
sS'species'
p54
g3
((lp55
tp56
Rp57
sb.