(ifile_types
ParseObject
p0
(dp1
S'antagonists'
p2
c__builtin__
set
p3
((lp4
tp5
Rp6
sS'methods'
p7
g3
((lp8
tp9
Rp10
sS'topics'
p11
g3
((lp12
tp13
Rp14
sS'receptors'
p15
g3
((lp16
S'5ht1a'
p17
atp18
Rp19
sS'regions'
p20
g3
((lp21
S"(215, u'(?i)(basolaterals|basolateral)(-|\\\\s+)?(amygdalas|amygdala)')"
p22
aS"(209, u'(?i)(amygdalas|amygdala)')"
p23
aS"(291, u'(?i)(cingulates|cingulate)(-|\\\\s+)?(cortexes|cortex)')"
p24
aS"(126, u'(?i)(thalamuses|thalamus)')"
p25
aS"(214, u'(?i)(laterals|lateral)(-|\\\\s+)?(amygdalas|amygdala)')"
p26
aS"(243, u'(?i)(anteriors|anterior)(-|\\\\s+)?(olfactories|olfactory)(-|\\\\s+)?(nuclei|nucleus)')"
p27
atp28
Rp29
sS'year'
p30
V1999
p31
sS'agonists'
p32
g3
((lp33
tp34
Rp35
sS'species'
p36
g3
((lp37
S"(4624, u'(?i)(apes|ape)')"
p38
aS"(5537, u'(?i)(hippos|hippo)')"
p39
aS"(5958, u'(?i)(rats|rat)')"
p40
aS"(6753, u'(?i)(da|das)')"
p41
aS"(6682, u'(?i)(tera|teras)')"
p42
aS"(468, u'(?i)(oxen|ox)')"
p43
aS"(6249, u'(?i)(ants|ant)')"
p44
aS"(3152, u'(?i)(layers|layer)')"
p45
aS"(4979, u'(?i)(cats|cat)')"
p46
aS"(3550, u'(?i)(anis|ani)')"
p47
aS"(3812, u'(?i)(studs|stud)')"
p48
aS"(6356, u'(?i)(ais|ai)')"
p49
atp50
Rp51
sb.