(ifile_types
ParseObject
p0
(dp1
S'antagonists'
p2
c__builtin__
set
p3
((lp4
tp5
Rp6
sS'methods'
p7
g3
((lp8
S'Method.AGONIST'
p9
atp10
Rp11
sS'topics'
p12
g3
((lp13
tp14
Rp15
sS'receptors'
p16
g3
((lp17
S'5ht1a'
p18
aS'5ht2'
p19
aS'5ht2a'
p20
atp21
Rp22
sS'regions'
p23
g3
((lp24
S"(34, u'(?i)(pon|pons)')"
p25
atp26
Rp27
sS'year'
p28
V1996
p29
sS'agonists'
p30
g3
((lp31
S"(92, u'\\\\b8 ?oh ?dpat')"
p32
aS"(33, u'\\\\bdoi')"
p33
atp34
Rp35
sS'species'
p36
g3
((lp37
S"(2568, u'(?i)(hens|hen)')"
p38
aS"(6356, u'(?i)(ais|ai)')"
p39
aS"(5891, u'(?i)(kits|kit)')"
p40
aS"(4979, u'(?i)(cats|cat)')"
p41
aS"(1055, u'(?i)(men|man)')"
p42
aS"(6249, u'(?i)(ants|ant)')"
p43
aS"(853, u'(?i)(minas|mina)')"
p44
aS"(7168, u'(?i)(kittens|kitten)')"
p45
aS"(5958, u'(?i)(rats|rat)')"
p46
aS"(1961, u'(?i)(pens|pen)')"
p47
aS"(3812, u'(?i)(studs|stud)')"
p48
aS"(7609, u'(?i)(erns|ern)')"
p49
aS"(2809, u'(?i)(toms|tom)')"
p50
aS"(5743, u'(?i)(bots|bot)')"
p51
aS"(1683, u'(?i)(terns|tern)')"
p52
atp53
Rp54
sb.