(ifile_types
ParseObject
p0
(dp1
S'antagonists'
p2
c__builtin__
set
p3
((lp4
tp5
Rp6
sS'methods'
p7
g3
((lp8
S'Method.PET'
p9
atp10
Rp11
sS'topics'
p12
g3
((lp13
S"(16, u'\\\\bfeed')"
p14
aS"(10, u'\\\\banxiety')"
p15
atp16
Rp17
sS'receptors'
p18
g3
((lp19
S'5ht5'
p20
aS'5ht1a'
p21
aS'5ht2a'
p22
atp23
Rp24
sS'regions'
p25
g3
((lp26
tp27
Rp28
sS'year'
p29
V2011
p30
sS'agonists'
p31
g3
((lp32
tp33
Rp34
sS'species'
p35
g3
((lp36
S"(2323, u'(?i)(bees|bee)')"
p37
aS"(4624, u'(?i)(apes|ape)')"
p38
aS"(2568, u'(?i)(hens|hen)')"
p39
aS"(6356, u'(?i)(ais|ai)')"
p40
aS"(7609, u'(?i)(erns|ern)')"
p41
aS"(867, u'(?i)(tits|tit)')"
p42
aS"(6753, u'(?i)(da|das)')"
p43
aS"(3196, u'(?i)(human|humans)')"
p44
aS"(6682, u'(?i)(tera|teras)')"
p45
aS"(1055, u'(?i)(men|man)')"
p46
aS"(6249, u'(?i)(ants|ant)')"
p47
aS"(853, u'(?i)(minas|mina)')"
p48
aS"(5958, u'(?i)(rats|rat)')"
p49
aS"(3812, u'(?i)(studs|stud)')"
p50
aS"(1057, u'(?i)(humans|human)')"
p51
aS"(1961, u'(?i)(pens|pen)')"
p52
aS"(1414, u'(?i)(chars|char)')"
p53
aS"(3048, u'(?i)(hogs|hog)')"
p54
aS"(2809, u'(?i)(toms|tom)')"
p55
aS"(1683, u'(?i)(terns|tern)')"
p56
atp57
Rp58
sb.