(ifile_types
ParseObject
p0
(dp1
S'antagonists'
p2
c__builtin__
set
p3
((lp4
tp5
Rp6
sS'methods'
p7
g3
((lp8
S'Method.AGONIST'
p9
atp10
Rp11
sS'topics'
p12
g3
((lp13
S"(8, u'\\\\blearning')"
p14
atp15
Rp16
sS'receptors'
p17
g3
((lp18
S'5ht7'
p19
aS'5ht1a'
p20
aS'5ht6a'
p21
atp22
Rp23
sS'regions'
p24
g3
((lp25
tp26
Rp27
sS'year'
p28
V2016
p29
sS'agonists'
p30
g3
((lp31
S"(231, u'\\\\blp ?211')"
p32
atp33
Rp34
sS'species'
p35
g3
((lp36
S"(7058, u'(?i)\\\\b(does|doe)\\\\b')"
p37
aS"(163, u'(?i)\\\\b(mice|mouse)\\\\b')"
p38
atp39
Rp40
sb.