(ifile_types
ParseObject
p0
(dp1
S'methods'
p2
c__builtin__
set
p3
((lp4
S'Method.AGONIST'
p5
atp6
Rp7
sS'topics'
p8
g3
((lp9
S"(5, u'\\\\btherap')"
p10
aS"(4, u'\\\\btreatment')"
p11
atp12
Rp13
sS'receptors'
p14
g3
((lp15
(S'5ht1a'
p16
I449
I455
tp17
a(S'5ht1a'
p18
I2215
I2221
tp19
a(S'5ht1a'
p20
I1850
I1856
tp21
a(S'5ht1a'
p22
I1242
I1248
tp23
a(S'5ht1a'
p24
I1962
I1968
tp25
a(S'5ht1a'
p26
I2076
I2082
tp27
a(S'5ht1a'
p28
I779
I785
tp29
a(S'5ht1a'
p30
I58
I64
tp31
a(S'5ht1a'
p32
I219
I225
tp33
atp34
Rp35
sS'raw_text_methods'
p36
g3
((lp37
S"(13, u'\\\\bagonist')"
p38
aS"(11, u'\\\\bfluoxetine')"
p39
atp40
Rp41
sS'regions'
p42
g3
((lp43
tp44
Rp45
sS'year'
p46
V1997
p47
sS'species'
p48
g3
((lp49
tp50
Rp51
sb.