(ifile_types
ParseObject
p0
(dp1
S'methods'
p2
c__builtin__
set
p3
((lp4
S'Method.ANTAGONIST'
p5
atp6
Rp7
sS'topics'
p8
g3
((lp9
S"(1, u'\\\\bpatient')"
p10
aS"(32, u'\\\\bvomit')"
p11
aS"(3, u'\\\\bclinical')"
p12
atp13
Rp14
sS'receptors'
p15
g3
((lp16
(S'5ht3'
p17
I2563
I2568
tp18
a(S'5ht3'
p19
I2464
I2469
tp20
atp21
Rp22
sS'raw_text_methods'
p23
g3
((lp24
S"(12, u'\\\\bantagonist')"
p25
atp26
Rp27
sS'regions'
p28
g3
((lp29
tp30
Rp31
sS'year'
p32
V1999
p33
sS'species'
p34
g3
((lp35
tp36
Rp37
sb.