(ifile_types
ParseObject
p0
(dp1
S'antagonists'
p2
c__builtin__
set
p3
((lp4
S"(203, u'\\\\btfmpp')"
p5
aS"(34, u'\\\\bmetergoline')"
p6
aS"(118, u'\\\\bly ?53857')"
p7
aS"(117, u'\\\\bketanserin')"
p8
aS"(119, u'\\\\britanserin')"
p9
atp10
Rp11
sS'methods'
p12
g3
((lp13
S'Method.ANTAGONIST'
p14
aS'Method.AGONIST'
p15
atp16
Rp17
sS'topics'
p18
g3
((lp19
tp20
Rp21
sS'receptors'
p22
g3
((lp23
S'5ht7a'
p24
aS'5ht1a'
p25
aS'5ht3'
p26
aS'5ht2c'
p27
aS'5ht2a'
p28
atp29
Rp30
sS'regions'
p31
g3
((lp32
S"(158, u'(?i)\\\\b(suprachiasmatics|suprachiasmatic)(-|\\\\s+)?(nuclei|nucleus)\\\\b')"
p33
atp34
Rp35
sS'year'
p36
V1998
p37
sS'agonists'
p38
g3
((lp39
S"(178, u'\\\\btfmpp')"
p40
aS"(192, u'\\\\bquipazine')"
p41
aS"(155, u'\\\\bmcpp')"
p42
aS"(175, u'\\\\bdoi')"
p43
atp44
Rp45
sS'species'
p46
g3
((lp47
S"(5958, u'(?i)\\\\b(rats|rat)\\\\b')"
p48
atp49
Rp50
sb.