(ifile_types
ParseObject
p0
(dp1
S'antagonists'
p2
c__builtin__
set
p3
((lp4
S"(53, u'\\\\bketanserin')"
p5
aS"(128, u'\\\\bketanserin')"
p6
atp7
Rp8
sS'methods'
p9
g3
((lp10
S'Method.ANTAGONIST'
p11
aS'Method.AGONIST'
p12
atp13
Rp14
sS'topics'
p15
g3
((lp16
tp17
Rp18
sS'receptors'
p19
g3
((lp20
S'5ht5'
p21
aS'5ht1a'
p22
aS'5ht2a'
p23
atp24
Rp25
sS'regions'
p26
g3
((lp27
tp28
Rp29
sS'year'
p30
V2003
p31
sS'agonists'
p32
g3
((lp33
S"(50, u'\\\\bipsapirone')"
p34
atp35
Rp36
sS'species'
p37
g3
((lp38
S"(4624, u'(?i)(apes|ape)')"
p39
aS"(5537, u'(?i)(hippos|hippo)')"
p40
aS"(6753, u'(?i)(da|das)')"
p41
aS"(6249, u'(?i)(ants|ant)')"
p42
aS"(5150, u'(?i)(gerbils|gerbil)')"
p43
aS"(4979, u'(?i)(cats|cat)')"
p44
aS"(1055, u'(?i)(men|man)')"
p45
aS"(1349, u'(?i)(rams|ram)')"
p46
aS"(4964, u'(?i)(serins|serin)')"
p47
aS"(1961, u'(?i)(pens|pen)')"
p48
aS"(3812, u'(?i)(studs|stud)')"
p49
aS"(6391, u'(?i)(asses|ass)')"
p50
aS"(6580, u'(?i)(dams|dam)')"
p51
aS"(6356, u'(?i)(ais|ai)')"
p52
atp53
Rp54
sb.