(ifile_types
ParseObject
p0
(dp1
S'methods'
p2
c__builtin__
set
p3
((lp4
S'Method.PET'
p5
aS'Method.ANTAGONIST'
p6
aS'Method.AGONIST'
p7
atp8
Rp9
sS'topics'
p10
g3
((lp11
tp12
Rp13
sS'receptors'
p14
g3
((lp15
(S'5ht1b'
p16
I786
I792
tp17
a(S'5ht1b'
p18
I297
I303
tp19
a(S'5ht1b'
p20
I1493
I1499
tp21
a(S'5ht1b'
p22
I1630
I1636
tp23
a(S'5ht1b'
p24
I659
I665
tp25
a(S'5ht1b'
p26
I83
I89
tp27
a(S'5ht1b'
p28
I319
I325
tp29
atp30
Rp31
sS'raw_text_methods'
p32
g3
((lp33
S"(13, u'\\\\bagonist')"
p34
aS"(17, u'\\\\bpet')"
p35
aS"(18, u'\\\\bimaging')"
p36
aS"(12, u'\\\\bantagonist')"
p37
atp38
Rp39
sS'regions'
p40
g3
((lp41
S"(19, u'(?i)\\\\b(cortexes|cortex)\\\\b')"
p42
atp43
Rp44
sS'year'
p45
V2019
p46
sS'species'
p47
g3
((lp48
tp49
Rp50
sb.