(ifile_types
ParseObject
p0
(dp1
S'methods'
p2
c__builtin__
set
p3
((lp4
tp5
Rp6
sS'topics'
p7
g3
((lp8
S"(22, u'\\\\bschizophreni')"
p9
aS"(1, u'\\\\bpatient')"
p10
aS"(12, u'\\\\bsleep')"
p11
aS"(9, u'\\\\bstress')"
p12
atp13
Rp14
sS'receptors'
p15
g3
((lp16
(S'5ht2'
p17
I577
I582
tp18
a(S'5ht2'
p19
I312
I317
tp20
a(S'5ht2a'
p21
I212
I223
tp22
a(S'5ht2'
p23
I235
I240
tp24
atp25
Rp26
sS'raw_text_methods'
p27
g3
((lp28
tp29
Rp30
sS'regions'
p31
g3
((lp32
tp33
Rp34
sS'year'
p35
V2015
p36
sS'species'
p37
g3
((lp38
S"(1, u'(?i)\\\\b(mice|mouse)\\\\b')"
p39
aS"(5, u'(?i)\\\\b(mices|mice)\\\\b')"
p40
atp41
Rp42
sb.