(ifile_types
ParseObject
p0
(dp1
S'methods'
p2
c__builtin__
set
p3
((lp4
S'Method.AGONIST'
p5
atp6
Rp7
sS'topics'
p8
g3
((lp9
S"(4, u'\\\\btreatment')"
p10
atp11
Rp12
sS'receptors'
p13
g3
((lp14
(S'5ht1b'
p15
I1072
I1078
tp16
atp17
Rp18
sS'raw_text_methods'
p19
g3
((lp20
S"(13, u'\\\\bagonist')"
p21
aS"(2, u'\\\\blabeling')"
p22
atp23
Rp24
sS'regions'
p25
g3
((lp26
S"(19, u'(?i)\\\\b(cortexes|cortex)\\\\b')"
p27
atp28
Rp29
sS'year'
p30
V2006
p31
sS'species'
p32
g3
((lp33
S"(6, u'(?i)\\\\b(rodents|rodent)\\\\b')"
p34
aS"(4, u'(?i)\\\\b(rats|rat)\\\\b')"
p35
atp36
Rp37
sb.