(ifile_types
ParseObject
p0
(dp1
S'methods'
p2
c__builtin__
set
p3
((lp4
S'Method.AGONIST'
p5
atp6
Rp7
sS'topics'
p8
g3
((lp9
S"(5, u'\\\\btherap')"
p10
aS"(16, u'\\\\blearning')"
p11
aS"(2, u'\\\\bdisorder')"
p12
atp13
Rp14
sS'receptors'
p15
g3
((lp16
(S'5ht7'
p17
I72
I77
tp18
a(S'5ht7'
p19
I284
I289
tp20
a(S'5ht1a'
p21
I1525
I1531
tp22
a(S'5ht7'
p23
I2038
I2043
tp24
a(S'5ht7'
p25
I1415
I1420
tp26
a(S'5ht7'
p27
I544
I549
tp28
a(S'5ht6'
p29
I1462
I1467
tp30
a(S'5ht7'
p31
I1740
I1745
tp32
atp33
Rp34
sS'raw_text_methods'
p35
g3
((lp36
S"(13, u'\\\\bagonist')"
p37
atp38
Rp39
sS'regions'
p40
g3
((lp41
tp42
Rp43
sS'year'
p44
V2016
p45
sS'species'
p46
g3
((lp47
S"(1, u'(?i)\\\\b(mice|mouse)\\\\b')"
p48
aS"(5, u'(?i)\\\\b(mices|mice)\\\\b')"
p49
atp50
Rp51
sb.