(ifile_types
ParseObject
p0
(dp1
S'methods'
p2
c__builtin__
set
p3
((lp4
S'Method.PET'
p5
aS'Method.ANTAGONIST'
p6
atp7
Rp8
sS'topics'
p9
g3
((lp10
S"(22, u'\\\\bschizophreni')"
p11
aS"(8, u'\\\\banxi')"
p12
aS"(14, u'\\\\bcogniti')"
p13
aS"(2, u'\\\\bdisorder')"
p14
atp15
Rp16
sS'receptors'
p17
g3
((lp18
(S'5ht6'
p19
I1538
I1543
tp20
a(S'5ht6'
p21
I1462
I1467
tp22
a(S'5ht6'
p23
I282
I287
tp24
a(S'5ht6'
p25
I645
I650
tp26
a(S'5ht6'
p27
I842
I847
tp28
a(S'5ht6'
p29
I183
I188
tp30
atp31
Rp32
sS'raw_text_methods'
p33
g3
((lp34
S"(37, u'\\\\bpiperazine')"
p35
aS"(17, u'\\\\bpet')"
p36
aS"(18, u'\\\\bimaging')"
p37
aS"(12, u'\\\\bantagonist')"
p38
atp39
Rp40
sS'regions'
p41
g3
((lp42
S"(19, u'(?i)\\\\b(cortexes|cortex)\\\\b')"
p43
aS"(12, u'(?i)\\\\b(amygdalas|amygdala)\\\\b')"
p44
atp45
Rp46
sS'year'
p47
V2011
p48
sS'species'
p49
g3
((lp50
tp51
Rp52
sb.