(ifile_types
ParseObject
p0
(dp1
S'methods'
p2
c__builtin__
set
p3
((lp4
S'Method.ANTAGONIST'
p5
aS'Method.AGONIST'
p6
atp7
Rp8
sS'topics'
p9
g3
((lp10
tp11
Rp12
sS'receptors'
p13
g3
((lp14
(S'5ht3'
p15
I66
I71
tp16
a(S'5ht3'
p17
I1850
I1855
tp18
a(S'5ht2'
p19
I1649
I1654
tp20
a(S'5ht3'
p21
I1390
I1395
tp22
a(S'5ht3'
p23
I1740
I1745
tp24
a(S'5ht1'
p25
I1634
I1639
tp26
a(S'5ht3'
p27
I1344
I1349
tp28
a(S'5ht1'
p29
I1468
I1473
tp30
atp31
Rp32
sS'raw_text_methods'
p33
g3
((lp34
S"(13, u'\\\\bagonist')"
p35
aS"(28, u'\\\\bzacopride')"
p36
aS"(54, u'\\\\bautoradiography')"
p37
aS"(12, u'\\\\bantagonist')"
p38
atp39
Rp40
sS'regions'
p41
g3
((lp42
tp43
Rp44
sS'year'
p45
V1990
p46
sS'species'
p47
g3
((lp48
tp49
Rp50
sb.