(ifile_types
ParseObject
p0
(dp1
S'antagonists'
p2
c__builtin__
set
p3
((lp4
tp5
Rp6
sS'methods'
p7
g3
((lp8
S'Method.ANTAGONIST'
p9
atp10
Rp11
sS'topics'
p12
g3
((lp13
S"(9, u'\\\\bdepress')"
p14
aS"(10, u'\\\\banxiety')"
p15
aS"(1, u'\\\\bmood')"
p16
atp17
Rp18
sS'receptors'
p19
g3
((lp20
S'5ht5'
p21
aS'5ht1a'
p22
atp23
Rp24
sS'regions'
p25
g3
((lp26
S"(254, u'(?i)(prefrontals|prefrontal)(-|\\\\s+)?(cortexes|cortex)')"
p27
aS"(255, u'(?i)(pres|pre)(-|\\\\s+)?(frontals|frontal)(-|\\\\s+)?(cortexes|cortex)')"
p28
aS"(34, u'(?i)(pon|pons)')"
p29
aS"(220, u'(?i)(striatums|striatum)')"
p30
aS"(318, u'(?i)(raphes|raphe)(-|\\\\s+)?(nuclei|nucleus)')"
p31
aS"(94, u'(?i)(dorsals|dorsal)(-|\\\\s+)?(raphes|raphe)(-|\\\\s+)?(nuclei|nucleus)')"
p32
atp33
Rp34
sS'year'
p35
V2016
p36
sS'agonists'
p37
g3
((lp38
S"(13, u'\\\\baet')"
p39
atp40
Rp41
sS'species'
p42
g3
((lp43
S"(2103, u'(?i)(nesters|nester)')"
p44
aS"(2323, u'(?i)(bees|bee)')"
p45
aS"(5958, u'(?i)(rats|rat)')"
p46
aS"(6356, u'(?i)(ais|ai)')"
p47
aS"(6753, u'(?i)(da|das)')"
p48
aS"(6682, u'(?i)(tera|teras)')"
p49
aS"(4091, u'(?i)(adults|adult)')"
p50
aS"(5967, u'(?i)(males|male)')"
p51
aS"(468, u'(?i)(oxen|ox)')"
p52
aS"(1055, u'(?i)(men|man)')"
p53
aS"(3726, u'(?i)(mates|mate)')"
p54
aS"(4979, u'(?i)(cats|cat)')"
p55
aS"(3550, u'(?i)(anis|ani)')"
p56
aS"(3752, u'(?i)(pests|pest)')"
p57
aS"(3812, u'(?i)(studs|stud)')"
p58
aS"(5537, u'(?i)(hippos|hippo)')"
p59
aS"(821, u'(?i)(lice|louse)')"
p60
aS"(6249, u'(?i)(ants|ant)')"
p61
atp62
Rp63
sb.