(ifile_types
ParseObject
p0
(dp1
S'antagonists'
p2
c__builtin__
set
p3
((lp4
tp5
Rp6
sS'methods'
p7
g3
((lp8
S'Method.AGONIST'
p9
atp10
Rp11
sS'topics'
p12
g3
((lp13
S"(9, u'\\\\bdepress')"
p14
aS"(16, u'\\\\bfeed')"
p15
atp16
Rp17
sS'receptors'
p18
g3
((lp19
S'5ht1a'
p20
atp21
Rp22
sS'regions'
p23
g3
((lp24
S"(126, u'(?i)(thalamuses|thalamus)')"
p25
atp26
Rp27
sS'year'
p28
V1994
p29
sS'agonists'
p30
g3
((lp31
S"(92, u'\\\\b8 ?oh ?dpat')"
p32
atp33
Rp34
sS'species'
p35
g3
((lp36
S"(4096, u'(?i)(chows|chow)')"
p37
aS"(4301, u'(?i)(hydras|hydra)')"
p38
aS"(5958, u'(?i)(rats|rat)')"
p39
aS"(867, u'(?i)(tits|tit)')"
p40
aS"(5743, u'(?i)(bots|bot)')"
p41
aS"(468, u'(?i)(oxen|ox)')"
p42
aS"(6249, u'(?i)(ants|ant)')"
p43
aS"(2183, u'(?i)(gars|gar)')"
p44
aS"(1055, u'(?i)(men|man)')"
p45
aS"(5131, u'(?i)(hags|hag)')"
p46
aS"(4979, u'(?i)(cats|cat)')"
p47
aS"(3550, u'(?i)(anis|ani)')"
p48
aS"(3522, u'(?i)(tetras|tetra)')"
p49
aS"(3812, u'(?i)(studs|stud)')"
p50
aS"(6391, u'(?i)(asses|ass)')"
p51
aS"(6356, u'(?i)(ais|ai)')"
p52
aS"(6682, u'(?i)(tera|teras)')"
p53
atp54
Rp55
sb.