(ifile_types
ParseObject
p0
(dp1
S'antagonists'
p2
c__builtin__
set
p3
((lp4
tp5
Rp6
sS'methods'
p7
g3
((lp8
S'Method.ANTAGONIST'
p9
aS'Method.AGONIST'
p10
atp11
Rp12
sS'topics'
p13
g3
((lp14
tp15
Rp16
sS'receptors'
p17
g3
((lp18
S'5ht3'
p19
atp20
Rp21
sS'regions'
p22
g3
((lp23
S"(285, u'(?i)\\\\b(entorhinals|entorhinal)(-|\\\\s+)?(cortexes|cortex)\\\\b')"
p24
atp25
Rp26
sS'year'
p27
V1991
p28
sS'agonists'
p29
g3
((lp30
S"(186, u'\\\\b2 ?methyl ?5 ?ht')"
p31
aS"(192, u'\\\\bquipazine')"
p32
aS"(191, u'\\\\bphenylbiguanide')"
p33
atp34
Rp35
sS'species'
p36
g3
((lp37
S"(473, u'(?i)\\\\b(rabbits|rabbit)\\\\b')"
p38
aS"(5958, u'(?i)\\\\b(rats|rat)\\\\b')"
p39
atp40
Rp41
sb.