(ifile_types
ParseObject
p0
(dp1
S'antagonists'
p2
c__builtin__
set
p3
((lp4
tp5
Rp6
sS'methods'
p7
g3
((lp8
S'Method.AGONIST'
p9
atp10
Rp11
sS'topics'
p12
g3
((lp13
tp14
Rp15
sS'receptors'
p16
g3
((lp17
S'5ht5'
p18
aS'5ht3'
p19
aS'5ht1a'
p20
aS'5ht2'
p21
atp22
Rp23
sS'regions'
p24
g3
((lp25
S"(254, u'(?i)(prefrontals|prefrontal)(-|\\\\s+)?(cortexes|cortex)')"
p26
aS"(255, u'(?i)(pres|pre)(-|\\\\s+)?(frontals|frontal)(-|\\\\s+)?(cortexes|cortex)')"
p27
atp28
Rp29
sS'year'
p30
V2006
p31
sS'agonists'
p32
g3
((lp33
tp34
Rp35
sS'species'
p36
g3
((lp37
S"(2323, u'(?i)(bees|bee)')"
p38
aS"(4624, u'(?i)(apes|ape)')"
p39
aS"(5958, u'(?i)(rats|rat)')"
p40
aS"(4201, u'(?i)(kines|kine)')"
p41
aS"(479, u'(?i)(lings|ling)')"
p42
aS"(81, u'(?i)(asps|asp)')"
p43
aS"(468, u'(?i)(oxen|ox)')"
p44
aS"(1055, u'(?i)(men|man)')"
p45
aS"(6249, u'(?i)(ants|ant)')"
p46
aS"(2334, u'(?i)(eels|eel)')"
p47
aS"(3550, u'(?i)(anis|ani)')"
p48
aS"(6682, u'(?i)(tera|teras)')"
p49
aS"(6356, u'(?i)(ais|ai)')"
p50
aS"(2809, u'(?i)(toms|tom)')"
p51
atp52
Rp53
sb.