(ifile_types
ParseObject
p0
(dp1
S'methods'
p2
c__builtin__
set
p3
((lp4
S'Method.ANTAGONIST'
p5
aS'Method.AGONIST'
p6
atp7
Rp8
sS'topics'
p9
g3
((lp10
tp11
Rp12
sS'receptors'
p13
g3
((lp14
(S'5ht1a'
p15
I1193
I1199
tp16
a(S'5ht1a'
p17
I599
I605
tp18
a(S'5ht2b'
p19
I321
I327
tp20
a(S'5ht1a'
p21
I111
I116
tp22
a(S'5ht1a'
p23
I310
I316
tp24
a(S'5ht1a'
p25
I1119
I1125
tp26
a(S'5ht1a'
p27
I482
I488
tp28
a(S'5ht2b'
p29
I1031
I1037
tp30
atp31
Rp32
sS'raw_text_methods'
p33
g3
((lp34
S"(13, u'\\\\bagonist')"
p35
aS"(15, u'\\\\b8ohdpat')"
p36
aS"(12, u'\\\\bantagonist')"
p37
atp38
Rp39
sS'regions'
p40
g3
((lp41
tp42
Rp43
sS'year'
p44
V2009
p45
sS'species'
p46
g3
((lp47
S"(7, u'(?i)\\\\b(guineas|guinea)(-|\\\\s+)?(pigs|pig)\\\\b')"
p48
aS"(4, u'(?i)\\\\b(rats|rat)\\\\b')"
p49
atp50
Rp51
sb.