(ifile_types
ParseObject
p0
(dp1
S'antagonists'
p2
c__builtin__
set
p3
((lp4
tp5
Rp6
sS'methods'
p7
g3
((lp8
tp9
Rp10
sS'topics'
p11
g3
((lp12
S"(9, u'\\\\bdepress')"
p13
aS"(16, u'\\\\bfeed')"
p14
atp15
Rp16
sS'receptors'
p17
g3
((lp18
S'5ht1b'
p19
atp20
Rp21
sS'regions'
p22
g3
((lp23
S"(34, u'(?i)(pon|pons)')"
p24
atp25
Rp26
sS'year'
p27
V2008
p28
sS'agonists'
p29
g3
((lp30
tp31
Rp32
sS'species'
p33
g3
((lp34
S"(6753, u'(?i)(da|das)')"
p35
aS"(3601, u'(?i)(efts|eft)')"
p36
aS"(702, u'(?i)(genets|genet)')"
p37
aS"(4979, u'(?i)(cats|cat)')"
p38
aS"(1885, u'(?i)(apars|apar)')"
p39
aS"(6682, u'(?i)(tera|teras)')"
p40
aS"(7094, u'(?i)(curs|cur)')"
p41
aS"(853, u'(?i)(minas|mina)')"
p42
aS"(3550, u'(?i)(anis|ani)')"
p43
aS"(5863, u'(?i)(entires|entire)')"
p44
aS"(1961, u'(?i)(pens|pen)')"
p45
aS"(1414, u'(?i)(chars|char)')"
p46
aS"(6391, u'(?i)(asses|ass)')"
p47
aS"(6356, u'(?i)(ais|ai)')"
p48
aS"(1628, u'(?i)(cod|cod)')"
p49
aS"(3812, u'(?i)(studs|stud)')"
p50
atp51
Rp52
sb.