(ifile_types
ParseObject
p0
(dp1
S'methods'
p2
c__builtin__
set
p3
((lp4
S'Method.KNOCKDOWN'
p5
atp6
Rp7
sS'topics'
p8
g3
((lp9
tp10
Rp11
sS'receptors'
p12
g3
((lp13
(S'5ht1a'
p14
I552
I558
tp15
atp16
Rp17
sS'raw_text_methods'
p18
g3
((lp19
S"(14, u'\\\\bknockdown')"
p20
atp21
Rp22
sS'regions'
p23
g3
((lp24
S"(14, u'(?i)\\\\b(caudals|caudal)\\\\b')"
p25
atp26
Rp27
sS'year'
p28
V2015
p29
sS'species'
p30
g3
((lp31
tp32
Rp33
sb.