(ifile_types
ParseObject
p0
(dp1
S'antagonists'
p2
c__builtin__
set
p3
((lp4
tp5
Rp6
sS'methods'
p7
g3
((lp8
S'Method.AGONIST'
p9
atp10
Rp11
sS'topics'
p12
g3
((lp13
S"(11, u'\\\\banxiolyt')"
p14
aS"(10, u'\\\\banxiety')"
p15
atp16
Rp17
sS'receptors'
p18
g3
((lp19
S'5ht1a'
p20
atp21
Rp22
sS'regions'
p23
g3
((lp24
S"(390, u'(?i)\\\\b(laterals|lateral)(-|\\\\s+)?(ventricle|ventricles)\\\\b')"
p25
aS"(94, u'(?i)\\\\b(dorsals|dorsal)(-|\\\\s+)?(raphes|raphe)(-|\\\\s+)?(nuclei|nucleus)\\\\b')"
p26
aS"(220, u'(?i)\\\\b(striatums|striatum)\\\\b')"
p27
aS"(318, u'(?i)\\\\b(raphes|raphe)(-|\\\\s+)?(nuclei|nucleus)\\\\b')"
p28
atp29
Rp30
sS'year'
p31
V1995
p32
sS'agonists'
p33
g3
((lp34
S"(45, u'\\\\bipsapirone')"
p35
aS"(85, u'\\\\b8 ?oh ?dpat')"
p36
atp37
Rp38
sS'species'
p39
g3
((lp40
S"(5958, u'(?i)\\\\b(rats|rat)\\\\b')"
p41
atp42
Rp43
sb.