(ifile_types
ParseObject
p0
(dp1
S'methods'
p2
c__builtin__
set
p3
((lp4
S'Method.ANTAGONIST'
p5
aS'Method.AGONIST'
p6
atp7
Rp8
sS'topics'
p9
g3
((lp10
S"(23, u'\\\\bantipsychotic')"
p11
atp12
Rp13
sS'receptors'
p14
g3
((lp15
(S'5ht2c'
p16
I888
I896
tp17
a(S'5ht1a'
p18
I951
I957
tp19
a(S'5ht2a'
p20
I919
I925
tp21
a(S'5ht1a'
p22
I1944
I1950
tp23
a(S'5ht2a'
p24
I1964
I1970
tp25
a(S'5ht2c'
p26
I1106
I1114
tp27
a(S'5ht2a'
p28
I888
I894
tp29
a(S'5ht1a'
p30
I653
I659
tp31
a(S'5ht2a'
p32
I1106
I1112
tp33
atp34
Rp35
sS'raw_text_methods'
p36
g3
((lp37
S"(41, u'\\\\bhaloperidol')"
p38
aS"(23, u'\\\\bmdl')"
p39
aS"(15, u'\\\\b8ohdpat')"
p40
aS"(13, u'\\\\bagonist')"
p41
aS"(49, u'\\\\bdoi')"
p42
aS"(12, u'\\\\bantagonist')"
p43
atp44
Rp45
sS'regions'
p46
g3
((lp47
S"(19, u'(?i)\\\\b(cortexes|cortex)\\\\b')"
p48
atp49
Rp50
sS'year'
p51
V2012
p52
sS'species'
p53
g3
((lp54
S"(1, u'(?i)\\\\b(mice|mouse)\\\\b')"
p55
aS"(5, u'(?i)\\\\b(mices|mice)\\\\b')"
p56
atp57
Rp58
sb.