(ifile_types
ParseObject
p0
(dp1
S'antagonists'
p2
c__builtin__
set
p3
((lp4
tp5
Rp6
sS'methods'
p7
g3
((lp8
S'Method.ANTAGONIST'
p9
aS'Method.IMMUNOHISTOCHEMISTRY'
p10
atp11
Rp12
sS'topics'
p13
g3
((lp14
S"(31, u'\\\\bobesity')"
p15
aS"(9, u'\\\\bdepress')"
p16
aS"(16, u'\\\\bfeed')"
p17
atp18
Rp19
sS'receptors'
p20
g3
((lp21
S'5ht3'
p22
atp23
Rp24
sS'regions'
p25
g3
((lp26
S"(203, u'(?i)\\\\b(dentates|dentate)(-|\\\\s+)?(gyruses|gyrus)\\\\b')"
p27
atp28
Rp29
sS'year'
p30
V2017
p31
sS'agonists'
p32
g3
((lp33
tp34
Rp35
sS'species'
p36
g3
((lp37
S"(163, u'(?i)\\\\b(mice|mouse)\\\\b')"
p38
atp39
Rp40
sb.