(ifile_types
ParseObject
p0
(dp1
S'antagonists'
p2
c__builtin__
set
p3
((lp4
S"(134, u'\\\\bgranisetron')"
p5
aS"(52, u'\\\\bmetergoline')"
p6
aS"(35, u'\\\\bmetergoline')"
p7
atp8
Rp9
sS'methods'
p10
g3
((lp11
S'Method.ANTAGONIST'
p12
aS'Method.AGONIST'
p13
atp14
Rp15
sS'topics'
p16
g3
((lp17
tp18
Rp19
sS'receptors'
p20
g3
((lp21
S'5ht1c'
p22
aS'5ht5'
p23
aS'5ht3a'
p24
aS'5ht2'
p25
aS'5ht1'
p26
aS'5ht2a'
p27
aS'5ht1a'
p28
aS'5ht3'
p29
atp30
Rp31
sS'regions'
p32
g3
((lp33
S"(310, u'(?i)(medials|medial)(-|\\\\s+)?(forebrains|forebrain)(-|\\\\s+)?(bundles|bundle)')"
p34
aS"(226, u'(?i)(nuclei|nucleus)(-|\\\\s+)?(accumben|accumbens)')"
p35
aS"(34, u'(?i)(pon|pons)')"
p36
atp37
Rp38
sS'year'
p39
V1990
p40
sS'agonists'
p41
g3
((lp42
S"(92, u'\\\\b8 ?oh ?dpat')"
p43
aS"(33, u'\\\\bdoi')"
p44
atp45
Rp46
sS'species'
p47
g3
((lp48
S"(2568, u'(?i)(hens|hen)')"
p49
aS"(5958, u'(?i)(rats|rat)')"
p50
aS"(6753, u'(?i)(da|das)')"
p51
aS"(6682, u'(?i)(tera|teras)')"
p52
aS"(468, u'(?i)(oxen|ox)')"
p53
aS"(3592, u'(?i)(ravens|raven)')"
p54
aS"(6249, u'(?i)(ants|ant)')"
p55
aS"(6356, u'(?i)(ais|ai)')"
p56
aS"(3550, u'(?i)(anis|ani)')"
p57
aS"(3522, u'(?i)(tetras|tetra)')"
p58
aS"(1961, u'(?i)(pens|pen)')"
p59
aS"(3812, u'(?i)(studs|stud)')"
p60
atp61
Rp62
sb.