(ifile_types
ParseObject
p0
(dp1
S'antagonists'
p2
c__builtin__
set
p3
((lp4
S"(34, u'\\\\byohimbine')"
p5
aS"(135, u'\\\\bondansetron')"
p6
aS"(17, u'\\\\bnan ?190')"
p7
aS"(102, u'\\\\bfluoxetine')"
p8
aS"(114, u'\\\\bimipramine')"
p9
atp10
Rp11
sS'methods'
p12
g3
((lp13
S'Method.ANTAGONIST'
p14
aS'Method.AGONIST'
p15
atp16
Rp17
sS'topics'
p18
g3
((lp19
tp20
Rp21
sS'receptors'
p22
g3
((lp23
S'5ht5'
p24
aS'5ht3a'
p25
aS'5ht1a'
p26
atp27
Rp28
sS'regions'
p29
g3
((lp30
S"(34, u'(?i)(pon|pons)')"
p31
atp32
Rp33
sS'year'
p34
V1993
p35
sS'agonists'
p36
g3
((lp37
S"(89, u'\\\\byohimbine')"
p38
aS"(92, u'\\\\b8 ?oh ?dpat')"
p39
atp40
Rp41
sS'species'
p42
g3
((lp43
S"(2323, u'(?i)(bees|bee)')"
p44
aS"(4624, u'(?i)(apes|ape)')"
p45
aS"(6753, u'(?i)(da|das)')"
p46
aS"(2568, u'(?i)(hens|hen)')"
p47
aS"(867, u'(?i)(tits|tit)')"
p48
aS"(4979, u'(?i)(cats|cat)')"
p49
aS"(4163, u'(?i)(ermines|ermine)')"
p50
aS"(3051, u'(?i)(pigs|pig)')"
p51
aS"(468, u'(?i)(oxen|ox)')"
p52
aS"(1055, u'(?i)(men|man)')"
p53
aS"(6249, u'(?i)(ants|ant)')"
p54
aS"(1349, u'(?i)(rams|ram)')"
p55
aS"(1054, u'(?i)(homoes|homo)')"
p56
aS"(853, u'(?i)(minas|mina)')"
p57
aS"(5958, u'(?i)(rats|rat)')"
p58
aS"(3522, u'(?i)(tetras|tetra)')"
p59
aS"(7094, u'(?i)(curs|cur)')"
p60
aS"(6356, u'(?i)(ais|ai)')"
p61
aS"(2809, u'(?i)(toms|tom)')"
p62
aS"(1312, u'(?i)(pigeons|pigeon)')"
p63
atp64
Rp65
sb.