(ifile_types
ParseObject
p0
(dp1
S'methods'
p2
c__builtin__
set
p3
((lp4
S'Method.AGONIST'
p5
atp6
Rp7
sS'topics'
p8
g3
((lp9
S"(7, u'\\\\bdepressi')"
p10
atp11
Rp12
sS'receptors'
p13
g3
((lp14
(S'5ht1a'
p15
I1442
I1448
tp16
a(S'5ht1a'
p17
I196
I202
tp18
a(S'5ht1a'
p19
I36
I42
tp20
atp21
Rp22
sS'raw_text_methods'
p23
g3
((lp24
S"(13, u'\\\\bagonist')"
p25
aS"(15, u'\\\\b8ohdpat')"
p26
atp27
Rp28
sS'regions'
p29
g3
((lp30
S"(12, u'(?i)\\\\b(amygdalas|amygdala)\\\\b')"
p31
atp32
Rp33
sS'year'
p34
V2005
p35
sS'species'
p36
g3
((lp37
S"(3, u'(?i)\\\\b(males|male)\\\\b')"
p38
aS"(4, u'(?i)\\\\b(rats|rat)\\\\b')"
p39
atp40
Rp41
sb.