(ifile_types
ParseObject
p0
(dp1
S'methods'
p2
c__builtin__
set
p3
((lp4
S'Method.AGONIST'
p5
atp6
Rp7
sS'topics'
p8
g3
((lp9
S"(24, u'\\\\banxiolytic')"
p10
aS"(8, u'\\\\banxi')"
p11
aS"(26, u'\\\\bbehav')"
p12
atp13
Rp14
sS'receptors'
p15
g3
((lp16
(S'5ht3'
p17
I1930
I1935
tp18
a(S'5ht2'
p19
I1666
I1671
tp20
a(S'5ht3'
p21
I1676
I1681
tp22
a(S'5ht1a'
p23
I1651
I1657
tp24
a(S'5ht1c'
p25
I1659
I1665
tp26
atp27
Rp28
sS'raw_text_methods'
p29
g3
((lp30
S"(16, u'\\\\bdiazepam')"
p31
aS"(15, u'\\\\b8ohdpat')"
p32
aS"(20, u'\\\\bondansetron')"
p33
aS"(36, u'\\\\bbenzodiazepine')"
p34
aS"(13, u'\\\\bagonist')"
p35
aS"(4, u'\\\\bpcpa')"
p36
aS"(9, u'\\\\britanserin')"
p37
aS"(28, u'\\\\bzacopride')"
p38
atp39
Rp40
sS'regions'
p41
g3
((lp42
tp43
Rp44
sS'year'
p45
V1992
p46
sS'species'
p47
g3
((lp48
S"(1, u'(?i)\\\\b(mice|mouse)\\\\b')"
p49
atp50
Rp51
sb.