(ifile_types
ParseObject
p0
(dp1
S'antagonists'
p2
c__builtin__
set
p3
((lp4
S"(32, u'\\\\bxylamidine')"
p5
aS"(118, u'\\\\bly ?53857')"
p6
aS"(191, u'\\\\bly ?215840')"
p7
aS"(194, u'\\\\bmethysergide')"
p8
atp9
Rp10
sS'methods'
p11
g3
((lp12
S'Method.STIMULATION'
p13
aS'Method.ANTAGONIST'
p14
aS'Method.AGONIST'
p15
atp16
Rp17
sS'topics'
p18
g3
((lp19
S"(21, u'\\\\bpain')"
p20
atp21
Rp22
sS'receptors'
p23
g3
((lp24
S'5ht1a'
p25
aS'5ht2b'
p26
aS'5ht2'
p27
atp28
Rp29
sS'regions'
p30
g3
((lp31
tp32
Rp33
sS'year'
p34
V2003
p35
sS'agonists'
p36
g3
((lp37
S"(96, u'\\\\bsumatriptan')"
p38
aS"(53, u'\\\\bmethysergide')"
p39
aS"(155, u'\\\\bmcpp')"
p40
atp41
Rp42
sS'species'
p43
g3
((lp44
S"(2054, u'(?i)\\\\b(heads|head)\\\\b')"
p45
aS"(3051, u'(?i)\\\\b(pigs|pig)\\\\b')"
p46
aS"(4480, u'(?i)\\\\b(guineas|guinea)(-|\\\\s+)?(pigs|pig)\\\\b')"
p47
aS"(3062, u'(?i)\\\\b(guineas|guinea)\\\\b')"
p48
atp49
Rp50
sb.