(ifile_types
ParseObject
p0
(dp1
S'antagonists'
p2
c__builtin__
set
p3
((lp4
S"(53, u'\\\\bketanserin')"
p5
aS"(128, u'\\\\bketanserin')"
p6
atp7
Rp8
sS'methods'
p9
g3
((lp10
S'Method.AGONIST'
p11
aS'Method.IMMUNOHISTOCHEMISTRY'
p12
aS'Method.ANTAGONIST'
p13
atp14
Rp15
sS'topics'
p16
g3
((lp17
S"(35, u'\\\\bstress')"
p18
atp19
Rp20
sS'receptors'
p21
g3
((lp22
S'5ht5'
p23
aS'5ht1a'
p24
aS'5ht2a'
p25
atp26
Rp27
sS'regions'
p28
g3
((lp29
S"(91, u'(?i)(periaqueductals|periaqueductal)(-|\\\\s+)?(grays|gray)')"
p30
aS"(34, u'(?i)(pon|pons)')"
p31
aS"(96, u'(?i)(ventrals|ventral)(-|\\\\s+)?(tegmentals|tegmental)(-|\\\\s+)?(areas|area)')"
p32
aS"(254, u'(?i)(prefrontals|prefrontal)(-|\\\\s+)?(cortexes|cortex)')"
p33
aS"(255, u'(?i)(pres|pre)(-|\\\\s+)?(frontals|frontal)(-|\\\\s+)?(cortexes|cortex)')"
p34
aS"(169, u'(?i)(dorsomedials|dorsomedial)(-|\\\\s+)?(hypothalamics|hypothalamic)(-|\\\\s+)?(nuclei|nucleus)')"
p35
aS"(203, u'(?i)(dentates|dentate)(-|\\\\s+)?(gyruses|gyrus)')"
p36
aS"(226, u'(?i)(nuclei|nucleus)(-|\\\\s+)?(accumben|accumbens)')"
p37
atp38
Rp39
sS'year'
p40
V2016
p41
sS'agonists'
p42
g3
((lp43
S"(92, u'\\\\b8 ?oh ?dpat')"
p44
aS"(33, u'\\\\bdoi')"
p45
atp46
Rp47
sS'species'
p48
g3
((lp49
S"(5537, u'(?i)(hippos|hippo)')"
p50
aS"(6753, u'(?i)(da|das)')"
p51
aS"(5958, u'(?i)(rats|rat)')"
p52
aS"(5176, u'(?i)(tegs|teg)')"
p53
aS"(6682, u'(?i)(tera|teras)')"
p54
aS"(1055, u'(?i)(men|man)')"
p55
aS"(4177, u'(?i)(grays|gray)')"
p56
aS"(4964, u'(?i)(serins|serin)')"
p57
aS"(6249, u'(?i)(ants|ant)')"
p58
aS"(3812, u'(?i)(studs|stud)')"
p59
aS"(2665, u'(?i)(rays|ray)')"
p60
aS"(6356, u'(?i)(ais|ai)')"
p61
atp62
Rp63
sb.