(ifile_types
ParseObject
p0
(dp1
S'methods'
p2
c__builtin__
set
p3
((lp4
S'Method.ANTAGONIST'
p5
aS'Method.AGONIST'
p6
atp7
Rp8
sS'topics'
p9
g3
((lp10
tp11
Rp12
sS'receptors'
p13
g3
((lp14
(S'5ht1a'
p15
I193
I199
tp16
a(S'5ht1a'
p17
I1303
I1309
tp18
a(S'5ht1a'
p19
I689
I695
tp20
a(S'5ht1'
p21
I68
I73
tp22
a(S'5ht1a'
p23
I408
I414
tp24
a(S'5ht1a'
p25
I2121
I2127
tp26
a(S'5ht1a'
p27
I2184
I2190
tp28
a(S'5ht1a'
p29
I833
I839
tp30
a(S'5ht1a'
p31
I1555
I1561
tp32
atp33
Rp34
sS'raw_text_methods'
p35
g3
((lp36
S"(2, u'\\\\blabeling')"
p37
aS"(13, u'\\\\bagonist')"
p38
aS"(15, u'\\\\b8ohdpat')"
p39
aS"(46, u'\\\\bspiperone')"
p40
aS"(51, u'\\\\bway100635')"
p41
aS"(12, u'\\\\bantagonist')"
p42
atp43
Rp44
sS'regions'
p45
g3
((lp46
S"(15, u'(?i)\\\\b(substantias|substantia)(-|\\\\s+)?(nigras|nigra)\\\\b')"
p47
aS"(13, u'(?i)\\\\b(septums|septum)\\\\b')"
p48
aS"(19, u'(?i)\\\\b(cortexes|cortex)\\\\b')"
p49
aS"(9, u'(?i)\\\\b(cerebellums|cerebellum)\\\\b')"
p50
aS"(7, u'(?i)\\\\b(entorhinals|entorhinal)\\\\b')"
p51
atp52
Rp53
sS'year'
p54
V1994
p55
sS'species'
p56
g3
((lp57
S"(1, u'(?i)\\\\b(mice|mouse)\\\\b')"
p58
aS"(5, u'(?i)\\\\b(mices|mice)\\\\b')"
p59
atp60
Rp61
sb.