(ifile_types
ParseObject
p0
(dp1
S'methods'
p2
c__builtin__
set
p3
((lp4
S'Method.ANTAGONIST'
p5
atp6
Rp7
sS'topics'
p8
g3
((lp9
tp10
Rp11
sS'receptors'
p12
g3
((lp13
(S'5ht1a'
p14
I601
I607
tp15
a(S'5ht2'
p16
I1064
I1069
tp17
a(S'5ht1a'
p18
I68
I79
tp19
a(S'5ht1a'
p20
I686
I692
tp21
a(S'5ht2'
p22
I1183
I1188
tp23
a(S'5ht1a'
p24
I1053
I1059
tp25
atp26
Rp27
sS'raw_text_methods'
p28
g3
((lp29
S"(46, u'\\\\bspiperone')"
p30
aS"(53, u'\\\\bketanserin')"
p31
aS"(12, u'\\\\bantagonist')"
p32
atp33
Rp34
sS'regions'
p35
g3
((lp36
S"(8, u'(?i)\\\\b(centrals|central)(-|\\\\s+)?(nervouses|nervous)(-|\\\\s+)?(systems|system)\\\\b')"
p37
atp38
Rp39
sS'year'
p40
V1989
p41
sS'species'
p42
g3
((lp43
tp44
Rp45
sb.