(ifile_types
ParseObject
p0
(dp1
S'antagonists'
p2
c__builtin__
set
p3
((lp4
S"(58, u'\\\\bquetiapine')"
p5
aS"(125, u'\\\\bquetiapine')"
p6
atp7
Rp8
sS'methods'
p9
g3
((lp10
S'Method.PET'
p11
atp12
Rp13
sS'topics'
p14
g3
((lp15
S"(15, u'\\\\bschizophreni')"
p16
atp17
Rp18
sS'receptors'
p19
g3
((lp20
S'5ht2a'
p21
atp22
Rp23
sS'regions'
p24
g3
((lp25
tp26
Rp27
sS'year'
p28
V2000
p29
sS'agonists'
p30
g3
((lp31
S"(71, u'\\\\bquetiapine')"
p32
atp33
Rp34
sS'species'
p35
g3
((lp36
S"(1070, u'(?i)(pets|pet)')"
p37
aS"(2323, u'(?i)(bees|bee)')"
p38
aS"(6753, u'(?i)(da|das)')"
p39
aS"(2568, u'(?i)(hens|hen)')"
p40
aS"(4979, u'(?i)(cats|cat)')"
p41
aS"(479, u'(?i)(lings|ling)')"
p42
aS"(2183, u'(?i)(gars|gar)')"
p43
aS"(1349, u'(?i)(rams|ram)')"
p44
aS"(6249, u'(?i)(ants|ant)')"
p45
aS"(1055, u'(?i)(men|man)')"
p46
aS"(853, u'(?i)(minas|mina)')"
p47
aS"(5958, u'(?i)(rats|rat)')"
p48
aS"(7058, u'(?i)(does|doe)')"
p49
aS"(3812, u'(?i)(studs|stud)')"
p50
aS"(6391, u'(?i)(asses|ass)')"
p51
aS"(2809, u'(?i)(toms|tom)')"
p52
aS"(6356, u'(?i)(ais|ai)')"
p53
atp54
Rp55
sb.