(ifile_types
ParseObject
p0
(dp1
S'antagonists'
p2
c__builtin__
set
p3
((lp4
S"(110, u'\\\\bclozapine')"
p5
aS"(119, u'\\\\britanserin')"
p6
aS"(58, u'\\\\bhaloperidol')"
p7
aS"(113, u'\\\\brisperidone')"
p8
aS"(52, u'\\\\bmdl ?100907')"
p9
atp10
Rp11
sS'methods'
p12
g3
((lp13
S'Method.ANTAGONIST'
p14
atp15
Rp16
sS'topics'
p17
g3
((lp18
S"(9, u'\\\\bdepress')"
p19
aS"(24, u'\\\\banalgesi')"
p20
aS"(11, u'\\\\banxiolyt')"
p21
aS"(4, u'\\\\blocomot')"
p22
atp23
Rp24
sS'receptors'
p25
g3
((lp26
S'5ht2a'
p27
atp28
Rp29
sS'regions'
p30
g3
((lp31
tp32
Rp33
sS'year'
p34
V1996
p35
sS'agonists'
p36
g3
((lp37
S"(23, u'\\\\bclozapine')"
p38
aS"(43, u'\\\\bhaloperidol')"
p39
atp40
Rp41
sS'species'
p42
g3
((lp43
S"(5799, u'(?i)\\\\b(rodents|rodent)\\\\b')"
p44
aS"(163, u'(?i)\\\\b(mice|mouse)\\\\b')"
p45
aS"(2054, u'(?i)\\\\b(heads|head)\\\\b')"
p46
aS"(3196, u'(?i)\\\\b(human|humans)\\\\b')"
p47
aS"(1057, u'(?i)\\\\b(humans|human)\\\\b')"
p48
aS"(5958, u'(?i)\\\\b(rats|rat)\\\\b')"
p49
atp50
Rp51
sb.