(ifile_types
ParseObject
p0
(dp1
S'antagonists'
p2
c__builtin__
set
p3
((lp4
tp5
Rp6
sS'methods'
p7
g3
((lp8
tp9
Rp10
sS'topics'
p11
g3
((lp12
S"(35, u'\\\\bstress')"
p13
aS"(10, u'\\\\banxiety')"
p14
aS"(4, u'\\\\blocomot')"
p15
atp16
Rp17
sS'receptors'
p18
g3
((lp19
S'5ht1a'
p20
atp21
Rp22
sS'regions'
p23
g3
((lp24
S"(126, u'(?i)(thalamuses|thalamus)')"
p25
aS"(209, u'(?i)(amygdalas|amygdala)')"
p26
aS"(34, u'(?i)(pon|pons)')"
p27
atp28
Rp29
sS'year'
p30
V2004
p31
sS'agonists'
p32
g3
((lp33
tp34
Rp35
sS'species'
p36
g3
((lp37
S"(6753, u'(?i)(da|das)')"
p38
aS"(2568, u'(?i)(hens|hen)')"
p39
aS"(6356, u'(?i)(ais|ai)')"
p40
aS"(5958, u'(?i)(rats|rat)')"
p41
aS"(163, u'(?i)(mice|mouse)')"
p42
aS"(468, u'(?i)(oxen|ox)')"
p43
aS"(1055, u'(?i)(men|man)')"
p44
aS"(6249, u'(?i)(ants|ant)')"
p45
aS"(853, u'(?i)(minas|mina)')"
p46
aS"(3550, u'(?i)(anis|ani)')"
p47
aS"(1961, u'(?i)(pens|pen)')"
p48
aS"(3812, u'(?i)(studs|stud)')"
p49
aS"(4979, u'(?i)(cats|cat)')"
p50
atp51
Rp52
sb.