(ifile_types
ParseObject
p0
(dp1
S'methods'
p2
c__builtin__
set
p3
((lp4
S'Method.ANTAGONIST'
p5
aS'Method.AGONIST'
p6
atp7
Rp8
sS'topics'
p9
g3
((lp10
tp11
Rp12
sS'receptors'
p13
g3
((lp14
(S'5ht4'
p15
I741
I746
tp16
a(S'5ht4'
p17
I981
I986
tp18
a(S'5ht4'
p19
I502
I507
tp20
a(S'5ht2'
p21
I1147
I1152
tp22
a(S'5ht4'
p23
I579
I584
tp24
a(S'5ht1'
p25
I1138
I1143
tp26
a(S'5ht4'
p27
I258
I263
tp28
a(S'5ht3'
p29
I341
I346
tp30
a(S'5ht4'
p31
I851
I856
tp32
a(S'5ht3'
p33
I232
I237
tp34
a(S'5ht4'
p35
I220
I225
tp36
a(S'5ht4'
p37
I66
I71
tp38
atp39
Rp40
sS'raw_text_methods'
p41
g3
((lp42
S"(13, u'\\\\bagonist')"
p43
aS"(12, u'\\\\bantagonist')"
p44
atp45
Rp46
sS'regions'
p47
g3
((lp48
tp49
Rp50
sS'year'
p51
V2006
p52
sS'species'
p53
g3
((lp54
S"(4, u'(?i)\\\\b(rats|rat)\\\\b')"
p55
atp56
Rp57
sb.