(ifile_types
ParseObject
p0
(dp1
S'methods'
p2
c__builtin__
set
p3
((lp4
S'Method.ANTAGONIST'
p5
aS'Method.AGONIST'
p6
atp7
Rp8
sS'topics'
p9
g3
((lp10
S"(31, u'\\\\brespiratory')"
p11
aS"(7, u'\\\\bdepressi')"
p12
atp13
Rp14
sS'receptors'
p15
g3
((lp16
(S'5ht2'
p17
I865
I870
tp18
a(S'5ht2'
p19
I735
I740
tp20
a(S'5ht1a'
p21
I550
I556
tp22
a(S'5ht1a'
p23
I854
I860
tp24
a(S'5ht2'
p25
I314
I319
tp26
atp27
Rp28
sS'raw_text_methods'
p29
g3
((lp30
S"(13, u'\\\\bagonist')"
p31
aS"(12, u'\\\\bantagonist')"
p32
atp33
Rp34
sS'regions'
p35
g3
((lp36
tp37
Rp38
sS'year'
p39
V1994
p40
sS'species'
p41
g3
((lp42
S"(4, u'(?i)\\\\b(rats|rat)\\\\b')"
p43
atp44
Rp45
sb.