(ifile_types
ParseObject
p0
(dp1
S'antagonists'
p2
c__builtin__
set
p3
((lp4
tp5
Rp6
sS'methods'
p7
g3
((lp8
S'Method.AGONIST'
p9
atp10
Rp11
sS'topics'
p12
g3
((lp13
S"(15, u'\\\\bschizophreni')"
p14
aS"(9, u'\\\\bdepress')"
p15
aS"(2, u'\\\\bappetite')"
p16
aS"(10, u'\\\\banxiety')"
p17
aS"(14, u'\\\\bpsychosis')"
p18
atp19
Rp20
sS'receptors'
p21
g3
((lp22
S'5ht2c'
p23
atp24
Rp25
sS'regions'
p26
g3
((lp27
tp28
Rp29
sS'year'
p30
V2015
p31
sS'agonists'
p32
g3
((lp33
S"(166, u'\\\\bmk ?212')"
p34
atp35
Rp36
sS'species'
p37
g3
((lp38
S"(5967, u'(?i)\\\\b(males|male)\\\\b')"
p39
atp40
Rp41
sb.