(ifile_types
ParseObject
p0
(dp1
S'antagonists'
p2
c__builtin__
set
p3
((lp4
S"(139, u'\\\\bmetoclopramide')"
p5
aS"(141, u'\\\\bzacopride')"
p6
atp7
Rp8
sS'methods'
p9
g3
((lp10
S'Method.ANTAGONIST'
p11
aS'Method.AGONIST'
p12
atp13
Rp14
sS'topics'
p15
g3
((lp16
tp17
Rp18
sS'receptors'
p19
g3
((lp20
S'5ht5'
p21
aS'5ht3'
p22
aS'5ht1'
p23
aS'5ht2a'
p24
atp25
Rp26
sS'regions'
p27
g3
((lp28
S"(285, u'(?i)(entorhinals|entorhinal)(-|\\\\s+)?(cortexes|cortex)')"
p29
atp30
Rp31
sS'year'
p32
V1988
p33
sS'agonists'
p34
g3
((lp35
S"(212, u'\\\\bzacopride')"
p36
aS"(190, u'\\\\b2 ?methyl ?5 ?ht')"
p37
aS"(213, u'\\\\bmetoclopramide')"
p38
atp39
Rp40
sS'species'
p41
g3
((lp42
S"(1070, u'(?i)(pets|pet)')"
p43
aS"(5958, u'(?i)(rats|rat)')"
p44
aS"(867, u'(?i)(tits|tit)')"
p45
aS"(4979, u'(?i)(cats|cat)')"
p46
aS"(1349, u'(?i)(rams|ram)')"
p47
aS"(3404, u'(?i)(titis|titi)')"
p48
aS"(1054, u'(?i)(homoes|homo)')"
p49
aS"(3812, u'(?i)(studs|stud)')"
p50
aS"(5838, u'(?i)(cubs|cub)')"
p51
aS"(6249, u'(?i)(ants|ant)')"
p52
aS"(1414, u'(?i)(chars|char)')"
p53
aS"(6356, u'(?i)(ais|ai)')"
p54
aS"(7552, u'(?i)(bats|bat)')"
p55
atp56
Rp57
sb.