(ifile_types
ParseObject
p0
(dp1
S'methods'
p2
c__builtin__
set
p3
((lp4
S'Method.AGONIST'
p5
atp6
Rp7
sS'topics'
p8
g3
((lp9
tp10
Rp11
sS'receptors'
p12
g3
((lp13
(S'5ht1a'
p14
I195
I201
tp15
a(S'5ht1a'
p16
I98
I104
tp17
atp18
Rp19
sS'raw_text_methods'
p20
g3
((lp21
S"(13, u'\\\\bagonist')"
p22
aS"(15, u'\\\\b8ohdpat')"
p23
aS"(22, u'\\\\bbuspirone')"
p24
atp25
Rp26
sS'regions'
p27
g3
((lp28
tp29
Rp30
sS'year'
p31
V1991
p32
sS'species'
p33
g3
((lp34
S"(1, u'(?i)\\\\b(mice|mouse)\\\\b')"
p35
aS"(2, u'(?i)\\\\b(females|female)\\\\b')"
p36
aS"(5, u'(?i)\\\\b(mices|mice)\\\\b')"
p37
aS"(3, u'(?i)\\\\b(males|male)\\\\b')"
p38
atp39
Rp40
sb.