(ifile_types
ParseObject
p0
(dp1
S'antagonists'
p2
c__builtin__
set
p3
((lp4
S"(198, u'\\\\bsb ?269970')"
p5
atp6
Rp7
sS'methods'
p8
g3
((lp9
S'Method.ANTAGONIST'
p10
aS'Method.AGONIST'
p11
atp12
Rp13
sS'topics'
p14
g3
((lp15
tp16
Rp17
sS'receptors'
p18
g3
((lp19
S'5ht7'
p20
aS'5ht6'
p21
aS'5ht7a'
p22
aS'5ht5c'
p23
aS'5ht7b'
p24
atp25
Rp26
sS'regions'
p27
g3
((lp28
tp29
Rp30
sS'year'
p31
V2005
p32
sS'agonists'
p33
g3
((lp34
S"(220, u'\\\\b5 ?methoxytryptamine')"
p35
aS"(98, u'\\\\b5 ?carboxamidotryptamine')"
p36
aS"(222, u'\\\\b5 ?meot')"
p37
aS"(85, u'\\\\b8 ?oh ?dpat')"
p38
aS"(219, u'\\\\b5 ?ct')"
p39
atp40
Rp41
sS'species'
p42
g3
((lp43
S"(1057, u'(?i)\\\\b(humans|human)\\\\b')"
p44
aS"(3196, u'(?i)\\\\b(human|humans)\\\\b')"
p45
atp46
Rp47
sb.