(ifile_types
ParseObject
p0
(dp1
S'antagonists'
p2
c__builtin__
set
p3
((lp4
tp5
Rp6
sS'methods'
p7
g3
((lp8
S'Method.AGONIST'
p9
atp10
Rp11
sS'topics'
p12
g3
((lp13
tp14
Rp15
sS'receptors'
p16
g3
((lp17
S'5ht1a'
p18
aS'5ht1'
p19
atp20
Rp21
sS'regions'
p22
g3
((lp23
tp24
Rp25
sS'year'
p26
V1996
p27
sS'agonists'
p28
g3
((lp29
S"(20, u'\\\\bbuspirone')"
p30
aS"(149, u'\\\\bmem')"
p31
aS"(189, u'\\\\bethanol')"
p32
atp33
Rp34
sS'species'
p35
g3
((lp36
S"(7058, u'(?i)\\\\b(does|doe)\\\\b')"
p37
aS"(5958, u'(?i)\\\\b(rats|rat)\\\\b')"
p38
atp39
Rp40
sb.