(ifile_types
ParseObject
p0
(dp1
S'antagonists'
p2
c__builtin__
set
p3
((lp4
S"(29, u'\\\\bspiroxatrine')"
p5
aS"(17, u'\\\\bnan ?190')"
p6
aS"(105, u'\\\\bmethysergide')"
p7
atp8
Rp9
sS'methods'
p10
g3
((lp11
S'Method.AGONIST'
p12
atp13
Rp14
sS'topics'
p15
g3
((lp16
tp17
Rp18
sS'receptors'
p19
g3
((lp20
S'5ht1a'
p21
atp22
Rp23
sS'regions'
p24
g3
((lp25
S"(34, u'(?i)(pon|pons)')"
p26
atp27
Rp28
sS'year'
p29
V1992
p30
sS'agonists'
p31
g3
((lp32
S"(92, u'\\\\b8 ?oh ?dpat')"
p33
aS"(24, u'\\\\bbuspirone')"
p34
aS"(60, u'\\\\bmethysergide')"
p35
atp36
Rp37
sS'species'
p38
g3
((lp39
S"(4624, u'(?i)(apes|ape)')"
p40
aS"(2568, u'(?i)(hens|hen)')"
p41
aS"(5958, u'(?i)(rats|rat)')"
p42
aS"(5743, u'(?i)(bots|bot)')"
p43
aS"(4091, u'(?i)(adults|adult)')"
p44
aS"(81, u'(?i)(asps|asp)')"
p45
aS"(468, u'(?i)(oxen|ox)')"
p46
aS"(1055, u'(?i)(men|man)')"
p47
aS"(2453, u'(?i)(topis|topi)')"
p48
aS"(3592, u'(?i)(ravens|raven)')"
p49
aS"(4979, u'(?i)(cats|cat)')"
p50
aS"(3550, u'(?i)(anis|ani)')"
p51
aS"(3522, u'(?i)(tetras|tetra)')"
p52
aS"(6356, u'(?i)(ais|ai)')"
p53
aS"(2292, u'(?i)(adders|adder)')"
p54
aS"(6878, u'(?i)(guans|guan)')"
p55
aS"(6249, u'(?i)(ants|ant)')"
p56
atp57
Rp58
sb.