(ifile_types
ParseObject
p0
(dp1
S'methods'
p2
c__builtin__
set
p3
((lp4
tp5
Rp6
sS'topics'
p7
g3
((lp8
S"(18, u'\\\\bavoidan')"
p9
aS"(16, u'\\\\blearning')"
p10
atp11
Rp12
sS'receptors'
p13
g3
((lp14
(S'5ht3'
p15
I300
I305
tp16
atp17
Rp18
sS'raw_text_methods'
p19
g3
((lp20
S"(16, u'\\\\bdiazepam')"
p21
aS"(25, u'\\\\bics205930')"
p22
aS"(5, u'\\\\bmk801')"
p23
atp24
Rp25
sS'regions'
p26
g3
((lp27
tp28
Rp29
sS'year'
p30
V1996
p31
sS'species'
p32
g3
((lp33
S"(4, u'(?i)\\\\b(rats|rat)\\\\b')"
p34
atp35
Rp36
sb.