(ifile_types
ParseObject
p0
(dp1
S'antagonists'
p2
c__builtin__
set
p3
((lp4
S"(67, u'\\\\bhaloperidol')"
p5
aS"(123, u'\\\\bclozapine')"
p6
aS"(142, u'\\\\bm1')"
p7
aS"(56, u'\\\\bclozapine')"
p8
atp9
Rp10
sS'methods'
p11
g3
((lp12
S'Method.ANTAGONIST'
p13
aS'Method.AGONIST'
p14
atp15
Rp16
sS'topics'
p17
g3
((lp18
tp19
Rp20
sS'receptors'
p21
g3
((lp22
S'5ht5'
p23
aS'5ht1a'
p24
aS'5ht2a'
p25
atp26
Rp27
sS'regions'
p28
g3
((lp29
S"(318, u'(?i)(raphes|raphe)(-|\\\\s+)?(nuclei|nucleus)')"
p30
aS"(254, u'(?i)(prefrontals|prefrontal)(-|\\\\s+)?(cortexes|cortex)')"
p31
aS"(94, u'(?i)(dorsals|dorsal)(-|\\\\s+)?(raphes|raphe)(-|\\\\s+)?(nuclei|nucleus)')"
p32
aS"(255, u'(?i)(pres|pre)(-|\\\\s+)?(frontals|frontal)(-|\\\\s+)?(cortexes|cortex)')"
p33
aS"(34, u'(?i)(pon|pons)')"
p34
atp35
Rp36
sS'year'
p37
V2009
p38
sS'agonists'
p39
g3
((lp40
S"(48, u'\\\\bhaloperidol')"
p41
aS"(27, u'\\\\bclozapine')"
p42
atp43
Rp44
sS'species'
p45
g3
((lp46
S"(5958, u'(?i)(rats|rat)')"
p47
aS"(7609, u'(?i)(erns|ern)')"
p48
aS"(5510, u'(?i)(bays|bay)')"
p49
aS"(6753, u'(?i)(da|das)')"
p50
aS"(479, u'(?i)(lings|ling)')"
p51
aS"(81, u'(?i)(asps|asp)')"
p52
aS"(1349, u'(?i)(rams|ram)')"
p53
aS"(3726, u'(?i)(mates|mate)')"
p54
aS"(853, u'(?i)(minas|mina)')"
p55
aS"(6249, u'(?i)(ants|ant)')"
p56
aS"(3812, u'(?i)(studs|stud)')"
p57
aS"(7610, u'(?i)(ernes|erne)')"
p58
aS"(1683, u'(?i)(terns|tern)')"
p59
atp60
Rp61
sb.