(ifile_types
ParseObject
p0
(dp1
S'methods'
p2
c__builtin__
set
p3
((lp4
S'Method.STIMULATION'
p5
aS'Method.ANTAGONIST'
p6
aS'Method.AGONIST'
p7
atp8
Rp9
sS'topics'
p10
g3
((lp11
tp12
Rp13
sS'receptors'
p14
g3
((lp15
(S'5ht2'
p16
I921
I927
tp17
a(S'5ht2a'
p18
I921
I927
tp19
a(S'5ht2a'
p20
I865
I871
tp21
a(S'5ht2'
p22
I378
I383
tp23
a(S'5ht2c'
p24
I1220
I1226
tp25
a(S'5ht2b'
p26
I703
I709
tp27
a(S'5ht1b'
p28
I597
I603
tp29
a(S'5ht2c'
p30
I424
I430
tp31
a(S'5ht1'
p32
I372
I377
tp33
a(S'5ht1a'
p34
I914
I920
tp35
a(S'5ht2c'
p36
I136
I142
tp37
a(S'5ht2b'
p38
I608
I614
tp39
a(S'5ht2c'
p40
I872
I878
tp41
a(S'5ht1a'
p42
I589
I595
tp43
a(S'5ht2a'
p44
I1173
I1179
tp45
a(S'5ht2c'
p46
I1634
I1640
tp47
a(S'5ht3'
p48
I744
I749
tp49
a(S'5ht2a'
p50
I431
I437
tp51
a(S'5ht2'
p52
I1478
I1483
tp53
atp54
Rp55
sS'raw_text_methods'
p56
g3
((lp57
S"(53, u'\\\\bketanserin')"
p58
aS"(7, u'\\\\bpropranolol')"
p59
aS"(33, u'\\\\bmcpp')"
p60
aS"(23, u'\\\\bmdl')"
p61
aS"(26, u'\\\\bmdl72222')"
p62
aS"(20, u'\\\\bondansetron')"
p63
aS"(13, u'\\\\bagonist')"
p64
aS"(49, u'\\\\bdoi')"
p65
aS"(45, u'\\\\bmetergoline')"
p66
aS"(46, u'\\\\bspiperone')"
p67
aS"(9, u'\\\\britanserin')"
p68
aS"(12, u'\\\\bantagonist')"
p69
atp70
Rp71
sS'regions'
p72
g3
((lp73
tp74
Rp75
sS'year'
p76
V1996
p77
sS'species'
p78
g3
((lp79
S"(4, u'(?i)\\\\b(rats|rat)\\\\b')"
p80
atp81
Rp82
sb.