(ifile_types
ParseObject
p0
(dp1
S'methods'
p2
c__builtin__
set
p3
((lp4
S'Method.ANTAGONIST'
p5
atp6
Rp7
sS'topics'
p8
g3
((lp9
S"(24, u'\\\\banxiolytic')"
p10
aS"(8, u'\\\\banxi')"
p11
aS"(26, u'\\\\bbehav')"
p12
atp13
Rp14
sS'receptors'
p15
g3
((lp16
(S'5ht1a'
p17
I1123
I1129
tp18
a(S'5ht2'
p19
I130
I135
tp20
a(S'5ht2'
p21
I892
I897
tp22
a(S'5ht1'
p23
I882
I887
tp24
a(S'5ht2'
p25
I1134
I1139
tp26
a(S'5ht1a'
p27
I614
I620
tp28
a(S'5ht1a'
p29
I119
I125
tp30
atp31
Rp32
sS'raw_text_methods'
p33
g3
((lp34
S"(12, u'\\\\bantagonist')"
p35
atp36
Rp37
sS'regions'
p38
g3
((lp39
tp40
Rp41
sS'year'
p42
V2015
p43
sS'species'
p44
g3
((lp45
tp46
Rp47
sb.