(ifile_types
ParseObject
p0
(dp1
S'methods'
p2
c__builtin__
set
p3
((lp4
S'Method.ANTAGONIST'
p5
aS'Method.AGONIST'
p6
atp7
Rp8
sS'topics'
p9
g3
((lp10
S"(12, u'\\\\bsleep')"
p11
atp12
Rp13
sS'receptors'
p14
g3
((lp15
(S'5ht2a'
p16
I308
I314
tp17
a(S'5ht2c'
p18
I74
I82
tp19
a(S'5ht2a'
p20
I74
I80
tp21
a(S'5ht2c'
p22
I256
I264
tp23
a(S'5ht2c'
p24
I318
I324
tp25
a(S'5ht2a'
p26
I256
I262
tp27
atp28
Rp29
sS'raw_text_methods'
p30
g3
((lp31
S"(13, u'\\\\bagonist')"
p32
aS"(49, u'\\\\bdoi')"
p33
aS"(12, u'\\\\bantagonist')"
p34
atp35
Rp36
sS'regions'
p37
g3
((lp38
S"(16, u'(?i)\\\\b(drns|drn)\\\\b')"
p39
atp40
Rp41
sS'year'
p42
V2006
p43
sS'species'
p44
g3
((lp45
S"(4, u'(?i)\\\\b(rats|rat)\\\\b')"
p46
atp47
Rp48
sb.