(ifile_types
ParseObject
p0
(dp1
S'antagonists'
p2
c__builtin__
set
p3
((lp4
tp5
Rp6
sS'methods'
p7
g3
((lp8
S'Method.AGONIST'
p9
atp10
Rp11
sS'topics'
p12
g3
((lp13
S"(9, u'\\\\bdepress')"
p14
aS"(24, u'\\\\banalgesi')"
p15
atp16
Rp17
sS'receptors'
p18
g3
((lp19
S'5ht4a'
p20
aS'5ht4'
p21
atp22
Rp23
sS'regions'
p24
g3
((lp25
S"(13, u'(?i)(b(\\xf6|oe|[a-z])tzingers|b(\\xf6|oe|[a-z])tzinger)(-|\\\\s+)?(complexes|complex)')"
p26
aS"(362, u'(?i)(brains|brain)(-|\\\\s+)?(stems|stem)')"
p27
aS"(12, u'(?i)(pres|pre)(-|\\\\s+)?(b(\\xf6|oe|[a-z])tzingers|b(\\xf6|oe|[a-z])tzinger)(-|\\\\s+)?(complexes|complex)')"
p28
aS"(34, u'(?i)(pon|pons)')"
p29
atp30
Rp31
sS'year'
p32
V2003
p33
sS'agonists'
p34
g3
((lp35
tp36
Rp37
sS'species'
p38
g3
((lp39
S"(6356, u'(?i)(ais|ai)')"
p40
aS"(479, u'(?i)(lings|ling)')"
p41
aS"(5958, u'(?i)(rats|rat)')"
p42
aS"(1055, u'(?i)(men|man)')"
p43
atp44
Rp45
sb.