(ifile_types
ParseObject
p0
(dp1
S'methods'
p2
c__builtin__
set
p3
((lp4
S'Method.ANTAGONIST'
p5
aS'Method.AGONIST'
p6
atp7
Rp8
sS'topics'
p9
g3
((lp10
S"(8, u'\\\\banxi')"
p11
aS"(7, u'\\\\bdepressi')"
p12
aS"(13, u'\\\\bantidepress')"
p13
aS"(4, u'\\\\btreatment')"
p14
atp15
Rp16
sS'receptors'
p17
g3
((lp18
(S'5ht1'
p19
I1322
I1327
tp20
a(S'5ht1a'
p21
I86
I92
tp22
a(S'5ht1'
p23
I432
I437
tp24
a(S'5ht1'
p25
I784
I789
tp26
a(S'5ht1'
p27
I1171
I1176
tp28
a(S'5ht1'
p29
I533
I538
tp30
a(S'5ht1a'
p31
I414
I420
tp32
a(S'5ht1'
p33
I966
I971
tp34
a(S'5ht1a'
p35
I432
I438
tp36
atp37
Rp38
sS'raw_text_methods'
p39
g3
((lp40
S"(13, u'\\\\bagonist')"
p41
aS"(15, u'\\\\b8ohdpat')"
p42
aS"(12, u'\\\\bantagonist')"
p43
atp44
Rp45
sS'regions'
p46
g3
((lp47
tp48
Rp49
sS'year'
p50
V2016
p51
sS'species'
p52
g3
((lp53
S"(4, u'(?i)\\\\b(rats|rat)\\\\b')"
p54
atp55
Rp56
sb.