(ifile_types
ParseObject
p0
(dp1
S'methods'
p2
c__builtin__
set
p3
((lp4
tp5
Rp6
sS'topics'
p7
g3
((lp8
S"(12, u'\\\\bsleep')"
p9
aS"(26, u'\\\\bbehav')"
p10
aS"(4, u'\\\\btreatment')"
p11
atp12
Rp13
sS'receptors'
p14
g3
((lp15
(S'5ht5'
p16
I139
I149
tp17
atp18
Rp19
sS'raw_text_methods'
p20
g3
((lp21
S"(4, u'\\\\bpcpa')"
p22
atp23
Rp24
sS'regions'
p25
g3
((lp26
tp27
Rp28
sS'year'
p29
V2015
p30
sS'species'
p31
g3
((lp32
S"(1, u'(?i)\\\\b(mice|mouse)\\\\b')"
p33
aS"(5, u'(?i)\\\\b(mices|mice)\\\\b')"
p34
aS"(3, u'(?i)\\\\b(males|male)\\\\b')"
p35
atp36
Rp37
sb.