(ifile_types
ParseObject
p0
(dp1
S'methods'
p2
c__builtin__
set
p3
((lp4
S'Method.KNOCKOUT'
p5
atp6
Rp7
sS'topics'
p8
g3
((lp9
S"(8, u'\\\\banxi')"
p10
aS"(5, u'\\\\btherap')"
p11
aS"(2, u'\\\\bdisorder')"
p12
atp13
Rp14
sS'receptors'
p15
g3
((lp16
(S'5ht1'
p17
I1018
I1023
tp18
a(S'5ht1'
p19
I570
I575
tp20
a(S'5ht1'
p21
I853
I858
tp22
a(S'5ht1'
p23
I113
I118
tp24
a(S'5ht1'
p25
I1084
I1089
tp26
atp27
Rp28
sS'raw_text_methods'
p29
g3
((lp30
tp31
Rp32
sS'regions'
p33
g3
((lp34
S"(20, u'(?i)\\\\b(prefrontals|prefrontal)\\\\b')"
p35
aS"(19, u'(?i)\\\\b(cortexes|cortex)\\\\b')"
p36
atp37
Rp38
sS'year'
p39
V2017
p40
sS'species'
p41
g3
((lp42
S"(1, u'(?i)\\\\b(mice|mouse)\\\\b')"
p43
aS"(5, u'(?i)\\\\b(mices|mice)\\\\b')"
p44
atp45
Rp46
sb.