(ifile_types
ParseObject
p0
(dp1
S'methods'
p2
c__builtin__
set
p3
((lp4
S'Method.PET'
p5
atp6
Rp7
sS'topics'
p8
g3
((lp9
S"(20, u'\\\\bmood')"
p10
atp11
Rp12
sS'receptors'
p13
g3
((lp14
(S'5ht2c'
p15
I1025
I1033
tp16
a(S'5ht2a'
p17
I1025
I1031
tp18
a(S'5ht2'
p19
I1025
I1033
tp20
atp21
Rp22
sS'raw_text_methods'
p23
g3
((lp24
S"(17, u'\\\\bpet')"
p25
aS"(19, u'\\\\bpositron emission tomography')"
p26
aS"(18, u'\\\\bimaging')"
p27
aS"(54, u'\\\\bautoradiography')"
p28
atp29
Rp30
sS'regions'
p31
g3
((lp32
tp33
Rp34
sS'year'
p35
V2012
p36
sS'species'
p37
g3
((lp38
S"(6, u'(?i)\\\\b(rodents|rodent)\\\\b')"
p39
atp40
Rp41
sb.