(ifile_types
ParseObject
p0
(dp1
S'methods'
p2
c__builtin__
set
p3
((lp4
tp5
Rp6
sS'topics'
p7
g3
((lp8
S"(4, u'\\\\btreatment')"
p9
atp10
Rp11
sS'receptors'
p12
g3
((lp13
(S'5ht3'
p14
I541
I546
tp15
a(S'5ht3'
p16
I32
I42
tp17
a(S'5ht3'
p18
I443
I448
tp19
a(S'5ht3'
p20
I627
I632
tp21
atp22
Rp23
sS'raw_text_methods'
p24
g3
((lp25
S"(20, u'\\\\bondansetron')"
p26
atp27
Rp28
sS'regions'
p29
g3
((lp30
tp31
Rp32
sS'year'
p33
V2004
p34
sS'species'
p35
g3
((lp36
tp37
Rp38
sb.