(ifile_types
ParseObject
p0
(dp1
S'antagonists'
p2
c__builtin__
set
p3
((lp4
tp5
Rp6
sS'methods'
p7
g3
((lp8
S'Method.ANTAGONIST'
p9
aS'Method.AGONIST'
p10
atp11
Rp12
sS'topics'
p13
g3
((lp14
tp15
Rp16
sS'receptors'
p17
g3
((lp18
S'5ht7'
p19
aS'5ht7a'
p20
atp21
Rp22
sS'regions'
p23
g3
((lp24
S"(158, u'(?i)(suprachiasmatics|suprachiasmatic)(-|\\\\s+)?(nuclei|nucleus)')"
p25
aS"(126, u'(?i)(thalamuses|thalamus)')"
p26
aS"(34, u'(?i)(pon|pons)')"
p27
atp28
Rp29
sS'year'
p30
V1993
p31
sS'agonists'
p32
g3
((lp33
tp34
Rp35
sS'species'
p36
g3
((lp37
S"(5958, u'(?i)(rats|rat)')"
p38
aS"(4979, u'(?i)(cats|cat)')"
p39
aS"(7539, u'(?i)(mammals|mammal)')"
p40
aS"(7540, u'(?i)(mammalians|mammalian)')"
p41
aS"(853, u'(?i)(minas|mina)')"
p42
aS"(6249, u'(?i)(ants|ant)')"
p43
aS"(1414, u'(?i)(chars|char)')"
p44
aS"(6391, u'(?i)(asses|ass)')"
p45
aS"(7309, u'(?i)(gnats|gnat)')"
p46
atp47
Rp48
sb.