(ifile_types
ParseObject
p0
(dp1
S'antagonists'
p2
c__builtin__
set
p3
((lp4
tp5
Rp6
sS'methods'
p7
g3
((lp8
tp9
Rp10
sS'topics'
p11
g3
((lp12
S"(31, u'\\\\bobesity')"
p13
aS"(6, u'\\\\bcognit')"
p14
aS"(35, u'\\\\bstress')"
p15
aS"(9, u'\\\\bdepress')"
p16
aS"(20, u'\\\\baggressi')"
p17
atp18
Rp19
sS'receptors'
p20
g3
((lp21
S'5ht5'
p22
atp23
Rp24
sS'regions'
p25
g3
((lp26
S"(34, u'(?i)(pon|pons)')"
p27
atp28
Rp29
sS'year'
p30
V2012
p31
sS'agonists'
p32
g3
((lp33
tp34
Rp35
sS'species'
p36
g3
((lp37
S"(2323, u'(?i)(bees|bee)')"
p38
aS"(6753, u'(?i)(da|das)')"
p39
aS"(2568, u'(?i)(hens|hen)')"
p40
aS"(702, u'(?i)(genets|genet)')"
p41
aS"(163, u'(?i)(mice|mouse)')"
p42
aS"(6682, u'(?i)(tera|teras)')"
p43
aS"(4091, u'(?i)(adults|adult)')"
p44
aS"(3051, u'(?i)(pigs|pig)')"
p45
aS"(468, u'(?i)(oxen|ox)')"
p46
aS"(1055, u'(?i)(men|man)')"
p47
aS"(6249, u'(?i)(ants|ant)')"
p48
aS"(4979, u'(?i)(cats|cat)')"
p49
aS"(5958, u'(?i)(rats|rat)')"
p50
aS"(1057, u'(?i)(humans|human)')"
p51
aS"(5917, u'(?i)(roaches|roach)')"
p52
aS"(6391, u'(?i)(asses|ass)')"
p53
aS"(1414, u'(?i)(chars|char)')"
p54
aS"(3196, u'(?i)(human|humans)')"
p55
aS"(6356, u'(?i)(ais|ai)')"
p56
atp57
Rp58
sb.