(ifile_types
ParseObject
p0
(dp1
S'methods'
p2
c__builtin__
set
p3
((lp4
S'Method.ANTAGONIST'
p5
aS'Method.AGONIST'
p6
atp7
Rp8
sS'topics'
p9
g3
((lp10
S"(18, u'\\\\bavoidan')"
p11
aS"(8, u'\\\\banxi')"
p12
aS"(26, u'\\\\bbehav')"
p13
atp14
Rp15
sS'receptors'
p16
g3
((lp17
(S'5ht2c'
p18
I225
I231
tp19
a(S'5ht2a'
p20
I1492
I1498
tp21
a(S'5ht2a'
p22
I1429
I1435
tp23
a(S'5ht2a'
p24
I37
I43
tp25
a(S'5ht2'
p26
I1640
I1645
tp27
a(S'5ht2c'
p28
I941
I947
tp29
a(S'5ht2a'
p30
I1587
I1593
tp31
a(S'5ht2c'
p32
I1769
I1775
tp33
a(S'5ht2c'
p34
I1344
I1350
tp35
a(S'5ht2c'
p36
I1919
I1925
tp37
a(S'5ht2c'
p38
I1492
I1500
tp39
a(S'5ht2a'
p40
I48
I54
tp41
a(S'5ht2a'
p42
I214
I220
tp43
a(S'5ht2a'
p44
I1195
I1201
tp45
atp46
Rp47
sS'raw_text_methods'
p48
g3
((lp49
S"(13, u'\\\\bagonist')"
p50
aS"(49, u'\\\\bdoi')"
p51
aS"(9, u'\\\\britanserin')"
p52
aS"(33, u'\\\\bmcpp')"
p53
aS"(12, u'\\\\bantagonist')"
p54
atp55
Rp56
sS'regions'
p57
g3
((lp58
tp59
Rp60
sS'year'
p61
V1997
p62
sS'species'
p63
g3
((lp64
S"(4, u'(?i)\\\\b(rats|rat)\\\\b')"
p65
atp66
Rp67
sb.