(ifile_types
ParseObject
p0
(dp1
S'antagonists'
p2
c__builtin__
set
p3
((lp4
tp5
Rp6
sS'methods'
p7
g3
((lp8
S'Method.AGONIST'
p9
atp10
Rp11
sS'topics'
p12
g3
((lp13
S"(21, u'\\\\bpain')"
p14
atp15
Rp16
sS'receptors'
p17
g3
((lp18
S'5ht1b'
p19
aS'5ht1d'
p20
atp21
Rp22
sS'regions'
p23
g3
((lp24
S"(362, u'(?i)\\\\b(brains|brain)(-|\\\\s+)?(stems|stem)\\\\b')"
p25
aS"(126, u'(?i)\\\\b(thalamuses|thalamus)\\\\b')"
p26
atp27
Rp28
sS'year'
p29
V2004
p30
sS'agonists'
p31
g3
((lp32
tp33
Rp34
sS'species'
p35
g3
((lp36
S"(1057, u'(?i)\\\\b(humans|human)\\\\b')"
p37
aS"(2054, u'(?i)\\\\b(heads|head)\\\\b')"
p38
aS"(3196, u'(?i)\\\\b(human|humans)\\\\b')"
p39
atp40
Rp41
sb.