(ifile_types
ParseObject
p0
(dp1
S'methods'
p2
c__builtin__
set
p3
((lp4
S'Method.IMMUNOHISTOCHEMISTRY'
p5
atp6
Rp7
sS'topics'
p8
g3
((lp9
tp10
Rp11
sS'receptors'
p12
g3
((lp13
(S'5ht3b'
p14
I589
I595
tp15
a(S'5ht3a'
p16
I450
I456
tp17
a(S'5ht3b'
p18
I55
I61
tp19
a(S'5ht3b'
p20
I450
I458
tp21
a(S'5ht3b'
p22
I304
I310
tp23
a(S'5ht3a'
p24
I423
I429
tp25
atp26
Rp27
sS'raw_text_methods'
p28
g3
((lp29
S"(3, u'\\\\bimmunoreactiv')"
p30
atp31
Rp32
sS'regions'
p33
g3
((lp34
tp35
Rp36
sS'year'
p37
V2001
p38
sS'species'
p39
g3
((lp40
S"(4, u'(?i)\\\\b(rats|rat)\\\\b')"
p41
atp42
Rp43
sb.