(ifile_types
ParseObject
p0
(dp1
S'methods'
p2
c__builtin__
set
p3
((lp4
S'Method.ANTAGONIST'
p5
aS'Method.AGONIST'
p6
atp7
Rp8
sS'topics'
p9
g3
((lp10
tp11
Rp12
sS'receptors'
p13
g3
((lp14
(S'5ht2a'
p15
I692
I698
tp16
a(S'5ht1a'
p17
I545
I551
tp18
a(S'5ht2c'
p19
I1046
I1052
tp20
a(S'5ht2c'
p21
I458
I463
tp22
a(S'5ht2c'
p23
I699
I705
tp24
a(S'5ht2a'
p25
I1002
I1008
tp26
a(S'5ht1a'
p27
I1562
I1568
tp28
a(S'5ht1a'
p29
I270
I281
tp30
a(S'5ht2a'
p31
I451
I457
tp32
a(S'5ht2a'
p33
I556
I562
tp34
a(S'5ht2c'
p35
I1742
I1748
tp36
a(S'5ht2c'
p37
I563
I569
tp38
a(S'5ht1a'
p39
I1789
I1795
tp40
a(S'5ht2c'
p41
I1551
I1557
tp42
a(S'5ht1a'
p43
I681
I687
tp44
a(S'5ht2a'
p45
I1039
I1045
tp46
atp47
Rp48
sS'raw_text_methods'
p49
g3
((lp50
S"(53, u'\\\\bketanserin')"
p51
aS"(33, u'\\\\bmcpp')"
p52
aS"(52, u'\\\\bmk212')"
p53
aS"(13, u'\\\\bagonist')"
p54
aS"(9, u'\\\\britanserin')"
p55
aS"(12, u'\\\\bantagonist')"
p56
atp57
Rp58
sS'regions'
p59
g3
((lp60
tp61
Rp62
sS'year'
p63
V1995
p64
sS'species'
p65
g3
((lp66
S"(6, u'(?i)\\\\b(rodents|rodent)\\\\b')"
p67
atp68
Rp69
sb.