(ifile_types
ParseObject
p0
(dp1
S'methods'
p2
c__builtin__
set
p3
((lp4
S'Method.ANTAGONIST'
p5
aS'Method.AGONIST'
p6
atp7
Rp8
sS'topics'
p9
g3
((lp10
S"(26, u'\\\\bbehav')"
p11
atp12
Rp13
sS'receptors'
p14
g3
((lp15
(S'5ht3'
p16
I1458
I1463
tp17
a(S'5ht3'
p18
I603
I608
tp19
a(S'5ht2a'
p20
I637
I643
tp21
a(S'5ht3'
p22
I494
I499
tp23
a(S'5ht1a'
p24
I830
I836
tp25
a(S'5ht1a'
p26
I943
I949
tp27
a(S'5ht2c'
p28
I637
I645
tp29
a(S'5ht3'
p30
I975
I980
tp31
atp32
Rp33
sS'raw_text_methods'
p34
g3
((lp35
S"(13, u'\\\\bagonist')"
p36
aS"(15, u'\\\\b8ohdpat')"
p37
aS"(49, u'\\\\bdoi')"
p38
aS"(12, u'\\\\bantagonist')"
p39
atp40
Rp41
sS'regions'
p42
g3
((lp43
tp44
Rp45
sS'year'
p46
V1998
p47
sS'species'
p48
g3
((lp49
S"(2, u'(?i)\\\\b(females|female)\\\\b')"
p50
aS"(4, u'(?i)\\\\b(rats|rat)\\\\b')"
p51
atp52
Rp53
sb.