(ifile_types
ParseObject
p0
(dp1
S'methods'
p2
c__builtin__
set
p3
((lp4
S'Method.ANTAGONIST'
p5
aS'Method.AGONIST'
p6
atp7
Rp8
sS'topics'
p9
g3
((lp10
tp11
Rp12
sS'receptors'
p13
g3
((lp14
(S'5ht2a'
p15
I122
I128
tp16
a(S'5ht2a'
p17
I1458
I1464
tp18
a(S'5ht2'
p19
I111
I121
tp20
a(S'5ht2c'
p21
I1458
I1466
tp22
a(S'5ht2c'
p23
I122
I130
tp24
atp25
Rp26
sS'raw_text_methods'
p27
g3
((lp28
S"(9, u'\\\\britanserin')"
p29
aS"(12, u'\\\\bantagonist')"
p30
atp31
Rp32
sS'regions'
p33
g3
((lp34
tp35
Rp36
sS'year'
p37
V1997
p38
sS'species'
p39
g3
((lp40
tp41
Rp42
sb.