(ifile_types
ParseObject
p0
(dp1
S'antagonists'
p2
c__builtin__
set
p3
((lp4
S"(23, u'\\\\brisperidone')"
p5
aS"(54, u'\\\\britanserin')"
p6
aS"(59, u'\\\\brisperidone')"
p7
aS"(130, u'\\\\britanserin')"
p8
atp9
Rp10
sS'methods'
p11
g3
((lp12
S'Method.ANTAGONIST'
p13
aS'Method.AGONIST'
p14
atp15
Rp16
sS'topics'
p17
g3
((lp18
tp19
Rp20
sS'receptors'
p21
g3
((lp22
S'5ht2c'
p23
aS'5ht2'
p24
aS'5ht2a'
p25
atp26
Rp27
sS'regions'
p28
g3
((lp29
S"(248, u'(?i)(cerebrals|cerebral)(-|\\\\s+)?(cortexes|cortex)')"
p30
atp31
Rp32
sS'year'
p33
V2016
p34
sS'agonists'
p35
g3
((lp36
S"(33, u'\\\\bdoi')"
p37
atp38
Rp39
sS'species'
p40
g3
((lp41
S"(4624, u'(?i)(apes|ape)')"
p42
aS"(5958, u'(?i)(rats|rat)')"
p43
aS"(6753, u'(?i)(da|das)')"
p44
aS"(1725, u'(?i)(clams|clam)')"
p45
aS"(468, u'(?i)(oxen|ox)')"
p46
aS"(1055, u'(?i)(men|man)')"
p47
aS"(7094, u'(?i)(curs|cur)')"
p48
aS"(4964, u'(?i)(serins|serin)')"
p49
aS"(6249, u'(?i)(ants|ant)')"
p50
aS"(1961, u'(?i)(pens|pen)')"
p51
aS"(3812, u'(?i)(studs|stud)')"
p52
aS"(1628, u'(?i)(cod|cod)')"
p53
aS"(6356, u'(?i)(ais|ai)')"
p54
atp55
Rp56
sb.