(ifile_types
ParseObject
p0
(dp1
S'antagonists'
p2
c__builtin__
set
p3
((lp4
tp5
Rp6
sS'methods'
p7
g3
((lp8
tp9
Rp10
sS'topics'
p11
g3
((lp12
S"(29, u'\\\\bsex')"
p13
atp14
Rp15
sS'receptors'
p16
g3
((lp17
tp18
Rp19
sS'regions'
p20
g3
((lp21
S"(220, u'(?i)(striatums|striatum)')"
p22
aS"(225, u'(?i)(ventrals|ventral)(-|\\\\s+)?(striatums|striatum)')"
p23
aS"(209, u'(?i)(amygdalas|amygdala)')"
p24
atp25
Rp26
sS'year'
p27
V1999
p28
sS'agonists'
p29
g3
((lp30
tp31
Rp32
sS'species'
p33
g3
((lp34
S"(6753, u'(?i)(da|das)')"
p35
aS"(5958, u'(?i)(rats|rat)')"
p36
aS"(6857, u'(?i)(ormers|ormer)')"
p37
aS"(4979, u'(?i)(cats|cat)')"
p38
aS"(5967, u'(?i)(males|male)')"
p39
aS"(5743, u'(?i)(bots|bot)')"
p40
aS"(1553, u'(?i)(mews|mew)')"
p41
aS"(6356, u'(?i)(ais|ai)')"
p42
aS"(3431, u'(?i)(roans|roan)')"
p43
aS"(2809, u'(?i)(toms|tom)')"
p44
atp45
Rp46
sb.