(ifile_types
ParseObject
p0
(dp1
S'antagonists'
p2
c__builtin__
set
p3
((lp4
S"(117, u'\\\\bketanserin')"
p5
atp6
Rp7
sS'methods'
p8
g3
((lp9
S'Method.ANTAGONIST'
p10
aS'Method.AGONIST'
p11
atp12
Rp13
sS'topics'
p14
g3
((lp15
tp16
Rp17
sS'receptors'
p18
g3
((lp19
S'5ht1a'
p20
aS'5ht7d'
p21
aS'5ht2'
p22
aS'5ht2a'
p23
atp24
Rp25
sS'regions'
p26
g3
((lp27
tp28
Rp29
sS'year'
p30
V2000
p31
sS'agonists'
p32
g3
((lp33
S"(175, u'\\\\bdoi')"
p34
atp35
Rp36
sS'species'
p37
g3
((lp38
S"(4091, u'(?i)\\\\b(adults|adult)\\\\b')"
p39
aS"(5958, u'(?i)\\\\b(rats|rat)\\\\b')"
p40
aS"(6125, u'(?i)\\\\b(females|female)\\\\b')"
p41
atp42
Rp43
sb.