(ifile_types
ParseObject
p0
(dp1
S'methods'
p2
c__builtin__
set
p3
((lp4
S'Method.ANTAGONIST'
p5
atp6
Rp7
sS'topics'
p8
g3
((lp9
S"(26, u'\\\\bbehav')"
p10
atp11
Rp12
sS'receptors'
p13
g3
((lp14
(S'5ht3'
p15
I301
I306
tp16
a(S'5ht3'
p17
I1164
I1169
tp18
a(S'5ht2'
p19
I421
I426
tp20
atp21
Rp22
sS'raw_text_methods'
p23
g3
((lp24
S"(53, u'\\\\bketanserin')"
p25
aS"(9, u'\\\\britanserin')"
p26
aS"(25, u'\\\\bics205930')"
p27
aS"(12, u'\\\\bantagonist')"
p28
atp29
Rp30
sS'regions'
p31
g3
((lp32
S"(14, u'(?i)\\\\b(caudals|caudal)\\\\b')"
p33
atp34
Rp35
sS'year'
p36
V1992
p37
sS'species'
p38
g3
((lp39
tp40
Rp41
sb.