(ifile_types
ParseObject
p0
(dp1
S'methods'
p2
c__builtin__
set
p3
((lp4
S'Method.ANTAGONIST'
p5
aS'Method.AGONIST'
p6
atp7
Rp8
sS'topics'
p9
g3
((lp10
tp11
Rp12
sS'receptors'
p13
g3
((lp14
(S'5ht3'
p15
I1009
I1014
tp16
a(S'5ht3'
p17
I1275
I1280
tp18
a(S'5ht2'
p19
I233
I238
tp20
a(S'5ht2'
p21
I1250
I1255
tp22
a(S'5ht3'
p23
I244
I249
tp24
a(S'5ht2'
p25
I743
I748
tp26
a(S'5ht2'
p27
I516
I520
tp28
a(S'5ht2'
p29
I61
I65
tp30
a(S'5ht3'
p31
I70
I74
tp32
atp33
Rp34
sS'raw_text_methods'
p35
g3
((lp36
S"(13, u'\\\\bagonist')"
p37
aS"(53, u'\\\\bketanserin')"
p38
aS"(12, u'\\\\bantagonist')"
p39
atp40
Rp41
sS'regions'
p42
g3
((lp43
tp44
Rp45
sS'year'
p46
V1995
p47
sS'species'
p48
g3
((lp49
S"(4, u'(?i)\\\\b(rats|rat)\\\\b')"
p50
atp51
Rp52
sb.