(ifile_types
ParseObject
p0
(dp1
S'antagonists'
p2
c__builtin__
set
p3
((lp4
tp5
Rp6
sS'methods'
p7
g3
((lp8
tp9
Rp10
sS'topics'
p11
g3
((lp12
tp13
Rp14
sS'receptors'
p15
g3
((lp16
S'5ht1b'
p17
aS'5ht5'
p18
aS'5ht1a'
p19
aS'5ht1'
p20
aS'5ht1d'
p21
atp22
Rp23
sS'regions'
p24
g3
((lp25
S"(34, u'(?i)(pon|pons)')"
p26
atp27
Rp28
sS'year'
p29
V1998
p30
sS'agonists'
p31
g3
((lp32
tp33
Rp34
sS'species'
p35
g3
((lp36
S"(5958, u'(?i)(rats|rat)')"
p37
aS"(468, u'(?i)(oxen|ox)')"
p38
aS"(1055, u'(?i)(men|man)')"
p39
aS"(3726, u'(?i)(mates|mate)')"
p40
aS"(3522, u'(?i)(tetras|tetra)')"
p41
aS"(1057, u'(?i)(humans|human)')"
p42
aS"(6356, u'(?i)(ais|ai)')"
p43
aS"(3196, u'(?i)(human|humans)')"
p44
atp45
Rp46
sb.