(ifile_types
ParseObject
p0
(dp1
S'methods'
p2
c__builtin__
set
p3
((lp4
S'Method.ANTAGONIST'
p5
aS'Method.AGONIST'
p6
atp7
Rp8
sS'topics'
p9
g3
((lp10
S"(5, u'\\\\btherap')"
p11
aS"(26, u'\\\\bbehav')"
p12
atp13
Rp14
sS'receptors'
p15
g3
((lp16
(S'5ht1a'
p17
I1431
I1437
tp18
a(S'5ht1a'
p19
I170
I176
tp20
a(S'5ht1a'
p21
I1397
I1403
tp22
a(S'5ht1a'
p23
I2586
I2592
tp24
a(S'5ht1a'
p25
I422
I428
tp26
a(S'5ht1a'
p27
I2351
I2357
tp28
a(S'5ht1a'
p29
I767
I773
tp30
atp31
Rp32
sS'raw_text_methods'
p33
g3
((lp34
S"(13, u'\\\\bagonist')"
p35
aS"(15, u'\\\\b8ohdpat')"
p36
aS"(41, u'\\\\bhaloperidol')"
p37
aS"(12, u'\\\\bantagonist')"
p38
atp39
Rp40
sS'regions'
p41
g3
((lp42
S"(15, u'(?i)\\\\b(substantias|substantia)(-|\\\\s+)?(nigras|nigra)\\\\b')"
p43
aS"(4, u'(?i)\\\\b(presynaptics|presynaptic)\\\\b')"
p44
aS"(3, u'(?i)\\\\b(postsynaptics|postsynaptic)\\\\b')"
p45
atp46
Rp47
sS'year'
p48
V1995
p49
sS'species'
p50
g3
((lp51
S"(1, u'(?i)\\\\b(mice|mouse)\\\\b')"
p52
aS"(5, u'(?i)\\\\b(mices|mice)\\\\b')"
p53
aS"(4, u'(?i)\\\\b(rats|rat)\\\\b')"
p54
atp55
Rp56
sb.