(ifile_types
ParseObject
p0
(dp1
S'methods'
p2
c__builtin__
set
p3
((lp4
S'Method.ANTAGONIST'
p5
atp6
Rp7
sS'topics'
p8
g3
((lp9
S"(14, u'\\\\bcogniti')"
p10
aS"(1, u'\\\\bpatient')"
p11
aS"(5, u'\\\\btherap')"
p12
aS"(17, u'\\\\balzheimer')"
p13
atp14
Rp15
sS'receptors'
p16
g3
((lp17
(S'5ht6'
p18
I41
I46
tp19
a(S'5ht6'
p20
I325
I330
tp21
atp22
Rp23
sS'raw_text_methods'
p24
g3
((lp25
S"(12, u'\\\\bantagonist')"
p26
atp27
Rp28
sS'regions'
p29
g3
((lp30
S"(20, u'(?i)\\\\b(prefrontals|prefrontal)\\\\b')"
p31
aS"(21, u'(?i)\\\\b(mpfcs|mpfc)\\\\b')"
p32
aS"(19, u'(?i)\\\\b(cortexes|cortex)\\\\b')"
p33
atp34
Rp35
sS'year'
p36
V2017
p37
sS'species'
p38
g3
((lp39
S"(4, u'(?i)\\\\b(rats|rat)\\\\b')"
p40
atp41
Rp42
sb.