(ifile_types
ParseObject
p0
(dp1
S'antagonists'
p2
c__builtin__
set
p3
((lp4
S"(53, u'\\\\bketanserin')"
p5
aS"(128, u'\\\\bketanserin')"
p6
aS"(135, u'\\\\bondansetron')"
p7
aS"(105, u'\\\\bmethysergide')"
p8
atp9
Rp10
sS'methods'
p11
g3
((lp12
S'Method.ANTAGONIST'
p13
atp14
Rp15
sS'topics'
p16
g3
((lp17
tp18
Rp19
sS'receptors'
p20
g3
((lp21
S'5ht5'
p22
aS'5ht3'
p23
aS'5ht2'
p24
aS'5ht1'
p25
atp26
Rp27
sS'regions'
p28
g3
((lp29
S"(165, u'(?i)(preoptics|preoptic)(-|\\\\s+)?(areas|area)')"
p30
atp31
Rp32
sS'year'
p33
V1995
p34
sS'agonists'
p35
g3
((lp36
S"(60, u'\\\\bmethysergide')"
p37
atp38
Rp39
sS'species'
p40
g3
((lp41
S"(6753, u'(?i)(da|das)')"
p42
aS"(5958, u'(?i)(rats|rat)')"
p43
aS"(867, u'(?i)(tits|tit)')"
p44
aS"(4979, u'(?i)(cats|cat)')"
p45
aS"(5967, u'(?i)(males|male)')"
p46
aS"(1055, u'(?i)(men|man)')"
p47
aS"(4964, u'(?i)(serins|serin)')"
p48
aS"(6249, u'(?i)(ants|ant)')"
p49
aS"(6356, u'(?i)(ais|ai)')"
p50
atp51
Rp52
sb.