(ifile_types
ParseObject
p0
(dp1
S'antagonists'
p2
c__builtin__
set
p3
((lp4
S"(67, u'\\\\bhaloperidol')"
p5
aS"(54, u'\\\\britanserin')"
p6
aS"(130, u'\\\\britanserin')"
p7
aS"(95, u'\\\\bsb ?206553')"
p8
atp9
Rp10
sS'methods'
p11
g3
((lp12
S'Method.ANTAGONIST'
p13
aS'Method.AGONIST'
p14
atp15
Rp16
sS'topics'
p17
g3
((lp18
tp19
Rp20
sS'receptors'
p21
g3
((lp22
S'5ht2b'
p23
aS'5ht2c'
p24
aS'5ht2a'
p25
atp26
Rp27
sS'regions'
p28
g3
((lp29
S"(220, u'(?i)(striatums|striatum)')"
p30
atp31
Rp32
sS'year'
p33
V2000
p34
sS'agonists'
p35
g3
((lp36
S"(48, u'\\\\bhaloperidol')"
p37
aS"(33, u'\\\\bdoi')"
p38
atp39
Rp40
sS'species'
p41
g3
((lp42
S"(6753, u'(?i)(da|das)')"
p43
aS"(2568, u'(?i)(hens|hen)')"
p44
aS"(4964, u'(?i)(serins|serin)')"
p45
aS"(468, u'(?i)(oxen|ox)')"
p46
aS"(6249, u'(?i)(ants|ant)')"
p47
aS"(2334, u'(?i)(eels|eel)')"
p48
aS"(4979, u'(?i)(cats|cat)')"
p49
aS"(5958, u'(?i)(rats|rat)')"
p50
aS"(3812, u'(?i)(studs|stud)')"
p51
aS"(5743, u'(?i)(bots|bot)')"
p52
atp53
Rp54
sb.