(ifile_types
ParseObject
p0
(dp1
S'antagonists'
p2
c__builtin__
set
p3
((lp4
S"(43, u'\\\\bgr ?127935')"
p5
atp6
Rp7
sS'methods'
p8
g3
((lp9
S'Method.ANTAGONIST'
p10
aS'Method.AGONIST'
p11
atp12
Rp13
sS'topics'
p14
g3
((lp15
S"(20, u'\\\\baggressi')"
p16
atp17
Rp18
sS'receptors'
p19
g3
((lp20
S'5ht1b'
p21
aS'5ht1d'
p22
atp23
Rp24
sS'regions'
p25
g3
((lp26
S"(94, u'(?i)\\\\b(dorsals|dorsal)(-|\\\\s+)?(raphes|raphe)(-|\\\\s+)?(nuclei|nucleus)\\\\b')"
p27
aS"(318, u'(?i)\\\\b(raphes|raphe)(-|\\\\s+)?(nuclei|nucleus)\\\\b')"
p28
atp29
Rp30
sS'year'
p31
V2007
p32
sS'agonists'
p33
g3
((lp34
S"(101, u'\\\\bcp ?94253')"
p35
aS"(100, u'\\\\bcp ?93129')"
p36
atp37
Rp38
sS'species'
p39
g3
((lp40
S"(5799, u'(?i)\\\\b(rodents|rodent)\\\\b')"
p41
aS"(5967, u'(?i)\\\\b(males|male)\\\\b')"
p42
aS"(163, u'(?i)\\\\b(mice|mouse)\\\\b')"
p43
atp44
Rp45
sb.