(ifile_types
ParseObject
p0
(dp1
S'antagonists'
p2
c__builtin__
set
p3
((lp4
tp5
Rp6
sS'methods'
p7
g3
((lp8
S'Method.ANTAGONIST'
p9
aS'Method.AGONIST'
p10
atp11
Rp12
sS'topics'
p13
g3
((lp14
S"(4, u'\\\\blocomot')"
p15
atp16
Rp17
sS'receptors'
p18
g3
((lp19
S'5ht1c'
p20
aS'5ht1b'
p21
aS'5ht1a'
p22
aS'5ht3a'
p23
aS'5ht2a'
p24
atp25
Rp26
sS'regions'
p27
g3
((lp28
S"(226, u'(?i)(nuclei|nucleus)(-|\\\\s+)?(accumben|accumbens)')"
p29
aS"(318, u'(?i)(raphes|raphe)(-|\\\\s+)?(nuclei|nucleus)')"
p30
atp31
Rp32
sS'year'
p33
V1992
p34
sS'agonists'
p35
g3
((lp36
S"(161, u'\\\\bmcpp')"
p37
aS"(92, u'\\\\b8 ?oh ?dpat')"
p38
aS"(196, u'\\\\bquipazine')"
p39
aS"(14, u'\\\\bamphetamine')"
p40
aS"(33, u'\\\\bdoi')"
p41
atp42
Rp43
sS'species'
p44
g3
((lp45
S"(1688, u'(?i)(ounces|ounce)')"
p46
aS"(2568, u'(?i)(hens|hen)')"
p47
aS"(3137, u'(?i)(iguanids|iguanid)')"
p48
aS"(5958, u'(?i)(rats|rat)')"
p49
aS"(2054, u'(?i)(heads|head)')"
p50
aS"(6682, u'(?i)(tera|teras)')"
p51
aS"(4163, u'(?i)(ermines|ermine)')"
p52
aS"(6249, u'(?i)(ants|ant)')"
p53
aS"(3152, u'(?i)(layers|layer)')"
p54
aS"(3812, u'(?i)(studs|stud)')"
p55
aS"(3550, u'(?i)(anis|ani)')"
p56
aS"(1414, u'(?i)(chars|char)')"
p57
aS"(6391, u'(?i)(asses|ass)')"
p58
aS"(6878, u'(?i)(guans|guan)')"
p59
atp60
Rp61
sb.