(ifile_types
ParseObject
p0
(dp1
S'methods'
p2
c__builtin__
set
p3
((lp4
S'Method.PET'
p5
aS'Method.ANTAGONIST'
p6
atp7
Rp8
sS'topics'
p9
g3
((lp10
S"(22, u'\\\\bschizophreni')"
p11
aS"(8, u'\\\\banxi')"
p12
aS"(7, u'\\\\bdepressi')"
p13
aS"(2, u'\\\\bdisorder')"
p14
atp15
Rp16
sS'receptors'
p17
g3
((lp18
(S'5ht2a'
p19
I104
I110
tp20
a(S'5ht2a'
p21
I1252
I1258
tp22
a(S'5ht2a'
p23
I617
I623
tp24
a(S'5ht2a'
p25
I285
I291
tp26
atp27
Rp28
sS'raw_text_methods'
p29
g3
((lp30
S"(17, u'\\\\bpet')"
p31
aS"(19, u'\\\\bpositron emission tomography')"
p32
aS"(12, u'\\\\bantagonist')"
p33
atp34
Rp35
sS'regions'
p36
g3
((lp37
tp38
Rp39
sS'year'
p40
V2009
p41
sS'species'
p42
g3
((lp43
S"(1, u'(?i)\\\\b(mice|mouse)\\\\b')"
p44
aS"(5, u'(?i)\\\\b(mices|mice)\\\\b')"
p45
atp46
Rp47
sb.