(ifile_types
ParseObject
p0
(dp1
S'methods'
p2
c__builtin__
set
p3
((lp4
S'Method.ANTAGONIST'
p5
atp6
Rp7
sS'topics'
p8
g3
((lp9
S"(29, u'\\\\bhyperactiv')"
p10
aS"(26, u'\\\\bbehav')"
p11
atp12
Rp13
sS'receptors'
p14
g3
((lp15
(S'5ht2c'
p16
I1145
I1151
tp17
a(S'5ht2c'
p18
I1014
I1020
tp19
a(S'5ht2c'
p20
I61
I67
tp21
a(S'5ht2b'
p22
I442
I450
tp23
a(S'5ht2c'
p24
I285
I291
tp25
a(S'5ht2c'
p26
I442
I448
tp27
a(S'5ht2b'
p28
I61
I69
tp29
a(S'5ht2b'
p30
I1157
I1163
tp31
atp32
Rp33
sS'raw_text_methods'
p34
g3
((lp35
S"(12, u'\\\\bantagonist')"
p36
atp37
Rp38
sS'regions'
p39
g3
((lp40
tp41
Rp42
sS'year'
p43
V1999
p44
sS'species'
p45
g3
((lp46
tp47
Rp48
sb.