(ifile_types
ParseObject
p0
(dp1
S'antagonists'
p2
c__builtin__
set
p3
((lp4
S"(53, u'\\\\bketanserin')"
p5
aS"(128, u'\\\\bketanserin')"
p6
atp7
Rp8
sS'methods'
p9
g3
((lp10
S'Method.PET'
p11
atp12
Rp13
sS'topics'
p14
g3
((lp15
S"(15, u'\\\\bschizophreni')"
p16
aS"(3, u'\\\\bsleep')"
p17
aS"(9, u'\\\\bdepress')"
p18
aS"(7, u'\\\\bmemory')"
p19
aS"(21, u'\\\\bpain')"
p20
aS"(26, u'\\\\bcardiovascular')"
p21
aS"(10, u'\\\\banxiety')"
p22
atp23
Rp24
sS'receptors'
p25
g3
((lp26
S'5ht7'
p27
aS'5ht6'
p28
aS'5ht5'
p29
aS'5ht2b'
p30
aS'5ht2'
p31
aS'5ht1'
p32
aS'5ht2a'
p33
aS'5ht6a'
p34
aS'5ht1a'
p35
aS'5ht2c'
p36
atp37
Rp38
sS'regions'
p39
g3
((lp40
S"(103, u'(?i)(substantias|substantia)(-|\\\\s+)?(nigras|nigra)')"
p41
aS"(71, u'(?i)(cerebellums|cerebellum)')"
p42
aS"(50, u'(?i)(pedunculopontines|pedunculopontine)(-|\\\\s+)?(nuclei|nucleus)')"
p43
aS"(209, u'(?i)(amygdalas|amygdala)')"
p44
aS"(1, u'(?i)(myelencephalons|myelencephalon)')"
p45
aS"(126, u'(?i)(thalamuses|thalamus)')"
p46
aS"(231, u'(?i)(basals|basal)(-|\\\\s+)?(forebrains|forebrain)')"
p47
aS"(34, u'(?i)(pon|pons)')"
p48
aS"(35, u'(?i)(pontines|pontine)(-|\\\\s+)?(nuclei|nucleus)')"
p49
aS"(248, u'(?i)(cerebrals|cerebral)(-|\\\\s+)?(cortexes|cortex)')"
p50
atp51
Rp52
sS'year'
p53
V2004
p54
sS'agonists'
p55
g3
((lp56
S"(155, u'\\\\bmem')"
p57
atp58
Rp59
sS'species'
p60
g3
((lp61
S"(1070, u'(?i)(pets|pet)')"
p62
aS"(2323, u'(?i)(bees|bee)')"
p63
aS"(4404, u'(?i)(duns|dun)')"
p64
aS"(6249, u'(?i)(ants|ant)')"
p65
aS"(931, u'(?i)(divers|diver)')"
p66
aS"(4979, u'(?i)(cats|cat)')"
p67
aS"(6753, u'(?i)(da|das)')"
p68
aS"(6682, u'(?i)(tera|teras)')"
p69
aS"(468, u'(?i)(oxen|ox)')"
p70
aS"(1055, u'(?i)(men|man)')"
p71
aS"(4964, u'(?i)(serins|serin)')"
p72
aS"(5229, u'(?i)(moles|mole)')"
p73
aS"(3812, u'(?i)(studs|stud)')"
p74
aS"(6391, u'(?i)(asses|ass)')"
p75
aS"(391, u'(?i)(alli|allis)')"
p76
aS"(2809, u'(?i)(toms|tom)')"
p77
aS"(5537, u'(?i)(hippos|hippo)')"
p78
aS"(6356, u'(?i)(ais|ai)')"
p79
atp80
Rp81
sb.