(ifile_types
ParseObject
p0
(dp1
S'methods'
p2
c__builtin__
set
p3
((lp4
S'Method.PET'
p5
atp6
Rp7
sS'topics'
p8
g3
((lp9
S"(1, u'\\\\bpatient')"
p10
aS"(7, u'\\\\bdepressi')"
p11
aS"(4, u'\\\\btreatment')"
p12
aS"(2, u'\\\\bdisorder')"
p13
atp14
Rp15
sS'receptors'
p16
g3
((lp17
(S'5ht1a'
p18
I309
I314
tp19
a(S'5ht1a'
p20
I36
I47
tp21
a(S'5ht1a'
p22
I219
I224
tp23
a(S'5ht1a'
p24
I492
I497
tp25
a(S'5ht1a'
p26
I990
I995
tp27
a(S'5ht1a'
p28
I205
I216
tp29
a(S'5ht1a'
p30
I864
I869
tp31
a(S'5ht1a'
p32
I1191
I1196
tp33
atp34
Rp35
sS'raw_text_methods'
p36
g3
((lp37
S"(19, u'\\\\bpositron emission tomography')"
p38
atp39
Rp40
sS'regions'
p41
g3
((lp42
S"(22, u'(?i)\\\\b(anteriors|anterior)(-|\\\\s+)?(cingulates|cingulate)\\\\b')"
p43
aS"(3, u'(?i)\\\\b(postsynaptics|postsynaptic)\\\\b')"
p44
atp45
Rp46
sS'year'
p47
V2008
p48
sS'species'
p49
g3
((lp50
tp51
Rp52
sb.