(ifile_types
ParseObject
p0
(dp1
S'methods'
p2
c__builtin__
set
p3
((lp4
S'Method.ANTAGONIST'
p5
atp6
Rp7
sS'topics'
p8
g3
((lp9
S"(22, u'\\\\bschizophreni')"
p10
aS"(5, u'\\\\btherap')"
p11
aS"(26, u'\\\\bbehav')"
p12
aS"(33, u'\\\\blocomot')"
p13
aS"(23, u'\\\\bantipsychotic')"
p14
atp15
Rp16
sS'receptors'
p17
g3
((lp18
(S'5ht2c'
p19
I319
I325
tp20
a(S'5ht2'
p21
I1278
I1283
tp22
a(S'5ht2a'
p23
I225
I231
tp24
a(S'5ht2a'
p25
I101
I107
tp26
a(S'5ht2'
p27
I1063
I1068
tp28
atp29
Rp30
sS'raw_text_methods'
p31
g3
((lp32
S"(42, u'\\\\bneuroleptics')"
p33
aS"(23, u'\\\\bmdl')"
p34
aS"(12, u'\\\\bantagonist')"
p35
atp36
Rp37
sS'regions'
p38
g3
((lp39
tp40
Rp41
sS'year'
p42
V1996
p43
sS'species'
p44
g3
((lp45
S"(4, u'(?i)\\\\b(rats|rat)\\\\b')"
p46
atp47
Rp48
sb.