(ifile_types
ParseObject
p0
(dp1
S'antagonists'
p2
c__builtin__
set
p3
((lp4
tp5
Rp6
sS'methods'
p7
g3
((lp8
tp9
Rp10
sS'topics'
p11
g3
((lp12
S"(12, u'\\\\banxiogen')"
p13
aS"(9, u'\\\\bdepress')"
p14
aS"(11, u'\\\\banxiolyt')"
p15
aS"(10, u'\\\\banxiety')"
p16
aS"(4, u'\\\\blocomot')"
p17
atp18
Rp19
sS'receptors'
p20
g3
((lp21
S'5ht1a'
p22
aS'5ht2c'
p23
atp24
Rp25
sS'regions'
p26
g3
((lp27
S"(178, u'(?i)(laterals|lateral)(-|\\\\s+)?(nuclei|nucleus)')"
p28
aS"(209, u'(?i)(amygdalas|amygdala)')"
p29
atp30
Rp31
sS'year'
p32
V2012
p33
sS'agonists'
p34
g3
((lp35
tp36
Rp37
sS'species'
p38
g3
((lp39
S"(6753, u'(?i)(da|das)')"
p40
aS"(5958, u'(?i)(rats|rat)')"
p41
aS"(867, u'(?i)(tits|tit)')"
p42
aS"(163, u'(?i)(mice|mouse)')"
p43
aS"(6682, u'(?i)(tera|teras)')"
p44
aS"(4163, u'(?i)(ermines|ermine)')"
p45
aS"(1055, u'(?i)(men|man)')"
p46
aS"(6249, u'(?i)(ants|ant)')"
p47
aS"(6356, u'(?i)(ais|ai)')"
p48
aS"(3550, u'(?i)(anis|ani)')"
p49
aS"(5917, u'(?i)(roaches|roach)')"
p50
aS"(1961, u'(?i)(pens|pen)')"
p51
aS"(3812, u'(?i)(studs|stud)')"
p52
atp53
Rp54
sb.