(ifile_types
ParseObject
p0
(dp1
S'methods'
p2
c__builtin__
set
p3
((lp4
S'Method.AGONIST'
p5
atp6
Rp7
sS'topics'
p8
g3
((lp9
S"(24, u'\\\\banxiolytic')"
p10
aS"(8, u'\\\\banxi')"
p11
aS"(12, u'\\\\bsleep')"
p12
aS"(26, u'\\\\bbehav')"
p13
atp14
Rp15
sS'receptors'
p16
g3
((lp17
(S'5ht1a'
p18
I241
I247
tp19
atp20
Rp21
sS'raw_text_methods'
p22
g3
((lp23
S"(13, u'\\\\bagonist')"
p24
aS"(24, u'\\\\bgepirone')"
p25
aS"(21, u'\\\\bipsapirone')"
p26
aS"(22, u'\\\\bbuspirone')"
p27
atp28
Rp29
sS'regions'
p30
g3
((lp31
S"(11, u'(?i)\\\\b(cerebrals|cerebral)\\\\b')"
p32
aS"(19, u'(?i)\\\\b(cortexes|cortex)\\\\b')"
p33
aS"(3, u'(?i)\\\\b(postsynaptics|postsynaptic)\\\\b')"
p34
atp35
Rp36
sS'year'
p37
V1995
p38
sS'species'
p39
g3
((lp40
S"(4, u'(?i)\\\\b(rats|rat)\\\\b')"
p41
atp42
Rp43
sb.