(ifile_types
ParseObject
p0
(dp1
S'methods'
p2
c__builtin__
set
p3
((lp4
S'Method.PET'
p5
aS'Method.IMMUNOHISTOCHEMISTRY'
p6
atp7
Rp8
sS'topics'
p9
g3
((lp10
S"(14, u'\\\\bcogniti')"
p11
aS"(1, u'\\\\bpatient')"
p12
aS"(17, u'\\\\balzheimer')"
p13
atp14
Rp15
sS'receptors'
p16
g3
((lp17
(S'5ht1a'
p18
I331
I342
tp19
a(S'5ht1a'
p20
I345
I351
tp21
a(S'5ht1a'
p22
I519
I525
tp23
a(S'5ht1'
p24
I1137
I1142
tp25
a(S'5ht1'
p26
I1626
I1630
tp27
a(S'5ht1a'
p28
I66
I77
tp29
a(S'5ht1'
p30
I1415
I1420
tp31
a(S'5ht1a'
p32
I1731
I1737
tp33
a(S'5ht1'
p34
I1318
I1323
tp35
a(S'5ht1'
p36
I1856
I1861
tp37
a(S'5ht1a'
p38
I691
I697
tp39
atp40
Rp41
sS'raw_text_methods'
p42
g3
((lp43
S"(17, u'\\\\bpet')"
p44
aS"(19, u'\\\\bpositron emission tomography')"
p45
aS"(18, u'\\\\bimaging')"
p46
atp47
Rp48
sS'regions'
p49
g3
((lp50
S"(19, u'(?i)\\\\b(cortexes|cortex)\\\\b')"
p51
atp52
Rp53
sS'year'
p54
V2011
p55
sS'species'
p56
g3
((lp57
tp58
Rp59
sb.