(ifile_types
ParseObject
p0
(dp1
S'antagonists'
p2
c__builtin__
set
p3
((lp4
S"(110, u'\\\\bclozapine')"
p5
aS"(52, u'\\\\bmdl ?100907')"
p6
aS"(96, u'\\\\brs ?102221')"
p7
aS"(134, u'\\\\bmirtazapine')"
p8
aS"(99, u'\\\\bsb ?242084')"
p9
aS"(117, u'\\\\bketanserin')"
p10
atp11
Rp12
sS'methods'
p13
g3
((lp14
S'Method.ANTAGONIST'
p15
aS'Method.AGONIST'
p16
atp17
Rp18
sS'topics'
p19
g3
((lp20
tp21
Rp22
sS'receptors'
p23
g3
((lp24
S'5ht2b'
p25
aS'5ht3'
p26
aS'5ht2c'
p27
aS'5ht2a'
p28
atp29
Rp30
sS'regions'
p31
g3
((lp32
tp33
Rp34
sS'year'
p35
V2009
p36
sS'agonists'
p37
g3
((lp38
S"(141, u'\\\\bro60 ?0175')"
p39
aS"(145, u'\\\\bly ?266097')"
p40
aS"(23, u'\\\\bclozapine')"
p41
aS"(175, u'\\\\bdoi')"
p42
atp43
Rp44
sS'species'
p45
g3
((lp46
S"(5958, u'(?i)\\\\b(rats|rat)\\\\b')"
p47
atp48
Rp49
sb.