(ifile_types
ParseObject
p0
(dp1
S'methods'
p2
c__builtin__
set
p3
((lp4
S'Method.ANTAGONIST'
p5
atp6
Rp7
sS'topics'
p8
g3
((lp9
tp10
Rp11
sS'receptors'
p12
g3
((lp13
(S'5ht3'
p14
I454
I459
tp15
a(S'5ht3'
p16
I587
I592
tp17
a(S'5ht3'
p18
I918
I923
tp19
a(S'5ht3'
p20
I103
I108
tp21
a(S'5ht3'
p22
I1148
I1153
tp23
atp24
Rp25
sS'raw_text_methods'
p26
g3
((lp27
S"(12, u'\\\\bantagonist')"
p28
atp29
Rp30
sS'regions'
p31
g3
((lp32
tp33
Rp34
sS'year'
p35
V2010
p36
sS'species'
p37
g3
((lp38
tp39
Rp40
sb.