(ifile_types
ParseObject
p0
(dp1
S'methods'
p2
c__builtin__
set
p3
((lp4
S'Method.STIMULATION'
p5
aS'Method.ANTAGONIST'
p6
aS'Method.AGONIST'
p7
atp8
Rp9
sS'topics'
p10
g3
((lp11
tp12
Rp13
sS'receptors'
p14
g3
((lp15
(S'5ht1b'
p16
I1138
I1144
tp17
a(S'5ht1b'
p18
I1585
I1591
tp19
a(S'5ht1a'
p20
I1285
I1291
tp21
a(S'5ht1a'
p22
I1186
I1192
tp23
a(S'5ht1'
p24
I1186
I1192
tp25
a(S'5ht1b'
p26
I1236
I1242
tp27
atp28
Rp29
sS'raw_text_methods'
p30
g3
((lp31
S"(13, u'\\\\bagonist')"
p32
aS"(15, u'\\\\b8ohdpat')"
p33
aS"(51, u'\\\\bway100635')"
p34
aS"(12, u'\\\\bantagonist')"
p35
atp36
Rp37
sS'regions'
p38
g3
((lp39
S"(4, u'(?i)\\\\b(presynaptics|presynaptic)\\\\b')"
p40
aS"(3, u'(?i)\\\\b(postsynaptics|postsynaptic)\\\\b')"
p41
atp42
Rp43
sS'year'
p44
V2019
p45
sS'species'
p46
g3
((lp47
S"(4, u'(?i)\\\\b(rats|rat)\\\\b')"
p48
atp49
Rp50
sb.