(ifile_types
ParseObject
p0
(dp1
S'antagonists'
p2
c__builtin__
set
p3
((lp4
S"(32, u'\\\\bway ?100635')"
p5
atp6
Rp7
sS'methods'
p8
g3
((lp9
S'Method.ANTAGONIST'
p10
atp11
Rp12
sS'topics'
p13
g3
((lp14
tp15
Rp16
sS'receptors'
p17
g3
((lp18
S'5ht1a'
p19
atp20
Rp21
sS'regions'
p22
g3
((lp23
S"(71, u'(?i)(cerebellums|cerebellum)')"
p24
aS"(34, u'(?i)(pon|pons)')"
p25
atp26
Rp27
sS'year'
p28
V1999
p29
sS'agonists'
p30
g3
((lp31
tp32
Rp33
sS'species'
p34
g3
((lp35
S"(5537, u'(?i)(hippos|hippo)')"
p36
aS"(2670, u'(?i)(arabs|arab)')"
p37
aS"(2568, u'(?i)(hens|hen)')"
p38
aS"(867, u'(?i)(tits|tit)')"
p39
aS"(4201, u'(?i)(kines|kine)')"
p40
aS"(4163, u'(?i)(ermines|ermine)')"
p41
aS"(468, u'(?i)(oxen|ox)')"
p42
aS"(1055, u'(?i)(men|man)')"
p43
aS"(6249, u'(?i)(ants|ant)')"
p44
aS"(4979, u'(?i)(cats|cat)')"
p45
aS"(5958, u'(?i)(rats|rat)')"
p46
aS"(5229, u'(?i)(moles|mole)')"
p47
aS"(3812, u'(?i)(studs|stud)')"
p48
aS"(6391, u'(?i)(asses|ass)')"
p49
aS"(6356, u'(?i)(ais|ai)')"
p50
atp51
Rp52
sb.