(ifile_types
ParseObject
p0
(dp1
S'methods'
p2
c__builtin__
set
p3
((lp4
S'Method.ANTAGONIST'
p5
aS'Method.AGONIST'
p6
atp7
Rp8
sS'topics'
p9
g3
((lp10
S"(29, u'\\\\bhyperactiv')"
p11
aS"(26, u'\\\\bbehav')"
p12
aS"(2, u'\\\\bdisorder')"
p13
atp14
Rp15
sS'receptors'
p16
g3
((lp17
(S'5ht1'
p18
I1523
I1528
tp19
a(S'5ht2a'
p20
I1718
I1724
tp21
a(S'5ht1a'
p22
I1523
I1528
tp23
atp24
Rp25
sS'raw_text_methods'
p26
g3
((lp27
S"(13, u'\\\\bagonist')"
p28
atp29
Rp30
sS'regions'
p31
g3
((lp32
S"(20, u'(?i)\\\\b(prefrontals|prefrontal)\\\\b')"
p33
aS"(19, u'(?i)\\\\b(cortexes|cortex)\\\\b')"
p34
atp35
Rp36
sS'year'
p37
V2011
p38
sS'species'
p39
g3
((lp40
S"(3, u'(?i)\\\\b(males|male)\\\\b')"
p41
aS"(4, u'(?i)\\\\b(rats|rat)\\\\b')"
p42
atp43
Rp44
sb.