(ifile_types
ParseObject
p0
(dp1
S'methods'
p2
c__builtin__
set
p3
((lp4
S'Method.ANTAGONIST'
p5
atp6
Rp7
sS'topics'
p8
g3
((lp9
S"(4, u'\\\\btreatment')"
p10
atp11
Rp12
sS'receptors'
p13
g3
((lp14
(S'5ht7'
p15
I1954
I1959
tp16
a(S'5ht7'
p17
I733
I738
tp18
a(S'5ht7'
p19
I1782
I1787
tp20
a(S'5ht1d'
p21
I1380
I1388
tp22
a(S'5ht7'
p23
I1479
I1484
tp24
a(S'5ht1d'
p25
I781
I789
tp26
a(S'5ht1b'
p27
I781
I787
tp28
a(S'5ht1b'
p29
I1380
I1386
tp30
atp31
Rp32
sS'raw_text_methods'
p33
g3
((lp34
S"(34, u'\\\\b5ct')"
p35
aS"(6, u'\\\\bgr127935')"
p36
aS"(12, u'\\\\bantagonist')"
p37
atp38
Rp39
sS'regions'
p40
g3
((lp41
tp42
Rp43
sS'year'
p44
V2009
p45
sS'species'
p46
g3
((lp47
S"(4, u'(?i)\\\\b(rats|rat)\\\\b')"
p48
atp49
Rp50
sb.