(ifile_types
ParseObject
p0
(dp1
S'methods'
p2
c__builtin__
set
p3
((lp4
S'Method.PET'
p5
atp6
Rp7
sS'topics'
p8
g3
((lp9
S"(1, u'\\\\bpatient')"
p10
aS"(4, u'\\\\btreatment')"
p11
aS"(3, u'\\\\bclinical')"
p12
atp13
Rp14
sS'receptors'
p15
g3
((lp16
tp17
Rp18
sS'raw_text_methods'
p19
g3
((lp20
S"(1, u'\\\\bneuroimag')"
p21
aS"(19, u'\\\\bpositron emission tomography')"
p22
aS"(18, u'\\\\bimaging')"
p23
aS"(32, u'\\\\blesions')"
p24
atp25
Rp26
sS'regions'
p27
g3
((lp28
tp29
Rp30
sS'year'
p31
V2014
p32
sS'species'
p33
g3
((lp34
tp35
Rp36
sb.