(ifile_types
ParseObject
p0
(dp1
S'antagonists'
p2
c__builtin__
set
p3
((lp4
tp5
Rp6
sS'methods'
p7
g3
((lp8
S'Method.AGONIST'
p9
aS'Method.IMMUNOHISTOCHEMISTRY'
p10
atp11
Rp12
sS'topics'
p13
g3
((lp14
S"(2, u'\\\\bappetite')"
p15
aS"(4, u'\\\\blocomot')"
p16
atp17
Rp18
sS'receptors'
p19
g3
((lp20
S'5ht1b'
p21
aS'5ht1a'
p22
atp23
Rp24
sS'regions'
p25
g3
((lp26
S"(159, u'(?i)(paraventriculars|paraventricular)(-|\\\\s+)?(nuclei|nucleus)')"
p27
aS"(216, u'(?i)(strias|stria)(-|\\\\s+)?(terminali|terminalis)')"
p28
aS"(126, u'(?i)(thalamuses|thalamus)')"
p29
aS"(217, u'(?i)(beds|bed)(-|\\\\s+)?(nuclei|nucleus)(-|\\\\s+)?(ofs|of)(-|\\\\s+)?(thes|the)(-|\\\\s+)?(strias|stria)(-|\\\\s+)?(terminali|terminalis)')"
p30
atp31
Rp32
sS'year'
p33
V1998
p34
sS'agonists'
p35
g3
((lp36
S"(74, u'\\\\bru ?24969')"
p37
aS"(169, u'\\\\bfenfluramine')"
p38
atp39
Rp40
sS'species'
p41
g3
((lp42
S"(1070, u'(?i)(pets|pet)')"
p43
aS"(2323, u'(?i)(bees|bee)')"
p44
aS"(6753, u'(?i)(da|das)')"
p45
aS"(5958, u'(?i)(rats|rat)')"
p46
aS"(867, u'(?i)(tits|tit)')"
p47
aS"(163, u'(?i)(mice|mouse)')"
p48
aS"(6249, u'(?i)(ants|ant)')"
p49
aS"(4163, u'(?i)(ermines|ermine)')"
p50
aS"(1349, u'(?i)(rams|ram)')"
p51
aS"(5131, u'(?i)(hags|hag)')"
p52
aS"(3592, u'(?i)(ravens|raven)')"
p53
aS"(853, u'(?i)(minas|mina)')"
p54
aS"(3550, u'(?i)(anis|ani)')"
p55
aS"(3812, u'(?i)(studs|stud)')"
p56
aS"(6391, u'(?i)(asses|ass)')"
p57
aS"(5743, u'(?i)(bots|bot)')"
p58
aS"(6356, u'(?i)(ais|ai)')"
p59
atp60
Rp61
sb.