(ifile_types
ParseObject
p0
(dp1
S'antagonists'
p2
c__builtin__
set
p3
((lp4
S"(32, u'\\\\bway ?100635')"
p5
atp6
Rp7
sS'methods'
p8
g3
((lp9
S'Method.AGONIST'
p10
atp11
Rp12
sS'topics'
p13
g3
((lp14
S"(9, u'\\\\bdepress')"
p15
atp16
Rp17
sS'receptors'
p18
g3
((lp19
S'5ht1a'
p20
atp21
Rp22
sS'regions'
p23
g3
((lp24
S"(209, u'(?i)(amygdalas|amygdala)')"
p25
atp26
Rp27
sS'year'
p28
V2005
p29
sS'agonists'
p30
g3
((lp31
S"(92, u'\\\\b8 ?oh ?dpat')"
p32
atp33
Rp34
sS'species'
p35
g3
((lp36
S"(5958, u'(?i)(rats|rat)')"
p37
aS"(7609, u'(?i)(erns|ern)')"
p38
aS"(479, u'(?i)(lings|ling)')"
p39
aS"(5967, u'(?i)(males|male)')"
p40
aS"(1055, u'(?i)(men|man)')"
p41
aS"(7094, u'(?i)(curs|cur)')"
p42
aS"(6753, u'(?i)(da|das)')"
p43
aS"(3522, u'(?i)(tetras|tetra)')"
p44
aS"(1961, u'(?i)(pens|pen)')"
p45
aS"(6356, u'(?i)(ais|ai)')"
p46
aS"(4247, u'(?i)(tatus|tatu)')"
p47
aS"(5568, u'(?i)(hakes|hake)')"
p48
aS"(5949, u'(?i)(dogs|dog)')"
p49
atp50
Rp51
sb.