(ifile_types
ParseObject
p0
(dp1
S'antagonists'
p2
c__builtin__
set
p3
((lp4
tp5
Rp6
sS'methods'
p7
g3
((lp8
S'Method.AGONIST'
p9
atp10
Rp11
sS'topics'
p12
g3
((lp13
S"(16, u'\\\\bfeed')"
p14
atp15
Rp16
sS'receptors'
p17
g3
((lp18
S'5ht1b'
p19
aS'5ht1a'
p20
aS'5ht2b'
p21
aS'5ht2'
p22
aS'5ht2c'
p23
atp24
Rp25
sS'regions'
p26
g3
((lp27
tp28
Rp29
sS'year'
p30
V2014
p31
sS'agonists'
p32
g3
((lp33
S"(166, u'\\\\bmk ?212')"
p34
aS"(140, u'\\\\bbw ?723c86')"
p35
aS"(155, u'\\\\bmcpp')"
p36
aS"(100, u'\\\\bcp ?93129')"
p37
aS"(85, u'\\\\b8 ?oh ?dpat')"
p38
atp39
Rp40
sS'species'
p41
g3
((lp42
S"(4657, u'(?i)\\\\b(fish|fish)\\\\b')"
p43
aS"(233, u'(?i)\\\\b(rainbows|rainbow)(-|\\\\s+)?(trout|trout)\\\\b')"
p44
aS"(4392, u'(?i)\\\\b(trout|trout)\\\\b')"
p45
aS"(7539, u'(?i)\\\\b(mammals|mammal)\\\\b')"
p46
atp47
Rp48
sb.