(ifile_types
ParseObject
p0
(dp1
S'antagonists'
p2
c__builtin__
set
p3
((lp4
tp5
Rp6
sS'methods'
p7
g3
((lp8
S'Method.AGONIST'
p9
atp10
Rp11
sS'topics'
p12
g3
((lp13
S"(3, u'\\\\bsleep')"
p14
aS"(13, u'\\\\bpsychedel')"
p15
atp16
Rp17
sS'receptors'
p18
g3
((lp19
S'5ht1a'
p20
aS'5ht2c'
p21
aS'5ht2a'
p22
atp23
Rp24
sS'regions'
p25
g3
((lp26
tp27
Rp28
sS'year'
p29
V2008
p30
sS'agonists'
p31
g3
((lp32
S"(157, u'\\\\bdmt')"
p33
aS"(235, u'\\\\bnn ?dimethyltryptamine')"
p34
atp35
Rp36
sS'species'
p37
g3
((lp38
S"(5967, u'(?i)\\\\b(males|male)\\\\b')"
p39
atp40
Rp41
sb.