(ifile_types
ParseObject
p0
(dp1
S'methods'
p2
c__builtin__
set
p3
((lp4
tp5
Rp6
sS'topics'
p7
g3
((lp8
S"(4, u'\\\\btreatment')"
p9
atp10
Rp11
sS'receptors'
p12
g3
((lp13
(S'5ht2c'
p14
I77
I83
tp15
a(S'5ht2c'
p16
I253
I259
tp17
a(S'5ht2c'
p18
I1131
I1137
tp19
atp20
Rp21
sS'raw_text_methods'
p22
g3
((lp23
tp24
Rp25
sS'regions'
p26
g3
((lp27
tp28
Rp29
sS'year'
p30
V1997
p31
sS'species'
p32
g3
((lp33
tp34
Rp35
sb.