(ifile_types
ParseObject
p0
(dp1
S'methods'
p2
c__builtin__
set
p3
((lp4
S'Method.ANTAGONIST'
p5
atp6
Rp7
sS'topics'
p8
g3
((lp9
tp10
Rp11
sS'receptors'
p12
g3
((lp13
(S'5ht2a'
p14
I653
I659
tp15
a(S'5ht2'
p16
I1722
I1727
tp17
a(S'5ht2c'
p18
I1156
I1162
tp19
a(S'5ht2c'
p20
I1032
I1038
tp21
a(S'5ht2a'
p22
I771
I777
tp23
a(S'5ht2c'
p24
I664
I670
tp25
a(S'5ht2a'
p26
I40
I51
tp27
a(S'5ht2a'
p28
I1823
I1829
tp29
atp30
Rp31
sS'raw_text_methods'
p32
g3
((lp33
S"(9, u'\\\\britanserin')"
p34
aS"(12, u'\\\\bantagonist')"
p35
atp36
Rp37
sS'regions'
p38
g3
((lp39
S"(14, u'(?i)\\\\b(caudals|caudal)\\\\b')"
p40
atp41
Rp42
sS'year'
p43
V2000
p44
sS'species'
p45
g3
((lp46
S"(6, u'(?i)\\\\b(rodents|rodent)\\\\b')"
p47
aS"(4, u'(?i)\\\\b(rats|rat)\\\\b')"
p48
atp49
Rp50
sb.