(ifile_types
ParseObject
p0
(dp1
S'antagonists'
p2
c__builtin__
set
p3
((lp4
S"(32, u'\\\\bway ?100635')"
p5
atp6
Rp7
sS'methods'
p8
g3
((lp9
S'Method.PET'
p10
aS'Method.ANTAGONIST'
p11
aS'Method.AGONIST'
p12
atp13
Rp14
sS'topics'
p15
g3
((lp16
tp17
Rp18
sS'receptors'
p19
g3
((lp20
S'5ht1a'
p21
atp22
Rp23
sS'regions'
p24
g3
((lp25
S"(318, u'(?i)(raphes|raphe)(-|\\\\s+)?(nuclei|nucleus)')"
p26
aS"(291, u'(?i)(cingulates|cingulate)(-|\\\\s+)?(cortexes|cortex)')"
p27
aS"(94, u'(?i)(dorsals|dorsal)(-|\\\\s+)?(raphes|raphe)(-|\\\\s+)?(nuclei|nucleus)')"
p28
atp29
Rp30
sS'year'
p31
V2010
p32
sS'agonists'
p33
g3
((lp34
S"(92, u'\\\\b8 ?oh ?dpat')"
p35
aS"(95, u'\\\\bf ?15599')"
p36
atp37
Rp38
sS'species'
p39
g3
((lp40
S"(1070, u'(?i)(pets|pet)')"
p41
aS"(4624, u'(?i)(apes|ape)')"
p42
aS"(6753, u'(?i)(da|das)')"
p43
aS"(2568, u'(?i)(hens|hen)')"
p44
aS"(6356, u'(?i)(ais|ai)')"
p45
aS"(867, u'(?i)(tits|tit)')"
p46
aS"(4979, u'(?i)(cats|cat)')"
p47
aS"(479, u'(?i)(lings|ling)')"
p48
aS"(6682, u'(?i)(tera|teras)')"
p49
aS"(6249, u'(?i)(ants|ant)')"
p50
aS"(6215, u'(?i)(racers|racer)')"
p51
aS"(3812, u'(?i)(studs|stud)')"
p52
aS"(5958, u'(?i)(rats|rat)')"
p53
aS"(7094, u'(?i)(curs|cur)')"
p54
aS"(1846, u'(?i)(robins|robin)')"
p55
aS"(1414, u'(?i)(chars|char)')"
p56
aS"(7609, u'(?i)(erns|ern)')"
p57
aS"(2809, u'(?i)(toms|tom)')"
p58
aS"(5537, u'(?i)(hippos|hippo)')"
p59
aS"(1683, u'(?i)(terns|tern)')"
p60
atp61
Rp62
sb.