(ifile_types
ParseObject
p0
(dp1
S'methods'
p2
c__builtin__
set
p3
((lp4
S'Method.ANTAGONIST'
p5
aS'Method.AGONIST'
p6
atp7
Rp8
sS'topics'
p9
g3
((lp10
S"(12, u'\\\\bsleep')"
p11
atp12
Rp13
sS'receptors'
p14
g3
((lp15
(S'5ht3'
p16
I250
I255
tp17
a(S'5ht3'
p18
I976
I981
tp19
a(S'5ht3'
p20
I64
I69
tp21
a(S'5ht3'
p22
I1291
I1296
tp23
atp24
Rp25
sS'raw_text_methods'
p26
g3
((lp27
S"(13, u'\\\\bagonist')"
p28
aS"(20, u'\\\\bondansetron')"
p29
aS"(12, u'\\\\bantagonist')"
p30
atp31
Rp32
sS'regions'
p33
g3
((lp34
S"(16, u'(?i)\\\\b(drns|drn)\\\\b')"
p35
aS"(3, u'(?i)\\\\b(postsynaptics|postsynaptic)\\\\b')"
p36
atp37
Rp38
sS'year'
p39
V2008
p40
sS'species'
p41
g3
((lp42
S"(3, u'(?i)\\\\b(males|male)\\\\b')"
p43
aS"(4, u'(?i)\\\\b(rats|rat)\\\\b')"
p44
atp45
Rp46
sb.