(ifile_types
ParseObject
p0
(dp1
S'antagonists'
p2
c__builtin__
set
p3
((lp4
S"(141, u'\\\\bzacopride')"
p5
atp6
Rp7
sS'methods'
p8
g3
((lp9
tp10
Rp11
sS'topics'
p12
g3
((lp13
tp14
Rp15
sS'receptors'
p16
g3
((lp17
S'5ht3'
p18
atp19
Rp20
sS'regions'
p21
g3
((lp22
S"(285, u'(?i)(entorhinals|entorhinal)(-|\\\\s+)?(cortexes|cortex)')"
p23
aS"(103, u'(?i)(substantias|substantia)(-|\\\\s+)?(nigras|nigra)')"
p24
aS"(209, u'(?i)(amygdalas|amygdala)')"
p25
aS"(174, u'(?i)(posteriors|posterior)')"
p26
aS"(27, u'(?i)(areas|area)(-|\\\\s+)?(postremas|postrema)')"
p27
aS"(220, u'(?i)(striatums|striatum)')"
p28
aS"(318, u'(?i)(raphes|raphe)(-|\\\\s+)?(nuclei|nucleus)')"
p29
aS"(94, u'(?i)(dorsals|dorsal)(-|\\\\s+)?(raphes|raphe)(-|\\\\s+)?(nuclei|nucleus)')"
p30
atp31
Rp32
sS'year'
p33
V1992
p34
sS'agonists'
p35
g3
((lp36
S"(212, u'\\\\bzacopride')"
p37
aS"(155, u'\\\\bmem')"
p38
atp39
Rp40
sS'species'
p41
g3
((lp42
S"(5537, u'(?i)(hippos|hippo)')"
p43
aS"(5626, u'(?i)(posters|poster)')"
p44
aS"(6753, u'(?i)(da|das)')"
p45
aS"(5958, u'(?i)(rats|rat)')"
p46
aS"(867, u'(?i)(tits|tit)')"
p47
aS"(4979, u'(?i)(cats|cat)')"
p48
aS"(479, u'(?i)(lings|ling)')"
p49
aS"(1349, u'(?i)(rams|ram)')"
p50
aS"(3152, u'(?i)(layers|layer)')"
p51
aS"(853, u'(?i)(minas|mina)')"
p52
aS"(6249, u'(?i)(ants|ant)')"
p53
aS"(5229, u'(?i)(moles|mole)')"
p54
aS"(4371, u'(?i)(lizas|liza)')"
p55
aS"(6356, u'(?i)(ais|ai)')"
p56
aS"(6391, u'(?i)(asses|ass)')"
p57
aS"(2809, u'(?i)(toms|tom)')"
p58
aS"(5743, u'(?i)(bots|bot)')"
p59
atp60
Rp61
sb.