(ifile_types
ParseObject
p0
(dp1
S'methods'
p2
c__builtin__
set
p3
((lp4
S'Method.ANTAGONIST'
p5
aS'Method.AGONIST'
p6
atp7
Rp8
sS'topics'
p9
g3
((lp10
tp11
Rp12
sS'receptors'
p13
g3
((lp14
(S'5ht1f'
p15
I1185
I1191
tp16
a(S'5ht1b'
p17
I41
I47
tp18
a(S'5ht1f'
p19
I1094
I1100
tp20
a(S'5ht1f'
p21
I354
I360
tp22
a(S'5ht1f'
p23
I493
I499
tp24
a(S'5ht1f'
p25
I52
I58
tp26
a(S'5ht1b'
p27
I1013
I1019
tp28
a(S'5ht1b'
p29
I336
I342
tp30
a(S'5ht1d'
p31
I344
I350
tp32
a(S'5ht1b'
p33
I1139
I1145
tp34
atp35
Rp36
sS'raw_text_methods'
p37
g3
((lp38
S"(13, u'\\\\bagonist')"
p39
aS"(3, u'\\\\bimmunoreactiv')"
p40
aS"(47, u'\\\\bsumatriptan')"
p41
aS"(12, u'\\\\bantagonist')"
p42
atp43
Rp44
sS'regions'
p45
g3
((lp46
tp47
Rp48
sS'year'
p49
V1999
p50
sS'species'
p51
g3
((lp52
S"(4, u'(?i)\\\\b(rats|rat)\\\\b')"
p53
atp54
Rp55
sb.