(ifile_types
ParseObject
p0
(dp1
S'antagonists'
p2
c__builtin__
set
p3
((lp4
S"(23, u'\\\\brisperidone')"
p5
aS"(123, u'\\\\bclozapine')"
p6
aS"(56, u'\\\\bclozapine')"
p7
aS"(57, u'\\\\bolanzapine')"
p8
aS"(41, u'\\\\bziprasidone')"
p9
aS"(185, u'\\\\bsb ?399885')"
p10
aS"(124, u'\\\\bolanzapine')"
p11
aS"(59, u'\\\\brisperidone')"
p12
aS"(67, u'\\\\bhaloperidol')"
p13
atp14
Rp15
sS'methods'
p16
g3
((lp17
S'Method.ANTAGONIST'
p18
atp19
Rp20
sS'topics'
p21
g3
((lp22
S"(15, u'\\\\bschizophreni')"
p23
aS"(6, u'\\\\bcognit')"
p24
atp25
Rp26
sS'receptors'
p27
g3
((lp28
S'5ht6'
p29
aS'5ht6a'
p30
atp31
Rp32
sS'regions'
p33
g3
((lp34
S"(254, u'(?i)(prefrontals|prefrontal)(-|\\\\s+)?(cortexes|cortex)')"
p35
aS"(255, u'(?i)(pres|pre)(-|\\\\s+)?(frontals|frontal)(-|\\\\s+)?(cortexes|cortex)')"
p36
aS"(34, u'(?i)(pon|pons)')"
p37
atp38
Rp39
sS'year'
p40
V2007
p41
sS'agonists'
p42
g3
((lp43
S"(91, u'\\\\bziprasidone')"
p44
aS"(64, u'\\\\bolanzapine')"
p45
aS"(48, u'\\\\bhaloperidol')"
p46
aS"(27, u'\\\\bclozapine')"
p47
atp48
Rp49
sS'species'
p50
g3
((lp51
S"(2323, u'(?i)(bees|bee)')"
p52
aS"(4624, u'(?i)(apes|ape)')"
p53
aS"(5958, u'(?i)(rats|rat)')"
p54
aS"(6753, u'(?i)(da|das)')"
p55
aS"(1055, u'(?i)(men|man)')"
p56
aS"(2334, u'(?i)(eels|eel)')"
p57
aS"(5743, u'(?i)(bots|bot)')"
p58
aS"(6249, u'(?i)(ants|ant)')"
p59
aS"(3812, u'(?i)(studs|stud)')"
p60
aS"(5537, u'(?i)(hippos|hippo)')"
p61
aS"(6356, u'(?i)(ais|ai)')"
p62
atp63
Rp64
sb.