(ifile_types
ParseObject
p0
(dp1
S'methods'
p2
c__builtin__
set
p3
((lp4
S'Method.AGONIST'
p5
atp6
Rp7
sS'topics'
p8
g3
((lp9
S"(22, u'\\\\bschizophreni')"
p10
aS"(5, u'\\\\btherap')"
p11
aS"(23, u'\\\\bantipsychotic')"
p12
atp13
Rp14
sS'receptors'
p15
g3
((lp16
(S'5ht2a'
p17
I41
I47
tp18
a(S'5ht2'
p19
I1026
I1031
tp20
a(S'5ht2'
p21
I1735
I1740
tp22
a(S'5ht2'
p23
I888
I893
tp24
a(S'5ht2'
p25
I1599
I1604
tp26
a(S'5ht2a'
p27
I871
I877
tp28
a(S'5ht2'
p29
I1469
I1474
tp30
a(S'5ht2a'
p31
I764
I770
tp32
a(S'5ht2'
p33
I1337
I1342
tp34
a(S'5ht2'
p35
I1207
I1212
tp36
atp37
Rp38
sS'raw_text_methods'
p39
g3
((lp40
S"(13, u'\\\\bagonist')"
p41
aS"(49, u'\\\\bdoi')"
p42
atp43
Rp44
sS'regions'
p45
g3
((lp46
S"(20, u'(?i)\\\\b(prefrontals|prefrontal)\\\\b')"
p47
aS"(21, u'(?i)\\\\b(mpfcs|mpfc)\\\\b')"
p48
aS"(19, u'(?i)\\\\b(cortexes|cortex)\\\\b')"
p49
atp50
Rp51
sS'year'
p52
V2014
p53
sS'species'
p54
g3
((lp55
S"(4, u'(?i)\\\\b(rats|rat)\\\\b')"
p56
atp57
Rp58
sb.