(ifile_types
ParseObject
p0
(dp1
S'antagonists'
p2
c__builtin__
set
p3
((lp4
S"(14, u'\\\\bmethiothepin')"
p5
aS"(194, u'\\\\bmethysergide')"
p6
atp7
Rp8
sS'methods'
p9
g3
((lp10
S'Method.STIMULATION'
p11
aS'Method.ANTAGONIST'
p12
atp13
Rp14
sS'topics'
p15
g3
((lp16
S"(25, u'\\\\bvasoconstrict')"
p17
aS"(21, u'\\\\bpain')"
p18
atp19
Rp20
sS'receptors'
p21
g3
((lp22
S'5ht5'
p23
atp24
Rp25
sS'regions'
p26
g3
((lp27
S"(389, u'(?i)\\\\b(cerebrospinals|cerebrospinal)(-|\\\\s+)?(fluids|fluid)\\\\b')"
p28
atp29
Rp30
sS'year'
p31
V1999
p32
sS'agonists'
p33
g3
((lp34
S"(53, u'\\\\bmethysergide')"
p35
atp36
Rp37
sS'species'
p38
g3
((lp39
S"(4979, u'(?i)\\\\b(cats|cat)\\\\b')"
p40
atp41
Rp42
sb.