(ifile_types
ParseObject
p0
(dp1
S'antagonists'
p2
c__builtin__
set
p3
((lp4
S"(102, u'\\\\bfluoxetine')"
p5
atp6
Rp7
sS'methods'
p8
g3
((lp9
S'Method.KNOCKOUT'
p10
atp11
Rp12
sS'topics'
p13
g3
((lp14
S"(9, u'\\\\bdepress')"
p15
aS"(1, u'\\\\bmood')"
p16
atp17
Rp18
sS'receptors'
p19
g3
((lp20
S'5ht2a'
p21
atp22
Rp23
sS'regions'
p24
g3
((lp25
S"(209, u'(?i)(amygdalas|amygdala)')"
p26
atp27
Rp28
sS'year'
p29
V2018
p30
sS'agonists'
p31
g3
((lp32
tp33
Rp34
sS'species'
p35
g3
((lp36
S"(2323, u'(?i)(bees|bee)')"
p37
aS"(6753, u'(?i)(da|das)')"
p38
aS"(5958, u'(?i)(rats|rat)')"
p39
aS"(7609, u'(?i)(erns|ern)')"
p40
aS"(163, u'(?i)(mice|mouse)')"
p41
aS"(479, u'(?i)(lings|ling)')"
p42
aS"(5967, u'(?i)(males|male)')"
p43
aS"(468, u'(?i)(oxen|ox)')"
p44
aS"(1055, u'(?i)(men|man)')"
p45
aS"(3726, u'(?i)(mates|mate)')"
p46
aS"(1054, u'(?i)(homoes|homo)')"
p47
aS"(3812, u'(?i)(studs|stud)')"
p48
aS"(3550, u'(?i)(anis|ani)')"
p49
aS"(6682, u'(?i)(tera|teras)')"
p50
aS"(1961, u'(?i)(pens|pen)')"
p51
aS"(1414, u'(?i)(chars|char)')"
p52
aS"(2809, u'(?i)(toms|tom)')"
p53
aS"(5743, u'(?i)(bots|bot)')"
p54
aS"(6249, u'(?i)(ants|ant)')"
p55
atp56
Rp57
sb.