(ifile_types
ParseObject
p0
(dp1
S'methods'
p2
c__builtin__
set
p3
((lp4
tp5
Rp6
sS'topics'
p7
g3
((lp8
S"(13, u'\\\\bantidepress')"
p9
aS"(4, u'\\\\btreatment')"
p10
atp11
Rp12
sS'receptors'
p13
g3
((lp14
(S'5ht7'
p15
I827
I832
tp16
a(S'5ht7'
p17
I214
I219
tp18
a(S'5ht7'
p19
I62
I67
tp20
a(S'5ht7'
p21
I1058
I1063
tp22
a(S'5ht7'
p23
I542
I547
tp24
atp25
Rp26
sS'raw_text_methods'
p27
g3
((lp28
S"(3, u'\\\\bimmunoreactiv')"
p29
aS"(11, u'\\\\bfluoxetine')"
p30
atp31
Rp32
sS'regions'
p33
g3
((lp34
tp35
Rp36
sS'year'
p37
V1999
p38
sS'species'
p39
g3
((lp40
S"(4, u'(?i)\\\\b(rats|rat)\\\\b')"
p41
atp42
Rp43
sb.