(ifile_types
ParseObject
p0
(dp1
S'methods'
p2
c__builtin__
set
p3
((lp4
S'Method.PET'
p5
aS'Method.ANTAGONIST'
p6
atp7
Rp8
sS'topics'
p9
g3
((lp10
tp11
Rp12
sS'receptors'
p13
g3
((lp14
(S'5ht1a'
p15
I1681
I1686
tp16
a(S'5ht1'
p17
I1793
I1797
tp18
a(S'5ht1a'
p19
I555
I560
tp20
a(S'5ht1a'
p21
I75
I80
tp22
atp23
Rp24
sS'raw_text_methods'
p25
g3
((lp26
S"(51, u'\\\\bway100635')"
p27
aS"(19, u'\\\\bpositron emission tomography')"
p28
aS"(12, u'\\\\bantagonist')"
p29
atp30
Rp31
sS'regions'
p32
g3
((lp33
tp34
Rp35
sS'year'
p36
V2007
p37
sS'species'
p38
g3
((lp39
tp40
Rp41
sb.