(ifile_types
ParseObject
p0
(dp1
S'antagonists'
p2
c__builtin__
set
p3
((lp4
S"(102, u'\\\\bfluoxetine')"
p5
atp6
Rp7
sS'methods'
p8
g3
((lp9
S'Method.AGONIST'
p10
atp11
Rp12
sS'topics'
p13
g3
((lp14
S"(9, u'\\\\bdepress')"
p15
aS"(11, u'\\\\banxiolyt')"
p16
atp17
Rp18
sS'receptors'
p19
g3
((lp20
S'5ht1a'
p21
aS'5ht5'
p22
atp23
Rp24
sS'regions'
p25
g3
((lp26
S"(34, u'(?i)(pon|pons)')"
p27
atp28
Rp29
sS'year'
p30
V1994
p31
sS'agonists'
p32
g3
((lp33
S"(92, u'\\\\b8 ?oh ?dpat')"
p34
aS"(50, u'\\\\bipsapirone')"
p35
atp36
Rp37
sS'species'
p38
g3
((lp39
S"(4163, u'(?i)(ermines|ermine)')"
p40
aS"(5958, u'(?i)(rats|rat)')"
p41
aS"(6753, u'(?i)(da|das)')"
p42
aS"(468, u'(?i)(oxen|ox)')"
p43
aS"(5967, u'(?i)(males|male)')"
p44
aS"(2866, u'(?i)(sables|sable)')"
p45
aS"(1349, u'(?i)(rams|ram)')"
p46
aS"(1055, u'(?i)(men|man)')"
p47
aS"(6356, u'(?i)(ais|ai)')"
p48
aS"(6249, u'(?i)(ants|ant)')"
p49
aS"(3522, u'(?i)(tetras|tetra)')"
p50
aS"(1057, u'(?i)(humans|human)')"
p51
aS"(3812, u'(?i)(studs|stud)')"
p52
aS"(3196, u'(?i)(human|humans)')"
p53
atp54
Rp55
sb.