(ifile_types
ParseObject
p0
(dp1
S'methods'
p2
c__builtin__
set
p3
((lp4
S'Method.AGONIST'
p5
atp6
Rp7
sS'topics'
p8
g3
((lp9
tp10
Rp11
sS'receptors'
p12
g3
((lp13
(S'5ht1a'
p14
I689
I695
tp15
a(S'5ht1a'
p16
I1972
I1978
tp17
a(S'5ht1a'
p18
I913
I919
tp19
a(S'5ht1a'
p20
I330
I336
tp21
a(S'5ht1a'
p22
I84
I95
tp23
a(S'5ht1a'
p24
I1129
I1135
tp25
a(S'5ht1a'
p26
I1866
I1872
tp27
a(S'5ht1a'
p28
I1734
I1740
tp29
a(S'5ht1a'
p30
I461
I467
tp31
a(S'5ht1a'
p32
I813
I819
tp33
a(S'5ht1a'
p34
I1262
I1268
tp35
atp36
Rp37
sS'raw_text_methods'
p38
g3
((lp39
S"(13, u'\\\\bagonist')"
p40
atp41
Rp42
sS'regions'
p43
g3
((lp44
tp45
Rp46
sS'year'
p47
V2013
p48
sS'species'
p49
g3
((lp50
tp51
Rp52
sb.