(ifile_types
ParseObject
p0
(dp1
S'methods'
p2
c__builtin__
set
p3
((lp4
tp5
Rp6
sS'topics'
p7
g3
((lp8
tp9
Rp10
sS'receptors'
p11
g3
((lp12
(S'5ht2c'
p13
I1724
I1730
tp14
atp15
Rp16
sS'raw_text_methods'
p17
g3
((lp18
tp19
Rp20
sS'regions'
p21
g3
((lp22
S"(19, u'(?i)\\\\b(cortexes|cortex)\\\\b')"
p23
aS"(17, u'(?i)\\\\b(caudates|caudate)\\\\b')"
p24
aS"(18, u'(?i)\\\\b(putamens|putamen)\\\\b')"
p25
atp26
Rp27
sS'year'
p28
V1996
p29
sS'species'
p30
g3
((lp31
S"(6, u'(?i)\\\\b(rodents|rodent)\\\\b')"
p32
aS"(8, u'(?i)\\\\b(primates|primate)\\\\b')"
p33
aS"(4, u'(?i)\\\\b(rats|rat)\\\\b')"
p34
atp35
Rp36
sb.