(ifile_types
ParseObject
p0
(dp1
S'methods'
p2
c__builtin__
set
p3
((lp4
tp5
Rp6
sS'topics'
p7
g3
((lp8
S"(13, u'\\\\bantidepress')"
p9
aS"(4, u'\\\\btreatment')"
p10
atp11
Rp12
sS'receptors'
p13
g3
((lp14
(S'5ht1a'
p15
I693
I699
tp16
atp17
Rp18
sS'raw_text_methods'
p19
g3
((lp20
tp21
Rp22
sS'regions'
p23
g3
((lp24
S"(19, u'(?i)\\\\b(cortexes|cortex)\\\\b')"
p25
atp26
Rp27
sS'year'
p28
V1989
p29
sS'species'
p30
g3
((lp31
S"(4, u'(?i)\\\\b(rats|rat)\\\\b')"
p32
atp33
Rp34
sb.