(ifile_types
ParseObject
p0
(dp1
S'antagonists'
p2
c__builtin__
set
p3
((lp4
S"(102, u'\\\\bfluoxetine')"
p5
atp6
Rp7
sS'methods'
p8
g3
((lp9
tp10
Rp11
sS'topics'
p12
g3
((lp13
S"(16, u'\\\\bfeed')"
p14
atp15
Rp16
sS'receptors'
p17
g3
((lp18
S'5ht1a'
p19
aS'5ht2a'
p20
atp21
Rp22
sS'regions'
p23
g3
((lp24
S"(126, u'(?i)(thalamuses|thalamus)')"
p25
aS"(34, u'(?i)(pon|pons)')"
p26
atp27
Rp28
sS'year'
p29
V2012
p30
sS'agonists'
p31
g3
((lp32
S"(33, u'\\\\bdoi')"
p33
atp34
Rp35
sS'species'
p36
g3
((lp37
S"(7058, u'(?i)(does|doe)')"
p38
aS"(6753, u'(?i)(da|das)')"
p39
aS"(5958, u'(?i)(rats|rat)')"
p40
aS"(4979, u'(?i)(cats|cat)')"
p41
aS"(479, u'(?i)(lings|ling)')"
p42
aS"(468, u'(?i)(oxen|ox)')"
p43
aS"(1055, u'(?i)(men|man)')"
p44
aS"(6249, u'(?i)(ants|ant)')"
p45
aS"(6215, u'(?i)(racers|racer)')"
p46
aS"(3812, u'(?i)(studs|stud)')"
p47
aS"(3550, u'(?i)(anis|ani)')"
p48
aS"(1057, u'(?i)(humans|human)')"
p49
aS"(1961, u'(?i)(pens|pen)')"
p50
aS"(1414, u'(?i)(chars|char)')"
p51
aS"(3196, u'(?i)(human|humans)')"
p52
aS"(5674, u'(?i)(ewes|ewe)')"
p53
atp54
Rp55
sb.