(ifile_types
ParseObject
p0
(dp1
S'methods'
p2
c__builtin__
set
p3
((lp4
S'Method.ANTAGONIST'
p5
aS'Method.AGONIST'
p6
atp7
Rp8
sS'topics'
p9
g3
((lp10
S"(13, u'\\\\bantidepress')"
p11
aS"(2, u'\\\\bdisorder')"
p12
aS"(7, u'\\\\bdepressi')"
p13
aS"(34, u'\\\\bparkinson')"
p14
aS"(5, u'\\\\btherap')"
p15
aS"(26, u'\\\\bbehav')"
p16
aS"(4, u'\\\\btreatment')"
p17
aS"(3, u'\\\\bclinical')"
p18
atp19
Rp20
sS'receptors'
p21
g3
((lp22
(S'5ht1a'
p23
I217
I228
tp24
a(S'5ht1a'
p25
I231
I237
tp26
a(S'5ht1a'
p27
I469
I475
tp28
a(S'5ht1a'
p29
I1606
I1612
tp30
a(S'5ht1a'
p31
I1263
I1269
tp32
a(S'5ht1a'
p33
I653
I659
tp34
a(S'5ht1a'
p35
I47
I53
tp36
atp37
Rp38
sS'raw_text_methods'
p39
g3
((lp40
S"(13, u'\\\\bagonist')"
p41
aS"(15, u'\\\\b8ohdpat')"
p42
aS"(32, u'\\\\blesions')"
p43
aS"(12, u'\\\\bantagonist')"
p44
atp45
Rp46
sS'regions'
p47
g3
((lp48
S"(19, u'(?i)\\\\b(cortexes|cortex)\\\\b')"
p49
aS"(3, u'(?i)\\\\b(postsynaptics|postsynaptic)\\\\b')"
p50
atp51
Rp52
sS'year'
p53
V2006
p54
sS'species'
p55
g3
((lp56
S"(4, u'(?i)\\\\b(rats|rat)\\\\b')"
p57
atp58
Rp59
sb.