(ifile_types
ParseObject
p0
(dp1
S'antagonists'
p2
c__builtin__
set
p3
((lp4
S"(146, u'\\\\bgr ?125487')"
p5
atp6
Rp7
sS'methods'
p8
g3
((lp9
S'Method.ANTAGONIST'
p10
aS'Method.AGONIST'
p11
atp12
Rp13
sS'topics'
p14
g3
((lp15
S"(8, u'\\\\blearning')"
p16
aS"(33, u'\\\\balzheimers')"
p17
aS"(6, u'\\\\bcognit')"
p18
aS"(7, u'\\\\bmemory')"
p19
atp20
Rp21
sS'receptors'
p22
g3
((lp23
S'5ht4'
p24
atp25
Rp26
sS'regions'
p27
g3
((lp28
tp29
Rp30
sS'year'
p31
V2001
p32
sS'agonists'
p33
g3
((lp34
S"(205, u'\\\\brs ?67333')"
p35
aS"(149, u'\\\\bmem')"
p36
atp37
Rp38
sS'species'
p39
g3
((lp40
S"(4091, u'(?i)\\\\b(adults|adult)\\\\b')"
p41
aS"(5958, u'(?i)\\\\b(rats|rat)\\\\b')"
p42
aS"(3247, u'(?i)\\\\b(youngs|young)\\\\b')"
p43
atp44
Rp45
sb.