(ifile_types
ParseObject
p0
(dp1
S'antagonists'
p2
c__builtin__
set
p3
((lp4
tp5
Rp6
sS'methods'
p7
g3
((lp8
S'Method.AGONIST'
p9
atp10
Rp11
sS'topics'
p12
g3
((lp13
S"(17, u'\\\\bgroom')"
p14
aS"(18, u'\\\\bpsychostim')"
p15
atp16
Rp17
sS'receptors'
p18
g3
((lp19
S'5ht2c'
p20
atp21
Rp22
sS'regions'
p23
g3
((lp24
S"(221, u'(?i)\\\\b(dorsals|dorsal)(-|\\\\s+)?(striatums|striatum)\\\\b')"
p25
aS"(220, u'(?i)\\\\b(striatums|striatum)\\\\b')"
p26
aS"(103, u'(?i)\\\\b(substantias|substantia)(-|\\\\s+)?(nigras|nigra)\\\\b')"
p27
aS"(104, u'(?i)\\\\b(par|pars)(-|\\\\s+)?(compactas|compacta)\\\\b')"
p28
aS"(226, u'(?i)\\\\b(nuclei|nucleus)(-|\\\\s+)?(accumben|accumbens)\\\\b')"
p29
atp30
Rp31
sS'year'
p32
V2009
p33
sS'agonists'
p34
g3
((lp35
S"(149, u'\\\\bmem')"
p36
atp37
Rp38
sS'species'
p39
g3
((lp40
S"(2395, u'(?i)\\\\b(mutants|mutant)\\\\b')"
p41
aS"(163, u'(?i)\\\\b(mice|mouse)\\\\b')"
p42
atp43
Rp44
sb.