(ifile_types
ParseObject
p0
(dp1
S'methods'
p2
c__builtin__
set
p3
((lp4
S'Method.ANTAGONIST'
p5
aS'Method.AGONIST'
p6
atp7
Rp8
sS'topics'
p9
g3
((lp10
tp11
Rp12
sS'receptors'
p13
g3
((lp14
(S'5ht2'
p15
I1400
I1405
tp16
a(S'5ht1a'
p17
I1456
I1462
tp18
a(S'5ht1'
p19
I1344
I1349
tp20
a(S'5ht2'
p21
I1354
I1359
tp22
atp23
Rp24
sS'raw_text_methods'
p25
g3
((lp26
S"(7, u'\\\\bpropranolol')"
p27
aS"(21, u'\\\\bipsapirone')"
p28
aS"(15, u'\\\\b8ohdpat')"
p29
aS"(13, u'\\\\bagonist')"
p30
aS"(9, u'\\\\britanserin')"
p31
aS"(12, u'\\\\bantagonist')"
p32
atp33
Rp34
sS'regions'
p35
g3
((lp36
tp37
Rp38
sS'year'
p39
V1990
p40
sS'species'
p41
g3
((lp42
S"(7, u'(?i)\\\\b(guineas|guinea)(-|\\\\s+)?(pigs|pig)\\\\b')"
p43
atp44
Rp45
sb.