(ifile_types
ParseObject
p0
(dp1
S'methods'
p2
c__builtin__
set
p3
((lp4
S'Method.ANTAGONIST'
p5
aS'Method.AGONIST'
p6
atp7
Rp8
sS'topics'
p9
g3
((lp10
tp11
Rp12
sS'receptors'
p13
g3
((lp14
(S'5ht1b'
p15
I227
I233
tp16
a(S'5ht1'
p17
I1556
I1561
tp18
a(S'5ht1d'
p19
I1438
I1444
tp20
a(S'5ht1b'
p21
I540
I546
tp22
a(S'5ht1a'
p23
I598
I604
tp24
a(S'5ht1d'
p25
I800
I808
tp26
a(S'5ht1b'
p27
I800
I806
tp28
a(S'5ht1b'
p29
I115
I121
tp30
a(S'5ht1b'
p31
I1263
I1269
tp32
a(S'5ht1d'
p33
I540
I548
tp34
atp35
Rp36
sS'raw_text_methods'
p37
g3
((lp38
S"(13, u'\\\\bagonist')"
p39
aS"(12, u'\\\\bantagonist')"
p40
atp41
Rp42
sS'regions'
p43
g3
((lp44
S"(15, u'(?i)\\\\b(substantias|substantia)(-|\\\\s+)?(nigras|nigra)\\\\b')"
p45
aS"(19, u'(?i)\\\\b(cortexes|cortex)\\\\b')"
p46
aS"(17, u'(?i)\\\\b(caudates|caudate)\\\\b')"
p47
aS"(7, u'(?i)\\\\b(entorhinals|entorhinal)\\\\b')"
p48
aS"(18, u'(?i)\\\\b(putamens|putamen)\\\\b')"
p49
atp50
Rp51
sS'year'
p52
V2005
p53
sS'species'
p54
g3
((lp55
tp56
Rp57
sb.