(ifile_types
ParseObject
p0
(dp1
S'methods'
p2
c__builtin__
set
p3
((lp4
S'Method.ANTAGONIST'
p5
aS'Method.AGONIST'
p6
atp7
Rp8
sS'topics'
p9
g3
((lp10
S"(34, u'\\\\bparkinson')"
p11
aS"(2, u'\\\\bdisorder')"
p12
atp13
Rp14
sS'receptors'
p15
g3
((lp16
(S'5ht1a'
p17
I121
I127
tp18
a(S'5ht1a'
p19
I241
I247
tp20
a(S'5ht1a'
p21
I1253
I1259
tp22
a(S'5ht1a'
p23
I1626
I1632
tp24
a(S'5ht1a'
p25
I1462
I1468
tp26
a(S'5ht1a'
p27
I545
I550
tp28
a(S'5ht1a'
p29
I627
I632
tp30
atp31
Rp32
sS'raw_text_methods'
p33
g3
((lp34
S"(13, u'\\\\bagonist')"
p35
aS"(15, u'\\\\b8ohdpat')"
p36
aS"(41, u'\\\\bhaloperidol')"
p37
aS"(22, u'\\\\bbuspirone')"
p38
aS"(12, u'\\\\bantagonist')"
p39
atp40
Rp41
sS'regions'
p42
g3
((lp43
tp44
Rp45
sS'year'
p46
V2010
p47
sS'species'
p48
g3
((lp49
S"(1, u'(?i)\\\\b(mice|mouse)\\\\b')"
p50
aS"(5, u'(?i)\\\\b(mices|mice)\\\\b')"
p51
aS"(3, u'(?i)\\\\b(males|male)\\\\b')"
p52
atp53
Rp54
sb.