(ifile_types
ParseObject
p0
(dp1
S'methods'
p2
c__builtin__
set
p3
((lp4
S'Method.ANTAGONIST'
p5
aS'Method.AGONIST'
p6
atp7
Rp8
sS'topics'
p9
g3
((lp10
S"(4, u'\\\\btreatment')"
p11
atp12
Rp13
sS'receptors'
p14
g3
((lp15
(S'5ht2a'
p16
I1865
I1871
tp17
a(S'5ht2a'
p18
I1649
I1655
tp19
a(S'5ht2c'
p20
I77
I83
tp21
a(S'5ht2a'
p22
I1751
I1757
tp23
a(S'5ht2c'
p24
I1879
I1885
tp25
a(S'5ht2c'
p26
I160
I168
tp27
a(S'5ht2c'
p28
I1758
I1764
tp29
a(S'5ht2a'
p30
I160
I166
tp31
a(S'5ht2c'
p32
I1660
I1666
tp33
a(S'5ht2a'
p34
I66
I72
tp35
atp36
Rp37
sS'raw_text_methods'
p38
g3
((lp39
S"(33, u'\\\\bmcpp')"
p40
aS"(13, u'\\\\bagonist')"
p41
aS"(49, u'\\\\bdoi')"
p42
aS"(12, u'\\\\bantagonist')"
p43
aS"(9, u'\\\\britanserin')"
p44
aS"(45, u'\\\\bmetergoline')"
p45
atp46
Rp47
sS'regions'
p48
g3
((lp49
tp50
Rp51
sS'year'
p52
V1997
p53
sS'species'
p54
g3
((lp55
tp56
Rp57
sb.