(ifile_types
ParseObject
p0
(dp1
S'methods'
p2
c__builtin__
set
p3
((lp4
S'Method.PET'
p5
atp6
Rp7
sS'topics'
p8
g3
((lp9
tp10
Rp11
sS'receptors'
p12
g3
((lp13
(S'5ht1b'
p14
I1319
I1325
tp15
a(S'5ht5'
p16
I223
I233
tp17
a(S'5ht1b'
p18
I1210
I1216
tp19
a(S'5ht1b'
p20
I367
I373
tp21
a(S'5ht1b'
p22
I853
I859
tp23
atp24
Rp25
sS'raw_text_methods'
p26
g3
((lp27
S"(17, u'\\\\bpet')"
p28
aS"(18, u'\\\\bimaging')"
p29
atp30
Rp31
sS'regions'
p32
g3
((lp33
S"(19, u'(?i)\\\\b(cortexes|cortex)\\\\b')"
p34
aS"(18, u'(?i)\\\\b(putamens|putamen)\\\\b')"
p35
atp36
Rp37
sS'year'
p38
V2012
p39
sS'species'
p40
g3
((lp41
tp42
Rp43
sb.