(ifile_types
ParseObject
p0
(dp1
S'antagonists'
p2
c__builtin__
set
p3
((lp4
S"(139, u'\\\\bmetoclopramide')"
p5
aS"(105, u'\\\\bmethysergide')"
p6
aS"(141, u'\\\\bzacopride')"
p7
atp8
Rp9
sS'methods'
p10
g3
((lp11
S'Method.ANTAGONIST'
p12
aS'Method.AGONIST'
p13
atp14
Rp15
sS'topics'
p16
g3
((lp17
S"(28, u'\\\\bemesis')"
p18
atp19
Rp20
sS'receptors'
p21
g3
((lp22
S'5ht3'
p23
aS'5ht2'
p24
aS'5ht1'
p25
atp26
Rp27
sS'regions'
p28
g3
((lp29
S"(362, u'(?i)(brains|brain)(-|\\\\s+)?(stems|stem)')"
p30
aS"(32, u'(?i)(hypoglossals|hypoglossal)(-|\\\\s+)?(nuclei|nucleus)')"
p31
aS"(27, u'(?i)(areas|area)(-|\\\\s+)?(postremas|postrema)')"
p32
atp33
Rp34
sS'year'
p35
V1990
p36
sS'agonists'
p37
g3
((lp38
S"(212, u'\\\\bzacopride')"
p39
aS"(60, u'\\\\bmethysergide')"
p40
aS"(213, u'\\\\bmetoclopramide')"
p41
atp42
Rp43
sS'species'
p44
g3
((lp45
S"(1070, u'(?i)(pets|pet)')"
p46
aS"(5958, u'(?i)(rats|rat)')"
p47
aS"(81, u'(?i)(asps|asp)')"
p48
aS"(1349, u'(?i)(rams|ram)')"
p49
aS"(1055, u'(?i)(men|man)')"
p50
aS"(1054, u'(?i)(homoes|homo)')"
p51
aS"(4979, u'(?i)(cats|cat)')"
p52
aS"(6249, u'(?i)(ants|ant)')"
p53
aS"(1057, u'(?i)(humans|human)')"
p54
aS"(3812, u'(?i)(studs|stud)')"
p55
aS"(3196, u'(?i)(human|humans)')"
p56
aS"(6356, u'(?i)(ais|ai)')"
p57
aS"(5783, u'(?i)(hinds|hind)')"
p58
atp59
Rp60
sb.