(ifile_types
ParseObject
p0
(dp1
S'antagonists'
p2
c__builtin__
set
p3
((lp4
S"(209, u'\\\\btfmpp')"
p5
aS"(30, u'\\\\buh ?301')"
p6
atp7
Rp8
sS'methods'
p9
g3
((lp10
S'Method.ANTAGONIST'
p11
aS'Method.AGONIST'
p12
atp13
Rp14
sS'topics'
p15
g3
((lp16
S"(9, u'\\\\bdepress')"
p17
atp18
Rp19
sS'receptors'
p20
g3
((lp21
S'5ht1b'
p22
aS'5ht1a'
p23
aS'5ht3a'
p24
aS'5ht2a'
p25
atp26
Rp27
sS'regions'
p28
g3
((lp29
S"(105, u'(?i)(par|pars)(-|\\\\s+)?(reticulatas|reticulata)')"
p30
aS"(103, u'(?i)(substantias|substantia)(-|\\\\s+)?(nigras|nigra)')"
p31
atp32
Rp33
sS'year'
p34
V1993
p35
sS'agonists'
p36
g3
((lp37
S"(161, u'\\\\bmcpp')"
p38
aS"(92, u'\\\\b8 ?oh ?dpat')"
p39
aS"(8, u'\\\\b5 ?meo ?dmt')"
p40
aS"(183, u'\\\\btfmpp')"
p41
atp42
Rp43
sS'species'
p44
g3
((lp45
S"(2568, u'(?i)(hens|hen)')"
p46
aS"(3137, u'(?i)(iguanids|iguanid)')"
p47
aS"(5958, u'(?i)(rats|rat)')"
p48
aS"(4201, u'(?i)(kines|kine)')"
p49
aS"(6682, u'(?i)(tera|teras)')"
p50
aS"(468, u'(?i)(oxen|ox)')"
p51
aS"(1055, u'(?i)(men|man)')"
p52
aS"(6249, u'(?i)(ants|ant)')"
p53
aS"(3550, u'(?i)(anis|ani)')"
p54
aS"(3522, u'(?i)(tetras|tetra)')"
p55
aS"(1961, u'(?i)(pens|pen)')"
p56
aS"(6878, u'(?i)(guans|guan)')"
p57
atp58
Rp59
sb.