(ifile_types
ParseObject
p0
(dp1
S'antagonists'
p2
c__builtin__
set
p3
((lp4
S"(91, u'\\\\bfluoxetine')"
p5
atp6
Rp7
sS'methods'
p8
g3
((lp9
tp10
Rp11
sS'topics'
p12
g3
((lp13
S"(30, u'\\\\bparkinsons')"
p14
aS"(6, u'\\\\bcognit')"
p15
aS"(9, u'\\\\bdepress')"
p16
aS"(10, u'\\\\banxiety')"
p17
aS"(1, u'\\\\bmood')"
p18
atp19
Rp20
sS'receptors'
p21
g3
((lp22
S'5ht1a'
p23
atp24
Rp25
sS'regions'
p26
g3
((lp27
tp28
Rp29
sS'year'
p30
V2012
p31
sS'agonists'
p32
g3
((lp33
tp34
Rp35
sS'species'
p36
g3
((lp37
S"(5799, u'(?i)\\\\b(rodents|rodent)\\\\b')"
p38
aS"(4091, u'(?i)\\\\b(adults|adult)\\\\b')"
p39
aS"(163, u'(?i)\\\\b(mice|mouse)\\\\b')"
p40
atp41
Rp42
sb.