(ifile_types
ParseObject
p0
(dp1
S'methods'
p2
c__builtin__
set
p3
((lp4
S'Method.AGONIST'
p5
atp6
Rp7
sS'topics'
p8
g3
((lp9
tp10
Rp11
sS'receptors'
p12
g3
((lp13
(S'5ht2a'
p14
I68
I74
tp15
a(S'5ht2a'
p16
I1654
I1660
tp17
a(S'5ht2a'
p18
I651
I657
tp19
a(S'5ht2a'
p20
I449
I455
tp21
a(S'5ht1a'
p22
I308
I314
tp23
atp24
Rp25
sS'raw_text_methods'
p26
g3
((lp27
S"(13, u'\\\\bagonist')"
p28
aS"(49, u'\\\\bdoi')"
p29
atp30
Rp31
sS'regions'
p32
g3
((lp33
S"(19, u'(?i)\\\\b(cortexes|cortex)\\\\b')"
p34
aS"(3, u'(?i)\\\\b(postsynaptics|postsynaptic)\\\\b')"
p35
atp36
Rp37
sS'year'
p38
V2000
p39
sS'species'
p40
g3
((lp41
S"(2, u'(?i)\\\\b(females|female)\\\\b')"
p42
aS"(3, u'(?i)\\\\b(males|male)\\\\b')"
p43
aS"(4, u'(?i)\\\\b(rats|rat)\\\\b')"
p44
atp45
Rp46
sb.