(ifile_types
ParseObject
p0
(dp1
S'methods'
p2
c__builtin__
set
p3
((lp4
S'Method.ANTAGONIST'
p5
atp6
Rp7
sS'topics'
p8
g3
((lp9
tp10
Rp11
sS'receptors'
p12
g3
((lp13
(S'5ht3'
p14
I263
I268
tp15
a(S'5ht3'
p16
I116
I121
tp17
atp18
Rp19
sS'raw_text_methods'
p20
g3
((lp21
S"(23, u'\\\\bmdl')"
p22
aS"(12, u'\\\\bantagonist')"
p23
atp24
Rp25
sS'regions'
p26
g3
((lp27
S"(11, u'(?i)\\\\b(cerebrals|cerebral)\\\\b')"
p28
aS"(19, u'(?i)\\\\b(cortexes|cortex)\\\\b')"
p29
atp30
Rp31
sS'year'
p32
V2007
p33
sS'species'
p34
g3
((lp35
S"(4, u'(?i)\\\\b(rats|rat)\\\\b')"
p36
atp37
Rp38
sb.