(ifile_types
ParseObject
p0
(dp1
S'methods'
p2
c__builtin__
set
p3
((lp4
S'Method.ANTAGONIST'
p5
atp6
Rp7
sS'topics'
p8
g3
((lp9
S"(5, u'\\\\btherap')"
p10
atp11
Rp12
sS'receptors'
p13
g3
((lp14
(S'5ht2a'
p15
I1796
I1802
tp16
a(S'5ht1a'
p17
I1785
I1791
tp18
a(S'5ht2c'
p19
I1516
I1524
tp20
a(S'5ht1a'
p21
I1619
I1625
tp22
a(S'5ht1a'
p23
I2025
I2031
tp24
a(S'5ht2a'
p25
I1516
I1522
tp26
a(S'5ht2c'
p27
I1868
I1874
tp28
a(S'5ht2a'
p29
I2036
I2042
tp30
atp31
Rp32
sS'raw_text_methods'
p33
g3
((lp34
S"(53, u'\\\\bketanserin')"
p35
aS"(11, u'\\\\bfluoxetine')"
p36
aS"(22, u'\\\\bbuspirone')"
p37
aS"(12, u'\\\\bantagonist')"
p38
atp39
Rp40
sS'regions'
p41
g3
((lp42
tp43
Rp44
sS'year'
p45
V2019
p46
sS'species'
p47
g3
((lp48
S"(4, u'(?i)\\\\b(rats|rat)\\\\b')"
p49
atp50
Rp51
sb.