(ifile_types
ParseObject
p0
(dp1
S'methods'
p2
c__builtin__
set
p3
((lp4
tp5
Rp6
sS'topics'
p7
g3
((lp8
S"(22, u'\\\\bschizophreni')"
p9
aS"(4, u'\\\\btreatment')"
p10
atp11
Rp12
sS'receptors'
p13
g3
((lp14
(S'5ht2a'
p15
I1488
I1499
tp16
a(S'5ht2a'
p17
I867
I878
tp18
a(S'5ht2a'
p19
I767
I778
tp20
a(S'5ht2a'
p21
I188
I199
tp22
a(S'5ht2a'
p23
I363
I374
tp24
a(S'5ht2a'
p25
I62
I73
tp26
atp27
Rp28
sS'raw_text_methods'
p29
g3
((lp30
S"(2, u'\\\\blabeling')"
p31
aS"(3, u'\\\\bimmunoreactiv')"
p32
atp33
Rp34
sS'regions'
p35
g3
((lp36
S"(20, u'(?i)\\\\b(prefrontals|prefrontal)\\\\b')"
p37
aS"(19, u'(?i)\\\\b(cortexes|cortex)\\\\b')"
p38
aS"(4, u'(?i)\\\\b(presynaptics|presynaptic)\\\\b')"
p39
aS"(3, u'(?i)\\\\b(postsynaptics|postsynaptic)\\\\b')"
p40
atp41
Rp42
sS'year'
p43
V2003
p44
sS'species'
p45
g3
((lp46
S"(4, u'(?i)\\\\b(rats|rat)\\\\b')"
p47
atp48
Rp49
sb.