(ifile_types
ParseObject
p0
(dp1
S'methods'
p2
c__builtin__
set
p3
((lp4
tp5
Rp6
sS'topics'
p7
g3
((lp8
S"(22, u'\\\\bschizophreni')"
p9
aS"(7, u'\\\\bdepressi')"
p10
aS"(13, u'\\\\bantidepress')"
p11
aS"(4, u'\\\\btreatment')"
p12
aS"(2, u'\\\\bdisorder')"
p13
atp14
Rp15
sS'receptors'
p16
g3
((lp17
(S'5ht2a'
p18
I281
I287
tp19
a(S'5ht2'
p20
I928
I933
tp21
a(S'5ht2'
p22
I1824
I1829
tp23
a(S'5ht2'
p24
I1352
I1357
tp25
a(S'5ht2'
p26
I603
I608
tp27
a(S'5ht2a'
p28
I44
I50
tp29
a(S'5ht2'
p30
I1868
I1873
tp31
a(S'5ht2'
p32
I1642
I1647
tp33
a(S'5ht2'
p34
I289
I294
tp35
atp36
Rp37
sS'raw_text_methods'
p38
g3
((lp39
S"(53, u'\\\\bketanserin')"
p40
atp41
Rp42
sS'regions'
p43
g3
((lp44
S"(20, u'(?i)\\\\b(prefrontals|prefrontal)\\\\b')"
p45
aS"(19, u'(?i)\\\\b(cortexes|cortex)\\\\b')"
p46
atp47
Rp48
sS'year'
p49
V2014
p50
sS'species'
p51
g3
((lp52
S"(4, u'(?i)\\\\b(rats|rat)\\\\b')"
p53
atp54
Rp55
sb.