(ifile_types
ParseObject
p0
(dp1
S'methods'
p2
c__builtin__
set
p3
((lp4
tp5
Rp6
sS'topics'
p7
g3
((lp8
S"(2, u'\\\\bdisorder')"
p9
aS"(7, u'\\\\bdepressi')"
p10
aS"(15, u'\\\\bmemory')"
p11
aS"(5, u'\\\\btherap')"
p12
aS"(8, u'\\\\banxi')"
p13
aS"(4, u'\\\\btreatment')"
p14
aS"(3, u'\\\\bclinical')"
p15
atp16
Rp17
sS'receptors'
p18
g3
((lp19
(S'5ht1'
p20
I652
I658
tp21
a(S'5ht1b'
p22
I664
I670
tp23
a(S'5ht2a'
p24
I637
I643
tp25
a(S'5ht1a'
p26
I652
I658
tp27
atp28
Rp29
sS'raw_text_methods'
p30
g3
((lp31
S"(1, u'\\\\bneuroimag')"
p32
aS"(39, u'\\\\bselective serotonin reuptake inhibitor')"
p33
atp34
Rp35
sS'regions'
p36
g3
((lp37
S"(22, u'(?i)\\\\b(anteriors|anterior)(-|\\\\s+)?(cingulates|cingulate)\\\\b')"
p38
aS"(20, u'(?i)\\\\b(prefrontals|prefrontal)\\\\b')"
p39
aS"(19, u'(?i)\\\\b(cortexes|cortex)\\\\b')"
p40
atp41
Rp42
sS'year'
p43
V2012
p44
sS'species'
p45
g3
((lp46
tp47
Rp48
sb.