(ifile_types
ParseObject
p0
(dp1
S'antagonists'
p2
c__builtin__
set
p3
((lp4
S"(23, u'\\\\brisperidone')"
p5
aS"(32, u'\\\\bway ?100635')"
p6
aS"(123, u'\\\\bclozapine')"
p7
aS"(56, u'\\\\bclozapine')"
p8
aS"(142, u'\\\\bm1')"
p9
aS"(59, u'\\\\brisperidone')"
p10
atp11
Rp12
sS'methods'
p13
g3
((lp14
S'Method.ANTAGONIST'
p15
aS'Method.AGONIST'
p16
atp17
Rp18
sS'topics'
p19
g3
((lp20
S"(15, u'\\\\bschizophreni')"
p21
aS"(6, u'\\\\bcognit')"
p22
atp23
Rp24
sS'receptors'
p25
g3
((lp26
S'5ht1a'
p27
atp28
Rp29
sS'regions'
p30
g3
((lp31
S"(254, u'(?i)(prefrontals|prefrontal)(-|\\\\s+)?(cortexes|cortex)')"
p32
aS"(255, u'(?i)(pres|pre)(-|\\\\s+)?(frontals|frontal)(-|\\\\s+)?(cortexes|cortex)')"
p33
aS"(34, u'(?i)(pon|pons)')"
p34
atp35
Rp36
sS'year'
p37
V2007
p38
sS'agonists'
p39
g3
((lp40
S"(181, u'\\\\bdom')"
p41
aS"(27, u'\\\\bclozapine')"
p42
atp43
Rp44
sS'species'
p45
g3
((lp46
S"(5537, u'(?i)(hippos|hippo)')"
p47
aS"(2568, u'(?i)(hens|hen)')"
p48
aS"(5743, u'(?i)(bots|bot)')"
p49
aS"(468, u'(?i)(oxen|ox)')"
p50
aS"(1055, u'(?i)(men|man)')"
p51
aS"(6249, u'(?i)(ants|ant)')"
p52
aS"(2334, u'(?i)(eels|eel)')"
p53
aS"(4979, u'(?i)(cats|cat)')"
p54
aS"(5958, u'(?i)(rats|rat)')"
p55
aS"(3812, u'(?i)(studs|stud)')"
p56
aS"(6356, u'(?i)(ais|ai)')"
p57
atp58
Rp59
sb.