(ifile_types
ParseObject
p0
(dp1
S'antagonists'
p2
c__builtin__
set
p3
((lp4
S"(45, u'\\\\bgr ?127935')"
p5
atp6
Rp7
sS'methods'
p8
g3
((lp9
S'Method.ANTAGONIST'
p10
aS'Method.AGONIST'
p11
atp12
Rp13
sS'topics'
p14
g3
((lp15
S"(9, u'\\\\bdepress')"
p16
aS"(12, u'\\\\banxiogen')"
p17
aS"(10, u'\\\\banxiety')"
p18
aS"(4, u'\\\\blocomot')"
p19
atp20
Rp21
sS'receptors'
p22
g3
((lp23
S'5ht1b'
p24
aS'5ht1d'
p25
atp26
Rp27
sS'regions'
p28
g3
((lp29
S"(34, u'(?i)(pon|pons)')"
p30
atp31
Rp32
sS'year'
p33
V2002
p34
sS'agonists'
p35
g3
((lp36
S"(108, u'\\\\bcp ?94253')"
p37
atp38
Rp39
sS'species'
p40
g3
((lp41
S"(2323, u'(?i)(bees|bee)')"
p42
aS"(4624, u'(?i)(apes|ape)')"
p43
aS"(2568, u'(?i)(hens|hen)')"
p44
aS"(7552, u'(?i)(bats|bat)')"
p45
aS"(468, u'(?i)(oxen|ox)')"
p46
aS"(1055, u'(?i)(men|man)')"
p47
aS"(6249, u'(?i)(ants|ant)')"
p48
aS"(4979, u'(?i)(cats|cat)')"
p49
aS"(5958, u'(?i)(rats|rat)')"
p50
aS"(3522, u'(?i)(tetras|tetra)')"
p51
aS"(7094, u'(?i)(curs|cur)')"
p52
aS"(1961, u'(?i)(pens|pen)')"
p53
aS"(3812, u'(?i)(studs|stud)')"
p54
aS"(1795, u'(?i)(mounts|mount)')"
p55
aS"(6356, u'(?i)(ais|ai)')"
p56
atp57
Rp58
sb.