(ifile_types
ParseObject
p0
(dp1
S'antagonists'
p2
c__builtin__
set
p3
((lp4
tp5
Rp6
sS'methods'
p7
g3
((lp8
tp9
Rp10
sS'topics'
p11
g3
((lp12
S"(29, u'\\\\bsex')"
p13
aS"(9, u'\\\\bdepress')"
p14
aS"(35, u'\\\\bstress')"
p15
aS"(1, u'\\\\bmood')"
p16
atp17
Rp18
sS'receptors'
p19
g3
((lp20
S'5ht1a'
p21
aS'5ht2a'
p22
atp23
Rp24
sS'regions'
p25
g3
((lp26
S"(292, u'(?i)\\\\b(anteriors|anterior)(-|\\\\s+)?(cingulates|cingulate)\\\\b')"
p27
aS"(209, u'(?i)\\\\b(amygdalas|amygdala)\\\\b')"
p28
aS"(291, u'(?i)\\\\b(cingulates|cingulate)(-|\\\\s+)?(cortexes|cortex)\\\\b')"
p29
atp30
Rp31
sS'year'
p32
V2009
p33
sS'agonists'
p34
g3
((lp35
tp36
Rp37
sS'species'
p38
g3
((lp39
S"(2401, u'(?i)\\\\b(primates|primate)\\\\b')"
p40
aS"(1057, u'(?i)\\\\b(humans|human)\\\\b')"
p41
aS"(675, u'(?i)\\\\b(marmosets|marmoset)\\\\b')"
p42
aS"(2341, u'(?i)\\\\b(monkeys|monkey)\\\\b')"
p43
aS"(3196, u'(?i)\\\\b(human|humans)\\\\b')"
p44
atp45
Rp46
sb.