(ifile_types
ParseObject
p0
(dp1
S'methods'
p2
c__builtin__
set
p3
((lp4
S'Method.AGONIST'
p5
atp6
Rp7
sS'topics'
p8
g3
((lp9
S"(22, u'\\\\bschizophreni')"
p10
aS"(1, u'\\\\bpatient')"
p11
aS"(23, u'\\\\bantipsychotic')"
p12
atp13
Rp14
sS'receptors'
p15
g3
((lp16
(S'5ht2a'
p17
I708
I714
tp18
a(S'5ht2a'
p19
I673
I679
tp20
a(S'5ht2a'
p21
I2301
I2307
tp22
a(S'5ht2a'
p23
I2119
I2125
tp24
a(S'5ht2a'
p25
I428
I434
tp26
a(S'5ht2'
p27
I69
I74
tp28
atp29
Rp30
sS'raw_text_methods'
p31
g3
((lp32
S"(13, u'\\\\bagonist')"
p33
aS"(41, u'\\\\bhaloperidol')"
p34
atp35
Rp36
sS'regions'
p37
g3
((lp38
tp39
Rp40
sS'year'
p41
V2012
p42
sS'species'
p43
g3
((lp44
tp45
Rp46
sb.