(ifile_types
ParseObject
p0
(dp1
S'antagonists'
p2
c__builtin__
set
p3
((lp4
tp5
Rp6
sS'methods'
p7
g3
((lp8
S'Method.ANTAGONIST'
p9
aS'Method.AGONIST'
p10
atp11
Rp12
sS'topics'
p13
g3
((lp14
S"(6, u'\\\\bcognit')"
p15
aS"(9, u'\\\\bdepress')"
p16
aS"(7, u'\\\\bmemory')"
p17
atp18
Rp19
sS'receptors'
p20
g3
((lp21
S'5ht7'
p22
atp23
Rp24
sS'regions'
p25
g3
((lp26
S"(71, u'(?i)(cerebellums|cerebellum)')"
p27
atp28
Rp29
sS'year'
p30
V2016
p31
sS'agonists'
p32
g3
((lp33
S"(233, u'\\\\blp ?211')"
p34
aS"(155, u'\\\\bmem')"
p35
atp36
Rp37
sS'species'
p38
g3
((lp39
S"(2323, u'(?i)(bees|bee)')"
p40
aS"(4624, u'(?i)(apes|ape)')"
p41
aS"(6249, u'(?i)(ants|ant)')"
p42
aS"(6356, u'(?i)(ais|ai)')"
p43
aS"(163, u'(?i)(mice|mouse)')"
p44
aS"(479, u'(?i)(lings|ling)')"
p45
aS"(4091, u'(?i)(adults|adult)')"
p46
aS"(1725, u'(?i)(clams|clam)')"
p47
aS"(1055, u'(?i)(men|man)')"
p48
aS"(4979, u'(?i)(cats|cat)')"
p49
aS"(3550, u'(?i)(anis|ani)')"
p50
aS"(3812, u'(?i)(studs|stud)')"
p51
aS"(821, u'(?i)(lice|louse)')"
p52
atp53
Rp54
sb.