(ifile_types
ParseObject
p0
(dp1
S'antagonists'
p2
c__builtin__
set
p3
((lp4
tp5
Rp6
sS'methods'
p7
g3
((lp8
tp9
Rp10
sS'topics'
p11
g3
((lp12
S"(9, u'\\\\bdepress')"
p13
aS"(11, u'\\\\banxiolyt')"
p14
atp15
Rp16
sS'receptors'
p17
g3
((lp18
S'5ht1a'
p19
atp20
Rp21
sS'regions'
p22
g3
((lp23
S"(94, u'(?i)\\\\b(dorsals|dorsal)(-|\\\\s+)?(raphes|raphe)(-|\\\\s+)?(nuclei|nucleus)\\\\b')"
p24
aS"(318, u'(?i)\\\\b(raphes|raphe)(-|\\\\s+)?(nuclei|nucleus)\\\\b')"
p25
atp26
Rp27
sS'year'
p28
V1986
p29
sS'agonists'
p30
g3
((lp31
S"(45, u'\\\\bipsapirone')"
p32
atp33
Rp34
sS'species'
p35
g3
((lp36
S"(5958, u'(?i)\\\\b(rats|rat)\\\\b')"
p37
atp38
Rp39
sb.