(ifile_types
ParseObject
p0
(dp1
S'antagonists'
p2
c__builtin__
set
p3
((lp4
tp5
Rp6
sS'methods'
p7
g3
((lp8
S'Method.ANTAGONIST'
p9
atp10
Rp11
sS'topics'
p12
g3
((lp13
tp14
Rp15
sS'receptors'
p16
g3
((lp17
S'5ht3a'
p18
aS'5ht3'
p19
atp20
Rp21
sS'regions'
p22
g3
((lp23
tp24
Rp25
sS'year'
p26
V1993
p27
sS'agonists'
p28
g3
((lp29
tp30
Rp31
sS'species'
p32
g3
((lp33
S"(5958, u'(?i)(rats|rat)')"
p34
aS"(867, u'(?i)(tits|tit)')"
p35
aS"(6753, u'(?i)(da|das)')"
p36
aS"(1349, u'(?i)(rams|ram)')"
p37
aS"(6249, u'(?i)(ants|ant)')"
p38
aS"(853, u'(?i)(minas|mina)')"
p39
aS"(3550, u'(?i)(anis|ani)')"
p40
aS"(1553, u'(?i)(mews|mew)')"
p41
aS"(2809, u'(?i)(toms|tom)')"
p42
aS"(5783, u'(?i)(hinds|hind)')"
p43
atp44
Rp45
sb.