(ifile_types
ParseObject
p0
(dp1
S'antagonists'
p2
c__builtin__
set
p3
((lp4
S"(83, u'\\\\bsb ?204741')"
p5
aS"(117, u'\\\\bketanserin')"
p6
aS"(96, u'\\\\brs ?102221')"
p7
atp8
Rp9
sS'methods'
p10
g3
((lp11
S'Method.ANTAGONIST'
p12
aS'Method.AGONIST'
p13
atp14
Rp15
sS'topics'
p16
g3
((lp17
S"(25, u'\\\\bvasoconstrict')"
p18
aS"(26, u'\\\\bcardiovascular')"
p19
atp20
Rp21
sS'receptors'
p22
g3
((lp23
S'5ht2c'
p24
aS'5ht5'
p25
aS'5ht2b'
p26
aS'5ht2'
p27
aS'5ht2a'
p28
atp29
Rp30
sS'regions'
p31
g3
((lp32
tp33
Rp34
sS'year'
p35
V2008
p36
sS'agonists'
p37
g3
((lp38
S"(149, u'\\\\bmem')"
p39
atp40
Rp41
sS'species'
p42
g3
((lp43
S"(5958, u'(?i)\\\\b(rats|rat)\\\\b')"
p44
atp45
Rp46
sb.