(ifile_types
ParseObject
p0
(dp1
S'antagonists'
p2
c__builtin__
set
p3
((lp4
S"(6, u'\\\\bcyproheptadine')"
p5
aS"(14, u'\\\\bmethiothepin')"
p6
aS"(53, u'\\\\bcyproheptadine')"
p7
aS"(117, u'\\\\bketanserin')"
p8
aS"(22, u'\\\\bpropranolol')"
p9
aS"(33, u'\\\\byohimbine')"
p10
aS"(194, u'\\\\bmethysergide')"
p11
atp12
Rp13
sS'methods'
p14
g3
((lp15
S'Method.ANTAGONIST'
p16
aS'Method.AGONIST'
p17
atp18
Rp19
sS'topics'
p20
g3
((lp21
tp22
Rp23
sS'receptors'
p24
g3
((lp25
S'5ht3'
p26
aS'5ht2'
p27
aS'5ht1'
p28
aS'5ht2a'
p29
atp30
Rp31
sS'regions'
p32
g3
((lp33
tp34
Rp35
sS'year'
p36
V1987
p37
sS'agonists'
p38
g3
((lp39
S"(98, u'\\\\b5 ?carboxamidotryptamine')"
p40
aS"(53, u'\\\\bmethysergide')"
p41
aS"(82, u'\\\\byohimbine')"
p42
atp43
Rp44
sS'species'
p45
g3
((lp46
S"(473, u'(?i)\\\\b(rabbits|rabbit)\\\\b')"
p47
aS"(5949, u'(?i)\\\\b(dogs|dog)\\\\b')"
p48
atp49
Rp50
sb.