(ifile_types
ParseObject
p0
(dp1
S'methods'
p2
c__builtin__
set
p3
((lp4
S'Method.PET'
p5
aS'Method.ANTAGONIST'
p6
atp7
Rp8
sS'topics'
p9
g3
((lp10
S"(1, u'\\\\bpatient')"
p11
atp12
Rp13
sS'receptors'
p14
g3
((lp15
(S'5ht1a'
p16
I1201
I1212
tp17
a(S'5ht1a'
p18
I753
I764
tp19
a(S'5ht1a'
p20
I1431
I1442
tp21
a(S'5ht1a'
p22
I849
I860
tp23
a(S'5ht1a'
p24
I53
I64
tp25
a(S'5ht1a'
p26
I710
I721
tp27
atp28
Rp29
sS'raw_text_methods'
p30
g3
((lp31
S"(19, u'\\\\bpositron emission tomography')"
p32
aS"(12, u'\\\\bantagonist')"
p33
atp34
Rp35
sS'regions'
p36
g3
((lp37
S"(20, u'(?i)\\\\b(prefrontals|prefrontal)\\\\b')"
p38
aS"(19, u'(?i)\\\\b(cortexes|cortex)\\\\b')"
p39
atp40
Rp41
sS'year'
p42
V2005
p43
sS'species'
p44
g3
((lp45
tp46
Rp47
sb.