(ifile_types
ParseObject
p0
(dp1
S'methods'
p2
c__builtin__
set
p3
((lp4
S'Method.ANTAGONIST'
p5
aS'Method.AGONIST'
p6
atp7
Rp8
sS'topics'
p9
g3
((lp10
S"(26, u'\\\\bbehav')"
p11
atp12
Rp13
sS'receptors'
p14
g3
((lp15
(S'5ht1b'
p16
I2945
I2951
tp17
a(S'5ht1'
p18
I1134
I1139
tp19
a(S'5ht5'
p20
I328
I338
tp21
a(S'5ht1b'
p22
I545
I551
tp23
a(S'5ht1'
p24
I2632
I2637
tp25
a(S'5ht1b'
p26
I2613
I2619
tp27
a(S'5ht1b'
p28
I3130
I3136
tp29
a(S'5ht1b'
p30
I617
I623
tp31
a(S'5ht1b'
p32
I63
I69
tp33
a(S'5ht1b'
p34
I2996
I3002
tp35
atp36
Rp37
sS'raw_text_methods'
p38
g3
((lp39
S"(53, u'\\\\bketanserin')"
p40
aS"(34, u'\\\\b5ct')"
p41
aS"(13, u'\\\\bagonist')"
p42
aS"(8, u'\\\\bru24969')"
p43
aS"(6, u'\\\\bgr127935')"
p44
aS"(47, u'\\\\bsumatriptan')"
p45
aS"(12, u'\\\\bantagonist')"
p46
aS"(45, u'\\\\bmetergoline')"
p47
atp48
Rp49
sS'regions'
p50
g3
((lp51
S"(11, u'(?i)\\\\b(cerebrals|cerebral)\\\\b')"
p52
aS"(19, u'(?i)\\\\b(cortexes|cortex)\\\\b')"
p53
atp54
Rp55
sS'year'
p56
V2002
p57
sS'species'
p58
g3
((lp59
S"(7, u'(?i)\\\\b(guineas|guinea)(-|\\\\s+)?(pigs|pig)\\\\b')"
p60
aS"(4, u'(?i)\\\\b(rats|rat)\\\\b')"
p61
atp62
Rp63
sb.