(ifile_types
ParseObject
p0
(dp1
S'antagonists'
p2
c__builtin__
set
p3
((lp4
S"(119, u'\\\\britanserin')"
p5
aS"(58, u'\\\\bhaloperidol')"
p6
atp7
Rp8
sS'methods'
p9
g3
((lp10
S'Method.ANTAGONIST'
p11
aS'Method.AGONIST'
p12
atp13
Rp14
sS'topics'
p15
g3
((lp16
tp17
Rp18
sS'receptors'
p19
g3
((lp20
S'5ht1a'
p21
aS'5ht2c'
p22
aS'5ht2a'
p23
atp24
Rp25
sS'regions'
p26
g3
((lp27
S"(220, u'(?i)\\\\b(striatums|striatum)\\\\b')"
p28
atp29
Rp30
sS'year'
p31
V1997
p32
sS'agonists'
p33
g3
((lp34
S"(85, u'\\\\b8 ?oh ?dpat')"
p35
aS"(43, u'\\\\bhaloperidol')"
p36
atp37
Rp38
sS'species'
p39
g3
((lp40
S"(6753, u'(?i)\\\\b(da|das)\\\\b')"
p41
aS"(5958, u'(?i)\\\\b(rats|rat)\\\\b')"
p42
atp43
Rp44
sb.