(ifile_types
ParseObject
p0
(dp1
S'antagonists'
p2
c__builtin__
set
p3
((lp4
tp5
Rp6
sS'methods'
p7
g3
((lp8
tp9
Rp10
sS'topics'
p11
g3
((lp12
S"(8, u'\\\\blearning')"
p13
aS"(15, u'\\\\bschizophreni')"
p14
aS"(6, u'\\\\bcognit')"
p15
aS"(7, u'\\\\bmemory')"
p16
atp17
Rp18
sS'receptors'
p19
g3
((lp20
S'5ht5'
p21
aS'5ht2a'
p22
atp23
Rp24
sS'regions'
p25
g3
((lp26
S"(254, u'(?i)(prefrontals|prefrontal)(-|\\\\s+)?(cortexes|cortex)')"
p27
aS"(126, u'(?i)(thalamuses|thalamus)')"
p28
aS"(255, u'(?i)(pres|pre)(-|\\\\s+)?(frontals|frontal)(-|\\\\s+)?(cortexes|cortex)')"
p29
atp30
Rp31
sS'year'
p32
V2016
p33
sS'agonists'
p34
g3
((lp35
S"(155, u'\\\\bmem')"
p36
atp37
Rp38
sS'species'
p39
g3
((lp40
S"(2323, u'(?i)(bees|bee)')"
p41
aS"(6753, u'(?i)(da|das)')"
p42
aS"(5958, u'(?i)(rats|rat)')"
p43
aS"(163, u'(?i)(mice|mouse)')"
p44
aS"(6682, u'(?i)(tera|teras)')"
p45
aS"(5551, u'(?i)(owls|owl)')"
p46
aS"(3726, u'(?i)(mates|mate)')"
p47
aS"(4979, u'(?i)(cats|cat)')"
p48
aS"(3550, u'(?i)(anis|ani)')"
p49
aS"(5917, u'(?i)(roaches|roach)')"
p50
aS"(1961, u'(?i)(pens|pen)')"
p51
aS"(6356, u'(?i)(ais|ai)')"
p52
aS"(6391, u'(?i)(asses|ass)')"
p53
aS"(821, u'(?i)(lice|louse)')"
p54
atp55
Rp56
sb.