(ifile_types
ParseObject
p0
(dp1
S'methods'
p2
c__builtin__
set
p3
((lp4
S'Method.KNOCKOUT'
p5
atp6
Rp7
sS'topics'
p8
g3
((lp9
S"(13, u'\\\\bantidepress')"
p10
aS"(25, u'\\\\bsocial')"
p11
aS"(2, u'\\\\bdisorder')"
p12
aS"(7, u'\\\\bdepressi')"
p13
aS"(5, u'\\\\btherap')"
p14
aS"(8, u'\\\\banxi')"
p15
aS"(4, u'\\\\btreatment')"
p16
atp17
Rp18
sS'receptors'
p19
g3
((lp20
(S'5ht1'
p21
I383
I388
tp22
a(S'5ht1'
p23
I232
I237
tp24
a(S'5ht1a'
p25
I44
I50
tp26
a(S'5ht1'
p27
I676
I681
tp28
a(S'5ht1a'
p29
I1158
I1164
tp30
a(S'5ht1'
p31
I566
I571
tp32
a(S'5ht1'
p33
I1956
I1961
tp34
atp35
Rp36
sS'raw_text_methods'
p37
g3
((lp38
S"(11, u'\\\\bfluoxetine')"
p39
aS"(38, u'\\\\bssri')"
p40
aS"(39, u'\\\\bselective serotonin reuptake inhibitor')"
p41
atp42
Rp43
sS'regions'
p44
g3
((lp45
S"(20, u'(?i)\\\\b(prefrontals|prefrontal)\\\\b')"
p46
aS"(19, u'(?i)\\\\b(cortexes|cortex)\\\\b')"
p47
aS"(23, u'(?i)\\\\b(forebrains|forebrain)\\\\b')"
p48
atp49
Rp50
sS'year'
p51
V2020
p52
sS'species'
p53
g3
((lp54
S"(1, u'(?i)\\\\b(mice|mouse)\\\\b')"
p55
aS"(5, u'(?i)\\\\b(mices|mice)\\\\b')"
p56
atp57
Rp58
sb.