(ifile_types
ParseObject
p0
(dp1
S'antagonists'
p2
c__builtin__
set
p3
((lp4
S"(32, u'\\\\bway ?100635')"
p5
aS"(24, u'\\\\brobalzotan')"
p6
atp7
Rp8
sS'methods'
p9
g3
((lp10
S'Method.ANTAGONIST'
p11
atp12
Rp13
sS'topics'
p14
g3
((lp15
S"(26, u'\\\\bcardiovascular')"
p16
aS"(21, u'\\\\bpain')"
p17
aS"(24, u'\\\\banalgesi')"
p18
atp19
Rp20
sS'receptors'
p21
g3
((lp22
S'5ht1a'
p23
atp24
Rp25
sS'regions'
p26
g3
((lp27
S"(34, u'(?i)(pon|pons)')"
p28
atp29
Rp30
sS'year'
p31
V2009
p32
sS'agonists'
p33
g3
((lp34
tp35
Rp36
sS'species'
p37
g3
((lp38
S"(2323, u'(?i)(bees|bee)')"
p39
aS"(4624, u'(?i)(apes|ape)')"
p40
aS"(1438, u'(?i)(ceroes|cero)')"
p41
aS"(2568, u'(?i)(hens|hen)')"
p42
aS"(4301, u'(?i)(hydras|hydra)')"
p43
aS"(5958, u'(?i)(rats|rat)')"
p44
aS"(6753, u'(?i)(da|das)')"
p45
aS"(5967, u'(?i)(males|male)')"
p46
aS"(468, u'(?i)(oxen|ox)')"
p47
aS"(1055, u'(?i)(men|man)')"
p48
aS"(6249, u'(?i)(ants|ant)')"
p49
aS"(3592, u'(?i)(ravens|raven)')"
p50
aS"(6215, u'(?i)(racers|racer)')"
p51
aS"(6356, u'(?i)(ais|ai)')"
p52
aS"(3550, u'(?i)(anis|ani)')"
p53
aS"(1961, u'(?i)(pens|pen)')"
p54
aS"(1414, u'(?i)(chars|char)')"
p55
aS"(6391, u'(?i)(asses|ass)')"
p56
aS"(2809, u'(?i)(toms|tom)')"
p57
aS"(7058, u'(?i)(does|doe)')"
p58
atp59
Rp60
sb.