(ifile_types
ParseObject
p0
(dp1
S'methods'
p2
c__builtin__
set
p3
((lp4
S'Method.PET'
p5
atp6
Rp7
sS'topics'
p8
g3
((lp9
S"(23, u'\\\\bantipsychotic')"
p10
atp11
Rp12
sS'receptors'
p13
g3
((lp14
(S'5ht2a'
p15
I1834
I1840
tp16
a(S'5ht7'
p17
I393
I398
tp18
a(S'5ht2a'
p19
I1609
I1615
tp20
a(S'5ht2a'
p21
I845
I851
tp22
a(S'5ht5'
p23
I382
I389
tp24
a(S'5ht2a'
p25
I1226
I1232
tp26
a(S'5ht2a'
p27
I382
I388
tp28
a(S'5ht5'
p29
I350
I360
tp30
a(S'5ht1a'
p31
I404
I410
tp32
a(S'5ht2a'
p33
I1741
I1747
tp34
a(S'5ht2a'
p35
I1490
I1496
tp36
a(S'5ht2a'
p37
I75
I81
tp38
atp39
Rp40
sS'raw_text_methods'
p41
g3
((lp42
S"(17, u'\\\\bpet')"
p43
aS"(19, u'\\\\bpositron emission tomography')"
p44
aS"(23, u'\\\\bmdl')"
p45
atp46
Rp47
sS'regions'
p48
g3
((lp49
S"(19, u'(?i)\\\\b(cortexes|cortex)\\\\b')"
p50
atp51
Rp52
sS'year'
p53
V2013
p54
sS'species'
p55
g3
((lp56
tp57
Rp58
sb.