(ifile_types
ParseObject
p0
(dp1
S'antagonists'
p2
c__builtin__
set
p3
((lp4
S"(108, u'\\\\brs ?102221')"
p5
atp6
Rp7
sS'methods'
p8
g3
((lp9
S'Method.ANTAGONIST'
p10
aS'Method.AGONIST'
p11
atp12
Rp13
sS'topics'
p14
g3
((lp15
tp16
Rp17
sS'receptors'
p18
g3
((lp19
S'5ht2c'
p20
aS'5ht2a'
p21
atp22
Rp23
sS'regions'
p24
g3
((lp25
S"(34, u'(?i)(pon|pons)')"
p26
atp27
Rp28
sS'year'
p29
V2008
p30
sS'agonists'
p31
g3
((lp32
S"(14, u'\\\\bamphetamine')"
p33
atp34
Rp35
sS'species'
p36
g3
((lp37
S"(4624, u'(?i)(apes|ape)')"
p38
aS"(949, u'(?i)(cohoes|coho)')"
p39
aS"(6753, u'(?i)(da|das)')"
p40
aS"(479, u'(?i)(lings|ling)')"
p41
aS"(1055, u'(?i)(men|man)')"
p42
aS"(6249, u'(?i)(ants|ant)')"
p43
aS"(1349, u'(?i)(rams|ram)')"
p44
aS"(4979, u'(?i)(cats|cat)')"
p45
aS"(3550, u'(?i)(anis|ani)')"
p46
aS"(7094, u'(?i)(curs|cur)')"
p47
aS"(1961, u'(?i)(pens|pen)')"
p48
aS"(6356, u'(?i)(ais|ai)')"
p49
aS"(7058, u'(?i)(does|doe)')"
p50
atp51
Rp52
sb.