(ifile_types
ParseObject
p0
(dp1
S'antagonists'
p2
c__builtin__
set
p3
((lp4
tp5
Rp6
sS'methods'
p7
g3
((lp8
S'Method.AGONIST'
p9
atp10
Rp11
sS'topics'
p12
g3
((lp13
tp14
Rp15
sS'receptors'
p16
g3
((lp17
S'5ht1b'
p18
aS'5ht1a'
p19
aS'5ht3a'
p20
aS'5ht3'
p21
aS'5ht2a'
p22
atp23
Rp24
sS'regions'
p25
g3
((lp26
S"(34, u'(?i)(pon|pons)')"
p27
atp28
Rp29
sS'year'
p30
V1997
p31
sS'agonists'
p32
g3
((lp33
S"(161, u'\\\\bmcpp')"
p34
aS"(105, u'\\\\b5 ?carboxamidotryptamine')"
p35
atp36
Rp37
sS'species'
p38
g3
((lp39
S"(5958, u'(?i)(rats|rat)')"
p40
aS"(6753, u'(?i)(da|das)')"
p41
aS"(6682, u'(?i)(tera|teras)')"
p42
aS"(468, u'(?i)(oxen|ox)')"
p43
aS"(6580, u'(?i)(dams|dam)')"
p44
aS"(4979, u'(?i)(cats|cat)')"
p45
aS"(6249, u'(?i)(ants|ant)')"
p46
aS"(1961, u'(?i)(pens|pen)')"
p47
aS"(3812, u'(?i)(studs|stud)')"
p48
aS"(6356, u'(?i)(ais|ai)')"
p49
atp50
Rp51
sb.