(ifile_types
ParseObject
p0
(dp1
S'methods'
p2
c__builtin__
set
p3
((lp4
tp5
Rp6
sS'topics'
p7
g3
((lp8
S"(9, u'\\\\bstress')"
p9
atp10
Rp11
sS'receptors'
p12
g3
((lp13
(S'5ht1a'
p14
I225
I231
tp15
a(S'5ht2'
p16
I258
I263
tp17
atp18
Rp19
sS'raw_text_methods'
p20
g3
((lp21
S"(24, u'\\\\bgepirone')"
p22
aS"(22, u'\\\\bbuspirone')"
p23
atp24
Rp25
sS'regions'
p26
g3
((lp27
tp28
Rp29
sS'year'
p30
V1997
p31
sS'species'
p32
g3
((lp33
S"(4, u'(?i)\\\\b(rats|rat)\\\\b')"
p34
atp35
Rp36
sb.