(ifile_types
ParseObject
p0
(dp1
S'methods'
p2
c__builtin__
set
p3
((lp4
S'Method.ANTAGONIST'
p5
aS'Method.AGONIST'
p6
atp7
Rp8
sS'topics'
p9
g3
((lp10
S"(22, u'\\\\bschizophreni')"
p11
aS"(14, u'\\\\bcogniti')"
p12
aS"(26, u'\\\\bbehav')"
p13
aS"(16, u'\\\\blearning')"
p14
aS"(23, u'\\\\bantipsychotic')"
p15
aS"(15, u'\\\\bmemory')"
p16
aS"(4, u'\\\\btreatment')"
p17
atp18
Rp19
sS'receptors'
p20
g3
((lp21
(S'5ht1a'
p22
I241
I247
tp23
a(S'5ht7'
p24
I690
I697
tp25
a(S'5ht7'
p26
I1361
I1366
tp27
a(S'5ht1a'
p28
I1121
I1127
tp29
a(S'5ht7'
p30
I1134
I1139
tp31
a(S'5ht1a'
p32
I1348
I1354
tp33
a(S'5ht7'
p34
I535
I540
tp35
a(S'5ht7'
p36
I36
I41
tp37
a(S'5ht5'
p38
I359
I369
tp39
a(S'5ht1a'
p40
I690
I696
tp41
a(S'5ht1a'
p42
I509
I515
tp43
a(S'5ht7'
p44
I254
I259
tp45
atp46
Rp47
sS'raw_text_methods'
p48
g3
((lp49
S"(13, u'\\\\bagonist')"
p50
aS"(15, u'\\\\b8ohdpat')"
p51
aS"(33, u'\\\\bmcpp')"
p52
aS"(12, u'\\\\bantagonist')"
p53
atp54
Rp55
sS'regions'
p56
g3
((lp57
tp58
Rp59
sS'year'
p60
V2004
p61
sS'species'
p62
g3
((lp63
tp64
Rp65
sb.