(ifile_types
ParseObject
p0
(dp1
S'antagonists'
p2
c__builtin__
set
p3
((lp4
S"(31, u'\\\\bway ?100135')"
p5
aS"(20, u'\\\\bpindobind')"
p6
atp7
Rp8
sS'methods'
p9
g3
((lp10
S'Method.ANTAGONIST'
p11
aS'Method.AGONIST'
p12
atp13
Rp14
sS'topics'
p15
g3
((lp16
tp17
Rp18
sS'receptors'
p19
g3
((lp20
S'5ht1a'
p21
atp22
Rp23
sS'regions'
p24
g3
((lp25
S"(254, u'(?i)(prefrontals|prefrontal)(-|\\\\s+)?(cortexes|cortex)')"
p26
aS"(318, u'(?i)(raphes|raphe)(-|\\\\s+)?(nuclei|nucleus)')"
p27
aS"(255, u'(?i)(pres|pre)(-|\\\\s+)?(frontals|frontal)(-|\\\\s+)?(cortexes|cortex)')"
p28
atp29
Rp30
sS'year'
p31
V2002
p32
sS'agonists'
p33
g3
((lp34
S"(45, u'\\\\bflibanserin')"
p35
aS"(24, u'\\\\bbuspirone')"
p36
atp37
Rp38
sS'species'
p39
g3
((lp40
S"(5537, u'(?i)(hippos|hippo)')"
p41
aS"(6753, u'(?i)(da|das)')"
p42
aS"(6249, u'(?i)(ants|ant)')"
p43
aS"(6744, u'(?i)(maras|mara)')"
p44
aS"(1055, u'(?i)(men|man)')"
p45
aS"(4964, u'(?i)(serins|serin)')"
p46
aS"(3550, u'(?i)(anis|ani)')"
p47
aS"(1057, u'(?i)(humans|human)')"
p48
aS"(1961, u'(?i)(pens|pen)')"
p49
aS"(3812, u'(?i)(studs|stud)')"
p50
aS"(3196, u'(?i)(human|humans)')"
p51
aS"(6356, u'(?i)(ais|ai)')"
p52
atp53
Rp54
sb.