(ifile_types
ParseObject
p0
(dp1
S'methods'
p2
c__builtin__
set
p3
((lp4
S'Method.ANTAGONIST'
p5
aS'Method.AGONIST'
p6
atp7
Rp8
sS'topics'
p9
g3
((lp10
S"(13, u'\\\\bantidepress')"
p11
aS"(3, u'\\\\bclinical')"
p12
atp13
Rp14
sS'receptors'
p15
g3
((lp16
(S'5ht1'
p17
I1958
I1963
tp18
a(S'5ht1a'
p19
I113
I119
tp20
a(S'5ht1'
p21
I1551
I1556
tp22
a(S'5ht1a'
p23
I1027
I1033
tp24
a(S'5ht1a'
p25
I522
I528
tp26
a(S'5ht1'
p27
I1651
I1656
tp28
a(S'5ht1a'
p29
I270
I276
tp30
a(S'5ht1'
p31
I966
I971
tp32
a(S'5ht1a'
p33
I1071
I1077
tp34
a(S'5ht1'
p35
I540
I545
tp36
atp37
Rp38
sS'raw_text_methods'
p39
g3
((lp40
S"(13, u'\\\\bagonist')"
p41
aS"(51, u'\\\\bway100635')"
p42
aS"(34, u'\\\\b5ct')"
p43
aS"(12, u'\\\\bantagonist')"
p44
atp45
Rp46
sS'regions'
p47
g3
((lp48
tp49
Rp50
sS'year'
p51
V2019
p52
sS'species'
p53
g3
((lp54
S"(1, u'(?i)\\\\b(mice|mouse)\\\\b')"
p55
aS"(6, u'(?i)\\\\b(rodents|rodent)\\\\b')"
p56
aS"(5, u'(?i)\\\\b(mices|mice)\\\\b')"
p57
atp58
Rp59
sb.