(ifile_types
ParseObject
p0
(dp1
S'antagonists'
p2
c__builtin__
set
p3
((lp4
S"(155, u'\\\\bgr ?125487')"
p5
aS"(135, u'\\\\bondansetron')"
p6
atp7
Rp8
sS'methods'
p9
g3
((lp10
S'Method.ANTAGONIST'
p11
aS'Method.AGONIST'
p12
atp13
Rp14
sS'topics'
p15
g3
((lp16
S"(6, u'\\\\bcognit')"
p17
aS"(7, u'\\\\bmemory')"
p18
atp19
Rp20
sS'receptors'
p21
g3
((lp22
S'5ht5'
p23
aS'5ht4'
p24
aS'5ht3'
p25
aS'5ht4a'
p26
aS'5ht4b'
p27
aS'5ht3a'
p28
atp29
Rp30
sS'regions'
p31
g3
((lp32
tp33
Rp34
sS'year'
p35
V1997
p36
sS'agonists'
p37
g3
((lp38
S"(155, u'\\\\bmem')"
p39
atp40
Rp41
sS'species'
p42
g3
((lp43
S"(2323, u'(?i)(bees|bee)')"
p44
aS"(4624, u'(?i)(apes|ape)')"
p45
aS"(2568, u'(?i)(hens|hen)')"
p46
aS"(6753, u'(?i)(da|das)')"
p47
aS"(4091, u'(?i)(adults|adult)')"
p48
aS"(4163, u'(?i)(ermines|ermine)')"
p49
aS"(1349, u'(?i)(rams|ram)')"
p50
aS"(6249, u'(?i)(ants|ant)')"
p51
aS"(6356, u'(?i)(ais|ai)')"
p52
aS"(5958, u'(?i)(rats|rat)')"
p53
aS"(3812, u'(?i)(studs|stud)')"
p54
atp55
Rp56
sb.