(ifile_types
ParseObject
p0
(dp1
S'antagonists'
p2
c__builtin__
set
p3
((lp4
tp5
Rp6
sS'methods'
p7
g3
((lp8
S'Method.KNOCKOUT'
p9
aS'Method.AGONIST'
p10
atp11
Rp12
sS'topics'
p13
g3
((lp14
S"(9, u'\\\\bdepress')"
p15
atp16
Rp17
sS'receptors'
p18
g3
((lp19
S'5ht1a'
p20
atp21
Rp22
sS'regions'
p23
g3
((lp24
S"(34, u'(?i)(pon|pons)')"
p25
atp26
Rp27
sS'year'
p28
V2015
p29
sS'agonists'
p30
g3
((lp31
S"(92, u'\\\\b8 ?oh ?dpat')"
p32
atp33
Rp34
sS'species'
p35
g3
((lp36
S"(4624, u'(?i)(apes|ape)')"
p37
aS"(3550, u'(?i)(anis|ani)')"
p38
aS"(2568, u'(?i)(hens|hen)')"
p39
aS"(6356, u'(?i)(ais|ai)')"
p40
aS"(7609, u'(?i)(erns|ern)')"
p41
aS"(5958, u'(?i)(rats|rat)')"
p42
aS"(163, u'(?i)(mice|mouse)')"
p43
aS"(479, u'(?i)(lings|ling)')"
p44
aS"(81, u'(?i)(asps|asp)')"
p45
aS"(4163, u'(?i)(ermines|ermine)')"
p46
aS"(1349, u'(?i)(rams|ram)')"
p47
aS"(6249, u'(?i)(ants|ant)')"
p48
aS"(1055, u'(?i)(men|man)')"
p49
aS"(4979, u'(?i)(cats|cat)')"
p50
aS"(2395, u'(?i)(mutants|mutant)')"
p51
aS"(3812, u'(?i)(studs|stud)')"
p52
aS"(6391, u'(?i)(asses|ass)')"
p53
aS"(5537, u'(?i)(hippos|hippo)')"
p54
aS"(1683, u'(?i)(terns|tern)')"
p55
atp56
Rp57
sb.