(ifile_types
ParseObject
p0
(dp1
S'methods'
p2
c__builtin__
set
p3
((lp4
S'Method.ANTAGONIST'
p5
aS'Method.AGONIST'
p6
atp7
Rp8
sS'topics'
p9
g3
((lp10
S"(24, u'\\\\banxiolytic')"
p11
aS"(8, u'\\\\banxi')"
p12
aS"(26, u'\\\\bbehav')"
p13
aS"(13, u'\\\\bantidepress')"
p14
aS"(25, u'\\\\bsocial')"
p15
atp16
Rp17
sS'receptors'
p18
g3
((lp19
(S'5ht2c'
p20
I353
I359
tp21
a(S'5ht2c'
p22
I665
I671
tp23
a(S'5ht2c'
p24
I144
I150
tp25
a(S'5ht2c'
p26
I2133
I2139
tp27
a(S'5ht2c'
p28
I450
I456
tp29
atp30
Rp31
sS'raw_text_methods'
p32
g3
((lp33
S"(13, u'\\\\bagonist')"
p34
aS"(43, u'\\\\bagomelatine')"
p35
aS"(36, u'\\\\bbenzodiazepine')"
p36
aS"(31, u'\\\\bbenzodiazepines')"
p37
aS"(12, u'\\\\bantagonist')"
p38
atp39
Rp40
sS'regions'
p41
g3
((lp42
S"(19, u'(?i)\\\\b(cortexes|cortex)\\\\b')"
p43
atp44
Rp45
sS'year'
p46
V2005
p47
sS'species'
p48
g3
((lp49
S"(6, u'(?i)\\\\b(rodents|rodent)\\\\b')"
p50
aS"(4, u'(?i)\\\\b(rats|rat)\\\\b')"
p51
atp52
Rp53
sb.