(ifile_types
ParseObject
p0
(dp1
S'methods'
p2
c__builtin__
set
p3
((lp4
S'Method.IMMUNOHISTOCHEMISTRY'
p5
atp6
Rp7
sS'topics'
p8
g3
((lp9
tp10
Rp11
sS'receptors'
p12
g3
((lp13
(S'5ht3'
p14
I41
I46
tp15
a(S'5ht3'
p16
I602
I607
tp17
a(S'5ht3'
p18
I1658
I1663
tp19
a(S'5ht3'
p20
I206
I211
tp21
a(S'5ht3'
p22
I1572
I1577
tp23
a(S'5ht3'
p24
I1018
I1023
tp25
a(S'5ht3'
p26
I1758
I1763
tp27
a(S'5ht3'
p28
I407
I412
tp29
a(S'5ht3'
p30
I498
I503
tp31
a(S'5ht3'
p32
I1318
I1323
tp33
a(S'5ht3'
p34
I867
I872
tp35
a(S'5ht3'
p36
I736
I741
tp37
atp38
Rp39
sS'raw_text_methods'
p40
g3
((lp41
S"(3, u'\\\\bimmunoreactiv')"
p42
atp43
Rp44
sS'regions'
p45
g3
((lp46
S"(1, u'(?i)\\\\b(neocortexes|neocortex)\\\\b')"
p47
aS"(19, u'(?i)\\\\b(cortexes|cortex)\\\\b')"
p48
aS"(12, u'(?i)\\\\b(amygdalas|amygdala)\\\\b')"
p49
atp50
Rp51
sS'year'
p52
V1997
p53
sS'species'
p54
g3
((lp55
S"(4, u'(?i)\\\\b(rats|rat)\\\\b')"
p56
atp57
Rp58
sb.