(ifile_types
ParseObject
p0
(dp1
S'antagonists'
p2
c__builtin__
set
p3
((lp4
tp5
Rp6
sS'methods'
p7
g3
((lp8
S'Method.PET'
p9
aS'Method.AGONIST'
p10
atp11
Rp12
sS'topics'
p13
g3
((lp14
tp15
Rp16
sS'receptors'
p17
g3
((lp18
S'5ht1a'
p19
atp20
Rp21
sS'regions'
p22
g3
((lp23
S"(34, u'(?i)(pon|pons)')"
p24
atp25
Rp26
sS'year'
p27
V2008
p28
sS'agonists'
p29
g3
((lp30
tp31
Rp32
sS'species'
p33
g3
((lp34
S"(1070, u'(?i)(pets|pet)')"
p35
aS"(2568, u'(?i)(hens|hen)')"
p36
aS"(4635, u'(?i)(baboons|baboon)')"
p37
aS"(468, u'(?i)(oxen|ox)')"
p38
aS"(7094, u'(?i)(curs|cur)')"
p39
aS"(6215, u'(?i)(racers|racer)')"
p40
aS"(4979, u'(?i)(cats|cat)')"
p41
aS"(5229, u'(?i)(moles|mole)')"
p42
aS"(3812, u'(?i)(studs|stud)')"
p43
aS"(2809, u'(?i)(toms|tom)')"
p44
aS"(6356, u'(?i)(ais|ai)')"
p45
atp46
Rp47
sb.