(ifile_types
ParseObject
p0
(dp1
S'methods'
p2
c__builtin__
set
p3
((lp4
S'Method.AGONIST'
p5
atp6
Rp7
sS'topics'
p8
g3
((lp9
tp10
Rp11
sS'receptors'
p12
g3
((lp13
(S'5ht3'
p14
I1546
I1551
tp15
a(S'5ht3'
p16
I715
I720
tp17
a(S'5ht2'
p18
I1486
I1491
tp19
a(S'5ht3'
p20
I1671
I1676
tp21
a(S'5ht2'
p22
I1661
I1666
tp23
a(S'5ht2'
p24
I1141
I1146
tp25
atp26
Rp27
sS'raw_text_methods'
p28
g3
((lp29
S"(13, u'\\\\bagonist')"
p30
atp31
Rp32
sS'regions'
p33
g3
((lp34
S"(11, u'(?i)\\\\b(cerebrals|cerebral)\\\\b')"
p35
atp36
Rp37
sS'year'
p38
V1997
p39
sS'species'
p40
g3
((lp41
S"(4, u'(?i)\\\\b(rats|rat)\\\\b')"
p42
atp43
Rp44
sb.