(ifile_types
ParseObject
p0
(dp1
S'antagonists'
p2
c__builtin__
set
p3
((lp4
S"(134, u'\\\\bgranisetron')"
p5
atp6
Rp7
sS'methods'
p8
g3
((lp9
S'Method.ANTAGONIST'
p10
atp11
Rp12
sS'topics'
p13
g3
((lp14
S"(21, u'\\\\bpain')"
p15
aS"(24, u'\\\\banalgesi')"
p16
atp17
Rp18
sS'receptors'
p19
g3
((lp20
S'5ht3a'
p21
aS'5ht3'
p22
atp23
Rp24
sS'regions'
p25
g3
((lp26
S"(7, u'(?i)(caudals|caudal)(-|\\\\s+)?(ventrolaterals|ventrolateral)(-|\\\\s+)?(medullas|medulla)')"
p27
aS"(34, u'(?i)(pon|pons)')"
p28
aS"(2, u'(?i)(medullas|medulla)(-|\\\\s+)?(oblongatas|oblongata)')"
p29
atp30
Rp31
sS'year'
p32
V2016
p33
sS'agonists'
p34
g3
((lp35
tp36
Rp37
sS'species'
p38
g3
((lp39
S"(6753, u'(?i)(da|das)')"
p40
aS"(5958, u'(?i)(rats|rat)')"
p41
aS"(4979, u'(?i)(cats|cat)')"
p42
aS"(81, u'(?i)(asps|asp)')"
p43
aS"(6682, u'(?i)(tera|teras)')"
p44
aS"(1055, u'(?i)(men|man)')"
p45
aS"(6249, u'(?i)(ants|ant)')"
p46
aS"(3592, u'(?i)(ravens|raven)')"
p47
aS"(853, u'(?i)(minas|mina)')"
p48
aS"(3550, u'(?i)(anis|ani)')"
p49
aS"(5229, u'(?i)(moles|mole)')"
p50
aS"(1961, u'(?i)(pens|pen)')"
p51
aS"(1414, u'(?i)(chars|char)')"
p52
aS"(6391, u'(?i)(asses|ass)')"
p53
aS"(6356, u'(?i)(ais|ai)')"
p54
aS"(4133, u'(?i)(pikes|pike)')"
p55
atp56
Rp57
sb.