(ifile_types
ParseObject
p0
(dp1
S'antagonists'
p2
c__builtin__
set
p3
((lp4
S"(32, u'\\\\bway ?100635')"
p5
atp6
Rp7
sS'methods'
p8
g3
((lp9
S'Method.KNOCKOUT'
p10
aS'Method.ANTAGONIST'
p11
aS'Method.AGONIST'
p12
atp13
Rp14
sS'topics'
p15
g3
((lp16
tp17
Rp18
sS'receptors'
p19
g3
((lp20
S'5ht1a'
p21
atp22
Rp23
sS'regions'
p24
g3
((lp25
S"(126, u'(?i)(thalamuses|thalamus)')"
p26
aS"(34, u'(?i)(pon|pons)')"
p27
atp28
Rp29
sS'year'
p30
V1999
p31
sS'agonists'
p32
g3
((lp33
S"(92, u'\\\\b8 ?oh ?dpat')"
p34
atp35
Rp36
sS'species'
p37
g3
((lp38
S"(4624, u'(?i)(apes|ape)')"
p39
aS"(2568, u'(?i)(hens|hen)')"
p40
aS"(163, u'(?i)(mice|mouse)')"
p41
aS"(4163, u'(?i)(ermines|ermine)')"
p42
aS"(6249, u'(?i)(ants|ant)')"
p43
aS"(468, u'(?i)(oxen|ox)')"
p44
aS"(1055, u'(?i)(men|man)')"
p45
aS"(4462, u'(?i)(monals|monal)')"
p46
aS"(4979, u'(?i)(cats|cat)')"
p47
aS"(5958, u'(?i)(rats|rat)')"
p48
aS"(3522, u'(?i)(tetras|tetra)')"
p49
aS"(1961, u'(?i)(pens|pen)')"
p50
aS"(3812, u'(?i)(studs|stud)')"
p51
aS"(6391, u'(?i)(asses|ass)')"
p52
aS"(6356, u'(?i)(ais|ai)')"
p53
aS"(6682, u'(?i)(tera|teras)')"
p54
atp55
Rp56
sb.