(ifile_types
ParseObject
p0
(dp1
S'antagonists'
p2
c__builtin__
set
p3
((lp4
tp5
Rp6
sS'methods'
p7
g3
((lp8
S'Method.AGONIST'
p9
atp10
Rp11
sS'topics'
p12
g3
((lp13
S"(24, u'\\\\banalgesi')"
p14
atp15
Rp16
sS'receptors'
p17
g3
((lp18
S'5ht5'
p19
aS'5ht2a'
p20
atp21
Rp22
sS'regions'
p23
g3
((lp24
S"(91, u'(?i)(periaqueductals|periaqueductal)(-|\\\\s+)?(grays|gray)')"
p25
aS"(34, u'(?i)(pon|pons)')"
p26
atp27
Rp28
sS'year'
p29
V2008
p30
sS'agonists'
p31
g3
((lp32
tp33
Rp34
sS'species'
p35
g3
((lp36
S"(2323, u'(?i)(bees|bee)')"
p37
aS"(5958, u'(?i)(rats|rat)')"
p38
aS"(7609, u'(?i)(erns|ern)')"
p39
aS"(867, u'(?i)(tits|tit)')"
p40
aS"(6753, u'(?i)(da|das)')"
p41
aS"(4371, u'(?i)(lizas|liza)')"
p42
aS"(479, u'(?i)(lings|ling)')"
p43
aS"(4177, u'(?i)(grays|gray)')"
p44
aS"(468, u'(?i)(oxen|ox)')"
p45
aS"(1055, u'(?i)(men|man)')"
p46
aS"(937, u'(?i)(kids|kid)')"
p47
aS"(2665, u'(?i)(rays|ray)')"
p48
aS"(5743, u'(?i)(bots|bot)')"
p49
aS"(6249, u'(?i)(ants|ant)')"
p50
aS"(1057, u'(?i)(humans|human)')"
p51
aS"(1266, u'(?i)(embryos|embryo)')"
p52
aS"(6356, u'(?i)(ais|ai)')"
p53
aS"(3196, u'(?i)(human|humans)')"
p54
aS"(1628, u'(?i)(cod|cod)')"
p55
aS"(1683, u'(?i)(terns|tern)')"
p56
atp57
Rp58
sb.