(ifile_types
ParseObject
p0
(dp1
S'antagonists'
p2
c__builtin__
set
p3
((lp4
S"(52, u'\\\\bmetergoline')"
p5
aS"(17, u'\\\\bnan ?190')"
p6
aS"(102, u'\\\\bfluoxetine')"
p7
aS"(35, u'\\\\bmetergoline')"
p8
aS"(22, u'\\\\bpropranolol')"
p9
atp10
Rp11
sS'methods'
p12
g3
((lp13
S'Method.ANTAGONIST'
p14
atp15
Rp16
sS'topics'
p17
g3
((lp18
S"(9, u'\\\\bdepress')"
p19
aS"(4, u'\\\\blocomot')"
p20
atp21
Rp22
sS'receptors'
p23
g3
((lp24
S'5ht1a'
p25
atp26
Rp27
sS'regions'
p28
g3
((lp29
S"(34, u'(?i)(pon|pons)')"
p30
atp31
Rp32
sS'year'
p33
V2014
p34
sS'agonists'
p35
g3
((lp36
tp37
Rp38
sS'species'
p39
g3
((lp40
S"(5537, u'(?i)(hippos|hippo)')"
p41
aS"(6753, u'(?i)(da|das)')"
p42
aS"(2568, u'(?i)(hens|hen)')"
p43
aS"(5958, u'(?i)(rats|rat)')"
p44
aS"(163, u'(?i)(mice|mouse)')"
p45
aS"(479, u'(?i)(lings|ling)')"
p46
aS"(468, u'(?i)(oxen|ox)')"
p47
aS"(1055, u'(?i)(men|man)')"
p48
aS"(6249, u'(?i)(ants|ant)')"
p49
aS"(6356, u'(?i)(ais|ai)')"
p50
aS"(3550, u'(?i)(anis|ani)')"
p51
aS"(1961, u'(?i)(pens|pen)')"
p52
aS"(3812, u'(?i)(studs|stud)')"
p53
atp54
Rp55
sb.