(ifile_types
ParseObject
p0
(dp1
S'methods'
p2
c__builtin__
set
p3
((lp4
S'Method.PET'
p5
aS'Method.ANTAGONIST'
p6
atp7
Rp8
sS'topics'
p9
g3
((lp10
S"(1, u'\\\\bpatient')"
p11
atp12
Rp13
sS'receptors'
p14
g3
((lp15
(S'5ht1a'
p16
I547
I553
tp17
a(S'5ht1a'
p18
I362
I368
tp19
a(S'5ht1a'
p20
I28
I34
tp21
a(S'5ht1a'
p22
I2232
I2238
tp23
a(S'5ht1a'
p24
I1552
I1558
tp25
a(S'5ht1a'
p26
I768
I774
tp27
a(S'5ht1a'
p28
I230
I236
tp29
atp30
Rp31
sS'raw_text_methods'
p32
g3
((lp33
S"(17, u'\\\\bpet')"
p34
aS"(12, u'\\\\bantagonist')"
p35
atp36
Rp37
sS'regions'
p38
g3
((lp39
S"(9, u'(?i)\\\\b(cerebellums|cerebellum)\\\\b')"
p40
atp41
Rp42
sS'year'
p43
V2004
p44
sS'species'
p45
g3
((lp46
tp47
Rp48
sb.