(ifile_types
ParseObject
p0
(dp1
S'antagonists'
p2
c__builtin__
set
p3
((lp4
S"(23, u'\\\\brisperidone')"
p5
aS"(79, u'\\\\bacp ?103')"
p6
aS"(56, u'\\\\bclozapine')"
p7
aS"(57, u'\\\\bolanzapine')"
p8
aS"(41, u'\\\\bziprasidone')"
p9
aS"(142, u'\\\\bm1')"
p10
aS"(110, u'\\\\bsb ?242084')"
p11
aS"(124, u'\\\\bolanzapine')"
p12
aS"(125, u'\\\\bquetiapine')"
p13
aS"(59, u'\\\\brisperidone')"
p14
aS"(67, u'\\\\bhaloperidol')"
p15
aS"(58, u'\\\\bquetiapine')"
p16
aS"(123, u'\\\\bclozapine')"
p17
atp18
Rp19
sS'methods'
p20
g3
((lp21
S'Method.ANTAGONIST'
p22
aS'Method.AGONIST'
p23
atp24
Rp25
sS'topics'
p26
g3
((lp27
S"(6, u'\\\\bcognit')"
p28
atp29
Rp30
sS'receptors'
p31
g3
((lp32
S'5ht5'
p33
aS'5ht2c'
p34
aS'5ht2a'
p35
atp36
Rp37
sS'regions'
p38
g3
((lp39
S"(157, u'(?i)(limbics|limbic)(-|\\\\s+)?(systems|system)')"
p40
aS"(226, u'(?i)(nuclei|nucleus)(-|\\\\s+)?(accumben|accumbens)')"
p41
aS"(254, u'(?i)(prefrontals|prefrontal)(-|\\\\s+)?(cortexes|cortex)')"
p42
aS"(255, u'(?i)(pres|pre)(-|\\\\s+)?(frontals|frontal)(-|\\\\s+)?(cortexes|cortex)')"
p43
atp44
Rp45
sS'year'
p46
V2005
p47
sS'agonists'
p48
g3
((lp49
S"(71, u'\\\\bquetiapine')"
p50
aS"(64, u'\\\\bolanzapine')"
p51
aS"(48, u'\\\\bhaloperidol')"
p52
aS"(91, u'\\\\bziprasidone')"
p53
aS"(27, u'\\\\bclozapine')"
p54
atp55
Rp56
sS'species'
p57
g3
((lp58
S"(5958, u'(?i)(rats|rat)')"
p59
aS"(6753, u'(?i)(da|das)')"
p60
aS"(1055, u'(?i)(men|man)')"
p61
aS"(1349, u'(?i)(rams|ram)')"
p62
aS"(2334, u'(?i)(eels|eel)')"
p63
aS"(5743, u'(?i)(bots|bot)')"
p64
aS"(6249, u'(?i)(ants|ant)')"
p65
aS"(3812, u'(?i)(studs|stud)')"
p66
aS"(6391, u'(?i)(asses|ass)')"
p67
aS"(2809, u'(?i)(toms|tom)')"
p68
atp69
Rp70
sb.