(ifile_types
ParseObject
p0
(dp1
S'antagonists'
p2
c__builtin__
set
p3
((lp4
tp5
Rp6
sS'methods'
p7
g3
((lp8
S'Method.PET'
p9
atp10
Rp11
sS'topics'
p12
g3
((lp13
S"(9, u'\\\\bdepress')"
p14
aS"(35, u'\\\\bstress')"
p15
aS"(16, u'\\\\bfeed')"
p16
aS"(10, u'\\\\banxiety')"
p17
aS"(1, u'\\\\bmood')"
p18
atp19
Rp20
sS'receptors'
p21
g3
((lp22
S'5ht1a'
p23
atp24
Rp25
sS'regions'
p26
g3
((lp27
S"(209, u'(?i)(amygdalas|amygdala)')"
p28
aS"(293, u'(?i)(posteriors|posterior)(-|\\\\s+)?(cingulates|cingulate)')"
p29
aS"(174, u'(?i)(posteriors|posterior)')"
p30
aS"(318, u'(?i)(raphes|raphe)(-|\\\\s+)?(nuclei|nucleus)')"
p31
aS"(294, u'(?i)(retrosplenials|retrosplenial)(-|\\\\s+)?(cortexes|cortex)')"
p32
aS"(94, u'(?i)(dorsals|dorsal)(-|\\\\s+)?(raphes|raphe)(-|\\\\s+)?(nuclei|nucleus)')"
p33
atp34
Rp35
sS'year'
p36
V2010
p37
sS'agonists'
p38
g3
((lp39
S"(181, u'\\\\bdom')"
p40
atp41
Rp42
sS'species'
p43
g3
((lp44
S"(1070, u'(?i)(pets|pet)')"
p45
aS"(2323, u'(?i)(bees|bee)')"
p46
aS"(5799, u'(?i)(rodents|rodent)')"
p47
aS"(5958, u'(?i)(rats|rat)')"
p48
aS"(6857, u'(?i)(ormers|ormer)')"
p49
aS"(5626, u'(?i)(posters|poster)')"
p50
aS"(2401, u'(?i)(primates|primate)')"
p51
aS"(6753, u'(?i)(da|das)')"
p52
aS"(5967, u'(?i)(males|male)')"
p53
aS"(6682, u'(?i)(tera|teras)')"
p54
aS"(1055, u'(?i)(men|man)')"
p55
aS"(3726, u'(?i)(mates|mate)')"
p56
aS"(853, u'(?i)(minas|mina)')"
p57
aS"(6249, u'(?i)(ants|ant)')"
p58
aS"(1057, u'(?i)(humans|human)')"
p59
aS"(6391, u'(?i)(asses|ass)')"
p60
aS"(3812, u'(?i)(studs|stud)')"
p61
aS"(3196, u'(?i)(human|humans)')"
p62
aS"(2809, u'(?i)(toms|tom)')"
p63
aS"(5537, u'(?i)(hippos|hippo)')"
p64
aS"(6356, u'(?i)(ais|ai)')"
p65
atp66
Rp67
sb.