(ifile_types
ParseObject
p0
(dp1
S'methods'
p2
c__builtin__
set
p3
((lp4
tp5
Rp6
sS'topics'
p7
g3
((lp8
tp9
Rp10
sS'receptors'
p11
g3
((lp12
(S'5ht1a'
p13
I39
I45
tp14
a(S'5ht1a'
p15
I284
I290
tp16
a(S'5ht1a'
p17
I458
I464
tp18
a(S'5ht1a'
p19
I902
I908
tp20
a(S'5ht1a'
p21
I75
I81
tp22
a(S'5ht1'
p23
I1036
I1041
tp24
a(S'5ht1a'
p25
I1147
I1153
tp26
atp27
Rp28
sS'raw_text_methods'
p29
g3
((lp30
tp31
Rp32
sS'regions'
p33
g3
((lp34
S"(11, u'(?i)\\\\b(cerebrals|cerebral)\\\\b')"
p35
aS"(19, u'(?i)\\\\b(cortexes|cortex)\\\\b')"
p36
atp37
Rp38
sS'year'
p39
V2005
p40
sS'species'
p41
g3
((lp42
S"(4, u'(?i)\\\\b(rats|rat)\\\\b')"
p43
atp44
Rp45
sb.