(ifile_types
ParseObject
p0
(dp1
S'methods'
p2
c__builtin__
set
p3
((lp4
S'Method.PET'
p5
atp6
Rp7
sS'topics'
p8
g3
((lp9
S"(5, u'\\\\btherap')"
p10
aS"(13, u'\\\\bantidepress')"
p11
aS"(4, u'\\\\btreatment')"
p12
atp13
Rp14
sS'receptors'
p15
g3
((lp16
(S'5ht1a'
p17
I1279
I1285
tp18
a(S'5ht1a'
p19
I1899
I1905
tp20
a(S'5ht1a'
p21
I743
I749
tp22
a(S'5ht1a'
p23
I1595
I1601
tp24
a(S'5ht1a'
p25
I1072
I1078
tp26
a(S'5ht1a'
p27
I1771
I1777
tp28
a(S'5ht1a'
p29
I1007
I1013
tp30
a(S'5ht1a'
p31
I452
I458
tp32
a(S'5ht1a'
p33
I1744
I1750
tp34
a(S'5ht1a'
p35
I80
I86
tp36
a(S'5ht1a'
p37
I395
I401
tp38
atp39
Rp40
sS'raw_text_methods'
p41
g3
((lp42
S"(15, u'\\\\b8ohdpat')"
p43
aS"(19, u'\\\\bpositron emission tomography')"
p44
aS"(18, u'\\\\bimaging')"
p45
aS"(54, u'\\\\bautoradiography')"
p46
aS"(39, u'\\\\bselective serotonin reuptake inhibitor')"
p47
atp48
Rp49
sS'regions'
p50
g3
((lp51
S"(19, u'(?i)\\\\b(cortexes|cortex)\\\\b')"
p52
aS"(3, u'(?i)\\\\b(postsynaptics|postsynaptic)\\\\b')"
p53
atp54
Rp55
sS'year'
p56
V2009
p57
sS'species'
p58
g3
((lp59
S"(1, u'(?i)\\\\b(mice|mouse)\\\\b')"
p60
aS"(5, u'(?i)\\\\b(mices|mice)\\\\b')"
p61
aS"(4, u'(?i)\\\\b(rats|rat)\\\\b')"
p62
atp63
Rp64
sb.