(ifile_types
ParseObject
p0
(dp1
S'antagonists'
p2
c__builtin__
set
p3
((lp4
tp5
Rp6
sS'methods'
p7
g3
((lp8
S'Method.AGONIST'
p9
atp10
Rp11
sS'topics'
p12
g3
((lp13
S"(16, u'\\\\bfeed')"
p14
atp15
Rp16
sS'receptors'
p17
g3
((lp18
S'5ht1a'
p19
aS'5ht2c'
p20
atp21
Rp22
sS'regions'
p23
g3
((lp24
S"(159, u'(?i)(paraventriculars|paraventricular)(-|\\\\s+)?(nuclei|nucleus)')"
p25
atp26
Rp27
sS'year'
p28
V2007
p29
sS'agonists'
p30
g3
((lp31
S"(92, u'\\\\b8 ?oh ?dpat')"
p32
aS"(147, u'\\\\bro60 ?0175')"
p33
atp34
Rp35
sS'species'
p36
g3
((lp37
S"(4301, u'(?i)(hydras|hydra)')"
p38
aS"(5958, u'(?i)(rats|rat)')"
p39
aS"(5743, u'(?i)(bots|bot)')"
p40
aS"(1055, u'(?i)(men|man)')"
p41
aS"(3592, u'(?i)(ravens|raven)')"
p42
aS"(4979, u'(?i)(cats|cat)')"
p43
aS"(3550, u'(?i)(anis|ani)')"
p44
aS"(3812, u'(?i)(studs|stud)')"
p45
aS"(6391, u'(?i)(asses|ass)')"
p46
aS"(6356, u'(?i)(ais|ai)')"
p47
atp48
Rp49
sb.