(ifile_types
ParseObject
p0
(dp1
S'methods'
p2
c__builtin__
set
p3
((lp4
S'Method.ANTAGONIST'
p5
aS'Method.AGONIST'
p6
atp7
Rp8
sS'topics'
p9
g3
((lp10
tp11
Rp12
sS'receptors'
p13
g3
((lp14
(S'5ht2b'
p15
I1060
I1066
tp16
a(S'5ht2a'
p17
I877
I883
tp18
a(S'5ht2'
p19
I792
I797
tp20
a(S'5ht2a'
p21
I407
I413
tp22
a(S'5ht2a'
p23
I261
I267
tp24
a(S'5ht2c'
p25
I1060
I1067
tp26
a(S'5ht2a'
p27
I1576
I1582
tp28
a(S'5ht2a'
p29
I111
I117
tp30
atp31
Rp32
sS'raw_text_methods'
p33
g3
((lp34
S"(13, u'\\\\bagonist')"
p35
aS"(46, u'\\\\bspiperone')"
p36
aS"(49, u'\\\\bdoi')"
p37
aS"(53, u'\\\\bketanserin')"
p38
aS"(12, u'\\\\bantagonist')"
p39
atp40
Rp41
sS'regions'
p42
g3
((lp43
tp44
Rp45
sS'year'
p46
V2002
p47
sS'species'
p48
g3
((lp49
tp50
Rp51
sb.