(ifile_types
ParseObject
p0
(dp1
S'methods'
p2
c__builtin__
set
p3
((lp4
S'Method.ANTAGONIST'
p5
atp6
Rp7
sS'topics'
p8
g3
((lp9
S"(1, u'\\\\bpatient')"
p10
aS"(27, u'\\\\bdyskinesia')"
p11
aS"(5, u'\\\\btherap')"
p12
aS"(4, u'\\\\btreatment')"
p13
aS"(34, u'\\\\bparkinson')"
p14
atp15
Rp16
sS'receptors'
p17
g3
((lp18
(S'5ht1'
p19
I562
I567
tp20
a(S'5ht1b'
p21
I1771
I1777
tp22
a(S'5ht1b'
p23
I1254
I1260
tp24
a(S'5ht1b'
p25
I412
I418
tp26
atp27
Rp28
sS'raw_text_methods'
p29
g3
((lp30
S"(30, u'\\\\b2methyl')"
p31
aS"(54, u'\\\\bautoradiography')"
p32
aS"(12, u'\\\\bantagonist')"
p33
atp34
Rp35
sS'regions'
p36
g3
((lp37
tp38
Rp39
sS'year'
p40
V2015
p41
sS'species'
p42
g3
((lp43
tp44
Rp45
sb.