(ifile_types
ParseObject
p0
(dp1
S'antagonists'
p2
c__builtin__
set
p3
((lp4
S"(31, u'\\\\bway ?100135')"
p5
aS"(43, u'\\\\bbrl ?15572')"
p6
aS"(45, u'\\\\bgr ?127935')"
p7
aS"(39, u'\\\\bsb ?224289')"
p8
atp9
Rp10
sS'methods'
p11
g3
((lp12
S'Method.ANTAGONIST'
p13
aS'Method.AGONIST'
p14
atp15
Rp16
sS'topics'
p17
g3
((lp18
tp19
Rp20
sS'receptors'
p21
g3
((lp22
S'5ht1b'
p23
aS'5ht5'
p24
aS'5ht1a'
p25
aS'5ht1d'
p26
atp27
Rp28
sS'regions'
p29
g3
((lp30
tp31
Rp32
sS'year'
p33
V1999
p34
sS'agonists'
p35
g3
((lp36
tp37
Rp38
sS'species'
p39
g3
((lp40
S"(2323, u'(?i)(bees|bee)')"
p41
aS"(2568, u'(?i)(hens|hen)')"
p42
aS"(931, u'(?i)(divers|diver)')"
p43
aS"(6682, u'(?i)(tera|teras)')"
p44
aS"(6249, u'(?i)(ants|ant)')"
p45
aS"(468, u'(?i)(oxen|ox)')"
p46
aS"(1055, u'(?i)(men|man)')"
p47
aS"(3726, u'(?i)(mates|mate)')"
p48
aS"(5958, u'(?i)(rats|rat)')"
p49
aS"(1057, u'(?i)(humans|human)')"
p50
aS"(6356, u'(?i)(ais|ai)')"
p51
aS"(3196, u'(?i)(human|humans)')"
p52
aS"(5949, u'(?i)(dogs|dog)')"
p53
atp54
Rp55
sb.