(ifile_types
ParseObject
p0
(dp1
S'methods'
p2
c__builtin__
set
p3
((lp4
S'Method.AGONIST'
p5
atp6
Rp7
sS'topics'
p8
g3
((lp9
S"(4, u'\\\\btreatment')"
p10
atp11
Rp12
sS'receptors'
p13
g3
((lp14
(S'5ht4'
p15
I335
I340
tp16
a(S'5ht4e'
p17
I640
I646
tp18
a(S'5ht4d'
p19
I767
I773
tp20
a(S'5ht4d'
p21
I1103
I1109
tp22
a(S'5ht4d'
p23
I414
I420
tp24
a(S'5ht4d'
p25
I565
I571
tp26
a(S'5ht4d'
p27
I1802
I1807
tp28
a(S'5ht4'
p29
I167
I172
tp30
a(S'5ht4d'
p31
I1377
I1383
tp32
a(S'5ht4e'
p33
I461
I467
tp34
a(S'5ht4d'
p35
I447
I453
tp36
a(S'5ht4'
p37
I1676
I1681
tp38
a(S'5ht4d'
p39
I54
I60
tp40
atp41
Rp42
sS'raw_text_methods'
p43
g3
((lp44
S"(13, u'\\\\bagonist')"
p45
atp46
Rp47
sS'regions'
p48
g3
((lp49
tp50
Rp51
sS'year'
p52
V2003
p53
sS'species'
p54
g3
((lp55
tp56
Rp57
sb.