(ifile_types
ParseObject
p0
(dp1
S'methods'
p2
c__builtin__
set
p3
((lp4
tp5
Rp6
sS'topics'
p7
g3
((lp8
S"(26, u'\\\\bbehav')"
p9
aS"(2, u'\\\\bdisorder')"
p10
atp11
Rp12
sS'receptors'
p13
g3
((lp14
(S'5ht1b'
p15
I1106
I1112
tp16
a(S'5ht1b'
p17
I91
I97
tp18
a(S'5ht1b'
p19
I392
I398
tp20
a(S'5ht1b'
p21
I1439
I1445
tp22
a(S'5ht1b'
p23
I1767
I1773
tp24
a(S'5ht1b'
p25
I1890
I1896
tp26
a(S'5ht1b'
p27
I1248
I1254
tp28
a(S'5ht1b'
p29
I1617
I1623
tp30
a(S'5ht1b'
p31
I239
I245
tp32
atp33
Rp34
sS'raw_text_methods'
p35
g3
((lp36
tp37
Rp38
sS'regions'
p39
g3
((lp40
S"(15, u'(?i)\\\\b(substantias|substantia)(-|\\\\s+)?(nigras|nigra)\\\\b')"
p41
atp42
Rp43
sS'year'
p44
V2019
p45
sS'species'
p46
g3
((lp47
S"(4, u'(?i)\\\\b(rats|rat)\\\\b')"
p48
atp49
Rp50
sb.