(ifile_types
ParseObject
p0
(dp1
S'methods'
p2
c__builtin__
set
p3
((lp4
S'Method.STIMULATION'
p5
aS'Method.AGONIST'
p6
atp7
Rp8
sS'topics'
p9
g3
((lp10
S"(26, u'\\\\bbehav')"
p11
aS"(4, u'\\\\btreatment')"
p12
atp13
Rp14
sS'receptors'
p15
g3
((lp16
(S'5ht1'
p17
I939
I944
tp18
a(S'5ht2'
p19
I991
I998
tp20
a(S'5ht2c'
p21
I1439
I1447
tp22
a(S'5ht1'
p23
I1462
I1467
tp24
a(S'5ht2a'
p25
I991
I997
tp26
a(S'5ht2'
p27
I1439
I1447
tp28
a(S'5ht2a'
p29
I1439
I1445
tp30
atp31
Rp32
sS'raw_text_methods'
p33
g3
((lp34
S"(13, u'\\\\bagonist')"
p35
aS"(15, u'\\\\b8ohdpat')"
p36
aS"(49, u'\\\\bdoi')"
p37
atp38
Rp39
sS'regions'
p40
g3
((lp41
tp42
Rp43
sS'year'
p44
V2005
p45
sS'species'
p46
g3
((lp47
S"(3, u'(?i)\\\\b(males|male)\\\\b')"
p48
aS"(4, u'(?i)\\\\b(rats|rat)\\\\b')"
p49
atp50
Rp51
sb.