(ifile_types
ParseObject
p0
(dp1
S'methods'
p2
c__builtin__
set
p3
((lp4
S'Method.AGONIST'
p5
atp6
Rp7
sS'topics'
p8
g3
((lp9
tp10
Rp11
sS'receptors'
p12
g3
((lp13
(S'5ht1a'
p14
I1705
I1711
tp15
atp16
Rp17
sS'raw_text_methods'
p18
g3
((lp19
S"(33, u'\\\\bmcpp')"
p20
aS"(15, u'\\\\b8ohdpat')"
p21
aS"(34, u'\\\\b5ct')"
p22
aS"(13, u'\\\\bagonist')"
p23
aS"(30, u'\\\\b2methyl')"
p24
aS"(46, u'\\\\bspiperone')"
p25
atp26
Rp27
sS'regions'
p28
g3
((lp29
S"(11, u'(?i)\\\\b(cerebrals|cerebral)\\\\b')"
p30
aS"(19, u'(?i)\\\\b(cortexes|cortex)\\\\b')"
p31
atp32
Rp33
sS'year'
p34
V1990
p35
sS'species'
p36
g3
((lp37
S"(4, u'(?i)\\\\b(rats|rat)\\\\b')"
p38
atp39
Rp40
sb.