(ifile_types
ParseObject
p0
(dp1
S'methods'
p2
c__builtin__
set
p3
((lp4
S'Method.ANTAGONIST'
p5
atp6
Rp7
sS'topics'
p8
g3
((lp9
tp10
Rp11
sS'receptors'
p12
g3
((lp13
(S'5ht3'
p14
I2097
I2102
tp15
a(S'5ht1'
p16
I2086
I2092
tp17
a(S'5ht2a'
p18
I1677
I1683
tp19
a(S'5ht2'
p20
I1496
I1501
tp21
a(S'5ht3a'
p22
I2097
I2103
tp23
a(S'5ht2a'
p24
I2414
I2420
tp25
a(S'5ht1a'
p26
I2070
I2076
tp27
a(S'5ht1b'
p28
I2078
I2084
tp29
a(S'5ht1c'
p30
I1854
I1860
tp31
a(S'5ht2b'
p32
I2563
I2569
tp33
a(S'5ht1d'
p34
I2086
I2092
tp35
a(S'5ht2a'
p36
I2251
I2257
tp37
a(S'5ht2b'
p38
I1765
I1771
tp39
atp40
Rp41
sS'raw_text_methods'
p42
g3
((lp43
S"(12, u'\\\\bantagonist')"
p44
atp45
Rp46
sS'regions'
p47
g3
((lp48
S"(19, u'(?i)\\\\b(cortexes|cortex)\\\\b')"
p49
atp50
Rp51
sS'year'
p52
V1989
p53
sS'species'
p54
g3
((lp55
S"(4, u'(?i)\\\\b(rats|rat)\\\\b')"
p56
atp57
Rp58
sb.