(ifile_types
ParseObject
p0
(dp1
S'methods'
p2
c__builtin__
set
p3
((lp4
S'Method.PET'
p5
atp6
Rp7
sS'topics'
p8
g3
((lp9
tp10
Rp11
sS'receptors'
p12
g3
((lp13
(S'5ht1b'
p14
I2072
I2078
tp15
a(S'5ht1b'
p16
I50
I56
tp17
a(S'5ht1b'
p18
I307
I313
tp19
a(S'5ht1b'
p20
I852
I858
tp21
a(S'5ht1b'
p22
I252
I258
tp23
atp24
Rp25
sS'raw_text_methods'
p26
g3
((lp27
S"(19, u'\\\\bpositron emission tomography')"
p28
aS"(18, u'\\\\bimaging')"
p29
atp30
Rp31
sS'regions'
p32
g3
((lp33
S"(22, u'(?i)\\\\b(anteriors|anterior)(-|\\\\s+)?(cingulates|cingulate)\\\\b')"
p34
aS"(19, u'(?i)\\\\b(cortexes|cortex)\\\\b')"
p35
aS"(12, u'(?i)\\\\b(amygdalas|amygdala)\\\\b')"
p36
aS"(17, u'(?i)\\\\b(caudates|caudate)\\\\b')"
p37
aS"(18, u'(?i)\\\\b(putamens|putamen)\\\\b')"
p38
atp39
Rp40
sS'year'
p41
V2014
p42
sS'species'
p43
g3
((lp44
tp45
Rp46
sb.