(ifile_types
ParseObject
p0
(dp1
S'antagonists'
p2
c__builtin__
set
p3
((lp4
tp5
Rp6
sS'methods'
p7
g3
((lp8
S'Method.AGONIST'
p9
atp10
Rp11
sS'topics'
p12
g3
((lp13
S"(15, u'\\\\bschizophreni')"
p14
aS"(9, u'\\\\bdepress')"
p15
aS"(2, u'\\\\bappetite')"
p16
aS"(10, u'\\\\banxiety')"
p17
aS"(14, u'\\\\bpsychosis')"
p18
atp19
Rp20
sS'receptors'
p21
g3
((lp22
S'5ht5'
p23
aS'5ht2c'
p24
atp25
Rp26
sS'regions'
p27
g3
((lp28
S"(34, u'(?i)(pon|pons)')"
p29
atp30
Rp31
sS'year'
p32
V2015
p33
sS'agonists'
p34
g3
((lp35
S"(172, u'\\\\bmk ?212')"
p36
atp37
Rp38
sS'species'
p39
g3
((lp40
S"(1070, u'(?i)(pets|pet)')"
p41
aS"(2323, u'(?i)(bees|bee)')"
p42
aS"(5958, u'(?i)(rats|rat)')"
p43
aS"(867, u'(?i)(tits|tit)')"
p44
aS"(1049, u'(?i)(elands|eland)')"
p45
aS"(4979, u'(?i)(cats|cat)')"
p46
aS"(479, u'(?i)(lings|ling)')"
p47
aS"(5967, u'(?i)(males|male)')"
p48
aS"(2334, u'(?i)(eels|eel)')"
p49
aS"(853, u'(?i)(minas|mina)')"
p50
aS"(6249, u'(?i)(ants|ant)')"
p51
aS"(3812, u'(?i)(studs|stud)')"
p52
aS"(6391, u'(?i)(asses|ass)')"
p53
aS"(6356, u'(?i)(ais|ai)')"
p54
atp55
Rp56
sb.