(ifile_types
ParseObject
p0
(dp1
S'methods'
p2
c__builtin__
set
p3
((lp4
S'Method.PET'
p5
aS'Method.KNOCKOUT'
p6
atp7
Rp8
sS'topics'
p9
g3
((lp10
S"(5, u'\\\\btherap')"
p11
aS"(13, u'\\\\bantidepress')"
p12
aS"(4, u'\\\\btreatment')"
p13
atp14
Rp15
sS'receptors'
p16
g3
((lp17
(S'5ht1a'
p18
I449
I455
tp19
a(S'5ht1a'
p20
I1059
I1065
tp21
a(S'5ht1a'
p22
I394
I400
tp23
a(S'5ht1a'
p24
I1876
I1882
tp25
a(S'5ht1a'
p26
I996
I1002
tp27
a(S'5ht1a'
p28
I1263
I1268
tp29
a(S'5ht1a'
p30
I80
I86
tp31
a(S'5ht1a'
p32
I1578
I1584
tp33
a(S'5ht1a'
p34
I738
I744
tp35
a(S'5ht1a'
p36
I1725
I1731
tp37
a(S'5ht1a'
p38
I1750
I1756
tp39
atp40
Rp41
sS'raw_text_methods'
p42
g3
((lp43
S"(15, u'\\\\b8ohdpat')"
p44
aS"(19, u'\\\\bpositron emission tomography')"
p45
aS"(18, u'\\\\bimaging')"
p46
aS"(54, u'\\\\bautoradiography')"
p47
aS"(39, u'\\\\bselective serotonin reuptake inhibitor')"
p48
atp49
Rp50
sS'regions'
p51
g3
((lp52
S"(19, u'(?i)\\\\b(cortexes|cortex)\\\\b')"
p53
aS"(3, u'(?i)\\\\b(postsynaptics|postsynaptic)\\\\b')"
p54
atp55
Rp56
sS'year'
p57
V2009
p58
sS'species'
p59
g3
((lp60
S"(1, u'(?i)\\\\b(mice|mouse)\\\\b')"
p61
aS"(5, u'(?i)\\\\b(mices|mice)\\\\b')"
p62
aS"(4, u'(?i)\\\\b(rats|rat)\\\\b')"
p63
atp64
Rp65
sb.