(ifile_types
ParseObject
p0
(dp1
S'antagonists'
p2
c__builtin__
set
p3
((lp4
tp5
Rp6
sS'methods'
p7
g3
((lp8
S'Method.ANTAGONIST'
p9
atp10
Rp11
sS'topics'
p12
g3
((lp13
tp14
Rp15
sS'receptors'
p16
g3
((lp17
tp18
Rp19
sS'regions'
p20
g3
((lp21
tp22
Rp23
sS'year'
p24
V2018
p25
sS'agonists'
p26
g3
((lp27
tp28
Rp29
sS'species'
p30
g3
((lp31
S"(4091, u'(?i)\\\\b(adults|adult)\\\\b')"
p32
aS"(163, u'(?i)\\\\b(mice|mouse)\\\\b')"
p33
atp34
Rp35
sb.