(ifile_types
ParseObject
p0
(dp1
S'methods'
p2
c__builtin__
set
p3
((lp4
tp5
Rp6
sS'topics'
p7
g3
((lp8
S"(1, u'\\\\bpatient')"
p9
aS"(2, u'\\\\bdisorder')"
p10
atp11
Rp12
sS'receptors'
p13
g3
((lp14
(S'5ht1b'
p15
I1034
I1040
tp16
a(S'5ht1b'
p17
I1366
I1372
tp18
atp19
Rp20
sS'raw_text_methods'
p21
g3
((lp22
tp23
Rp24
sS'regions'
p25
g3
((lp26
S"(19, u'(?i)\\\\b(cortexes|cortex)\\\\b')"
p27
atp28
Rp29
sS'year'
p30
V2013
p31
sS'species'
p32
g3
((lp33
S"(1, u'(?i)\\\\b(mice|mouse)\\\\b')"
p34
aS"(5, u'(?i)\\\\b(mices|mice)\\\\b')"
p35
atp36
Rp37
sb.