(ifile_types
ParseObject
p0
(dp1
S'antagonists'
p2
c__builtin__
set
p3
((lp4
S"(204, u'\\\\bsb ?269970')"
p5
aS"(32, u'\\\\bway ?100635')"
p6
aS"(105, u'\\\\bmethysergide')"
p7
atp8
Rp9
sS'methods'
p10
g3
((lp11
S'Method.ANTAGONIST'
p12
atp13
Rp14
sS'topics'
p15
g3
((lp16
tp17
Rp18
sS'receptors'
p19
g3
((lp20
S'5ht7'
p21
aS'5ht1a'
p22
atp23
Rp24
sS'regions'
p25
g3
((lp26
S"(34, u'(?i)(pon|pons)')"
p27
atp28
Rp29
sS'year'
p30
V2010
p31
sS'agonists'
p32
g3
((lp33
S"(60, u'\\\\bmethysergide')"
p34
atp35
Rp36
sS'species'
p37
g3
((lp38
S"(6753, u'(?i)(da|das)')"
p39
aS"(1169, u'(?i)(grades|grade)')"
p40
aS"(5176, u'(?i)(tegs|teg)')"
p41
aS"(7552, u'(?i)(bats|bat)')"
p42
aS"(479, u'(?i)(lings|ling)')"
p43
aS"(81, u'(?i)(asps|asp)')"
p44
aS"(468, u'(?i)(oxen|ox)')"
p45
aS"(1055, u'(?i)(men|man)')"
p46
aS"(6249, u'(?i)(ants|ant)')"
p47
aS"(4979, u'(?i)(cats|cat)')"
p48
aS"(5958, u'(?i)(rats|rat)')"
p49
aS"(6682, u'(?i)(tera|teras)')"
p50
aS"(7094, u'(?i)(curs|cur)')"
p51
aS"(6356, u'(?i)(ais|ai)')"
p52
aS"(391, u'(?i)(alli|allis)')"
p53
aS"(5949, u'(?i)(dogs|dog)')"
p54
atp55
Rp56
sb.