(ifile_types
ParseObject
p0
(dp1
S'antagonists'
p2
c__builtin__
set
p3
((lp4
tp5
Rp6
sS'methods'
p7
g3
((lp8
S'Method.ANTAGONIST'
p9
aS'Method.AGONIST'
p10
atp11
Rp12
sS'topics'
p13
g3
((lp14
S"(34, u'\\\\bdementia')"
p15
aS"(9, u'\\\\bdepress')"
p16
aS"(11, u'\\\\banxiolyt')"
p17
aS"(10, u'\\\\banxiety')"
p18
aS"(30, u'\\\\bparkinsons')"
p19
atp20
Rp21
sS'receptors'
p22
g3
((lp23
S'5ht5'
p24
aS'5ht1a'
p25
aS'5ht2'
p26
atp27
Rp28
sS'regions'
p29
g3
((lp30
tp31
Rp32
sS'year'
p33
V2015
p34
sS'agonists'
p35
g3
((lp36
S"(24, u'\\\\bbuspirone')"
p37
atp38
Rp39
sS'species'
p40
g3
((lp41
S"(6249, u'(?i)(ants|ant)')"
p42
aS"(4201, u'(?i)(kines|kine)')"
p43
aS"(1055, u'(?i)(men|man)')"
p44
aS"(4979, u'(?i)(cats|cat)')"
p45
aS"(3550, u'(?i)(anis|ani)')"
p46
aS"(6356, u'(?i)(ais|ai)')"
p47
atp48
Rp49
sb.