(ifile_types
ParseObject
p0
(dp1
S'methods'
p2
c__builtin__
set
p3
((lp4
S'Method.AGONIST'
p5
atp6
Rp7
sS'topics'
p8
g3
((lp9
S"(22, u'\\\\bschizophreni')"
p10
aS"(5, u'\\\\btherap')"
p11
aS"(26, u'\\\\bbehav')"
p12
aS"(33, u'\\\\blocomot')"
p13
aS"(23, u'\\\\bantipsychotic')"
p14
atp15
Rp16
sS'receptors'
p17
g3
((lp18
(S'5ht1a'
p19
I37
I48
tp20
a(S'5ht1a'
p21
I557
I563
tp22
a(S'5ht5'
p23
I220
I230
tp24
a(S'5ht1a'
p25
I2002
I2008
tp26
a(S'5ht1a'
p27
I676
I682
tp28
atp29
Rp30
sS'raw_text_methods'
p31
g3
((lp32
S"(15, u'\\\\b8ohdpat')"
p33
aS"(42, u'\\\\bneuroleptics')"
p34
aS"(41, u'\\\\bhaloperidol')"
p35
atp36
Rp37
sS'regions'
p38
g3
((lp39
S"(4, u'(?i)\\\\b(presynaptics|presynaptic)\\\\b')"
p40
aS"(3, u'(?i)\\\\b(postsynaptics|postsynaptic)\\\\b')"
p41
atp42
Rp43
sS'year'
p44
V2008
p45
sS'species'
p46
g3
((lp47
S"(4, u'(?i)\\\\b(rats|rat)\\\\b')"
p48
atp49
Rp50
sb.