(ifile_types
ParseObject
p0
(dp1
S'antagonists'
p2
c__builtin__
set
p3
((lp4
S"(27, u'\\\\bspiperone')"
p5
atp6
Rp7
sS'methods'
p8
g3
((lp9
S'Method.ANTAGONIST'
p10
aS'Method.IMMUNOHISTOCHEMISTRY'
p11
atp12
Rp13
sS'topics'
p14
g3
((lp15
S"(17, u'\\\\bgroom')"
p16
aS"(9, u'\\\\bdepress')"
p17
aS"(35, u'\\\\bstress')"
p18
aS"(4, u'\\\\blocomot')"
p19
atp20
Rp21
sS'receptors'
p22
g3
((lp23
S'5ht1a'
p24
aS'5ht5'
p25
aS'5ht1'
p26
atp27
Rp28
sS'regions'
p29
g3
((lp30
S"(244, u'(?i)(piriforms|piriform)(-|\\\\s+)?(cortexes|cortex)')"
p31
aS"(256, u'(?i)(orbitofrontals|orbitofrontal)(-|\\\\s+)?(cortexes|cortex)')"
p32
aS"(291, u'(?i)(cingulates|cingulate)(-|\\\\s+)?(cortexes|cortex)')"
p33
atp34
Rp35
sS'year'
p36
V2009
p37
sS'agonists'
p38
g3
((lp39
tp40
Rp41
sS'species'
p42
g3
((lp43
S"(2323, u'(?i)(bees|bee)')"
p44
aS"(5967, u'(?i)(males|male)')"
p45
aS"(2568, u'(?i)(hens|hen)')"
p46
aS"(5958, u'(?i)(rats|rat)')"
p47
aS"(6753, u'(?i)(da|das)')"
p48
aS"(6391, u'(?i)(asses|ass)')"
p49
aS"(473, u'(?i)(rabbits|rabbit)')"
p50
aS"(468, u'(?i)(oxen|ox)')"
p51
aS"(1349, u'(?i)(rams|ram)')"
p52
aS"(3726, u'(?i)(mates|mate)')"
p53
aS"(1055, u'(?i)(men|man)')"
p54
aS"(2942, u'(?i)(daws|daw)')"
p55
aS"(3550, u'(?i)(anis|ani)')"
p56
aS"(1057, u'(?i)(humans|human)')"
p57
aS"(1961, u'(?i)(pens|pen)')"
p58
aS"(6356, u'(?i)(ais|ai)')"
p59
aS"(3196, u'(?i)(human|humans)')"
p60
aS"(6249, u'(?i)(ants|ant)')"
p61
atp62
Rp63
sb.