(ifile_types
ParseObject
p0
(dp1
S'methods'
p2
c__builtin__
set
p3
((lp4
S'Method.ANTAGONIST'
p5
atp6
Rp7
sS'topics'
p8
g3
((lp9
tp10
Rp11
sS'receptors'
p12
g3
((lp13
(S'5ht3'
p14
I98
I103
tp15
a(S'5ht3'
p16
I294
I299
tp17
a(S'5ht3'
p18
I1546
I1551
tp19
atp20
Rp21
sS'raw_text_methods'
p22
g3
((lp23
S"(20, u'\\\\bondansetron')"
p24
aS"(54, u'\\\\bautoradiography')"
p25
aS"(12, u'\\\\bantagonist')"
p26
atp27
Rp28
sS'regions'
p29
g3
((lp30
S"(11, u'(?i)\\\\b(cerebrals|cerebral)\\\\b')"
p31
aS"(19, u'(?i)\\\\b(cortexes|cortex)\\\\b')"
p32
aS"(7, u'(?i)\\\\b(entorhinals|entorhinal)\\\\b')"
p33
atp34
Rp35
sS'year'
p36
V1991
p37
sS'species'
p38
g3
((lp39
S"(4, u'(?i)\\\\b(rats|rat)\\\\b')"
p40
atp41
Rp42
sb.