(ifile_types
ParseObject
p0
(dp1
S'antagonists'
p2
c__builtin__
set
p3
((lp4
tp5
Rp6
sS'methods'
p7
g3
((lp8
S'Method.ANTAGONIST'
p9
aS'Method.AGONIST'
p10
atp11
Rp12
sS'topics'
p13
g3
((lp14
tp15
Rp16
sS'receptors'
p17
g3
((lp18
S'5ht1a'
p19
aS'5ht2'
p20
aS'5ht2a'
p21
atp22
Rp23
sS'regions'
p24
g3
((lp25
S"(157, u'(?i)(limbics|limbic)(-|\\\\s+)?(systems|system)')"
p26
atp27
Rp28
sS'year'
p29
V1996
p30
sS'agonists'
p31
g3
((lp32
tp33
Rp34
sS'species'
p35
g3
((lp36
S"(949, u'(?i)(cohoes|coho)')"
p37
aS"(5958, u'(?i)(rats|rat)')"
p38
aS"(6753, u'(?i)(da|das)')"
p39
aS"(4163, u'(?i)(ermines|ermine)')"
p40
aS"(468, u'(?i)(oxen|ox)')"
p41
aS"(6249, u'(?i)(ants|ant)')"
p42
aS"(2568, u'(?i)(hens|hen)')"
p43
aS"(5743, u'(?i)(bots|bot)')"
p44
aS"(3550, u'(?i)(anis|ani)')"
p45
aS"(3426, u'(?i)(hares|hare)')"
p46
aS"(1961, u'(?i)(pens|pen)')"
p47
aS"(3812, u'(?i)(studs|stud)')"
p48
aS"(6356, u'(?i)(ais|ai)')"
p49
atp50
Rp51
sb.