(ifile_types
ParseObject
p0
(dp1
S'antagonists'
p2
c__builtin__
set
p3
((lp4
S"(52, u'\\\\bmetergoline')"
p5
aS"(22, u'\\\\bpropranolol')"
p6
aS"(34, u'\\\\byohimbine')"
p7
aS"(35, u'\\\\bmetergoline')"
p8
aS"(11, u'\\\\bisamoltane')"
p9
atp10
Rp11
sS'methods'
p12
g3
((lp13
S'Method.ANTAGONIST'
p14
aS'Method.AGONIST'
p15
atp16
Rp17
sS'topics'
p18
g3
((lp19
tp20
Rp21
sS'receptors'
p22
g3
((lp23
S'5ht1b'
p24
aS'5ht1d'
p25
atp26
Rp27
sS'regions'
p28
g3
((lp29
S"(34, u'(?i)(pon|pons)')"
p30
atp31
Rp32
sS'year'
p33
V1991
p34
sS'agonists'
p35
g3
((lp36
S"(74, u'\\\\bru ?24969')"
p37
aS"(105, u'\\\\b5 ?carboxamidotryptamine')"
p38
aS"(5, u'\\\\b5 ?ct')"
p39
aS"(89, u'\\\\byohimbine')"
p40
aS"(92, u'\\\\b8 ?oh ?dpat')"
p41
aS"(50, u'\\\\bipsapirone')"
p42
atp43
Rp44
sS'species'
p45
g3
((lp46
S"(4163, u'(?i)(ermines|ermine)')"
p47
aS"(7094, u'(?i)(curs|cur)')"
p48
aS"(5958, u'(?i)(rats|rat)')"
p49
aS"(6356, u'(?i)(ais|ai)')"
p50
aS"(468, u'(?i)(oxen|ox)')"
p51
aS"(3062, u'(?i)(guineas|guinea)')"
p52
aS"(5838, u'(?i)(cubs|cub)')"
p53
aS"(3522, u'(?i)(tetras|tetra)')"
p54
aS"(821, u'(?i)(lice|louse)')"
p55
aS"(853, u'(?i)(minas|mina)')"
p56
aS"(6249, u'(?i)(ants|ant)')"
p57
aS"(3527, u'(?i)(permits|permit)')"
p58
aS"(867, u'(?i)(tits|tit)')"
p59
aS"(473, u'(?i)(rabbits|rabbit)')"
p60
aS"(6682, u'(?i)(tera|teras)')"
p61
aS"(1055, u'(?i)(men|man)')"
p62
aS"(6753, u'(?i)(da|das)')"
p63
aS"(4480, u'(?i)(guineas|guinea)(-|\\\\s+)?(pigs|pig)')"
p64
aS"(2568, u'(?i)(hens|hen)')"
p65
aS"(4979, u'(?i)(cats|cat)')"
p66
aS"(3051, u'(?i)(pigs|pig)')"
p67
aS"(7552, u'(?i)(bats|bat)')"
p68
atp69
Rp70
sb.