(ifile_types
ParseObject
p0
(dp1
S'methods'
p2
c__builtin__
set
p3
((lp4
S'Method.STAINING'
p5
aS'Method.IMMUNOHISTOCHEMISTRY'
p6
atp7
Rp8
sS'topics'
p9
g3
((lp10
tp11
Rp12
sS'receptors'
p13
g3
((lp14
(S'5ht7'
p15
I865
I870
tp16
a(S'5ht2c'
p17
I1026
I1032
tp18
a(S'5ht7'
p19
I659
I664
tp20
a(S'5ht2c'
p21
I648
I654
tp22
a(S'5ht2a'
p23
I640
I646
tp24
a(S'5ht2a'
p25
I799
I805
tp26
a(S'5ht2'
p27
I741
I746
tp28
atp29
Rp30
sS'raw_text_methods'
p31
g3
((lp32
S"(3, u'\\\\bimmunoreactiv')"
p33
atp34
Rp35
sS'regions'
p36
g3
((lp37
tp38
Rp39
sS'year'
p40
V1999
p41
sS'species'
p42
g3
((lp43
S"(3, u'(?i)\\\\b(males|male)\\\\b')"
p44
aS"(4, u'(?i)\\\\b(rats|rat)\\\\b')"
p45
atp46
Rp47
sb.