(ifile_types
ParseObject
p0
(dp1
S'antagonists'
p2
c__builtin__
set
p3
((lp4
tp5
Rp6
sS'methods'
p7
g3
((lp8
S'Method.PET'
p9
aS'Method.ANTAGONIST'
p10
aS'Method.AGONIST'
p11
atp12
Rp13
sS'topics'
p14
g3
((lp15
S"(21, u'\\\\bpain')"
p16
aS"(15, u'\\\\bschizophreni')"
p17
aS"(9, u'\\\\bdepress')"
p18
aS"(3, u'\\\\bsleep')"
p19
aS"(10, u'\\\\banxiety')"
p20
atp21
Rp22
sS'receptors'
p23
g3
((lp24
S'5ht7'
p25
aS'5ht1b'
p26
aS'5ht1a'
p27
aS'5ht1e'
p28
aS'5ht1'
p29
aS'5ht1d'
p30
aS'5ht5'
p31
aS'5ht1f'
p32
atp33
Rp34
sS'regions'
p35
g3
((lp36
S"(285, u'(?i)(entorhinals|entorhinal)(-|\\\\s+)?(cortexes|cortex)')"
p37
aS"(103, u'(?i)(substantias|substantia)(-|\\\\s+)?(nigras|nigra)')"
p38
aS"(71, u'(?i)(cerebellums|cerebellum)')"
p39
aS"(219, u'(?i)(basals|basal)(-|\\\\s+)?(ganglias|ganglia)')"
p40
aS"(126, u'(?i)(thalamuses|thalamus)')"
p41
aS"(318, u'(?i)(raphes|raphe)(-|\\\\s+)?(nuclei|nucleus)')"
p42
atp43
Rp44
sS'year'
p45
V2004
p46
sS'agonists'
p47
g3
((lp48
S"(95, u'\\\\bf ?15599')"
p49
atp50
Rp51
sS'species'
p52
g3
((lp53
S"(1070, u'(?i)(pets|pet)')"
p54
aS"(2323, u'(?i)(bees|bee)')"
p55
aS"(2568, u'(?i)(hens|hen)')"
p56
aS"(931, u'(?i)(divers|diver)')"
p57
aS"(6753, u'(?i)(da|das)')"
p58
aS"(468, u'(?i)(oxen|ox)')"
p59
aS"(1055, u'(?i)(men|man)')"
p60
aS"(7488, u'(?i)(molas|mola)')"
p61
aS"(4979, u'(?i)(cats|cat)')"
p62
aS"(6249, u'(?i)(ants|ant)')"
p63
aS"(5229, u'(?i)(moles|mole)')"
p64
aS"(3812, u'(?i)(studs|stud)')"
p65
aS"(6391, u'(?i)(asses|ass)')"
p66
aS"(2809, u'(?i)(toms|tom)')"
p67
aS"(5537, u'(?i)(hippos|hippo)')"
p68
aS"(6356, u'(?i)(ais|ai)')"
p69
atp70
Rp71
sb.