(ifile_types
ParseObject
p0
(dp1
S'antagonists'
p2
c__builtin__
set
p3
((lp4
tp5
Rp6
sS'methods'
p7
g3
((lp8
S'Method.AGONIST'
p9
atp10
Rp11
sS'topics'
p12
g3
((lp13
S"(8, u'\\\\blearning')"
p14
aS"(6, u'\\\\bcognit')"
p15
aS"(7, u'\\\\bmemory')"
p16
aS"(13, u'\\\\bpsychedel')"
p17
aS"(4, u'\\\\blocomot')"
p18
atp19
Rp20
sS'receptors'
p21
g3
((lp22
S'5ht5'
p23
atp24
Rp25
sS'regions'
p26
g3
((lp27
tp28
Rp29
sS'year'
p30
V2018
p31
sS'agonists'
p32
g3
((lp33
S"(163, u'\\\\bdmt')"
p34
aS"(237, u'\\\\bnn ?dimethyltryptamine')"
p35
aS"(155, u'\\\\bmem')"
p36
atp37
Rp38
sS'species'
p39
g3
((lp40
S"(7058, u'(?i)(does|doe)')"
p41
aS"(6753, u'(?i)(da|das)')"
p42
aS"(2568, u'(?i)(hens|hen)')"
p43
aS"(6356, u'(?i)(ais|ai)')"
p44
aS"(4657, u'(?i)(fish|fish)')"
p45
aS"(4979, u'(?i)(cats|cat)')"
p46
aS"(4091, u'(?i)(adults|adult)')"
p47
aS"(6682, u'(?i)(tera|teras)')"
p48
aS"(1055, u'(?i)(men|man)')"
p49
aS"(1349, u'(?i)(rams|ram)')"
p50
aS"(853, u'(?i)(minas|mina)')"
p51
aS"(3550, u'(?i)(anis|ani)')"
p52
aS"(3522, u'(?i)(tetras|tetra)')"
p53
aS"(5958, u'(?i)(rats|rat)')"
p54
aS"(5917, u'(?i)(roaches|roach)')"
p55
aS"(1014, u'(?i)(zebras|zebra)')"
p56
aS"(5743, u'(?i)(bots|bot)')"
p57
aS"(3812, u'(?i)(studs|stud)')"
p58
atp59
Rp60
sb.