(ifile_types
ParseObject
p0
(dp1
S'antagonists'
p2
c__builtin__
set
p3
((lp4
tp5
Rp6
sS'methods'
p7
g3
((lp8
tp9
Rp10
sS'topics'
p11
g3
((lp12
S"(9, u'\\\\bdepress')"
p13
aS"(35, u'\\\\bstress')"
p14
aS"(10, u'\\\\banxiety')"
p15
atp16
Rp17
sS'receptors'
p18
g3
((lp19
S'5ht1a'
p20
atp21
Rp22
sS'regions'
p23
g3
((lp24
tp25
Rp26
sS'year'
p27
V2010
p28
sS'agonists'
p29
g3
((lp30
tp31
Rp32
sS'species'
p33
g3
((lp34
S"(5967, u'(?i)\\\\b(males|male)\\\\b')"
p35
aS"(4096, u'(?i)\\\\b(chows|chow)\\\\b')"
p36
aS"(5958, u'(?i)\\\\b(rats|rat)\\\\b')"
p37
aS"(6580, u'(?i)\\\\b(dams|dam)\\\\b')"
p38
atp39
Rp40
sb.