(ifile_types
ParseObject
p0
(dp1
S'methods'
p2
c__builtin__
set
p3
((lp4
S'Method.AGONIST'
p5
atp6
Rp7
sS'topics'
p8
g3
((lp9
S"(20, u'\\\\bmood')"
p10
aS"(4, u'\\\\btreatment')"
p11
aS"(15, u'\\\\bmemory')"
p12
atp13
Rp14
sS'receptors'
p15
g3
((lp16
(S'5ht1'
p17
I1636
I1642
tp18
a(S'5ht1a'
p19
I902
I908
tp20
a(S'5ht1b'
p21
I1040
I1046
tp22
a(S'5ht1a'
p23
I887
I898
tp24
a(S'5ht1a'
p25
I1421
I1427
tp26
a(S'5ht1b'
p27
I1636
I1642
tp28
atp29
Rp30
sS'raw_text_methods'
p31
g3
((lp32
S"(13, u'\\\\bagonist')"
p33
atp34
Rp35
sS'regions'
p36
g3
((lp37
S"(19, u'(?i)\\\\b(cortexes|cortex)\\\\b')"
p38
aS"(8, u'(?i)\\\\b(centrals|central)(-|\\\\s+)?(nervouses|nervous)(-|\\\\s+)?(systems|system)\\\\b')"
p39
aS"(9, u'(?i)\\\\b(cerebellums|cerebellum)\\\\b')"
p40
aS"(12, u'(?i)\\\\b(amygdalas|amygdala)\\\\b')"
p41
atp42
Rp43
sS'year'
p44
V2000
p45
sS'species'
p46
g3
((lp47
S"(2, u'(?i)\\\\b(females|female)\\\\b')"
p48
aS"(4, u'(?i)\\\\b(rats|rat)\\\\b')"
p49
atp50
Rp51
sb.