(ifile_types
ParseObject
p0
(dp1
S'methods'
p2
c__builtin__
set
p3
((lp4
S'Method.ANTAGONIST'
p5
atp6
Rp7
sS'topics'
p8
g3
((lp9
S"(8, u'\\\\banxi')"
p10
aS"(7, u'\\\\bdepressi')"
p11
aS"(2, u'\\\\bdisorder')"
p12
atp13
Rp14
sS'receptors'
p15
g3
((lp16
(S'5ht1a'
p17
I149
I155
tp18
a(S'5ht5'
p19
I348
I358
tp20
a(S'5ht1a'
p21
I1755
I1761
tp22
a(S'5ht1a'
p23
I1528
I1534
tp24
atp25
Rp26
sS'raw_text_methods'
p27
g3
((lp28
S"(12, u'\\\\bantagonist')"
p29
atp30
Rp31
sS'regions'
p32
g3
((lp33
S"(19, u'(?i)\\\\b(cortexes|cortex)\\\\b')"
p34
aS"(23, u'(?i)\\\\b(forebrains|forebrain)\\\\b')"
p35
aS"(3, u'(?i)\\\\b(postsynaptics|postsynaptic)\\\\b')"
p36
atp37
Rp38
sS'year'
p39
V2016
p40
sS'species'
p41
g3
((lp42
S"(6, u'(?i)\\\\b(rodents|rodent)\\\\b')"
p43
aS"(4, u'(?i)\\\\b(rats|rat)\\\\b')"
p44
atp45
Rp46
sb.