(ifile_types
ParseObject
p0
(dp1
S'antagonists'
p2
c__builtin__
set
p3
((lp4
S"(124, u'\\\\bondansetron')"
p5
aS"(33, u'\\\\byohimbine')"
p6
atp7
Rp8
sS'methods'
p9
g3
((lp10
S'Method.ANTAGONIST'
p11
aS'Method.AGONIST'
p12
atp13
Rp14
sS'topics'
p15
g3
((lp16
S"(21, u'\\\\bpain')"
p17
atp18
Rp19
sS'receptors'
p20
g3
((lp21
S'5ht3d'
p22
aS'5ht3'
p23
atp24
Rp25
sS'regions'
p26
g3
((lp27
S"(362, u'(?i)\\\\b(brains|brain)(-|\\\\s+)?(stems|stem)\\\\b')"
p28
atp29
Rp30
sS'year'
p31
V2015
p32
sS'agonists'
p33
g3
((lp34
S"(82, u'\\\\byohimbine')"
p35
atp36
Rp37
sS'species'
p38
g3
((lp39
S"(1057, u'(?i)\\\\b(humans|human)\\\\b')"
p40
aS"(5783, u'(?i)\\\\b(hinds|hind)\\\\b')"
p41
aS"(5958, u'(?i)\\\\b(rats|rat)\\\\b')"
p42
aS"(3196, u'(?i)\\\\b(human|humans)\\\\b')"
p43
atp44
Rp45
sb.