(ifile_types
ParseObject
p0
(dp1
S'methods'
p2
c__builtin__
set
p3
((lp4
S'Method.ANTAGONIST'
p5
aS'Method.AGONIST'
p6
atp7
Rp8
sS'topics'
p9
g3
((lp10
tp11
Rp12
sS'receptors'
p13
g3
((lp14
(S'5ht2a'
p15
I979
I985
tp16
atp17
Rp18
sS'raw_text_methods'
p19
g3
((lp20
S"(13, u'\\\\bagonist')"
p21
aS"(40, u'\\\\bclozapine')"
p22
aS"(12, u'\\\\bantagonist')"
p23
atp24
Rp25
sS'regions'
p26
g3
((lp27
tp28
Rp29
sS'year'
p30
V2005
p31
sS'species'
p32
g3
((lp33
S"(4, u'(?i)\\\\b(rats|rat)\\\\b')"
p34
atp35
Rp36
sb.