(ifile_types
ParseObject
p0
(dp1
S'methods'
p2
c__builtin__
set
p3
((lp4
S'Method.ANTAGONIST'
p5
atp6
Rp7
sS'topics'
p8
g3
((lp9
S"(2, u'\\\\bdisorder')"
p10
atp11
Rp12
sS'receptors'
p13
g3
((lp14
(S'5ht1a'
p15
I225
I231
tp16
a(S'5ht1a'
p17
I1436
I1442
tp18
a(S'5ht1a'
p19
I634
I640
tp20
a(S'5ht1a'
p21
I390
I396
tp22
a(S'5ht1a'
p23
I1583
I1589
tp24
a(S'5ht1a'
p25
I162
I168
tp26
a(S'5ht1a'
p27
I536
I542
tp28
atp29
Rp30
sS'raw_text_methods'
p31
g3
((lp32
S"(37, u'\\\\bpiperazine')"
p33
aS"(18, u'\\\\bimaging')"
p34
aS"(51, u'\\\\bway100635')"
p35
aS"(12, u'\\\\bantagonist')"
p36
atp37
Rp38
sS'regions'
p39
g3
((lp40
S"(9, u'(?i)\\\\b(cerebellums|cerebellum)\\\\b')"
p41
atp42
Rp43
sS'year'
p44
V2017
p45
sS'species'
p46
g3
((lp47
S"(4, u'(?i)\\\\b(rats|rat)\\\\b')"
p48
atp49
Rp50
sb.