(ifile_types
ParseObject
p0
(dp1
S'antagonists'
p2
c__builtin__
set
p3
((lp4
S"(23, u'\\\\brisperidone')"
p5
aS"(59, u'\\\\brisperidone')"
p6
aS"(27, u'\\\\bspiperone')"
p7
atp8
Rp9
sS'methods'
p10
g3
((lp11
S'Method.ANTAGONIST'
p12
atp13
Rp14
sS'topics'
p15
g3
((lp16
tp17
Rp18
sS'receptors'
p19
g3
((lp20
S'5ht2a'
p21
atp22
Rp23
sS'regions'
p24
g3
((lp25
S"(244, u'(?i)(piriforms|piriform)(-|\\\\s+)?(cortexes|cortex)')"
p26
atp27
Rp28
sS'year'
p29
V1996
p30
sS'agonists'
p31
g3
((lp32
S"(86, u'\\\\burapidil')"
p33
atp34
Rp35
sS'species'
p36
g3
((lp37
S"(2323, u'(?i)(bees|bee)')"
p38
aS"(2568, u'(?i)(hens|hen)')"
p39
aS"(6356, u'(?i)(ais|ai)')"
p40
aS"(5958, u'(?i)(rats|rat)')"
p41
aS"(4163, u'(?i)(ermines|ermine)')"
p42
aS"(468, u'(?i)(oxen|ox)')"
p43
aS"(6249, u'(?i)(ants|ant)')"
p44
aS"(3152, u'(?i)(layers|layer)')"
p45
aS"(5743, u'(?i)(bots|bot)')"
p46
aS"(3550, u'(?i)(anis|ani)')"
p47
aS"(6682, u'(?i)(tera|teras)')"
p48
aS"(6331, u'(?i)(mares|mare)')"
p49
aS"(3812, u'(?i)(studs|stud)')"
p50
aS"(7609, u'(?i)(erns|ern)')"
p51
aS"(7610, u'(?i)(ernes|erne)')"
p52
aS"(1683, u'(?i)(terns|tern)')"
p53
atp54
Rp55
sb.