(ifile_types
ParseObject
p0
(dp1
S'methods'
p2
c__builtin__
set
p3
((lp4
S'Method.PET'
p5
atp6
Rp7
sS'topics'
p8
g3
((lp9
tp10
Rp11
sS'receptors'
p12
g3
((lp13
(S'5ht2a'
p14
I2133
I2139
tp15
a(S'5ht2a'
p16
I1974
I1980
tp17
a(S'5ht2a'
p18
I277
I283
tp19
a(S'5ht2a'
p20
I59
I65
tp21
atp22
Rp23
sS'raw_text_methods'
p24
g3
((lp25
S"(1, u'\\\\bneuroimag')"
p26
aS"(17, u'\\\\bpet')"
p27
aS"(19, u'\\\\bpositron emission tomography')"
p28
aS"(23, u'\\\\bmdl')"
p29
atp30
Rp31
sS'regions'
p32
g3
((lp33
S"(9, u'(?i)\\\\b(cerebellums|cerebellum)\\\\b')"
p34
atp35
Rp36
sS'year'
p37
V2010
p38
sS'species'
p39
g3
((lp40
tp41
Rp42
sb.