(ifile_types
ParseObject
p0
(dp1
S'methods'
p2
c__builtin__
set
p3
((lp4
S'Method.ANTAGONIST'
p5
aS'Method.AGONIST'
p6
atp7
Rp8
sS'topics'
p9
g3
((lp10
S"(26, u'\\\\bbehav')"
p11
atp12
Rp13
sS'receptors'
p14
g3
((lp15
(S'5ht1a'
p16
I441
I447
tp17
a(S'5ht1a'
p18
I970
I976
tp19
a(S'5ht1a'
p20
I66
I72
tp21
a(S'5ht1a'
p22
I1670
I1676
tp23
a(S'5ht1a'
p24
I731
I737
tp25
a(S'5ht1a'
p26
I180
I186
tp27
a(S'5ht1a'
p28
I2015
I2021
tp29
atp30
Rp31
sS'raw_text_methods'
p32
g3
((lp33
S"(21, u'\\\\bipsapirone')"
p34
aS"(22, u'\\\\bbuspirone')"
p35
aS"(34, u'\\\\b5ct')"
p36
aS"(13, u'\\\\bagonist')"
p37
aS"(46, u'\\\\bspiperone')"
p38
aS"(12, u'\\\\bantagonist')"
p39
atp40
Rp41
sS'regions'
p42
g3
((lp43
tp44
Rp45
sS'year'
p46
V2001
p47
sS'species'
p48
g3
((lp49
tp50
Rp51
sb.