(ifile_types
ParseObject
p0
(dp1
S'antagonists'
p2
c__builtin__
set
p3
((lp4
S"(134, u'\\\\bgranisetron')"
p5
aS"(135, u'\\\\bondansetron')"
p6
atp7
Rp8
sS'methods'
p9
g3
((lp10
S'Method.ANTAGONIST'
p11
aS'Method.AGONIST'
p12
atp13
Rp14
sS'topics'
p15
g3
((lp16
tp17
Rp18
sS'receptors'
p19
g3
((lp20
S'5ht3'
p21
aS'5ht2'
p22
atp23
Rp24
sS'regions'
p25
g3
((lp26
tp27
Rp28
sS'year'
p29
V1994
p30
sS'agonists'
p31
g3
((lp32
tp33
Rp34
sS'species'
p35
g3
((lp36
S"(5537, u'(?i)(hippos|hippo)')"
p37
aS"(2568, u'(?i)(hens|hen)')"
p38
aS"(3137, u'(?i)(iguanids|iguanid)')"
p39
aS"(3051, u'(?i)(pigs|pig)')"
p40
aS"(3062, u'(?i)(guineas|guinea)')"
p41
aS"(6249, u'(?i)(ants|ant)')"
p42
aS"(1055, u'(?i)(men|man)')"
p43
aS"(6753, u'(?i)(da|das)')"
p44
aS"(3550, u'(?i)(anis|ani)')"
p45
aS"(3812, u'(?i)(studs|stud)')"
p46
aS"(4480, u'(?i)(guineas|guinea)(-|\\\\s+)?(pigs|pig)')"
p47
aS"(6878, u'(?i)(guans|guan)')"
p48
aS"(821, u'(?i)(lice|louse)')"
p49
aS"(4133, u'(?i)(pikes|pike)')"
p50
atp51
Rp52
sb.