(ifile_types
ParseObject
p0
(dp1
S'methods'
p2
c__builtin__
set
p3
((lp4
S'Method.AGONIST'
p5
atp6
Rp7
sS'topics'
p8
g3
((lp9
S"(22, u'\\\\bschizophreni')"
p10
aS"(23, u'\\\\bantipsychotic')"
p11
aS"(15, u'\\\\bmemory')"
p12
atp13
Rp14
sS'receptors'
p15
g3
((lp16
(S'5ht2a'
p17
I971
I977
tp18
atp19
Rp20
sS'raw_text_methods'
p21
g3
((lp22
S"(13, u'\\\\bagonist')"
p23
atp24
Rp25
sS'regions'
p26
g3
((lp27
S"(20, u'(?i)\\\\b(prefrontals|prefrontal)\\\\b')"
p28
aS"(19, u'(?i)\\\\b(cortexes|cortex)\\\\b')"
p29
atp30
Rp31
sS'year'
p32
V2016
p33
sS'species'
p34
g3
((lp35
tp36
Rp37
sb.