(ifile_types
ParseObject
p0
(dp1
S'antagonists'
p2
c__builtin__
set
p3
((lp4
tp5
Rp6
sS'methods'
p7
g3
((lp8
S'Method.PET'
p9
aS'Method.KNOCKOUT'
p10
atp11
Rp12
sS'topics'
p13
g3
((lp14
S"(1, u'\\\\bmood')"
p15
atp16
Rp17
sS'receptors'
p18
g3
((lp19
S'5ht1b'
p20
aS'5ht1a'
p21
aS'5ht2c'
p22
aS'5ht5'
p23
aS'5ht2a'
p24
atp25
Rp26
sS'regions'
p27
g3
((lp28
tp29
Rp30
sS'year'
p31
V2004
p32
sS'agonists'
p33
g3
((lp34
S"(169, u'\\\\bfenfluramine')"
p35
atp36
Rp37
sS'species'
p38
g3
((lp39
S"(4624, u'(?i)(apes|ape)')"
p40
aS"(4163, u'(?i)(ermines|ermine)')"
p41
aS"(3404, u'(?i)(titis|titi)')"
p42
aS"(6356, u'(?i)(ais|ai)')"
p43
aS"(6249, u'(?i)(ants|ant)')"
p44
aS"(3812, u'(?i)(studs|stud)')"
p45
aS"(3196, u'(?i)(human|humans)')"
p46
aS"(1628, u'(?i)(cod|cod)')"
p47
aS"(1070, u'(?i)(pets|pet)')"
p48
aS"(702, u'(?i)(genets|genet)')"
p49
aS"(1686, u'(?i)(gibs|gib)')"
p50
aS"(468, u'(?i)(oxen|ox)')"
p51
aS"(1349, u'(?i)(rams|ram)')"
p52
aS"(5743, u'(?i)(bots|bot)')"
p53
aS"(2809, u'(?i)(toms|tom)')"
p54
aS"(5958, u'(?i)(rats|rat)')"
p55
aS"(867, u'(?i)(tits|tit)')"
p56
aS"(163, u'(?i)(mice|mouse)')"
p57
aS"(6682, u'(?i)(tera|teras)')"
p58
aS"(1055, u'(?i)(men|man)')"
p59
aS"(853, u'(?i)(minas|mina)')"
p60
aS"(1057, u'(?i)(humans|human)')"
p61
aS"(1414, u'(?i)(chars|char)')"
p62
aS"(2323, u'(?i)(bees|bee)')"
p63
aS"(2568, u'(?i)(hens|hen)')"
p64
aS"(6753, u'(?i)(da|das)')"
p65
aS"(3726, u'(?i)(mates|mate)')"
p66
atp67
Rp68
sb.