(ifile_types
ParseObject
p0
(dp1
S'antagonists'
p2
c__builtin__
set
p3
((lp4
S"(37, u'\\\\bar ?a000002')"
p5
atp6
Rp7
sS'methods'
p8
g3
((lp9
S'Method.PET'
p10
aS'Method.ANTAGONIST'
p11
aS'Method.AGONIST'
p12
atp13
Rp14
sS'topics'
p15
g3
((lp16
S"(9, u'\\\\bdepress')"
p17
aS"(10, u'\\\\banxiety')"
p18
atp19
Rp20
sS'receptors'
p21
g3
((lp22
S'5ht1b'
p23
atp24
Rp25
sS'regions'
p26
g3
((lp27
tp28
Rp29
sS'year'
p30
V2019
p31
sS'agonists'
p32
g3
((lp33
tp34
Rp35
sS'species'
p36
g3
((lp37
S"(2401, u'(?i)(primates|primate)')"
p38
aS"(3592, u'(?i)(ravens|raven)')"
p39
aS"(7094, u'(?i)(curs|cur)')"
p40
aS"(3812, u'(?i)(studs|stud)')"
p41
aS"(6249, u'(?i)(ants|ant)')"
p42
aS"(6356, u'(?i)(ais|ai)')"
p43
aS"(3196, u'(?i)(human|humans)')"
p44
aS"(1795, u'(?i)(mounts|mount)')"
p45
aS"(1070, u'(?i)(pets|pet)')"
p46
aS"(468, u'(?i)(oxen|ox)')"
p47
aS"(1349, u'(?i)(rams|ram)')"
p48
aS"(5743, u'(?i)(bots|bot)')"
p49
aS"(2341, u'(?i)(monkeys|monkey)')"
p50
aS"(5958, u'(?i)(rats|rat)')"
p51
aS"(163, u'(?i)(mice|mouse)')"
p52
aS"(1055, u'(?i)(men|man)')"
p53
aS"(6753, u'(?i)(da|das)')"
p54
aS"(1057, u'(?i)(humans|human)')"
p55
aS"(4596, u'(?i)(rhesuses|rhesus)')"
p56
aS"(2323, u'(?i)(bees|bee)')"
p57
aS"(853, u'(?i)(minas|mina)')"
p58
aS"(3726, u'(?i)(mates|mate)')"
p59
aS"(1054, u'(?i)(homoes|homo)')"
p60
atp61
Rp62
sb.