(ifile_types
ParseObject
p0
(dp1
S'antagonists'
p2
c__builtin__
set
p3
((lp4
S"(34, u'\\\\byohimbine')"
p5
atp6
Rp7
sS'methods'
p8
g3
((lp9
S'Method.ANTAGONIST'
p10
atp11
Rp12
sS'topics'
p13
g3
((lp14
tp15
Rp16
sS'receptors'
p17
g3
((lp18
S'5ht2c'
p19
aS'5ht2b'
p20
aS'5ht2'
p21
aS'5ht2a'
p22
atp23
Rp24
sS'regions'
p25
g3
((lp26
S"(254, u'(?i)(prefrontals|prefrontal)(-|\\\\s+)?(cortexes|cortex)')"
p27
aS"(255, u'(?i)(pres|pre)(-|\\\\s+)?(frontals|frontal)(-|\\\\s+)?(cortexes|cortex)')"
p28
atp29
Rp30
sS'year'
p31
V1999
p32
sS'agonists'
p33
g3
((lp34
S"(89, u'\\\\byohimbine')"
p35
atp36
Rp37
sS'species'
p38
g3
((lp39
S"(5958, u'(?i)(rats|rat)')"
p40
aS"(6753, u'(?i)(da|das)')"
p41
aS"(6249, u'(?i)(ants|ant)')"
p42
aS"(468, u'(?i)(oxen|ox)')"
p43
aS"(1055, u'(?i)(men|man)')"
p44
aS"(3726, u'(?i)(mates|mate)')"
p45
aS"(3152, u'(?i)(layers|layer)')"
p46
aS"(853, u'(?i)(minas|mina)')"
p47
aS"(7094, u'(?i)(curs|cur)')"
p48
aS"(3550, u'(?i)(anis|ani)')"
p49
aS"(6331, u'(?i)(mares|mare)')"
p50
aS"(6356, u'(?i)(ais|ai)')"
p51
aS"(1349, u'(?i)(rams|ram)')"
p52
aS"(821, u'(?i)(lice|louse)')"
p53
atp54
Rp55
sb.