(ifile_types
ParseObject
p0
(dp1
S'antagonists'
p2
c__builtin__
set
p3
((lp4
S"(117, u'\\\\bketanserin')"
p5
aS"(194, u'\\\\bmethysergide')"
p6
atp7
Rp8
sS'methods'
p9
g3
((lp10
S'Method.STIMULATION'
p11
aS'Method.ANTAGONIST'
p12
aS'Method.AGONIST'
p13
atp14
Rp15
sS'topics'
p16
g3
((lp17
tp18
Rp19
sS'receptors'
p20
g3
((lp21
S'5ht1a'
p22
aS'5ht3'
p23
aS'5ht2'
p24
aS'5ht1'
p25
aS'5ht1d'
p26
atp27
Rp28
sS'regions'
p29
g3
((lp30
tp31
Rp32
sS'year'
p33
V1992
p34
sS'agonists'
p35
g3
((lp36
S"(65, u'\\\\brauwolscine')"
p37
aS"(53, u'\\\\bmethysergide')"
p38
atp39
Rp40
sS'species'
p41
g3
((lp42
S"(2327, u'(?i)\\\\b(bovines|bovine)\\\\b')"
p43
atp44
Rp45
sb.