(ifile_types
ParseObject
p0
(dp1
S'methods'
p2
c__builtin__
set
p3
((lp4
S'Method.ANTAGONIST'
p5
aS'Method.AGONIST'
p6
atp7
Rp8
sS'topics'
p9
g3
((lp10
S"(5, u'\\\\btherap')"
p11
aS"(26, u'\\\\bbehav')"
p12
aS"(33, u'\\\\blocomot')"
p13
aS"(29, u'\\\\bhyperactiv')"
p14
aS"(4, u'\\\\btreatment')"
p15
atp16
Rp17
sS'receptors'
p18
g3
((lp19
(S'5ht1b'
p20
I1954
I1960
tp21
a(S'5ht1b'
p22
I1601
I1607
tp23
a(S'5ht1a'
p24
I499
I505
tp25
a(S'5ht1a'
p26
I757
I763
tp27
a(S'5ht1d'
p28
I335
I343
tp29
a(S'5ht1b'
p30
I2226
I2232
tp31
a(S'5ht1d'
p32
I740
I748
tp33
a(S'5ht1d'
p34
I2226
I2234
tp35
a(S'5ht1a'
p36
I1601
I1609
tp37
a(S'5ht1d'
p38
I1800
I1808
tp39
a(S'5ht1b'
p40
I1800
I1806
tp41
a(S'5ht1a'
p42
I1954
I1962
tp43
a(S'5ht1b'
p44
I335
I341
tp45
a(S'5ht1b'
p46
I2108
I2114
tp47
a(S'5ht1b'
p48
I740
I746
tp49
a(S'5ht1d'
p50
I2108
I2116
tp51
atp52
Rp53
sS'raw_text_methods'
p54
g3
((lp55
S"(13, u'\\\\bagonist')"
p56
aS"(48, u'\\\\bmdma')"
p57
aS"(30, u'\\\\b2methyl')"
p58
aS"(12, u'\\\\bantagonist')"
p59
atp60
Rp61
sS'regions'
p62
g3
((lp63
S"(19, u'(?i)\\\\b(cortexes|cortex)\\\\b')"
p64
atp65
Rp66
sS'year'
p67
V1999
p68
sS'species'
p69
g3
((lp70
S"(4, u'(?i)\\\\b(rats|rat)\\\\b')"
p71
atp72
Rp73
sb.