(ifile_types
ParseObject
p0
(dp1
S'methods'
p2
c__builtin__
set
p3
((lp4
S'Method.ANTAGONIST'
p5
atp6
Rp7
sS'topics'
p8
g3
((lp9
S"(13, u'\\\\bantidepress')"
p10
atp11
Rp12
sS'receptors'
p13
g3
((lp14
(S'5ht1a'
p15
I533
I539
tp16
a(S'5ht2'
p17
I318
I328
tp18
a(S'5ht2d'
p19
I318
I329
tp20
a(S'5ht1a'
p21
I848
I854
tp22
atp23
Rp24
sS'raw_text_methods'
p25
g3
((lp26
S"(12, u'\\\\bantagonist')"
p27
atp28
Rp29
sS'regions'
p30
g3
((lp31
S"(19, u'(?i)\\\\b(cortexes|cortex)\\\\b')"
p32
atp33
Rp34
sS'year'
p35
V1998
p36
sS'species'
p37
g3
((lp38
S"(4, u'(?i)\\\\b(rats|rat)\\\\b')"
p39
atp40
Rp41
sb.