(ifile_types
ParseObject
p0
(dp1
S'methods'
p2
c__builtin__
set
p3
((lp4
S'Method.ANTAGONIST'
p5
aS'Method.AGONIST'
p6
atp7
Rp8
sS'topics'
p9
g3
((lp10
S"(18, u'\\\\bavoidan')"
p11
aS"(33, u'\\\\blocomot')"
p12
aS"(15, u'\\\\bmemory')"
p13
atp14
Rp15
sS'receptors'
p16
g3
((lp17
(S'5ht2c'
p18
I729
I739
tp19
a(S'5ht2a'
p20
I729
I735
tp21
a(S'5ht1d'
p22
I857
I865
tp23
a(S'5ht5'
p24
I1102
I1107
tp25
a(S'5ht1d'
p26
I669
I677
tp27
a(S'5ht1b'
p28
I857
I863
tp29
a(S'5ht1b'
p30
I669
I675
tp31
a(S'5ht2b'
p32
I729
I737
tp33
a(S'5ht2'
p34
I915
I920
tp35
atp36
Rp37
sS'raw_text_methods'
p38
g3
((lp39
S"(13, u'\\\\bagonist')"
p40
aS"(6, u'\\\\bgr127935')"
p41
aS"(12, u'\\\\bantagonist')"
p42
atp43
Rp44
sS'regions'
p45
g3
((lp46
tp47
Rp48
sS'year'
p49
V2017
p50
sS'species'
p51
g3
((lp52
S"(1, u'(?i)\\\\b(mice|mouse)\\\\b')"
p53
aS"(5, u'(?i)\\\\b(mices|mice)\\\\b')"
p54
aS"(3, u'(?i)\\\\b(males|male)\\\\b')"
p55
atp56
Rp57
sb.