(ifile_types
ParseObject
p0
(dp1
S'methods'
p2
c__builtin__
set
p3
((lp4
S'Method.ANTAGONIST'
p5
aS'Method.AGONIST'
p6
atp7
Rp8
sS'topics'
p9
g3
((lp10
S"(22, u'\\\\bschizophreni')"
p11
aS"(14, u'\\\\bcogniti')"
p12
aS"(26, u'\\\\bbehav')"
p13
aS"(17, u'\\\\balzheimer')"
p14
aS"(16, u'\\\\blearning')"
p15
aS"(34, u'\\\\bparkinson')"
p16
aS"(15, u'\\\\bmemory')"
p17
aS"(1, u'\\\\bpatient')"
p18
atp19
Rp20
sS'receptors'
p21
g3
((lp22
(S'5ht6'
p23
I136
I141
tp24
a(S'5ht6'
p25
I282
I287
tp26
a(S'5ht6'
p27
I867
I872
tp28
a(S'5ht6'
p29
I28
I33
tp30
a(S'5ht6'
p31
I985
I990
tp32
a(S'5ht6'
p33
I758
I763
tp34
a(S'5ht6'
p35
I1336
I1341
tp36
a(S'5ht6'
p37
I1096
I1101
tp38
a(S'5ht6'
p39
I494
I499
tp40
atp41
Rp42
sS'raw_text_methods'
p43
g3
((lp44
S"(13, u'\\\\bagonist')"
p45
aS"(12, u'\\\\bantagonist')"
p46
atp47
Rp48
sS'regions'
p49
g3
((lp50
tp51
Rp52
sS'year'
p53
V2011
p54
sS'species'
p55
g3
((lp56
tp57
Rp58
sb.