(ifile_types
ParseObject
p0
(dp1
S'antagonists'
p2
c__builtin__
set
p3
((lp4
tp5
Rp6
sS'methods'
p7
g3
((lp8
S'Method.ANTAGONIST'
p9
aS'Method.AGONIST'
p10
atp11
Rp12
sS'topics'
p13
g3
((lp14
S"(2, u'\\\\bappetite')"
p15
atp16
Rp17
sS'receptors'
p18
g3
((lp19
S'5ht1b'
p20
aS'5ht2c'
p21
atp22
Rp23
sS'regions'
p24
g3
((lp25
tp26
Rp27
sS'year'
p28
V2010
p29
sS'agonists'
p30
g3
((lp31
tp32
Rp33
sS'species'
p34
g3
((lp35
S"(1070, u'(?i)(pets|pet)')"
p36
aS"(2323, u'(?i)(bees|bee)')"
p37
aS"(6249, u'(?i)(ants|ant)')"
p38
aS"(702, u'(?i)(genets|genet)')"
p39
aS"(867, u'(?i)(tits|tit)')"
p40
aS"(6753, u'(?i)(da|das)')"
p41
aS"(1055, u'(?i)(men|man)')"
p42
aS"(5131, u'(?i)(hags|hag)')"
p43
aS"(4979, u'(?i)(cats|cat)')"
p44
aS"(3550, u'(?i)(anis|ani)')"
p45
aS"(3812, u'(?i)(studs|stud)')"
p46
aS"(6356, u'(?i)(ais|ai)')"
p47
aS"(5949, u'(?i)(dogs|dog)')"
p48
atp49
Rp50
sb.