(ifile_types
ParseObject
p0
(dp1
S'methods'
p2
c__builtin__
set
p3
((lp4
S'Method.ANTAGONIST'
p5
atp6
Rp7
sS'topics'
p8
g3
((lp9
S"(14, u'\\\\bcogniti')"
p10
aS"(25, u'\\\\bsocial')"
p11
aS"(2, u'\\\\bdisorder')"
p12
aS"(16, u'\\\\blearning')"
p13
aS"(15, u'\\\\bmemory')"
p14
aS"(4, u'\\\\btreatment')"
p15
atp16
Rp17
sS'receptors'
p18
g3
((lp19
(S'5ht6'
p20
I305
I310
tp21
a(S'5ht1b'
p22
I891
I897
tp23
a(S'5ht1a'
p24
I883
I889
tp25
a(S'5ht1'
p26
I891
I897
tp27
a(S'5ht6'
p28
I865
I870
tp29
a(S'5ht1b'
p30
I1109
I1115
tp31
a(S'5ht1b'
p32
I990
I996
tp33
a(S'5ht6'
p34
I1099
I1104
tp35
a(S'5ht6'
p36
I482
I487
tp37
atp38
Rp39
sS'raw_text_methods'
p40
g3
((lp41
S"(12, u'\\\\bantagonist')"
p42
atp43
Rp44
sS'regions'
p45
g3
((lp46
S"(23, u'(?i)\\\\b(forebrains|forebrain)\\\\b')"
p47
atp48
Rp49
sS'year'
p50
V2009
p51
sS'species'
p52
g3
((lp53
S"(3, u'(?i)\\\\b(males|male)\\\\b')"
p54
aS"(4, u'(?i)\\\\b(rats|rat)\\\\b')"
p55
atp56
Rp57
sb.