(ifile_types
ParseObject
p0
(dp1
S'antagonists'
p2
c__builtin__
set
p3
((lp4
tp5
Rp6
sS'methods'
p7
g3
((lp8
S'Method.AGONIST'
p9
atp10
Rp11
sS'topics'
p12
g3
((lp13
S"(32, u'\\\\bnausea')"
p14
aS"(15, u'\\\\bschizophreni')"
p15
atp16
Rp17
sS'receptors'
p18
g3
((lp19
S'5ht1a'
p20
atp21
Rp22
sS'regions'
p23
g3
((lp24
tp25
Rp26
sS'year'
p27
V2001
p28
sS'agonists'
p29
g3
((lp30
S"(45, u'\\\\bipsapirone')"
p31
atp32
Rp33
sS'species'
p34
g3
((lp35
S"(1055, u'(?i)\\\\b(men|man)\\\\b')"
p36
aS"(6125, u'(?i)\\\\b(females|female)\\\\b')"
p37
aS"(5967, u'(?i)\\\\b(males|male)\\\\b')"
p38
atp39
Rp40
sb.