(ifile_types
ParseObject
p0
(dp1
S'antagonists'
p2
c__builtin__
set
p3
((lp4
S"(104, u'\\\\bimipramine')"
p5
atp6
Rp7
sS'methods'
p8
g3
((lp9
tp10
Rp11
sS'topics'
p12
g3
((lp13
S"(22, u'\\\\bsuicide')"
p14
aS"(9, u'\\\\bdepress')"
p15
aS"(35, u'\\\\bstress')"
p16
aS"(1, u'\\\\bmood')"
p17
atp18
Rp19
sS'receptors'
p20
g3
((lp21
S'5ht1a'
p22
aS'5ht1'
p23
atp24
Rp25
sS'regions'
p26
g3
((lp27
tp28
Rp29
sS'year'
p30
V1998
p31
sS'agonists'
p32
g3
((lp33
tp34
Rp35
sS'species'
p36
g3
((lp37
S"(1057, u'(?i)\\\\b(humans|human)\\\\b')"
p38
aS"(5958, u'(?i)\\\\b(rats|rat)\\\\b')"
p39
aS"(3196, u'(?i)\\\\b(human|humans)\\\\b')"
p40
atp41
Rp42
sb.