(ifile_types
ParseObject
p0
(dp1
S'antagonists'
p2
c__builtin__
set
p3
((lp4
S"(32, u'\\\\bway ?100635')"
p5
aS"(67, u'\\\\bhaloperidol')"
p6
aS"(36, u'\\\\baripiprazole')"
p7
aS"(123, u'\\\\bclozapine')"
p8
aS"(56, u'\\\\bclozapine')"
p9
atp10
Rp11
sS'methods'
p12
g3
((lp13
S'Method.ANTAGONIST'
p14
aS'Method.AGONIST'
p15
atp16
Rp17
sS'topics'
p18
g3
((lp19
S"(6, u'\\\\bcognit')"
p20
atp21
Rp22
sS'receptors'
p23
g3
((lp24
S'5ht1a'
p25
aS'5ht2a'
p26
atp27
Rp28
sS'regions'
p29
g3
((lp30
S"(254, u'(?i)(prefrontals|prefrontal)(-|\\\\s+)?(cortexes|cortex)')"
p31
aS"(226, u'(?i)(nuclei|nucleus)(-|\\\\s+)?(accumben|accumbens)')"
p32
aS"(255, u'(?i)(pres|pre)(-|\\\\s+)?(frontals|frontal)(-|\\\\s+)?(cortexes|cortex)')"
p33
atp34
Rp35
sS'year'
p36
V2004
p37
sS'agonists'
p38
g3
((lp39
S"(16, u'\\\\baripiprazole')"
p40
aS"(48, u'\\\\bhaloperidol')"
p41
aS"(27, u'\\\\bclozapine')"
p42
atp43
Rp44
sS'species'
p45
g3
((lp46
S"(2323, u'(?i)(bees|bee)')"
p47
aS"(5537, u'(?i)(hippos|hippo)')"
p48
aS"(2568, u'(?i)(hens|hen)')"
p49
aS"(468, u'(?i)(oxen|ox)')"
p50
aS"(6249, u'(?i)(ants|ant)')"
p51
aS"(5743, u'(?i)(bots|bot)')"
p52
aS"(5958, u'(?i)(rats|rat)')"
p53
aS"(3812, u'(?i)(studs|stud)')"
p54
aS"(2809, u'(?i)(toms|tom)')"
p55
aS"(6356, u'(?i)(ais|ai)')"
p56
atp57
Rp58
sb.