(ifile_types
ParseObject
p0
(dp1
S'antagonists'
p2
c__builtin__
set
p3
((lp4
tp5
Rp6
sS'methods'
p7
g3
((lp8
S'Method.AGONIST'
p9
atp10
Rp11
sS'topics'
p12
g3
((lp13
tp14
Rp15
sS'receptors'
p16
g3
((lp17
S'5ht1a'
p18
atp19
Rp20
sS'regions'
p21
g3
((lp22
S"(318, u'(?i)(raphes|raphe)(-|\\\\s+)?(nuclei|nucleus)')"
p23
aS"(94, u'(?i)(dorsals|dorsal)(-|\\\\s+)?(raphes|raphe)(-|\\\\s+)?(nuclei|nucleus)')"
p24
atp25
Rp26
sS'year'
p27
V2007
p28
sS'agonists'
p29
g3
((lp30
S"(92, u'\\\\b8 ?oh ?dpat')"
p31
aS"(193, u'\\\\bethanol')"
p32
atp33
Rp34
sS'species'
p35
g3
((lp36
S"(949, u'(?i)(cohoes|coho)')"
p37
aS"(4163, u'(?i)(ermines|ermine)')"
p38
aS"(6981, u'(?i)(moths|moth)')"
p39
aS"(6356, u'(?i)(ais|ai)')"
p40
aS"(6249, u'(?i)(ants|ant)')"
p41
aS"(3722, u'(?i)(pups|pup)')"
p42
aS"(6391, u'(?i)(asses|ass)')"
p43
aS"(6125, u'(?i)(females|female)')"
p44
aS"(5967, u'(?i)(males|male)')"
p45
aS"(468, u'(?i)(oxen|ox)')"
p46
aS"(5743, u'(?i)(bots|bot)')"
p47
aS"(3550, u'(?i)(anis|ani)')"
p48
aS"(5537, u'(?i)(hippos|hippo)')"
p49
aS"(5958, u'(?i)(rats|rat)')"
p50
aS"(7609, u'(?i)(erns|ern)')"
p51
aS"(867, u'(?i)(tits|tit)')"
p52
aS"(163, u'(?i)(mice|mouse)')"
p53
aS"(2183, u'(?i)(gars|gar)')"
p54
aS"(6682, u'(?i)(tera|teras)')"
p55
aS"(1055, u'(?i)(men|man)')"
p56
aS"(4604, u'(?i)(mites|mite)')"
p57
aS"(6753, u'(?i)(da|das)')"
p58
aS"(3726, u'(?i)(mates|mate)')"
p59
aS"(1683, u'(?i)(terns|tern)')"
p60
atp61
Rp62
sb.