(ifile_types
ParseObject
p0
(dp1
S'methods'
p2
c__builtin__
set
p3
((lp4
S'Method.AGONIST'
p5
atp6
Rp7
sS'topics'
p8
g3
((lp9
S"(26, u'\\\\bbehav')"
p10
aS"(2, u'\\\\bdisorder')"
p11
atp12
Rp13
sS'receptors'
p14
g3
((lp15
(S'5ht2c'
p16
I409
I420
tp17
a(S'5ht2'
p18
I1736
I1741
tp19
a(S'5ht2'
p20
I866
I871
tp21
a(S'5ht2'
p22
I432
I437
tp23
a(S'5ht2c'
p24
I40
I51
tp25
a(S'5ht2'
p26
I772
I777
tp27
atp28
Rp29
sS'raw_text_methods'
p30
g3
((lp31
S"(13, u'\\\\bagonist')"
p32
atp33
Rp34
sS'regions'
p35
g3
((lp36
S"(15, u'(?i)\\\\b(substantias|substantia)(-|\\\\s+)?(nigras|nigra)\\\\b')"
p37
atp38
Rp39
sS'year'
p40
V2009
p41
sS'species'
p42
g3
((lp43
S"(1, u'(?i)\\\\b(mice|mouse)\\\\b')"
p44
aS"(5, u'(?i)\\\\b(mices|mice)\\\\b')"
p45
atp46
Rp47
sb.