(ifile_types
ParseObject
p0
(dp1
S'methods'
p2
c__builtin__
set
p3
((lp4
S'Method.PET'
p5
aS'Method.KNOCKOUT'
p6
aS'Method.AGONIST'
p7
atp8
Rp9
sS'topics'
p10
g3
((lp11
S"(26, u'\\\\bbehav')"
p12
aS"(2, u'\\\\bdisorder')"
p13
atp14
Rp15
sS'receptors'
p16
g3
((lp17
(S'5ht2c'
p18
I1793
I1801
tp19
a(S'5ht2a'
p20
I1793
I1799
tp21
a(S'5ht2a'
p22
I498
I504
tp23
a(S'5ht2c'
p24
I498
I506
tp25
a(S'5ht5'
p26
I834
I839
tp27
a(S'5ht2c'
p28
I946
I954
tp29
a(S'5ht2a'
p30
I946
I952
tp31
atp32
Rp33
sS'raw_text_methods'
p34
g3
((lp35
S"(13, u'\\\\bagonist')"
p36
aS"(49, u'\\\\bdoi')"
p37
aS"(19, u'\\\\bpositron emission tomography')"
p38
aS"(18, u'\\\\bimaging')"
p39
atp40
Rp41
sS'regions'
p42
g3
((lp43
S"(3, u'(?i)\\\\b(postsynaptics|postsynaptic)\\\\b')"
p44
atp45
Rp46
sS'year'
p47
V2009
p48
sS'species'
p49
g3
((lp50
S"(1, u'(?i)\\\\b(mice|mouse)\\\\b')"
p51
aS"(5, u'(?i)\\\\b(mices|mice)\\\\b')"
p52
atp53
Rp54
sb.