(ifile_types
ParseObject
p0
(dp1
S'antagonists'
p2
c__builtin__
set
p3
((lp4
tp5
Rp6
sS'methods'
p7
g3
((lp8
S'Method.AGONIST'
p9
atp10
Rp11
sS'topics'
p12
g3
((lp13
S"(9, u'\\\\bdepress')"
p14
atp15
Rp16
sS'receptors'
p17
g3
((lp18
S'5ht5'
p19
aS'5ht1a'
p20
aS'5ht3'
p21
aS'5ht2'
p22
atp23
Rp24
sS'regions'
p25
g3
((lp26
S"(362, u'(?i)\\\\b(brains|brain)(-|\\\\s+)?(stems|stem)\\\\b')"
p27
atp28
Rp29
sS'year'
p30
V2004
p31
sS'agonists'
p32
g3
((lp33
S"(149, u'\\\\bmem')"
p34
aS"(85, u'\\\\b8 ?oh ?dpat')"
p35
atp36
Rp37
sS'species'
p38
g3
((lp39
S"(163, u'(?i)\\\\b(mice|mouse)\\\\b')"
p40
atp41
Rp42
sb.