(ifile_types
ParseObject
p0
(dp1
S'antagonists'
p2
c__builtin__
set
p3
((lp4
tp5
Rp6
sS'methods'
p7
g3
((lp8
tp9
Rp10
sS'topics'
p11
g3
((lp12
tp13
Rp14
sS'receptors'
p15
g3
((lp16
S'5ht5'
p17
aS'5ht2a'
p18
atp19
Rp20
sS'regions'
p21
g3
((lp22
S"(241, u'(?i)(olfactories|olfactory)(-|\\\\s+)?(bulbs|bulb)')"
p23
aS"(318, u'(?i)(raphes|raphe)(-|\\\\s+)?(nuclei|nucleus)')"
p24
aS"(34, u'(?i)(pon|pons)')"
p25
atp26
Rp27
sS'year'
p28
V2012
p29
sS'agonists'
p30
g3
((lp31
S"(155, u'\\\\bmem')"
p32
aS"(33, u'\\\\bdoi')"
p33
atp34
Rp35
sS'species'
p36
g3
((lp37
S"(5958, u'(?i)(rats|rat)')"
p38
aS"(7609, u'(?i)(erns|ern)')"
p39
aS"(867, u'(?i)(tits|tit)')"
p40
aS"(7094, u'(?i)(curs|cur)')"
p41
aS"(6356, u'(?i)(ais|ai)')"
p42
aS"(3812, u'(?i)(studs|stud)')"
p43
aS"(1628, u'(?i)(cod|cod)')"
p44
aS"(1683, u'(?i)(terns|tern)')"
p45
atp46
Rp47
sb.