(ifile_types
ParseObject
p0
(dp1
S'antagonists'
p2
c__builtin__
set
p3
((lp4
S"(35, u'\\\\baripiprazole')"
p5
atp6
Rp7
sS'methods'
p8
g3
((lp9
S'Method.ANTAGONIST'
p10
aS'Method.AGONIST'
p11
atp12
Rp13
sS'topics'
p14
g3
((lp15
tp16
Rp17
sS'receptors'
p18
g3
((lp19
S'5ht7'
p20
aS'5ht1a'
p21
aS'5ht2b'
p22
aS'5ht2'
p23
aS'5ht1'
p24
aS'5ht2a'
p25
atp26
Rp27
sS'regions'
p28
g3
((lp29
S"(254, u'(?i)\\\\b(prefrontals|prefrontal)(-|\\\\s+)?(cortexes|cortex)\\\\b')"
p30
aS"(255, u'(?i)\\\\b(pres|pre)(-|\\\\s+)?(frontals|frontal)(-|\\\\s+)?(cortexes|cortex)\\\\b')"
p31
aS"(226, u'(?i)\\\\b(nuclei|nucleus)(-|\\\\s+)?(accumben|accumbens)\\\\b')"
p32
atp33
Rp34
sS'year'
p35
V2014
p36
sS'agonists'
p37
g3
((lp38
S"(223, u'\\\\baripiprazole')"
p39
aS"(18, u'\\\\bbrexpiprazole')"
p40
aS"(175, u'\\\\bdoi')"
p41
atp42
Rp43
sS'species'
p44
g3
((lp45
S"(1057, u'(?i)\\\\b(humans|human)\\\\b')"
p46
aS"(2054, u'(?i)\\\\b(heads|head)\\\\b')"
p47
aS"(5958, u'(?i)\\\\b(rats|rat)\\\\b')"
p48
aS"(3196, u'(?i)\\\\b(human|humans)\\\\b')"
p49
atp50
Rp51
sb.