(ifile_types
ParseObject
p0
(dp1
S'methods'
p2
c__builtin__
set
p3
((lp4
S'Method.ANTAGONIST'
p5
aS'Method.AGONIST'
p6
atp7
Rp8
sS'topics'
p9
g3
((lp10
S"(5, u'\\\\btherap')"
p11
aS"(13, u'\\\\bantidepress')"
p12
aS"(4, u'\\\\btreatment')"
p13
atp14
Rp15
sS'receptors'
p16
g3
((lp17
(S'5ht1'
p18
I1523
I1528
tp19
a(S'5ht1a'
p20
I1447
I1453
tp21
a(S'5ht1b'
p22
I1447
I1454
tp23
atp24
Rp25
sS'raw_text_methods'
p26
g3
((lp27
S"(13, u'\\\\bagonist')"
p28
aS"(11, u'\\\\bfluoxetine')"
p29
aS"(38, u'\\\\bssri')"
p30
aS"(44, u'\\\\btetrodotoxin')"
p31
aS"(12, u'\\\\bantagonist')"
p32
atp33
Rp34
sS'regions'
p35
g3
((lp36
tp37
Rp38
sS'year'
p39
V2010
p40
sS'species'
p41
g3
((lp42
S"(4, u'(?i)\\\\b(rats|rat)\\\\b')"
p43
atp44
Rp45
sb.