(ifile_types
ParseObject
p0
(dp1
S'methods'
p2
c__builtin__
set
p3
((lp4
S'Method.ANTAGONIST'
p5
atp6
Rp7
sS'topics'
p8
g3
((lp9
S"(26, u'\\\\bbehav')"
p10
atp11
Rp12
sS'receptors'
p13
g3
((lp14
(S'5ht3'
p15
I1652
I1657
tp16
a(S'5ht2'
p17
I678
I683
tp18
a(S'5ht1b'
p19
I667
I673
tp20
a(S'5ht1a'
p21
I610
I616
tp22
atp23
Rp24
sS'raw_text_methods'
p25
g3
((lp26
S"(11, u'\\\\bfluoxetine')"
p27
aS"(12, u'\\\\bantagonist')"
p28
atp29
Rp30
sS'regions'
p31
g3
((lp32
S"(19, u'(?i)\\\\b(cortexes|cortex)\\\\b')"
p33
aS"(16, u'(?i)\\\\b(drns|drn)\\\\b')"
p34
atp35
Rp36
sS'year'
p37
V1993
p38
sS'species'
p39
g3
((lp40
S"(4, u'(?i)\\\\b(rats|rat)\\\\b')"
p41
atp42
Rp43
sb.