(ifile_types
ParseObject
p0
(dp1
S'antagonists'
p2
c__builtin__
set
p3
((lp4
tp5
Rp6
sS'methods'
p7
g3
((lp8
S'Method.PET'
p9
aS'Method.AGONIST'
p10
atp11
Rp12
sS'topics'
p13
g3
((lp14
tp15
Rp16
sS'receptors'
p17
g3
((lp18
S'5ht5'
p19
aS'5ht1a'
p20
atp21
Rp22
sS'regions'
p23
g3
((lp24
S"(35, u'(?i)(pontines|pontine)(-|\\\\s+)?(nuclei|nucleus)')"
p25
aS"(220, u'(?i)(striatums|striatum)')"
p26
aS"(244, u'(?i)(piriforms|piriform)(-|\\\\s+)?(cortexes|cortex)')"
p27
aS"(71, u'(?i)(cerebellums|cerebellum)')"
p28
aS"(34, u'(?i)(pon|pons)')"
p29
atp30
Rp31
sS'year'
p32
V2018
p33
sS'agonists'
p34
g3
((lp35
S"(95, u'\\\\bf ?15599')"
p36
aS"(20, u'\\\\bbefiradol')"
p37
atp38
Rp39
sS'species'
p40
g3
((lp41
S"(1070, u'(?i)(pets|pet)')"
p42
aS"(4624, u'(?i)(apes|ape)')"
p43
aS"(6753, u'(?i)(da|das)')"
p44
aS"(5958, u'(?i)(rats|rat)')"
p45
aS"(931, u'(?i)(divers|diver)')"
p46
aS"(867, u'(?i)(tits|tit)')"
p47
aS"(5743, u'(?i)(bots|bot)')"
p48
aS"(2183, u'(?i)(gars|gar)')"
p49
aS"(1055, u'(?i)(men|man)')"
p50
aS"(4604, u'(?i)(mites|mite)')"
p51
aS"(4979, u'(?i)(cats|cat)')"
p52
aS"(3550, u'(?i)(anis|ani)')"
p53
aS"(7094, u'(?i)(curs|cur)')"
p54
aS"(5917, u'(?i)(roaches|roach)')"
p55
aS"(3812, u'(?i)(studs|stud)')"
p56
aS"(6356, u'(?i)(ais|ai)')"
p57
atp58
Rp59
sb.