(ifile_types
ParseObject
p0
(dp1
S'methods'
p2
c__builtin__
set
p3
((lp4
S'Method.ANTAGONIST'
p5
aS'Method.AGONIST'
p6
atp7
Rp8
sS'topics'
p9
g3
((lp10
S"(26, u'\\\\bbehav')"
p11
atp12
Rp13
sS'receptors'
p14
g3
((lp15
(S'5ht1'
p16
I895
I900
tp17
a(S'5ht1a'
p18
I519
I525
tp19
a(S'5ht1'
p20
I1153
I1158
tp21
a(S'5ht1'
p22
I1329
I1334
tp23
a(S'5ht1a'
p24
I990
I996
tp25
a(S'5ht1a'
p26
I1567
I1573
tp27
a(S'5ht1a'
p28
I1796
I1802
tp29
a(S'5ht1a'
p30
I213
I224
tp31
a(S'5ht1a'
p32
I1480
I1486
tp33
a(S'5ht1a'
p34
I506
I517
tp35
a(S'5ht1'
p36
I797
I802
tp37
atp38
Rp39
sS'raw_text_methods'
p40
g3
((lp41
S"(13, u'\\\\bagonist')"
p42
aS"(15, u'\\\\b8ohdpat')"
p43
aS"(12, u'\\\\bantagonist')"
p44
atp45
Rp46
sS'regions'
p47
g3
((lp48
S"(8, u'(?i)\\\\b(centrals|central)(-|\\\\s+)?(nervouses|nervous)(-|\\\\s+)?(systems|system)\\\\b')"
p49
aS"(4, u'(?i)\\\\b(presynaptics|presynaptic)\\\\b')"
p50
aS"(3, u'(?i)\\\\b(postsynaptics|postsynaptic)\\\\b')"
p51
atp52
Rp53
sS'year'
p54
V1995
p55
sS'species'
p56
g3
((lp57
S"(4, u'(?i)\\\\b(rats|rat)\\\\b')"
p58
atp59
Rp60
sb.