(ifile_types
ParseObject
p0
(dp1
S'antagonists'
p2
c__builtin__
set
p3
((lp4
S"(123, u'\\\\bclozapine')"
p5
aS"(142, u'\\\\bm1')"
p6
aS"(56, u'\\\\bclozapine')"
p7
atp8
Rp9
sS'methods'
p10
g3
((lp11
S'Method.PET'
p12
aS'Method.AGONIST'
p13
atp14
Rp15
sS'topics'
p16
g3
((lp17
S"(15, u'\\\\bschizophreni')"
p18
aS"(6, u'\\\\bcognit')"
p19
aS"(30, u'\\\\bparkinsons')"
p20
aS"(33, u'\\\\balzheimers')"
p21
atp22
Rp23
sS'receptors'
p24
g3
((lp25
S'5ht1b'
p26
aS'5ht1a'
p27
aS'5ht2'
p28
aS'5ht2a'
p29
atp30
Rp31
sS'regions'
p32
g3
((lp33
S"(126, u'(?i)(thalamuses|thalamus)')"
p34
aS"(223, u'(?i)(putamens|putamen)')"
p35
atp36
Rp37
sS'year'
p38
V2004
p39
sS'agonists'
p40
g3
((lp41
S"(27, u'\\\\bclozapine')"
p42
atp43
Rp44
sS'species'
p45
g3
((lp46
S"(1070, u'(?i)(pets|pet)')"
p47
aS"(2323, u'(?i)(bees|bee)')"
p48
aS"(6249, u'(?i)(ants|ant)')"
p49
aS"(6753, u'(?i)(da|das)')"
p50
aS"(6325, u'(?i)(caudates|caudate)')"
p51
aS"(468, u'(?i)(oxen|ox)')"
p52
aS"(1055, u'(?i)(men|man)')"
p53
aS"(3812, u'(?i)(studs|stud)')"
p54
aS"(5229, u'(?i)(moles|mole)')"
p55
aS"(1414, u'(?i)(chars|char)')"
p56
aS"(6391, u'(?i)(asses|ass)')"
p57
aS"(2809, u'(?i)(toms|tom)')"
p58
aS"(5537, u'(?i)(hippos|hippo)')"
p59
aS"(6356, u'(?i)(ais|ai)')"
p60
atp61
Rp62
sb.