(ifile_types
ParseObject
p0
(dp1
S'antagonists'
p2
c__builtin__
set
p3
((lp4
S"(130, u'\\\\bzacopride')"
p5
atp6
Rp7
sS'methods'
p8
g3
((lp9
S'Method.ANTAGONIST'
p10
atp11
Rp12
sS'topics'
p13
g3
((lp14
tp15
Rp16
sS'receptors'
p17
g3
((lp18
S'5ht3'
p19
atp20
Rp21
sS'regions'
p22
g3
((lp23
S"(285, u'(?i)\\\\b(entorhinals|entorhinal)(-|\\\\s+)?(cortexes|cortex)\\\\b')"
p24
aS"(226, u'(?i)\\\\b(nuclei|nucleus)(-|\\\\s+)?(accumben|accumbens)\\\\b')"
p25
atp26
Rp27
sS'year'
p28
V1990
p29
sS'agonists'
p30
g3
((lp31
S"(208, u'\\\\bzacopride')"
p32
aS"(11, u'\\\\bamphetamine')"
p33
atp34
Rp35
sS'species'
p36
g3
((lp37
S"(3196, u'(?i)\\\\b(human|humans)\\\\b')"
p38
aS"(1057, u'(?i)\\\\b(humans|human)\\\\b')"
p39
aS"(163, u'(?i)\\\\b(mice|mouse)\\\\b')"
p40
aS"(5958, u'(?i)\\\\b(rats|rat)\\\\b')"
p41
aS"(675, u'(?i)\\\\b(marmosets|marmoset)\\\\b')"
p42
atp43
Rp44
sb.