(ifile_types
ParseObject
p0
(dp1
S'methods'
p2
c__builtin__
set
p3
((lp4
S'Method.ANTAGONIST'
p5
aS'Method.AGONIST'
p6
atp7
Rp8
sS'topics'
p9
g3
((lp10
S"(16, u'\\\\blearning')"
p11
aS"(26, u'\\\\bbehav')"
p12
aS"(15, u'\\\\bmemory')"
p13
atp14
Rp15
sS'receptors'
p16
g3
((lp17
(S'5ht7'
p18
I443
I448
tp19
a(S'5ht7'
p20
I548
I553
tp21
a(S'5ht6'
p22
I307
I312
tp23
a(S'5ht6'
p24
I539
I544
tp25
a(S'5ht6'
p26
I1607
I1612
tp27
a(S'5ht7'
p28
I1454
I1459
tp29
a(S'5ht6'
p30
I48
I53
tp31
a(S'5ht7'
p32
I709
I714
tp33
a(S'5ht6'
p34
I433
I438
tp35
a(S'5ht7'
p36
I83
I88
tp37
a(S'5ht6'
p38
I1259
I1264
tp39
a(S'5ht7'
p40
I1640
I1645
tp41
a(S'5ht7'
p42
I317
I322
tp43
a(S'5ht6'
p44
I673
I678
tp45
a(S'5ht1a'
p46
I1383
I1389
tp47
atp48
Rp49
sS'raw_text_methods'
p50
g3
((lp51
S"(13, u'\\\\bagonist')"
p52
aS"(12, u'\\\\bantagonist')"
p53
atp54
Rp55
sS'regions'
p56
g3
((lp57
tp58
Rp59
sS'year'
p60
V2008
p61
sS'species'
p62
g3
((lp63
tp64
Rp65
sb.