(ifile_types
ParseObject
p0
(dp1
S'antagonists'
p2
c__builtin__
set
p3
((lp4
tp5
Rp6
sS'methods'
p7
g3
((lp8
S'Method.PET'
p9
aS'Method.KNOCKOUT'
p10
atp11
Rp12
sS'topics'
p13
g3
((lp14
tp15
Rp16
sS'receptors'
p17
g3
((lp18
S'5ht1a'
p19
aS'5ht5'
p20
atp21
Rp22
sS'regions'
p23
g3
((lp24
tp25
Rp26
sS'year'
p27
V2016
p28
sS'agonists'
p29
g3
((lp30
S"(155, u'\\\\bmem')"
p31
atp32
Rp33
sS'species'
p34
g3
((lp35
S"(4163, u'(?i)(ermines|ermine)')"
p36
aS"(7094, u'(?i)(curs|cur)')"
p37
aS"(1349, u'(?i)(rams|ram)')"
p38
aS"(6356, u'(?i)(ais|ai)')"
p39
aS"(6249, u'(?i)(ants|ant)')"
p40
aS"(5229, u'(?i)(moles|mole)')"
p41
aS"(3196, u'(?i)(human|humans)')"
p42
aS"(3812, u'(?i)(studs|stud)')"
p43
aS"(6391, u'(?i)(asses|ass)')"
p44
aS"(1070, u'(?i)(pets|pet)')"
p45
aS"(3404, u'(?i)(titis|titi)')"
p46
aS"(5743, u'(?i)(bots|bot)')"
p47
aS"(3550, u'(?i)(anis|ani)')"
p48
aS"(2809, u'(?i)(toms|tom)')"
p49
aS"(5958, u'(?i)(rats|rat)')"
p50
aS"(867, u'(?i)(tits|tit)')"
p51
aS"(163, u'(?i)(mice|mouse)')"
p52
aS"(1055, u'(?i)(men|man)')"
p53
aS"(6753, u'(?i)(da|das)')"
p54
aS"(1057, u'(?i)(humans|human)')"
p55
aS"(1961, u'(?i)(pens|pen)')"
p56
aS"(4979, u'(?i)(cats|cat)')"
p57
aS"(1054, u'(?i)(homoes|homo)')"
p58
atp59
Rp60
sb.