(ifile_types
ParseObject
p0
(dp1
S'methods'
p2
c__builtin__
set
p3
((lp4
S'Method.ANTAGONIST'
p5
atp6
Rp7
sS'topics'
p8
g3
((lp9
S"(7, u'\\\\bdepressi')"
p10
aS"(4, u'\\\\btreatment')"
p11
atp12
Rp13
sS'receptors'
p14
g3
((lp15
(S'5ht1a'
p16
I1539
I1545
tp17
a(S'5ht1a'
p18
I620
I626
tp19
a(S'5ht1a'
p20
I1637
I1643
tp21
a(S'5ht1a'
p22
I362
I368
tp23
a(S'5ht1a'
p24
I1086
I1092
tp25
a(S'5ht1a'
p26
I1149
I1155
tp27
a(S'5ht1a'
p28
I93
I99
tp29
atp30
Rp31
sS'raw_text_methods'
p32
g3
((lp33
S"(38, u'\\\\bssri')"
p34
aS"(12, u'\\\\bantagonist')"
p35
atp36
Rp37
sS'regions'
p38
g3
((lp39
S"(3, u'(?i)\\\\b(postsynaptics|postsynaptic)\\\\b')"
p40
atp41
Rp42
sS'year'
p43
V2000
p44
sS'species'
p45
g3
((lp46
S"(4, u'(?i)\\\\b(rats|rat)\\\\b')"
p47
atp48
Rp49
sb.