(ifile_types
ParseObject
p0
(dp1
S'methods'
p2
c__builtin__
set
p3
((lp4
S'Method.PET'
p5
aS'Method.ANTAGONIST'
p6
atp7
Rp8
sS'topics'
p9
g3
((lp10
S"(26, u'\\\\bbehav')"
p11
atp12
Rp13
sS'receptors'
p14
g3
((lp15
(S'5ht1a'
p16
I1793
I1799
tp17
a(S'5ht1a'
p18
I2617
I2623
tp19
a(S'5ht1a'
p20
I1548
I1554
tp21
a(S'5ht1a'
p22
I2154
I2160
tp23
a(S'5ht1a'
p24
I1254
I1260
tp25
a(S'5ht1a'
p26
I404
I410
tp27
a(S'5ht1a'
p28
I141
I147
tp29
a(S'5ht1a'
p30
I2392
I2398
tp31
atp32
Rp33
sS'raw_text_methods'
p34
g3
((lp35
S"(51, u'\\\\bway100635')"
p36
aS"(17, u'\\\\bpet')"
p37
aS"(19, u'\\\\bpositron emission tomography')"
p38
aS"(18, u'\\\\bimaging')"
p39
aS"(12, u'\\\\bantagonist')"
p40
atp41
Rp42
sS'regions'
p43
g3
((lp44
S"(9, u'(?i)\\\\b(cerebellums|cerebellum)\\\\b')"
p45
atp46
Rp47
sS'year'
p48
V2005
p49
sS'species'
p50
g3
((lp51
tp52
Rp53
sb.