(ifile_types
ParseObject
p0
(dp1
S'antagonists'
p2
c__builtin__
set
p3
((lp4
S"(50, u'\\\\btrazodone')"
p5
atp6
Rp7
sS'methods'
p8
g3
((lp9
S'Method.ANTAGONIST'
p10
aS'Method.AGONIST'
p11
atp12
Rp13
sS'topics'
p14
g3
((lp15
tp16
Rp17
sS'receptors'
p18
g3
((lp19
S'5ht2c'
p20
aS'5ht2'
p21
aS'5ht2a'
p22
atp23
Rp24
sS'regions'
p25
g3
((lp26
S"(248, u'(?i)(cerebrals|cerebral)(-|\\\\s+)?(cortexes|cortex)')"
p27
aS"(34, u'(?i)(pon|pons)')"
p28
atp29
Rp30
sS'year'
p31
V2004
p32
sS'agonists'
p33
g3
((lp34
S"(82, u'\\\\btrazodone')"
p35
aS"(33, u'\\\\bdoi')"
p36
atp37
Rp38
sS'species'
p39
g3
((lp40
S"(2568, u'(?i)(hens|hen)')"
p41
aS"(6356, u'(?i)(ais|ai)')"
p42
aS"(5958, u'(?i)(rats|rat)')"
p43
aS"(6682, u'(?i)(tera|teras)')"
p44
aS"(4091, u'(?i)(adults|adult)')"
p45
aS"(5967, u'(?i)(males|male)')"
p46
aS"(4163, u'(?i)(ermines|ermine)')"
p47
aS"(1055, u'(?i)(men|man)')"
p48
aS"(6249, u'(?i)(ants|ant)')"
p49
aS"(1349, u'(?i)(rams|ram)')"
p50
aS"(5743, u'(?i)(bots|bot)')"
p51
aS"(3550, u'(?i)(anis|ani)')"
p52
aS"(5863, u'(?i)(entires|entire)')"
p53
aS"(1961, u'(?i)(pens|pen)')"
p54
aS"(3812, u'(?i)(studs|stud)')"
p55
aS"(821, u'(?i)(lice|louse)')"
p56
atp57
Rp58
sb.