(ifile_types
ParseObject
p0
(dp1
S'antagonists'
p2
c__builtin__
set
p3
((lp4
tp5
Rp6
sS'methods'
p7
g3
((lp8
S'Method.ANTAGONIST'
p9
aS'Method.AGONIST'
p10
atp11
Rp12
sS'topics'
p13
g3
((lp14
S"(3, u'\\\\bsleep')"
p15
aS"(11, u'\\\\banxiolyt')"
p16
atp17
Rp18
sS'receptors'
p19
g3
((lp20
S'5ht6'
p21
aS'5ht6a'
p22
atp23
Rp24
sS'regions'
p25
g3
((lp26
S"(362, u'(?i)\\\\b(brains|brain)(-|\\\\s+)?(stems|stem)\\\\b')"
p27
atp28
Rp29
sS'year'
p30
V2013
p31
sS'agonists'
p32
g3
((lp33
S"(218, u'\\\\bemd ?386088')"
p34
atp35
Rp36
sS'species'
p37
g3
((lp38
S"(5958, u'(?i)\\\\b(rats|rat)\\\\b')"
p39
atp40
Rp41
sb.