(ifile_types
ParseObject
p0
(dp1
S'methods'
p2
c__builtin__
set
p3
((lp4
S'Method.ANTAGONIST'
p5
aS'Method.AGONIST'
p6
atp7
Rp8
sS'topics'
p9
g3
((lp10
tp11
Rp12
sS'receptors'
p13
g3
((lp14
(S'5ht1b'
p15
I1969
I1975
tp16
a(S'5ht1b'
p17
I940
I946
tp18
a(S'5ht1b'
p19
I30
I36
tp20
a(S'5ht1b'
p21
I676
I682
tp22
a(S'5ht1b'
p23
I824
I830
tp24
a(S'5ht1a'
p25
I756
I762
tp26
a(S'5ht1b'
p27
I1828
I1834
tp28
atp29
Rp30
sS'raw_text_methods'
p31
g3
((lp32
S"(13, u'\\\\bagonist')"
p33
aS"(15, u'\\\\b8ohdpat')"
p34
aS"(12, u'\\\\bantagonist')"
p35
atp36
Rp37
sS'regions'
p38
g3
((lp39
S"(4, u'(?i)\\\\b(presynaptics|presynaptic)\\\\b')"
p40
aS"(3, u'(?i)\\\\b(postsynaptics|postsynaptic)\\\\b')"
p41
atp42
Rp43
sS'year'
p44
V2006
p45
sS'species'
p46
g3
((lp47
S"(4, u'(?i)\\\\b(rats|rat)\\\\b')"
p48
atp49
Rp50
sb.