(ifile_types
ParseObject
p0
(dp1
S'antagonists'
p2
c__builtin__
set
p3
((lp4
S"(36, u'\\\\baripiprazole')"
p5
atp6
Rp7
sS'methods'
p8
g3
((lp9
S'Method.AGONIST'
p10
atp11
Rp12
sS'topics'
p13
g3
((lp14
tp15
Rp16
sS'receptors'
p17
g3
((lp18
S'5ht5'
p19
aS'5ht2'
p20
aS'5ht1'
p21
aS'5ht2a'
p22
aS'5ht1a'
p23
aS'5ht5a'
p24
atp25
Rp26
sS'regions'
p27
g3
((lp28
S"(34, u'(?i)(pon|pons)')"
p29
atp30
Rp31
sS'year'
p32
V2009
p33
sS'agonists'
p34
g3
((lp35
S"(16, u'\\\\baripiprazole')"
p36
atp37
Rp38
sS'species'
p39
g3
((lp40
S"(5958, u'(?i)(rats|rat)')"
p41
aS"(6753, u'(?i)(da|das)')"
p42
aS"(6391, u'(?i)(asses|ass)')"
p43
aS"(4163, u'(?i)(ermines|ermine)')"
p44
aS"(6249, u'(?i)(ants|ant)')"
p45
aS"(468, u'(?i)(oxen|ox)')"
p46
aS"(1055, u'(?i)(men|man)')"
p47
aS"(3726, u'(?i)(mates|mate)')"
p48
aS"(4979, u'(?i)(cats|cat)')"
p49
aS"(7094, u'(?i)(curs|cur)')"
p50
aS"(3550, u'(?i)(anis|ani)')"
p51
aS"(6682, u'(?i)(tera|teras)')"
p52
aS"(1057, u'(?i)(humans|human)')"
p53
aS"(1961, u'(?i)(pens|pen)')"
p54
aS"(3812, u'(?i)(studs|stud)')"
p55
aS"(3196, u'(?i)(human|humans)')"
p56
aS"(1628, u'(?i)(cod|cod)')"
p57
aS"(4074, u'(?i)(bulls|bull)')"
p58
aS"(6356, u'(?i)(ais|ai)')"
p59
atp60
Rp61
sb.