(ifile_types
ParseObject
p0
(dp1
S'antagonists'
p2
c__builtin__
set
p3
((lp4
S"(31, u'\\\\bway ?100635')"
p5
atp6
Rp7
sS'methods'
p8
g3
((lp9
S'Method.ANTAGONIST'
p10
aS'Method.AGONIST'
p11
atp12
Rp13
sS'topics'
p14
g3
((lp15
S"(37, u'\\\\baddict')"
p16
aS"(4, u'\\\\blocomot')"
p17
atp18
Rp19
sS'receptors'
p20
g3
((lp21
S'5ht1a'
p22
aS'5ht2a'
p23
atp24
Rp25
sS'regions'
p26
g3
((lp27
S"(94, u'(?i)\\\\b(dorsals|dorsal)(-|\\\\s+)?(raphes|raphe)(-|\\\\s+)?(nuclei|nucleus)\\\\b')"
p28
aS"(318, u'(?i)\\\\b(raphes|raphe)(-|\\\\s+)?(nuclei|nucleus)\\\\b')"
p29
atp30
Rp31
sS'year'
p32
V2009
p33
sS'agonists'
p34
g3
((lp35
S"(11, u'\\\\bamphetamine')"
p36
aS"(85, u'\\\\b8 ?oh ?dpat')"
p37
atp38
Rp39
sS'species'
p40
g3
((lp41
S"(7058, u'(?i)\\\\b(does|doe)\\\\b')"
p42
aS"(163, u'(?i)\\\\b(mice|mouse)\\\\b')"
p43
aS"(5958, u'(?i)\\\\b(rats|rat)\\\\b')"
p44
atp45
Rp46
sb.