(ifile_types
ParseObject
p0
(dp1
S'antagonists'
p2
c__builtin__
set
p3
((lp4
S"(130, u'\\\\bzacopride')"
p5
atp6
Rp7
sS'methods'
p8
g3
((lp9
S'Method.ANTAGONIST'
p10
atp11
Rp12
sS'topics'
p13
g3
((lp14
tp15
Rp16
sS'receptors'
p17
g3
((lp18
S'5ht3'
p19
atp20
Rp21
sS'regions'
p22
g3
((lp23
tp24
Rp25
sS'year'
p26
V1993
p27
sS'agonists'
p28
g3
((lp29
S"(208, u'\\\\bzacopride')"
p30
atp31
Rp32
sS'species'
p33
g3
((lp34
tp35
Rp36
sb.