(ifile_types
ParseObject
p0
(dp1
S'methods'
p2
c__builtin__
set
p3
((lp4
S'Method.AGONIST'
p5
atp6
Rp7
sS'topics'
p8
g3
((lp9
tp10
Rp11
sS'receptors'
p12
g3
((lp13
(S'5ht1b'
p14
I1615
I1621
tp15
atp16
Rp17
sS'raw_text_methods'
p18
g3
((lp19
S"(13, u'\\\\bagonist')"
p20
aS"(11, u'\\\\bfluoxetine')"
p21
atp22
Rp23
sS'regions'
p24
g3
((lp25
S"(19, u'(?i)\\\\b(cortexes|cortex)\\\\b')"
p26
atp27
Rp28
sS'year'
p29
V1989
p30
sS'species'
p31
g3
((lp32
S"(6, u'(?i)\\\\b(rodents|rodent)\\\\b')"
p33
aS"(4, u'(?i)\\\\b(rats|rat)\\\\b')"
p34
atp35
Rp36
sb.