(ifile_types
ParseObject
p0
(dp1
S'methods'
p2
c__builtin__
set
p3
((lp4
S'Method.ANTAGONIST'
p5
atp6
Rp7
sS'topics'
p8
g3
((lp9
tp10
Rp11
sS'receptors'
p12
g3
((lp13
(S'5ht1a'
p14
I129
I135
tp15
a(S'5ht1a'
p16
I503
I509
tp17
a(S'5ht2a'
p18
I341
I347
tp19
a(S'5ht1a'
p20
I330
I336
tp21
a(S'5ht2a'
p22
I510
I516
tp23
a(S'5ht2a'
p24
I136
I142
tp25
a(S'5ht2a'
p26
I537
I543
tp27
atp28
Rp29
sS'raw_text_methods'
p30
g3
((lp31
S"(12, u'\\\\bantagonist')"
p32
atp33
Rp34
sS'regions'
p35
g3
((lp36
tp37
Rp38
sS'year'
p39
V2001
p40
sS'species'
p41
g3
((lp42
tp43
Rp44
sb.