(ifile_types
ParseObject
p0
(dp1
S'methods'
p2
c__builtin__
set
p3
((lp4
S'Method.ANTAGONIST'
p5
atp6
Rp7
sS'topics'
p8
g3
((lp9
S"(22, u'\\\\bschizophreni')"
p10
aS"(33, u'\\\\blocomot')"
p11
aS"(3, u'\\\\bclinical')"
p12
atp13
Rp14
sS'receptors'
p15
g3
((lp16
(S'5ht2a'
p17
I1836
I1842
tp18
a(S'5ht2a'
p19
I542
I548
tp20
a(S'5ht2a'
p21
I2187
I2193
tp22
atp23
Rp24
sS'raw_text_methods'
p25
g3
((lp26
S"(50, u'\\\\bm100907')"
p27
aS"(23, u'\\\\bmdl')"
p28
aS"(5, u'\\\\bmk801')"
p29
aS"(12, u'\\\\bantagonist')"
p30
atp31
Rp32
sS'regions'
p33
g3
((lp34
tp35
Rp36
sS'year'
p37
V1997
p38
sS'species'
p39
g3
((lp40
tp41
Rp42
sb.