(ifile_types
ParseObject
p0
(dp1
S'antagonists'
p2
c__builtin__
set
p3
((lp4
tp5
Rp6
sS'methods'
p7
g3
((lp8
tp9
Rp10
sS'topics'
p11
g3
((lp12
S"(37, u'\\\\baddict')"
p13
aS"(18, u'\\\\bpsychostim')"
p14
aS"(16, u'\\\\bfeed')"
p15
aS"(4, u'\\\\blocomot')"
p16
atp17
Rp18
sS'receptors'
p19
g3
((lp20
S'5ht1a'
p21
aS'5ht2a'
p22
atp23
Rp24
sS'regions'
p25
g3
((lp26
S"(94, u'(?i)\\\\b(dorsals|dorsal)(-|\\\\s+)?(raphes|raphe)(-|\\\\s+)?(nuclei|nucleus)\\\\b')"
p27
aS"(49, u'(?i)\\\\b(loci|locus)(-|\\\\s+)?(coeruleuses|coeruleus)\\\\b')"
p28
aS"(318, u'(?i)\\\\b(raphes|raphe)(-|\\\\s+)?(nuclei|nucleus)\\\\b')"
p29
atp30
Rp31
sS'year'
p32
V2014
p33
sS'agonists'
p34
g3
((lp35
S"(147, u'\\\\bmdma')"
p36
atp37
Rp38
sS'species'
p39
g3
((lp40
S"(1057, u'(?i)\\\\b(humans|human)\\\\b')"
p41
aS"(163, u'(?i)\\\\b(mice|mouse)\\\\b')"
p42
aS"(3247, u'(?i)\\\\b(youngs|young)\\\\b')"
p43
aS"(3196, u'(?i)\\\\b(human|humans)\\\\b')"
p44
atp45
Rp46
sb.