(ifile_types
ParseObject
p0
(dp1
S'methods'
p2
c__builtin__
set
p3
((lp4
S'Method.ANTAGONIST'
p5
aS'Method.AGONIST'
p6
atp7
Rp8
sS'topics'
p9
g3
((lp10
S"(14, u'\\\\bcogniti')"
p11
aS"(13, u'\\\\bantidepress')"
p12
aS"(25, u'\\\\bsocial')"
p13
aS"(7, u'\\\\bdepressi')"
p14
aS"(9, u'\\\\bstress')"
p15
aS"(15, u'\\\\bmemory')"
p16
aS"(26, u'\\\\bbehav')"
p17
aS"(8, u'\\\\banxi')"
p18
aS"(4, u'\\\\btreatment')"
p19
atp20
Rp21
sS'receptors'
p22
g3
((lp23
(S'5ht2c'
p24
I1174
I1180
tp25
atp26
Rp27
sS'raw_text_methods'
p28
g3
((lp29
S"(13, u'\\\\bagonist')"
p30
aS"(43, u'\\\\bagomelatine')"
p31
aS"(12, u'\\\\bantagonist')"
p32
atp33
Rp34
sS'regions'
p35
g3
((lp36
tp37
Rp38
sS'year'
p39
V2017
p40
sS'species'
p41
g3
((lp42
S"(1, u'(?i)\\\\b(mice|mouse)\\\\b')"
p43
aS"(5, u'(?i)\\\\b(mices|mice)\\\\b')"
p44
atp45
Rp46
sb.