(ifile_types
ParseObject
p0
(dp1
S'methods'
p2
c__builtin__
set
p3
((lp4
S'Method.ANTAGONIST'
p5
aS'Method.AGONIST'
p6
atp7
Rp8
sS'topics'
p9
g3
((lp10
S"(18, u'\\\\bavoidan')"
p11
aS"(14, u'\\\\bcogniti')"
p12
aS"(16, u'\\\\blearning')"
p13
aS"(26, u'\\\\bbehav')"
p14
atp15
Rp16
sS'receptors'
p17
g3
((lp18
(S'5ht4'
p19
I575
I580
tp20
a(S'5ht4'
p21
I277
I282
tp22
a(S'5ht4'
p23
I1103
I1108
tp24
a(S'5ht4'
p25
I1873
I1878
tp26
a(S'5ht4'
p27
I67
I72
tp28
a(S'5ht4'
p29
I1304
I1309
tp30
atp31
Rp32
sS'raw_text_methods'
p33
g3
((lp34
S"(13, u'\\\\bagonist')"
p35
aS"(12, u'\\\\bantagonist')"
p36
atp37
Rp38
sS'regions'
p39
g3
((lp40
tp41
Rp42
sS'year'
p43
V2001
p44
sS'species'
p45
g3
((lp46
S"(4, u'(?i)\\\\b(rats|rat)\\\\b')"
p47
atp48
Rp49
sb.