(ifile_types
ParseObject
p0
(dp1
S'methods'
p2
c__builtin__
set
p3
((lp4
S'Method.ANTAGONIST'
p5
atp6
Rp7
sS'topics'
p8
g3
((lp9
tp10
Rp11
sS'receptors'
p12
g3
((lp13
(S'5ht4'
p14
I161
I166
tp15
a(S'5ht4'
p16
I1617
I1622
tp17
a(S'5ht4'
p18
I1532
I1537
tp19
a(S'5ht1a'
p20
I1707
I1713
tp21
a(S'5ht4'
p22
I1468
I1473
tp23
a(S'5ht4'
p24
I1586
I1591
tp25
atp26
Rp27
sS'raw_text_methods'
p28
g3
((lp29
S"(48, u'\\\\bmdma')"
p30
atp31
Rp32
sS'regions'
p33
g3
((lp34
S"(3, u'(?i)\\\\b(postsynaptics|postsynaptic)\\\\b')"
p35
atp36
Rp37
sS'year'
p38
V2008
p39
sS'species'
p40
g3
((lp41
S"(4, u'(?i)\\\\b(rats|rat)\\\\b')"
p42
atp43
Rp44
sb.