(ifile_types
ParseObject
p0
(dp1
S'methods'
p2
c__builtin__
set
p3
((lp4
S'Method.ANTAGONIST'
p5
aS'Method.AGONIST'
p6
atp7
Rp8
sS'topics'
p9
g3
((lp10
tp11
Rp12
sS'receptors'
p13
g3
((lp14
(S'5ht4'
p15
I1437
I1442
tp16
a(S'5ht2c'
p17
I1684
I1690
tp18
a(S'5ht2c'
p19
I1924
I1931
tp20
a(S'5ht2c'
p21
I304
I310
tp22
a(S'5ht3'
p23
I1427
I1432
tp24
a(S'5ht5'
p25
I1437
I1443
tp26
a(S'5ht2c'
p27
I2402
I2408
tp28
a(S'5ht2b'
p29
I2297
I2303
tp30
a(S'5ht1'
p31
I1412
I1417
tp32
a(S'5ht2c'
p33
I2307
I2313
tp34
a(S'5ht2b'
p35
I1271
I1277
tp36
a(S'5ht2b'
p37
I90
I96
tp38
a(S'5ht2b'
p39
I293
I299
tp40
a(S'5ht2c'
p41
I1771
I1777
tp42
a(S'5ht2c'
p43
I2184
I2190
tp44
a(S'5ht7'
p45
I1437
I1445
tp46
a(S'5ht2b'
p47
I1742
I1748
tp48
a(S'5ht2a'
p49
I1419
I1425
tp50
a(S'5ht2'
p51
I1491
I1496
tp52
a(S'5ht2b'
p53
I1924
I1930
tp54
a(S'5ht2c'
p55
I1282
I1288
tp56
a(S'5ht2b'
p57
I1673
I1679
tp58
a(S'5ht2c'
p59
I101
I107
tp60
a(S'5ht6'
p61
I1437
I1444
tp62
a(S'5ht2b'
p63
I2391
I2397
tp64
a(S'5ht2b'
p65
I2174
I2180
tp66
atp67
Rp68
sS'raw_text_methods'
p69
g3
((lp70
S"(13, u'\\\\bagonist')"
p71
aS"(15, u'\\\\b8ohdpat')"
p72
aS"(49, u'\\\\bdoi')"
p73
aS"(12, u'\\\\bantagonist')"
p74
atp75
Rp76
sS'regions'
p77
g3
((lp78
tp79
Rp80
sS'year'
p81
V2011
p82
sS'species'
p83
g3
((lp84
S"(4, u'(?i)\\\\b(rats|rat)\\\\b')"
p85
atp86
Rp87
sb.