(ifile_types
ParseObject
p0
(dp1
S'methods'
p2
c__builtin__
set
p3
((lp4
S'Method.KNOCKOUT'
p5
aS'Method.ANTAGONIST'
p6
aS'Method.AGONIST'
p7
atp8
Rp9
sS'topics'
p10
g3
((lp11
tp12
Rp13
sS'receptors'
p14
g3
((lp15
(S'5ht1b'
p16
I642
I648
tp17
a(S'5ht1b'
p18
I329
I335
tp19
a(S'5ht1b'
p20
I426
I432
tp21
a(S'5ht1a'
p22
I688
I694
tp23
a(S'5ht1b'
p24
I158
I164
tp25
a(S'5ht1b'
p26
I1606
I1612
tp27
a(S'5ht1b'
p28
I1824
I1830
tp29
a(S'5ht1b'
p30
I1001
I1007
tp31
a(S'5ht1b'
p32
I77
I83
tp33
atp34
Rp35
sS'raw_text_methods'
p36
g3
((lp37
S"(13, u'\\\\bagonist')"
p38
aS"(12, u'\\\\bantagonist')"
p39
atp40
Rp41
sS'regions'
p42
g3
((lp43
S"(8, u'(?i)\\\\b(centrals|central)(-|\\\\s+)?(nervouses|nervous)(-|\\\\s+)?(systems|system)\\\\b')"
p44
aS"(4, u'(?i)\\\\b(presynaptics|presynaptic)\\\\b')"
p45
aS"(3, u'(?i)\\\\b(postsynaptics|postsynaptic)\\\\b')"
p46
atp47
Rp48
sS'year'
p49
V2000
p50
sS'species'
p51
g3
((lp52
S"(1, u'(?i)\\\\b(mice|mouse)\\\\b')"
p53
aS"(5, u'(?i)\\\\b(mices|mice)\\\\b')"
p54
atp55
Rp56
sb.