(ifile_types
ParseObject
p0
(dp1
S'methods'
p2
c__builtin__
set
p3
((lp4
S'Method.ANTAGONIST'
p5
aS'Method.AGONIST'
p6
atp7
Rp8
sS'topics'
p9
g3
((lp10
S"(26, u'\\\\bbehav')"
p11
atp12
Rp13
sS'receptors'
p14
g3
((lp15
(S'5ht1a'
p16
I375
I381
tp17
a(S'5ht1a'
p18
I1356
I1362
tp19
a(S'5ht1a'
p20
I698
I704
tp21
a(S'5ht1a'
p22
I1322
I1328
tp23
a(S'5ht1a'
p24
I2270
I2276
tp25
a(S'5ht1a'
p26
I159
I165
tp27
atp28
Rp29
sS'raw_text_methods'
p30
g3
((lp31
S"(13, u'\\\\bagonist')"
p32
aS"(15, u'\\\\b8ohdpat')"
p33
aS"(41, u'\\\\bhaloperidol')"
p34
aS"(12, u'\\\\bantagonist')"
p35
atp36
Rp37
sS'regions'
p38
g3
((lp39
S"(15, u'(?i)\\\\b(substantias|substantia)(-|\\\\s+)?(nigras|nigra)\\\\b')"
p40
aS"(3, u'(?i)\\\\b(postsynaptics|postsynaptic)\\\\b')"
p41
atp42
Rp43
sS'year'
p44
V1995
p45
sS'species'
p46
g3
((lp47
S"(1, u'(?i)\\\\b(mice|mouse)\\\\b')"
p48
aS"(5, u'(?i)\\\\b(mices|mice)\\\\b')"
p49
aS"(4, u'(?i)\\\\b(rats|rat)\\\\b')"
p50
atp51
Rp52
sb.