(ifile_types
ParseObject
p0
(dp1
S'antagonists'
p2
c__builtin__
set
p3
((lp4
S"(135, u'\\\\bondansetron')"
p5
aS"(141, u'\\\\bzacopride')"
p6
atp7
Rp8
sS'methods'
p9
g3
((lp10
S'Method.ANTAGONIST'
p11
aS'Method.AGONIST'
p12
atp13
Rp14
sS'topics'
p15
g3
((lp16
S"(11, u'\\\\banxiolyt')"
p17
aS"(10, u'\\\\banxiety')"
p18
atp19
Rp20
sS'receptors'
p21
g3
((lp22
S'5ht1a'
p23
aS'5ht3'
p24
atp25
Rp26
sS'regions'
p27
g3
((lp28
S"(248, u'(?i)(cerebrals|cerebral)(-|\\\\s+)?(cortexes|cortex)')"
p29
aS"(34, u'(?i)(pon|pons)')"
p30
atp31
Rp32
sS'year'
p33
V1992
p34
sS'agonists'
p35
g3
((lp36
S"(92, u'\\\\b8 ?oh ?dpat')"
p37
aS"(24, u'\\\\bbuspirone')"
p38
aS"(212, u'\\\\bzacopride')"
p39
atp40
Rp41
sS'species'
p42
g3
((lp43
S"(5958, u'(?i)(rats|rat)')"
p44
aS"(6753, u'(?i)(da|das)')"
p45
aS"(6249, u'(?i)(ants|ant)')"
p46
aS"(468, u'(?i)(oxen|ox)')"
p47
aS"(1349, u'(?i)(rams|ram)')"
p48
aS"(3726, u'(?i)(mates|mate)')"
p49
aS"(4979, u'(?i)(cats|cat)')"
p50
aS"(3550, u'(?i)(anis|ani)')"
p51
aS"(3522, u'(?i)(tetras|tetra)')"
p52
aS"(1961, u'(?i)(pens|pen)')"
p53
aS"(3812, u'(?i)(studs|stud)')"
p54
aS"(6391, u'(?i)(asses|ass)')"
p55
aS"(7058, u'(?i)(does|doe)')"
p56
atp57
Rp58
sb.