(ifile_types
ParseObject
p0
(dp1
S'antagonists'
p2
c__builtin__
set
p3
((lp4
S"(204, u'\\\\bsb ?269970')"
p5
aS"(31, u'\\\\bway ?100135')"
p6
atp7
Rp8
sS'methods'
p9
g3
((lp10
S'Method.ANTAGONIST'
p11
aS'Method.AGONIST'
p12
atp13
Rp14
sS'topics'
p15
g3
((lp16
tp17
Rp18
sS'receptors'
p19
g3
((lp20
S'5ht7'
p21
aS'5ht1a'
p22
atp23
Rp24
sS'regions'
p25
g3
((lp26
S"(34, u'(?i)(pon|pons)')"
p27
atp28
Rp29
sS'year'
p30
V2018
p31
sS'agonists'
p32
g3
((lp33
S"(92, u'\\\\b8 ?oh ?dpat')"
p34
aS"(5, u'\\\\b5 ?ct')"
p35
atp36
Rp37
sS'species'
p38
g3
((lp39
S"(2323, u'(?i)(bees|bee)')"
p40
aS"(6753, u'(?i)(da|das)')"
p41
aS"(5958, u'(?i)(rats|rat)')"
p42
aS"(5743, u'(?i)(bots|bot)')"
p43
aS"(1725, u'(?i)(clams|clam)')"
p44
aS"(6682, u'(?i)(tera|teras)')"
p45
aS"(1349, u'(?i)(rams|ram)')"
p46
aS"(3726, u'(?i)(mates|mate)')"
p47
aS"(3152, u'(?i)(layers|layer)')"
p48
aS"(4979, u'(?i)(cats|cat)')"
p49
aS"(6249, u'(?i)(ants|ant)')"
p50
aS"(7094, u'(?i)(curs|cur)')"
p51
aS"(3812, u'(?i)(studs|stud)')"
p52
aS"(6356, u'(?i)(ais|ai)')"
p53
aS"(7552, u'(?i)(bats|bat)')"
p54
atp55
Rp56
sb.