(ifile_types
ParseObject
p0
(dp1
S'methods'
p2
c__builtin__
set
p3
((lp4
S'Method.IMMUNOHISTOCHEMISTRY'
p5
atp6
Rp7
sS'topics'
p8
g3
((lp9
S"(14, u'\\\\bcogniti')"
p10
aS"(15, u'\\\\bmemory')"
p11
atp12
Rp13
sS'receptors'
p14
g3
((lp15
(S'5ht3'
p16
I58
I68
tp17
a(S'5ht3'
p18
I579
I585
tp19
a(S'5ht3a'
p20
I449
I455
tp21
a(S'5ht3'
p22
I286
I291
tp23
a(S'5ht3a'
p24
I1511
I1517
tp25
a(S'5ht3a'
p26
I1097
I1103
tp27
a(S'5ht3a'
p28
I838
I844
tp29
a(S'5ht3'
p30
I1470
I1475
tp31
a(S'5ht3'
p32
I471
I476
tp33
a(S'5ht1a'
p34
I971
I977
tp35
a(S'5ht3a'
p36
I1215
I1221
tp37
a(S'5ht3a'
p38
I579
I585
tp39
a(S'5ht3'
p40
I1215
I1221
tp41
a(S'5ht3a'
p42
I90
I96
tp43
atp44
Rp45
sS'raw_text_methods'
p46
g3
((lp47
tp48
Rp49
sS'regions'
p50
g3
((lp51
S"(19, u'(?i)\\\\b(cortexes|cortex)\\\\b')"
p52
aS"(12, u'(?i)\\\\b(amygdalas|amygdala)\\\\b')"
p53
aS"(7, u'(?i)\\\\b(entorhinals|entorhinal)\\\\b')"
p54
atp55
Rp56
sS'year'
p57
V2004
p58
sS'species'
p59
g3
((lp60
S"(4, u'(?i)\\\\b(rats|rat)\\\\b')"
p61
atp62
Rp63
sb.