(ifile_types
ParseObject
p0
(dp1
S'antagonists'
p2
c__builtin__
set
p3
((lp4
tp5
Rp6
sS'methods'
p7
g3
((lp8
S'Method.ANTAGONIST'
p9
atp10
Rp11
sS'topics'
p12
g3
((lp13
tp14
Rp15
sS'receptors'
p16
g3
((lp17
S'5ht5'
p18
aS'5ht4'
p19
aS'5ht3a'
p20
aS'5ht3b'
p21
aS'5ht1a'
p22
aS'5ht4a'
p23
aS'5ht3'
p24
atp25
Rp26
sS'regions'
p27
g3
((lp28
tp29
Rp30
sS'year'
p31
V1999
p32
sS'agonists'
p33
g3
((lp34
tp35
Rp36
sS'species'
p37
g3
((lp38
S"(6249, u'(?i)(ants|ant)')"
p39
aS"(7609, u'(?i)(erns|ern)')"
p40
aS"(867, u'(?i)(tits|tit)')"
p41
aS"(6753, u'(?i)(da|das)')"
p42
aS"(3051, u'(?i)(pigs|pig)')"
p43
aS"(468, u'(?i)(oxen|ox)')"
p44
aS"(3062, u'(?i)(guineas|guinea)')"
p45
aS"(4979, u'(?i)(cats|cat)')"
p46
aS"(1414, u'(?i)(chars|char)')"
p47
aS"(4480, u'(?i)(guineas|guinea)(-|\\\\s+)?(pigs|pig)')"
p48
aS"(2809, u'(?i)(toms|tom)')"
p49
aS"(1683, u'(?i)(terns|tern)')"
p50
atp51
Rp52
sb.