(ifile_types
ParseObject
p0
(dp1
S'antagonists'
p2
c__builtin__
set
p3
((lp4
S"(111, u'\\\\bolanzapine')"
p5
aS"(58, u'\\\\bhaloperidol')"
p6
atp7
Rp8
sS'methods'
p9
g3
((lp10
S'Method.ANTAGONIST'
p11
atp12
Rp13
sS'topics'
p14
g3
((lp15
S"(15, u'\\\\bschizophreni')"
p16
aS"(14, u'\\\\bpsychosis')"
p17
atp18
Rp19
sS'receptors'
p20
g3
((lp21
S'5ht2a'
p22
atp23
Rp24
sS'regions'
p25
g3
((lp26
tp27
Rp28
sS'year'
p29
V2012
p30
sS'agonists'
p31
g3
((lp32
S"(57, u'\\\\bolanzapine')"
p33
aS"(43, u'\\\\bhaloperidol')"
p34
atp35
Rp36
sS'species'
p37
g3
((lp38
S"(5958, u'(?i)\\\\b(rats|rat)\\\\b')"
p39
atp40
Rp41
sb.