(ifile_types
ParseObject
p0
(dp1
S'antagonists'
p2
c__builtin__
set
p3
((lp4
S"(130, u'\\\\bzacopride')"
p5
aS"(124, u'\\\\bondansetron')"
p6
aS"(123, u'\\\\bgranisetron')"
p7
aS"(129, u'\\\\brenzapride')"
p8
aS"(119, u'\\\\britanserin')"
p9
atp10
Rp11
sS'methods'
p12
g3
((lp13
S'Method.AGONIST'
p14
atp15
Rp16
sS'topics'
p17
g3
((lp18
S"(11, u'\\\\banxiolyt')"
p19
atp20
Rp21
sS'receptors'
p22
g3
((lp23
S'5ht1c'
p24
aS'5ht1a'
p25
aS'5ht3b'
p26
aS'5ht3'
p27
aS'5ht2a'
p28
atp29
Rp30
sS'regions'
p31
g3
((lp32
tp33
Rp34
sS'year'
p35
V1992
p36
sS'agonists'
p37
g3
((lp38
S"(146, u'\\\\bguanfacine')"
p39
aS"(208, u'\\\\bzacopride')"
p40
aS"(203, u'\\\\brenzapride')"
p41
aS"(85, u'\\\\b8 ?oh ?dpat')"
p42
atp43
Rp44
sS'species'
p45
g3
((lp46
S"(163, u'(?i)\\\\b(mice|mouse)\\\\b')"
p47
atp48
Rp49
sb.