(ifile_types
ParseObject
p0
(dp1
S'methods'
p2
c__builtin__
set
p3
((lp4
S'Method.ANTAGONIST'
p5
atp6
Rp7
sS'topics'
p8
g3
((lp9
tp10
Rp11
sS'receptors'
p12
g3
((lp13
(S'5ht1a'
p14
I557
I563
tp15
a(S'5ht1a'
p16
I381
I387
tp17
a(S'5ht1a'
p18
I978
I984
tp19
a(S'5ht1a'
p20
I135
I141
tp21
a(S'5ht1a'
p22
I288
I294
tp23
atp24
Rp25
sS'raw_text_methods'
p26
g3
((lp27
S"(12, u'\\\\bantagonist')"
p28
atp29
Rp30
sS'regions'
p31
g3
((lp32
tp33
Rp34
sS'year'
p35
V1995
p36
sS'species'
p37
g3
((lp38
S"(3, u'(?i)\\\\b(males|male)\\\\b')"
p39
aS"(4, u'(?i)\\\\b(rats|rat)\\\\b')"
p40
atp41
Rp42
sb.