(ifile_types
ParseObject
p0
(dp1
S'antagonists'
p2
c__builtin__
set
p3
((lp4
tp5
Rp6
sS'methods'
p7
g3
((lp8
tp9
Rp10
sS'topics'
p11
g3
((lp12
S"(15, u'\\\\bschizophreni')"
p13
aS"(9, u'\\\\bdepress')"
p14
aS"(1, u'\\\\bmood')"
p15
atp16
Rp17
sS'receptors'
p18
g3
((lp19
S'5ht1b'
p20
aS'5ht5'
p21
aS'5ht1a'
p22
aS'5ht2a'
p23
atp24
Rp25
sS'regions'
p26
g3
((lp27
S"(257, u'(?i)(dorsolaterals|dorsolateral)(-|\\\\s+)?(prefrontals|prefrontal)(-|\\\\s+)?(cortexes|cortex)')"
p28
aS"(254, u'(?i)(prefrontals|prefrontal)(-|\\\\s+)?(cortexes|cortex)')"
p29
aS"(255, u'(?i)(pres|pre)(-|\\\\s+)?(frontals|frontal)(-|\\\\s+)?(cortexes|cortex)')"
p30
atp31
Rp32
sS'year'
p33
V2004
p34
sS'agonists'
p35
g3
((lp36
tp37
Rp38
sS'species'
p39
g3
((lp40
S"(2323, u'(?i)(bees|bee)')"
p41
aS"(5537, u'(?i)(hippos|hippo)')"
p42
aS"(5958, u'(?i)(rats|rat)')"
p43
aS"(4979, u'(?i)(cats|cat)')"
p44
aS"(6682, u'(?i)(tera|teras)')"
p45
aS"(5743, u'(?i)(bots|bot)')"
p46
aS"(6249, u'(?i)(ants|ant)')"
p47
aS"(3812, u'(?i)(studs|stud)')"
p48
aS"(6356, u'(?i)(ais|ai)')"
p49
atp50
Rp51
sb.