(ifile_types
ParseObject
p0
(dp1
S'methods'
p2
c__builtin__
set
p3
((lp4
S'Method.AGONIST'
p5
atp6
Rp7
sS'topics'
p8
g3
((lp9
S"(2, u'\\\\bdisorder')"
p10
aS"(7, u'\\\\bdepressi')"
p11
aS"(9, u'\\\\bstress')"
p12
aS"(15, u'\\\\bmemory')"
p13
aS"(1, u'\\\\bpatient')"
p14
aS"(4, u'\\\\btreatment')"
p15
aS"(3, u'\\\\bclinical')"
p16
atp17
Rp18
sS'receptors'
p19
g3
((lp20
(S'5ht1b'
p21
I603
I609
tp22
a(S'5ht1b'
p23
I402
I408
tp24
a(S'5ht1b'
p25
I1589
I1595
tp26
a(S'5ht1b'
p27
I45
I51
tp28
a(S'5ht1b'
p29
I518
I524
tp30
atp31
Rp32
sS'raw_text_methods'
p33
g3
((lp34
S"(13, u'\\\\bagonist')"
p35
atp36
Rp37
sS'regions'
p38
g3
((lp39
tp40
Rp41
sS'year'
p42
V2018
p43
sS'species'
p44
g3
((lp45
S"(4, u'(?i)\\\\b(rats|rat)\\\\b')"
p46
atp47
Rp48
sb.