(ifile_types
ParseObject
p0
(dp1
S'antagonists'
p2
c__builtin__
set
p3
((lp4
tp5
Rp6
sS'methods'
p7
g3
((lp8
S'Method.PET'
p9
aS'Method.KNOCKOUT'
p10
atp11
Rp12
sS'topics'
p13
g3
((lp14
tp15
Rp16
sS'receptors'
p17
g3
((lp18
S'5ht1a'
p19
atp20
Rp21
sS'regions'
p22
g3
((lp23
S"(223, u'(?i)\\\\b(putamens|putamen)\\\\b')"
p24
atp25
Rp26
sS'year'
p27
V2019
p28
sS'agonists'
p29
g3
((lp30
tp31
Rp32
sS'species'
p33
g3
((lp34
S"(6325, u'(?i)\\\\b(caudates|caudate)\\\\b')"
p35
aS"(7003, u'(?i)\\\\b(murines|murine)\\\\b')"
p36
aS"(163, u'(?i)\\\\b(mice|mouse)\\\\b')"
p37
aS"(1070, u'(?i)\\\\b(pets|pet)\\\\b')"
p38
atp39
Rp40
sb.