(ifile_types
ParseObject
p0
(dp1
S'methods'
p2
c__builtin__
set
p3
((lp4
tp5
Rp6
sS'topics'
p7
g3
((lp8
S"(6, u'\\\\baggressi')"
p9
aS"(26, u'\\\\bbehav')"
p10
aS"(25, u'\\\\bsocial')"
p11
atp12
Rp13
sS'receptors'
p14
g3
((lp15
(S'5ht1a'
p16
I996
I1002
tp17
a(S'5ht1a'
p18
I227
I233
tp19
a(S'5ht1a'
p20
I748
I754
tp21
atp22
Rp23
sS'raw_text_methods'
p24
g3
((lp25
S"(15, u'\\\\b8ohdpat')"
p26
atp27
Rp28
sS'regions'
p29
g3
((lp30
tp31
Rp32
sS'year'
p33
V1993
p34
sS'species'
p35
g3
((lp36
S"(4, u'(?i)\\\\b(rats|rat)\\\\b')"
p37
atp38
Rp39
sb.