(ifile_types
ParseObject
p0
(dp1
S'antagonists'
p2
c__builtin__
set
p3
((lp4
tp5
Rp6
sS'methods'
p7
g3
((lp8
S'Method.ANTAGONIST'
p9
atp10
Rp11
sS'topics'
p12
g3
((lp13
S"(24, u'\\\\banalgesi')"
p14
atp15
Rp16
sS'receptors'
p17
g3
((lp18
S'5ht4a'
p19
aS'5ht5'
p20
aS'5ht4'
p21
aS'5ht3'
p22
atp23
Rp24
sS'regions'
p25
g3
((lp26
tp27
Rp28
sS'year'
p29
V1999
p30
sS'agonists'
p31
g3
((lp32
tp33
Rp34
sS'species'
p35
g3
((lp36
tp37
Rp38
sb.