(ifile_types
ParseObject
p0
(dp1
S'methods'
p2
c__builtin__
set
p3
((lp4
S'Method.AGONIST'
p5
atp6
Rp7
sS'topics'
p8
g3
((lp9
S"(24, u'\\\\banxiolytic')"
p10
aS"(8, u'\\\\banxi')"
p11
aS"(13, u'\\\\bantidepress')"
p12
aS"(26, u'\\\\bbehav')"
p13
atp14
Rp15
sS'receptors'
p16
g3
((lp17
(S'5ht1'
p18
I238
I243
tp19
a(S'5ht1a'
p20
I924
I930
tp21
atp22
Rp23
sS'raw_text_methods'
p24
g3
((lp25
S"(13, u'\\\\bagonist')"
p26
aS"(11, u'\\\\bfluoxetine')"
p27
aS"(22, u'\\\\bbuspirone')"
p28
atp29
Rp30
sS'regions'
p31
g3
((lp32
tp33
Rp34
sS'year'
p35
V2008
p36
sS'species'
p37
g3
((lp38
S"(4, u'(?i)\\\\b(rats|rat)\\\\b')"
p39
atp40
Rp41
sb.