(ifile_types
ParseObject
p0
(dp1
S'antagonists'
p2
c__builtin__
set
p3
((lp4
S"(32, u'\\\\bway ?100635')"
p5
aS"(113, u'\\\\bclomipramine')"
p6
atp7
Rp8
sS'methods'
p9
g3
((lp10
S'Method.STIMULATION'
p11
atp12
Rp13
sS'topics'
p14
g3
((lp15
tp16
Rp17
sS'receptors'
p18
g3
((lp19
S'5ht1a'
p20
atp21
Rp22
sS'regions'
p23
g3
((lp24
S"(362, u'(?i)(brains|brain)(-|\\\\s+)?(stems|stem)')"
p25
aS"(220, u'(?i)(striatums|striatum)')"
p26
aS"(318, u'(?i)(raphes|raphe)(-|\\\\s+)?(nuclei|nucleus)')"
p27
aS"(94, u'(?i)(dorsals|dorsal)(-|\\\\s+)?(raphes|raphe)(-|\\\\s+)?(nuclei|nucleus)')"
p28
atp29
Rp30
sS'year'
p31
V1999
p32
sS'agonists'
p33
g3
((lp34
S"(92, u'\\\\b8 ?oh ?dpat')"
p35
atp36
Rp37
sS'species'
p38
g3
((lp39
S"(5537, u'(?i)(hippos|hippo)')"
p40
aS"(5958, u'(?i)(rats|rat)')"
p41
aS"(468, u'(?i)(oxen|ox)')"
p42
aS"(1055, u'(?i)(men|man)')"
p43
aS"(1349, u'(?i)(rams|ram)')"
p44
aS"(6356, u'(?i)(ais|ai)')"
p45
aS"(6249, u'(?i)(ants|ant)')"
p46
aS"(3812, u'(?i)(studs|stud)')"
p47
atp48
Rp49
sb.