(ifile_types
ParseObject
p0
(dp1
S'antagonists'
p2
c__builtin__
set
p3
((lp4
tp5
Rp6
sS'methods'
p7
g3
((lp8
S'Method.KNOCKOUT'
p9
atp10
Rp11
sS'topics'
p12
g3
((lp13
S"(11, u'\\\\banxiolyt')"
p14
aS"(10, u'\\\\banxiety')"
p15
atp16
Rp17
sS'receptors'
p18
g3
((lp19
S'5ht1b'
p20
atp21
Rp22
sS'regions'
p23
g3
((lp24
tp25
Rp26
sS'year'
p27
V2000
p28
sS'agonists'
p29
g3
((lp30
tp31
Rp32
sS'species'
p33
g3
((lp34
S"(4624, u'(?i)(apes|ape)')"
p35
aS"(6753, u'(?i)(da|das)')"
p36
aS"(5958, u'(?i)(rats|rat)')"
p37
aS"(163, u'(?i)(mice|mouse)')"
p38
aS"(2183, u'(?i)(gars|gar)')"
p39
aS"(1055, u'(?i)(men|man)')"
p40
aS"(5743, u'(?i)(bots|bot)')"
p41
aS"(3550, u'(?i)(anis|ani)')"
p42
aS"(1961, u'(?i)(pens|pen)')"
p43
aS"(6356, u'(?i)(ais|ai)')"
p44
atp45
Rp46
sb.