(ifile_types
ParseObject
p0
(dp1
S'methods'
p2
c__builtin__
set
p3
((lp4
S'Method.PET'
p5
atp6
Rp7
sS'topics'
p8
g3
((lp9
S"(17, u'\\\\balzheimer')"
p10
aS"(4, u'\\\\btreatment')"
p11
atp12
Rp13
sS'receptors'
p14
g3
((lp15
(S'5ht1a'
p16
I617
I622
tp17
atp18
Rp19
sS'raw_text_methods'
p20
g3
((lp21
S"(17, u'\\\\bpet')"
p22
aS"(18, u'\\\\bimaging')"
p23
atp24
Rp25
sS'regions'
p26
g3
((lp27
tp28
Rp29
sS'year'
p30
V2007
p31
sS'species'
p32
g3
((lp33
S"(1, u'(?i)\\\\b(mice|mouse)\\\\b')"
p34
aS"(5, u'(?i)\\\\b(mices|mice)\\\\b')"
p35
atp36
Rp37
sb.