(ifile_types
ParseObject
p0
(dp1
S'methods'
p2
c__builtin__
set
p3
((lp4
S'Method.ANTAGONIST'
p5
aS'Method.AGONIST'
p6
atp7
Rp8
sS'topics'
p9
g3
((lp10
tp11
Rp12
sS'receptors'
p13
g3
((lp14
(S'5ht3'
p15
I295
I300
tp16
a(S'5ht3'
p17
I32
I37
tp18
atp19
Rp20
sS'raw_text_methods'
p21
g3
((lp22
S"(13, u'\\\\bagonist')"
p23
aS"(41, u'\\\\bhaloperidol')"
p24
aS"(12, u'\\\\bantagonist')"
p25
atp26
Rp27
sS'regions'
p28
g3
((lp29
S"(15, u'(?i)\\\\b(substantias|substantia)(-|\\\\s+)?(nigras|nigra)\\\\b')"
p30
atp31
Rp32
sS'year'
p33
V1991
p34
sS'species'
p35
g3
((lp36
S"(4, u'(?i)\\\\b(rats|rat)\\\\b')"
p37
atp38
Rp39
sb.