(ifile_types
ParseObject
p0
(dp1
S'antagonists'
p2
c__builtin__
set
p3
((lp4
tp5
Rp6
sS'methods'
p7
g3
((lp8
S'Method.ANTAGONIST'
p9
aS'Method.AGONIST'
p10
atp11
Rp12
sS'topics'
p13
g3
((lp14
tp15
Rp16
sS'receptors'
p17
g3
((lp18
S'5ht7'
p19
aS'5ht5'
p20
aS'5ht1a'
p21
aS'5ht2a'
p22
atp23
Rp24
sS'regions'
p25
g3
((lp26
tp27
Rp28
sS'year'
p29
V2007
p30
sS'agonists'
p31
g3
((lp32
S"(236, u'\\\\bn ?1234 ?tetrahydronaphthalen ?1 ?yl ?4 ?aryl ?1 ?piperazinehexanamides')"
p33
aS"(230, u'\\\\b4 ?2 ?diphenyl ?n ?1234 ?tetrahydronaphthalen ?1 ?yl ?1 ?piperazinehexanamide')"
p34
atp35
Rp36
sS'species'
p37
g3
((lp38
S"(2568, u'(?i)(hens|hen)')"
p39
aS"(867, u'(?i)(tits|tit)')"
p40
aS"(6753, u'(?i)(da|das)')"
p41
aS"(479, u'(?i)(lings|ling)')"
p42
aS"(4163, u'(?i)(ermines|ermine)')"
p43
aS"(5743, u'(?i)(bots|bot)')"
p44
aS"(6249, u'(?i)(ants|ant)')"
p45
aS"(3522, u'(?i)(tetras|tetra)')"
p46
aS"(3812, u'(?i)(studs|stud)')"
p47
aS"(6391, u'(?i)(asses|ass)')"
p48
aS"(6356, u'(?i)(ais|ai)')"
p49
atp50
Rp51
sb.