(ifile_types
ParseObject
p0
(dp1
S'antagonists'
p2
c__builtin__
set
p3
((lp4
tp5
Rp6
sS'methods'
p7
g3
((lp8
tp9
Rp10
sS'topics'
p11
g3
((lp12
S"(10, u'\\\\banxiety')"
p13
aS"(4, u'\\\\blocomot')"
p14
atp15
Rp16
sS'receptors'
p17
g3
((lp18
S'5ht1b'
p19
aS'5ht5'
p20
aS'5ht1a'
p21
atp22
Rp23
sS'regions'
p24
g3
((lp25
tp26
Rp27
sS'year'
p28
V2007
p29
sS'agonists'
p30
g3
((lp31
tp32
Rp33
sS'species'
p34
g3
((lp35
S"(6753, u'(?i)(da|das)')"
p36
aS"(2568, u'(?i)(hens|hen)')"
p37
aS"(163, u'(?i)(mice|mouse)')"
p38
aS"(479, u'(?i)(lings|ling)')"
p39
aS"(468, u'(?i)(oxen|ox)')"
p40
aS"(1055, u'(?i)(men|man)')"
p41
aS"(937, u'(?i)(kids|kid)')"
p42
aS"(4979, u'(?i)(cats|cat)')"
p43
aS"(5958, u'(?i)(rats|rat)')"
p44
aS"(3812, u'(?i)(studs|stud)')"
p45
aS"(6356, u'(?i)(ais|ai)')"
p46
aS"(5949, u'(?i)(dogs|dog)')"
p47
atp48
Rp49
sb.