(ifile_types
ParseObject
p0
(dp1
S'methods'
p2
c__builtin__
set
p3
((lp4
S'Method.AGONIST'
p5
atp6
Rp7
sS'topics'
p8
g3
((lp9
S"(5, u'\\\\btherap')"
p10
atp11
Rp12
sS'receptors'
p13
g3
((lp14
(S'5ht1a'
p15
I57
I63
tp16
a(S'5ht1a'
p17
I1927
I1933
tp18
a(S'5ht1a'
p19
I956
I962
tp20
a(S'5ht1a'
p21
I1738
I1744
tp22
a(S'5ht1a'
p23
I1536
I1542
tp24
a(S'5ht1a'
p25
I382
I388
tp26
a(S'5ht1a'
p27
I1820
I1826
tp28
a(S'5ht1a'
p29
I1054
I1060
tp30
atp31
Rp32
sS'raw_text_methods'
p33
g3
((lp34
S"(13, u'\\\\bagonist')"
p35
aS"(15, u'\\\\b8ohdpat')"
p36
atp37
Rp38
sS'regions'
p39
g3
((lp40
S"(19, u'(?i)\\\\b(cortexes|cortex)\\\\b')"
p41
atp42
Rp43
sS'year'
p44
V1994
p45
sS'species'
p46
g3
((lp47
S"(2, u'(?i)\\\\b(females|female)\\\\b')"
p48
aS"(3, u'(?i)\\\\b(males|male)\\\\b')"
p49
aS"(4, u'(?i)\\\\b(rats|rat)\\\\b')"
p50
atp51
Rp52
sb.