(ifile_types
ParseObject
p0
(dp1
S'methods'
p2
c__builtin__
set
p3
((lp4
tp5
Rp6
sS'topics'
p7
g3
((lp8
S"(35, u'\\\\bnocicept')"
p9
atp10
Rp11
sS'receptors'
p12
g3
((lp13
(S'5ht3a'
p14
I1967
I1973
tp15
a(S'5ht3'
p16
I375
I380
tp17
a(S'5ht3a'
p18
I952
I958
tp19
a(S'5ht3'
p20
I199
I204
tp21
a(S'5ht3a'
p22
I558
I564
tp23
a(S'5ht3a'
p24
I128
I134
tp25
atp26
Rp27
sS'raw_text_methods'
p28
g3
((lp29
S"(3, u'\\\\bimmunoreactiv')"
p30
atp31
Rp32
sS'regions'
p33
g3
((lp34
tp35
Rp36
sS'year'
p37
V2003
p38
sS'species'
p39
g3
((lp40
S"(4, u'(?i)\\\\b(rats|rat)\\\\b')"
p41
atp42
Rp43
sb.