(ifile_types
ParseObject
p0
(dp1
S'antagonists'
p2
c__builtin__
set
p3
((lp4
tp5
Rp6
sS'methods'
p7
g3
((lp8
S'Method.STAINING'
p9
atp10
Rp11
sS'topics'
p12
g3
((lp13
S"(16, u'\\\\bfeed')"
p14
atp15
Rp16
sS'receptors'
p17
g3
((lp18
S'5ht1b'
p19
aS'5ht5'
p20
atp21
Rp22
sS'regions'
p23
g3
((lp24
S"(362, u'(?i)(brains|brain)(-|\\\\s+)?(stems|stem)')"
p25
aS"(159, u'(?i)(paraventriculars|paraventricular)(-|\\\\s+)?(nuclei|nucleus)')"
p26
aS"(126, u'(?i)(thalamuses|thalamus)')"
p27
atp28
Rp29
sS'year'
p30
V2005
p31
sS'agonists'
p32
g3
((lp33
tp34
Rp35
sS'species'
p36
g3
((lp37
S"(5958, u'(?i)(rats|rat)')"
p38
aS"(867, u'(?i)(tits|tit)')"
p39
aS"(6753, u'(?i)(da|das)')"
p40
aS"(1928, u'(?i)(bears|bear)')"
p41
aS"(6682, u'(?i)(tera|teras)')"
p42
aS"(1885, u'(?i)(apars|apar)')"
p43
aS"(468, u'(?i)(oxen|ox)')"
p44
aS"(1349, u'(?i)(rams|ram)')"
p45
aS"(3592, u'(?i)(ravens|raven)')"
p46
aS"(6356, u'(?i)(ais|ai)')"
p47
aS"(6249, u'(?i)(ants|ant)')"
p48
aS"(3812, u'(?i)(studs|stud)')"
p49
aS"(6391, u'(?i)(asses|ass)')"
p50
aS"(2809, u'(?i)(toms|tom)')"
p51
atp52
Rp53
sb.