(ifile_types
ParseObject
p0
(dp1
S'antagonists'
p2
c__builtin__
set
p3
((lp4
S"(53, u'\\\\bketanserin')"
p5
aS"(128, u'\\\\bketanserin')"
p6
aS"(27, u'\\\\bspiperone')"
p7
atp8
Rp9
sS'methods'
p10
g3
((lp11
S'Method.ANTAGONIST'
p12
atp13
Rp14
sS'topics'
p15
g3
((lp16
tp17
Rp18
sS'receptors'
p19
g3
((lp20
S'5ht1a'
p21
aS'5ht5'
p22
aS'5ht2'
p23
atp24
Rp25
sS'regions'
p26
g3
((lp27
S"(34, u'(?i)(pon|pons)')"
p28
atp29
Rp30
sS'year'
p31
V1989
p32
sS'agonists'
p33
g3
((lp34
S"(86, u'\\\\burapidil')"
p35
atp36
Rp37
sS'species'
p38
g3
((lp39
S"(2323, u'(?i)(bees|bee)')"
p40
aS"(6753, u'(?i)(da|das)')"
p41
aS"(5958, u'(?i)(rats|rat)')"
p42
aS"(4979, u'(?i)(cats|cat)')"
p43
aS"(6682, u'(?i)(tera|teras)')"
p44
aS"(4163, u'(?i)(ermines|ermine)')"
p45
aS"(1055, u'(?i)(men|man)')"
p46
aS"(6249, u'(?i)(ants|ant)')"
p47
aS"(1349, u'(?i)(rams|ram)')"
p48
aS"(4964, u'(?i)(serins|serin)')"
p49
aS"(3550, u'(?i)(anis|ani)')"
p50
aS"(7094, u'(?i)(curs|cur)')"
p51
aS"(6857, u'(?i)(ormers|ormer)')"
p52
aS"(5743, u'(?i)(bots|bot)')"
p53
aS"(7127, u'(?i)(monitors|monitor)')"
p54
atp55
Rp56
sb.