(ifile_types
ParseObject
p0
(dp1
S'antagonists'
p2
c__builtin__
set
p3
((lp4
S"(114, u'\\\\bimipramine')"
p5
aS"(102, u'\\\\bfluoxetine')"
p6
atp7
Rp8
sS'methods'
p9
g3
((lp10
S'Method.ANTAGONIST'
p11
aS'Method.AGONIST'
p12
atp13
Rp14
sS'topics'
p15
g3
((lp16
S"(9, u'\\\\bdepress')"
p17
aS"(1, u'\\\\bmood')"
p18
atp19
Rp20
sS'receptors'
p21
g3
((lp22
S'5ht5'
p23
aS'5ht2'
p24
atp25
Rp26
sS'regions'
p27
g3
((lp28
S"(220, u'(?i)(striatums|striatum)')"
p29
aS"(254, u'(?i)(prefrontals|prefrontal)(-|\\\\s+)?(cortexes|cortex)')"
p30
aS"(255, u'(?i)(pres|pre)(-|\\\\s+)?(frontals|frontal)(-|\\\\s+)?(cortexes|cortex)')"
p31
atp32
Rp33
sS'year'
p34
V2004
p35
sS'agonists'
p36
g3
((lp37
tp38
Rp39
sS'species'
p40
g3
((lp41
S"(5537, u'(?i)(hippos|hippo)')"
p42
aS"(5958, u'(?i)(rats|rat)')"
p43
aS"(6356, u'(?i)(ais|ai)')"
p44
aS"(163, u'(?i)(mice|mouse)')"
p45
aS"(7539, u'(?i)(mammals|mammal)')"
p46
aS"(468, u'(?i)(oxen|ox)')"
p47
aS"(4163, u'(?i)(ermines|ermine)')"
p48
aS"(1349, u'(?i)(rams|ram)')"
p49
aS"(7094, u'(?i)(curs|cur)')"
p50
aS"(1055, u'(?i)(men|man)')"
p51
aS"(4964, u'(?i)(serins|serin)')"
p52
aS"(6249, u'(?i)(ants|ant)')"
p53
aS"(7540, u'(?i)(mammalians|mammalian)')"
p54
aS"(3812, u'(?i)(studs|stud)')"
p55
aS"(4979, u'(?i)(cats|cat)')"
p56
atp57
Rp58
sb.