(ifile_types
ParseObject
p0
(dp1
S'antagonists'
p2
c__builtin__
set
p3
((lp4
tp5
Rp6
sS'methods'
p7
g3
((lp8
S'Method.AGONIST'
p9
atp10
Rp11
sS'topics'
p12
g3
((lp13
tp14
Rp15
sS'receptors'
p16
g3
((lp17
S'5ht5'
p18
aS'5ht1a'
p19
aS'5ht1'
p20
atp21
Rp22
sS'regions'
p23
g3
((lp24
S"(220, u'(?i)(striatums|striatum)')"
p25
aS"(103, u'(?i)(substantias|substantia)(-|\\\\s+)?(nigras|nigra)')"
p26
atp27
Rp28
sS'year'
p29
V1984
p30
sS'agonists'
p31
g3
((lp32
tp33
Rp34
sS'species'
p35
g3
((lp36
S"(5958, u'(?i)(rats|rat)')"
p37
aS"(867, u'(?i)(tits|tit)')"
p38
aS"(479, u'(?i)(lings|ling)')"
p39
aS"(6682, u'(?i)(tera|teras)')"
p40
aS"(4979, u'(?i)(cats|cat)')"
p41
aS"(6249, u'(?i)(ants|ant)')"
p42
aS"(3522, u'(?i)(tetras|tetra)')"
p43
aS"(4371, u'(?i)(lizas|liza)')"
p44
aS"(3812, u'(?i)(studs|stud)')"
p45
aS"(6391, u'(?i)(asses|ass)')"
p46
aS"(6356, u'(?i)(ais|ai)')"
p47
atp48
Rp49
sb.