(ifile_types
ParseObject
p0
(dp1
S'antagonists'
p2
c__builtin__
set
p3
((lp4
S"(53, u'\\\\bketanserin')"
p5
aS"(128, u'\\\\bketanserin')"
p6
aS"(61, u'\\\\bmdl ?100907')"
p7
aS"(200, u'\\\\bmesulergine')"
p8
aS"(110, u'\\\\bsb ?242084')"
p9
atp10
Rp11
sS'methods'
p12
g3
((lp13
S'Method.ANTAGONIST'
p14
aS'Method.AGONIST'
p15
atp16
Rp17
sS'topics'
p18
g3
((lp19
tp20
Rp21
sS'receptors'
p22
g3
((lp23
S'5ht2c'
p24
aS'5ht2'
p25
aS'5ht2a'
p26
atp27
Rp28
sS'regions'
p29
g3
((lp30
tp31
Rp32
sS'year'
p33
V2001
p34
sS'agonists'
p35
g3
((lp36
S"(155, u'\\\\bmem')"
p37
aS"(171, u'\\\\bmesulergine')"
p38
atp39
Rp40
sS'species'
p41
g3
((lp42
S"(1070, u'(?i)(pets|pet)')"
p43
aS"(2568, u'(?i)(hens|hen)')"
p44
aS"(6356, u'(?i)(ais|ai)')"
p45
aS"(7609, u'(?i)(erns|ern)')"
p46
aS"(867, u'(?i)(tits|tit)')"
p47
aS"(4964, u'(?i)(serins|serin)')"
p48
aS"(479, u'(?i)(lings|ling)')"
p49
aS"(7094, u'(?i)(curs|cur)')"
p50
aS"(468, u'(?i)(oxen|ox)')"
p51
aS"(1055, u'(?i)(men|man)')"
p52
aS"(6249, u'(?i)(ants|ant)')"
p53
aS"(3404, u'(?i)(titis|titi)')"
p54
aS"(853, u'(?i)(minas|mina)')"
p55
aS"(4099, u'(?i)(hamsters|hamster)')"
p56
aS"(5958, u'(?i)(rats|rat)')"
p57
aS"(1057, u'(?i)(humans|human)')"
p58
aS"(3812, u'(?i)(studs|stud)')"
p59
aS"(3196, u'(?i)(human|humans)')"
p60
aS"(6878, u'(?i)(guans|guan)')"
p61
aS"(5743, u'(?i)(bots|bot)')"
p62
aS"(1683, u'(?i)(terns|tern)')"
p63
atp64
Rp65
sb.