(ifile_types
ParseObject
p0
(dp1
S'methods'
p2
c__builtin__
set
p3
((lp4
S'Method.ANTAGONIST'
p5
atp6
Rp7
sS'topics'
p8
g3
((lp9
S"(22, u'\\\\bschizophreni')"
p10
aS"(23, u'\\\\bantipsychotic')"
p11
aS"(4, u'\\\\btreatment')"
p12
aS"(3, u'\\\\bclinical')"
p13
atp14
Rp15
sS'receptors'
p16
g3
((lp17
(S'5ht6'
p18
I92
I97
tp19
a(S'5ht6'
p20
I350
I355
tp21
a(S'5ht6'
p22
I2193
I2198
tp23
atp24
Rp25
sS'raw_text_methods'
p26
g3
((lp27
S"(12, u'\\\\bantagonist')"
p28
atp29
Rp30
sS'regions'
p31
g3
((lp32
S"(15, u'(?i)\\\\b(substantias|substantia)(-|\\\\s+)?(nigras|nigra)\\\\b')"
p33
atp34
Rp35
sS'year'
p36
V2004
p37
sS'species'
p38
g3
((lp39
S"(3, u'(?i)\\\\b(males|male)\\\\b')"
p40
aS"(4, u'(?i)\\\\b(rats|rat)\\\\b')"
p41
atp42
Rp43
sb.