(ifile_types
ParseObject
p0
(dp1
S'antagonists'
p2
c__builtin__
set
p3
((lp4
tp5
Rp6
sS'methods'
p7
g3
((lp8
tp9
Rp10
sS'topics'
p11
g3
((lp12
tp13
Rp14
sS'receptors'
p15
g3
((lp16
S'5ht1a'
p17
aS'5ht1'
p18
atp19
Rp20
sS'regions'
p21
g3
((lp22
S"(84, u'(?i)\\\\b(mesencephalons|mesencephalon)\\\\b')"
p23
aS"(195, u'(?i)\\\\b(telencephalons|telencephalon)\\\\b')"
p24
aS"(118, u'(?i)\\\\b(diencephalons|diencephalon)\\\\b')"
p25
aS"(362, u'(?i)\\\\b(brains|brain)(-|\\\\s+)?(stems|stem)\\\\b')"
p26
atp27
Rp28
sS'year'
p29
V1997
p30
sS'agonists'
p31
g3
((lp32
tp33
Rp34
sS'species'
p35
g3
((lp36
S"(7540, u'(?i)\\\\b(mammalians|mammalian)\\\\b')"
p37
aS"(3152, u'(?i)\\\\b(layers|layer)\\\\b')"
p38
aS"(3196, u'(?i)\\\\b(human|humans)\\\\b')"
p39
aS"(5685, u'(?i)\\\\b(xenopuses|xenopus)(-|\\\\s+)?(laevi|laevis)\\\\b')"
p40
aS"(1057, u'(?i)\\\\b(humans|human)\\\\b')"
p41
aS"(4091, u'(?i)\\\\b(adults|adult)\\\\b')"
p42
aS"(5958, u'(?i)\\\\b(rats|rat)\\\\b')"
p43
atp44
Rp45
sb.