(ifile_types
ParseObject
p0
(dp1
S'antagonists'
p2
c__builtin__
set
p3
((lp4
tp5
Rp6
sS'methods'
p7
g3
((lp8
S'Method.AGONIST'
p9
atp10
Rp11
sS'topics'
p12
g3
((lp13
tp14
Rp15
sS'receptors'
p16
g3
((lp17
S'5ht1c'
p18
aS'5ht1b'
p19
aS'5ht1a'
p20
aS'5ht2b'
p21
aS'5ht1e'
p22
aS'5ht1'
p23
aS'5ht1d'
p24
aS'5ht3'
p25
atp26
Rp27
sS'regions'
p28
g3
((lp29
S"(103, u'(?i)\\\\b(substantias|substantia)(-|\\\\s+)?(nigras|nigra)\\\\b')"
p30
atp31
Rp32
sS'year'
p33
V1993
p34
sS'agonists'
p35
g3
((lp36
S"(96, u'\\\\bsumatriptan')"
p37
aS"(114, u'\\\\bl ?694247')"
p38
atp39
Rp40
sS'species'
p41
g3
((lp42
S"(3051, u'(?i)\\\\b(pigs|pig)\\\\b')"
p43
aS"(4480, u'(?i)\\\\b(guineas|guinea)(-|\\\\s+)?(pigs|pig)\\\\b')"
p44
aS"(3062, u'(?i)\\\\b(guineas|guinea)\\\\b')"
p45
atp46
Rp47
sb.