(ifile_types
ParseObject
p0
(dp1
S'antagonists'
p2
c__builtin__
set
p3
((lp4
S"(32, u'\\\\bway ?100635')"
p5
atp6
Rp7
sS'methods'
p8
g3
((lp9
S'Method.ANTAGONIST'
p10
aS'Method.AGONIST'
p11
atp12
Rp13
sS'topics'
p14
g3
((lp15
S"(3, u'\\\\bsleep')"
p16
atp17
Rp18
sS'receptors'
p19
g3
((lp20
S'5ht1a'
p21
atp22
Rp23
sS'regions'
p24
g3
((lp25
S"(174, u'(?i)(posteriors|posterior)')"
p26
aS"(126, u'(?i)(thalamuses|thalamus)')"
p27
aS"(146, u'(?i)(pulvinars|pulvinar)')"
p28
aS"(34, u'(?i)(pon|pons)')"
p29
atp30
Rp31
sS'year'
p32
V2002
p33
sS'agonists'
p34
g3
((lp35
S"(92, u'\\\\b8 ?oh ?dpat')"
p36
atp37
Rp38
sS'species'
p39
g3
((lp40
S"(2323, u'(?i)(bees|bee)')"
p41
aS"(5626, u'(?i)(posters|poster)')"
p42
aS"(3015, u'(?i)(ferrets|ferret)')"
p43
aS"(6356, u'(?i)(ais|ai)')"
p44
aS"(7609, u'(?i)(erns|ern)')"
p45
aS"(5958, u'(?i)(rats|rat)')"
p46
aS"(4979, u'(?i)(cats|cat)')"
p47
aS"(6682, u'(?i)(tera|teras)')"
p48
aS"(468, u'(?i)(oxen|ox)')"
p49
aS"(1055, u'(?i)(men|man)')"
p50
aS"(6249, u'(?i)(ants|ant)')"
p51
aS"(853, u'(?i)(minas|mina)')"
p52
aS"(7094, u'(?i)(curs|cur)')"
p53
aS"(3550, u'(?i)(anis|ani)')"
p54
aS"(1553, u'(?i)(mews|mew)')"
p55
aS"(821, u'(?i)(lice|louse)')"
p56
aS"(3812, u'(?i)(studs|stud)')"
p57
aS"(6391, u'(?i)(asses|ass)')"
p58
aS"(7610, u'(?i)(ernes|erne)')"
p59
aS"(1683, u'(?i)(terns|tern)')"
p60
atp61
Rp62
sb.