(ifile_types
ParseObject
p0
(dp1
S'antagonists'
p2
c__builtin__
set
p3
((lp4
S"(54, u'\\\\britanserin')"
p5
aS"(17, u'\\\\bnan ?190')"
p6
aS"(130, u'\\\\britanserin')"
p7
atp8
Rp9
sS'methods'
p10
g3
((lp11
S'Method.ANTAGONIST'
p12
aS'Method.AGONIST'
p13
atp14
Rp15
sS'topics'
p16
g3
((lp17
tp18
Rp19
sS'receptors'
p20
g3
((lp21
S'5ht1a'
p22
aS'5ht5'
p23
aS'5ht2'
p24
aS'5ht2a'
p25
atp26
Rp27
sS'regions'
p28
g3
((lp29
tp30
Rp31
sS'year'
p32
V1993
p33
sS'agonists'
p34
g3
((lp35
S"(92, u'\\\\b8 ?oh ?dpat')"
p36
aS"(33, u'\\\\bdoi')"
p37
atp38
Rp39
sS'species'
p40
g3
((lp41
S"(6753, u'(?i)(da|das)')"
p42
aS"(2568, u'(?i)(hens|hen)')"
p43
aS"(6356, u'(?i)(ais|ai)')"
p44
aS"(163, u'(?i)(mice|mouse)')"
p45
aS"(81, u'(?i)(asps|asp)')"
p46
aS"(468, u'(?i)(oxen|ox)')"
p47
aS"(1055, u'(?i)(men|man)')"
p48
aS"(6249, u'(?i)(ants|ant)')"
p49
aS"(4964, u'(?i)(serins|serin)')"
p50
aS"(5958, u'(?i)(rats|rat)')"
p51
aS"(3522, u'(?i)(tetras|tetra)')"
p52
aS"(1961, u'(?i)(pens|pen)')"
p53
aS"(3812, u'(?i)(studs|stud)')"
p54
aS"(5743, u'(?i)(bots|bot)')"
p55
aS"(4979, u'(?i)(cats|cat)')"
p56
atp57
Rp58
sb.