(ifile_types
ParseObject
p0
(dp1
S'antagonists'
p2
c__builtin__
set
p3
((lp4
S"(130, u'\\\\bzacopride')"
p5
atp6
Rp7
sS'methods'
p8
g3
((lp9
S'Method.ANTAGONIST'
p10
atp11
Rp12
sS'topics'
p13
g3
((lp14
S"(4, u'\\\\blocomot')"
p15
atp16
Rp17
sS'receptors'
p18
g3
((lp19
S'5ht3'
p20
aS'5ht3a'
p21
atp22
Rp23
sS'regions'
p24
g3
((lp25
S"(226, u'(?i)\\\\b(nuclei|nucleus)(-|\\\\s+)?(accumben|accumbens)\\\\b')"
p26
atp27
Rp28
sS'year'
p29
V1993
p30
sS'agonists'
p31
g3
((lp32
S"(208, u'\\\\bzacopride')"
p33
atp34
Rp35
sS'species'
p36
g3
((lp37
S"(5967, u'(?i)\\\\b(males|male)\\\\b')"
p38
aS"(6753, u'(?i)\\\\b(da|das)\\\\b')"
p39
aS"(5958, u'(?i)\\\\b(rats|rat)\\\\b')"
p40
atp41
Rp42
sb.