(ifile_types
ParseObject
p0
(dp1
S'methods'
p2
c__builtin__
set
p3
((lp4
tp5
Rp6
sS'topics'
p7
g3
((lp8
tp9
Rp10
sS'receptors'
p11
g3
((lp12
(S'5ht2a'
p13
I505
I511
tp14
a(S'5ht2a'
p15
I773
I779
tp16
a(S'5ht1a'
p17
I53
I59
tp18
a(S'5ht2'
p19
I716
I721
tp20
a(S'5ht1a'
p21
I516
I522
tp22
a(S'5ht2a'
p23
I45
I51
tp24
atp25
Rp26
sS'raw_text_methods'
p27
g3
((lp28
tp29
Rp30
sS'regions'
p31
g3
((lp32
tp33
Rp34
sS'year'
p35
V2007
p36
sS'species'
p37
g3
((lp38
tp39
Rp40
sb.