(ifile_types
ParseObject
p0
(dp1
S'methods'
p2
c__builtin__
set
p3
((lp4
S'Method.ANTAGONIST'
p5
aS'Method.AGONIST'
p6
atp7
Rp8
sS'topics'
p9
g3
((lp10
S"(12, u'\\\\bsleep')"
p11
aS"(26, u'\\\\bbehav')"
p12
aS"(4, u'\\\\btreatment')"
p13
atp14
Rp15
sS'receptors'
p16
g3
((lp17
(S'5ht2c'
p18
I1061
I1069
tp19
a(S'5ht2a'
p20
I1061
I1067
tp21
a(S'5ht2c'
p22
I915
I923
tp23
a(S'5ht2a'
p24
I915
I921
tp25
a(S'5ht2c'
p26
I696
I702
tp27
a(S'5ht3'
p28
I1061
I1070
tp29
a(S'5ht2'
p30
I1654
I1659
tp31
atp32
Rp33
sS'raw_text_methods'
p34
g3
((lp35
S"(13, u'\\\\bagonist')"
p36
aS"(53, u'\\\\bketanserin')"
p37
aS"(12, u'\\\\bantagonist')"
p38
atp39
Rp40
sS'regions'
p41
g3
((lp42
tp43
Rp44
sS'year'
p45
V2007
p46
sS'species'
p47
g3
((lp48
tp49
Rp50
sb.