(ifile_types
ParseObject
p0
(dp1
S'antagonists'
p2
c__builtin__
set
p3
((lp4
S"(32, u'\\\\bway ?100635')"
p5
atp6
Rp7
sS'methods'
p8
g3
((lp9
S'Method.ANTAGONIST'
p10
aS'Method.AGONIST'
p11
atp12
Rp13
sS'topics'
p14
g3
((lp15
tp16
Rp17
sS'receptors'
p18
g3
((lp19
S'5ht1a'
p20
atp21
Rp22
sS'regions'
p23
g3
((lp24
S"(254, u'(?i)(prefrontals|prefrontal)(-|\\\\s+)?(cortexes|cortex)')"
p25
aS"(255, u'(?i)(pres|pre)(-|\\\\s+)?(frontals|frontal)(-|\\\\s+)?(cortexes|cortex)')"
p26
aS"(34, u'(?i)(pon|pons)')"
p27
aS"(220, u'(?i)(striatums|striatum)')"
p28
aS"(318, u'(?i)(raphes|raphe)(-|\\\\s+)?(nuclei|nucleus)')"
p29
aS"(94, u'(?i)(dorsals|dorsal)(-|\\\\s+)?(raphes|raphe)(-|\\\\s+)?(nuclei|nucleus)')"
p30
atp31
Rp32
sS'year'
p33
V2000
p34
sS'agonists'
p35
g3
((lp36
S"(92, u'\\\\b8 ?oh ?dpat')"
p37
aS"(5, u'\\\\b5 ?ct')"
p38
aS"(50, u'\\\\bipsapirone')"
p39
aS"(155, u'\\\\bmem')"
p40
atp41
Rp42
sS'species'
p43
g3
((lp44
S"(4624, u'(?i)(apes|ape)')"
p45
aS"(5537, u'(?i)(hippos|hippo)')"
p46
aS"(2568, u'(?i)(hens|hen)')"
p47
aS"(5743, u'(?i)(bots|bot)')"
p48
aS"(479, u'(?i)(lings|ling)')"
p49
aS"(468, u'(?i)(oxen|ox)')"
p50
aS"(1055, u'(?i)(men|man)')"
p51
aS"(6249, u'(?i)(ants|ant)')"
p52
aS"(853, u'(?i)(minas|mina)')"
p53
aS"(5958, u'(?i)(rats|rat)')"
p54
aS"(3522, u'(?i)(tetras|tetra)')"
p55
aS"(6356, u'(?i)(ais|ai)')"
p56
aS"(6878, u'(?i)(guans|guan)')"
p57
aS"(6682, u'(?i)(tera|teras)')"
p58
atp59
Rp60
sb.