(ifile_types
ParseObject
p0
(dp1
S'methods'
p2
c__builtin__
set
p3
((lp4
S'Method.AGONIST'
p5
atp6
Rp7
sS'topics'
p8
g3
((lp9
S"(14, u'\\\\bcogniti')"
p10
aS"(16, u'\\\\blearning')"
p11
aS"(13, u'\\\\bantidepress')"
p12
aS"(33, u'\\\\blocomot')"
p13
aS"(20, u'\\\\bmood')"
p14
aS"(15, u'\\\\bmemory')"
p15
aS"(18, u'\\\\bavoidan')"
p16
aS"(8, u'\\\\banxi')"
p17
aS"(4, u'\\\\btreatment')"
p18
atp19
Rp20
sS'receptors'
p21
g3
((lp22
(S'5ht6'
p23
I2091
I2096
tp24
a(S'5ht6'
p25
I29
I34
tp26
a(S'5ht6'
p27
I378
I383
tp28
atp29
Rp30
sS'raw_text_methods'
p31
g3
((lp32
S"(13, u'\\\\bagonist')"
p33
atp34
Rp35
sS'regions'
p36
g3
((lp37
S"(20, u'(?i)\\\\b(prefrontals|prefrontal)\\\\b')"
p38
aS"(19, u'(?i)\\\\b(cortexes|cortex)\\\\b')"
p39
aS"(17, u'(?i)\\\\b(caudates|caudate)\\\\b')"
p40
aS"(18, u'(?i)\\\\b(putamens|putamen)\\\\b')"
p41
atp42
Rp43
sS'year'
p44
V2015
p45
sS'species'
p46
g3
((lp47
S"(1, u'(?i)\\\\b(mice|mouse)\\\\b')"
p48
aS"(5, u'(?i)\\\\b(mices|mice)\\\\b')"
p49
aS"(3, u'(?i)\\\\b(males|male)\\\\b')"
p50
atp51
Rp52
sb.