(ifile_types
ParseObject
p0
(dp1
S'antagonists'
p2
c__builtin__
set
p3
((lp4
tp5
Rp6
sS'methods'
p7
g3
((lp8
S'Method.ANTAGONIST'
p9
aS'Method.AGONIST'
p10
atp11
Rp12
sS'topics'
p13
g3
((lp14
S"(9, u'\\\\bdepress')"
p15
atp16
Rp17
sS'receptors'
p18
g3
((lp19
S'5ht1a'
p20
aS'5ht2'
p21
atp22
Rp23
sS'regions'
p24
g3
((lp25
S"(362, u'(?i)(brains|brain)(-|\\\\s+)?(stems|stem)')"
p26
atp27
Rp28
sS'year'
p29
V1994
p30
sS'agonists'
p31
g3
((lp32
tp33
Rp34
sS'species'
p35
g3
((lp36
S"(2568, u'(?i)(hens|hen)')"
p37
aS"(6744, u'(?i)(maras|mara)')"
p38
aS"(468, u'(?i)(oxen|ox)')"
p39
aS"(1055, u'(?i)(men|man)')"
p40
aS"(6249, u'(?i)(ants|ant)')"
p41
aS"(3812, u'(?i)(studs|stud)')"
p42
aS"(5958, u'(?i)(rats|rat)')"
p43
aS"(1961, u'(?i)(pens|pen)')"
p44
aS"(1414, u'(?i)(chars|char)')"
p45
aS"(6356, u'(?i)(ais|ai)')"
p46
atp47
Rp48
sb.