(ifile_types
ParseObject
p0
(dp1
S'methods'
p2
c__builtin__
set
p3
((lp4
tp5
Rp6
sS'topics'
p7
g3
((lp8
S"(33, u'\\\\blocomot')"
p9
aS"(8, u'\\\\banxi')"
p10
aS"(26, u'\\\\bbehav')"
p11
aS"(9, u'\\\\bstress')"
p12
aS"(25, u'\\\\bsocial')"
p13
atp14
Rp15
sS'receptors'
p16
g3
((lp17
(S'5ht1a'
p18
I2949
I2955
tp19
a(S'5ht2a'
p20
I2827
I2833
tp21
a(S'5ht2a'
p22
I495
I501
tp23
a(S'5ht1a'
p24
I468
I474
tp25
atp26
Rp27
sS'raw_text_methods'
p28
g3
((lp29
tp30
Rp31
sS'regions'
p32
g3
((lp33
tp34
Rp35
sS'year'
p36
V1998
p37
sS'species'
p38
g3
((lp39
S"(4, u'(?i)\\\\b(rats|rat)\\\\b')"
p40
atp41
Rp42
sb.