(ifile_types
ParseObject
p0
(dp1
S'antagonists'
p2
c__builtin__
set
p3
((lp4
S"(91, u'\\\\bfluoxetine')"
p5
aS"(9, u'\\\\bgr ?46611')"
p6
aS"(31, u'\\\\bway ?100635')"
p7
aS"(33, u'\\\\byohimbine')"
p8
atp9
Rp10
sS'methods'
p11
g3
((lp12
S'Method.ANTAGONIST'
p13
aS'Method.AGONIST'
p14
atp15
Rp16
sS'topics'
p17
g3
((lp18
S"(9, u'\\\\bdepress')"
p19
atp20
Rp21
sS'receptors'
p22
g3
((lp23
S'5ht1b'
p24
aS'5ht1a'
p25
aS'5ht5'
p26
aS'5ht1'
p27
aS'5ht1d'
p28
atp29
Rp30
sS'regions'
p31
g3
((lp32
S"(318, u'(?i)\\\\b(raphes|raphe)(-|\\\\s+)?(nuclei|nucleus)\\\\b')"
p33
atp34
Rp35
sS'year'
p36
V2000
p37
sS'agonists'
p38
g3
((lp39
S"(112, u'\\\\bgr ?46611')"
p40
aS"(82, u'\\\\byohimbine')"
p41
atp42
Rp43
sS'species'
p44
g3
((lp45
S"(3062, u'(?i)\\\\b(guineas|guinea)\\\\b')"
p46
aS"(6753, u'(?i)\\\\b(da|das)\\\\b')"
p47
aS"(3196, u'(?i)\\\\b(human|humans)\\\\b')"
p48
aS"(1057, u'(?i)\\\\b(humans|human)\\\\b')"
p49
aS"(5958, u'(?i)\\\\b(rats|rat)\\\\b')"
p50
aS"(4480, u'(?i)\\\\b(guineas|guinea)(-|\\\\s+)?(pigs|pig)\\\\b')"
p51
aS"(3051, u'(?i)\\\\b(pigs|pig)\\\\b')"
p52
atp53
Rp54
sb.