(ifile_types
ParseObject
p0
(dp1
S'methods'
p2
c__builtin__
set
p3
((lp4
tp5
Rp6
sS'topics'
p7
g3
((lp8
S"(22, u'\\\\bschizophreni')"
p9
aS"(26, u'\\\\bbehav')"
p10
aS"(34, u'\\\\bparkinson')"
p11
aS"(2, u'\\\\bdisorder')"
p12
atp13
Rp14
sS'receptors'
p15
g3
((lp16
(S'5ht3'
p17
I1490
I1495
tp18
a(S'5ht4'
p19
I1503
I1508
tp20
a(S'5ht2c'
p21
I1480
I1486
tp22
a(S'5ht2a'
p23
I1470
I1476
tp24
atp25
Rp26
sS'raw_text_methods'
p27
g3
((lp28
tp29
Rp30
sS'regions'
p31
g3
((lp32
S"(4, u'(?i)\\\\b(presynaptics|presynaptic)\\\\b')"
p33
atp34
Rp35
sS'year'
p36
V2011
p37
sS'species'
p38
g3
((lp39
tp40
Rp41
sb.