(ifile_types
ParseObject
p0
(dp1
S'methods'
p2
c__builtin__
set
p3
((lp4
tp5
Rp6
sS'topics'
p7
g3
((lp8
S"(4, u'\\\\btreatment')"
p9
atp10
Rp11
sS'receptors'
p12
g3
((lp13
(S'5ht2a'
p14
I267
I273
tp15
a(S'5ht1a'
p16
I200
I206
tp17
atp18
Rp19
sS'raw_text_methods'
p20
g3
((lp21
tp22
Rp23
sS'regions'
p24
g3
((lp25
S"(3, u'(?i)\\\\b(postsynaptics|postsynaptic)\\\\b')"
p26
atp27
Rp28
sS'year'
p29
V2015
p30
sS'species'
p31
g3
((lp32
tp33
Rp34
sb.