(ifile_types
ParseObject
p0
(dp1
S'antagonists'
p2
c__builtin__
set
p3
((lp4
S"(32, u'\\\\bway ?100635')"
p5
aS"(43, u'\\\\bbrl ?15572')"
p6
aS"(45, u'\\\\bgr ?127935')"
p7
aS"(39, u'\\\\bsb ?224289')"
p8
atp9
Rp10
sS'methods'
p11
g3
((lp12
S'Method.ANTAGONIST'
p13
aS'Method.AGONIST'
p14
atp15
Rp16
sS'topics'
p17
g3
((lp18
tp19
Rp20
sS'receptors'
p21
g3
((lp22
S'5ht1b'
p23
aS'5ht1a'
p24
aS'5ht1d'
p25
atp26
Rp27
sS'regions'
p28
g3
((lp29
S"(203, u'(?i)(dentates|dentate)(-|\\\\s+)?(gyruses|gyrus)')"
p30
aS"(219, u'(?i)(basals|basal)(-|\\\\s+)?(ganglias|ganglia)')"
p31
aS"(285, u'(?i)(entorhinals|entorhinal)(-|\\\\s+)?(cortexes|cortex)')"
p32
aS"(103, u'(?i)(substantias|substantia)(-|\\\\s+)?(nigras|nigra)')"
p33
aS"(223, u'(?i)(putamens|putamen)')"
p34
atp35
Rp36
sS'year'
p37
V2005
p38
sS'agonists'
p39
g3
((lp40
S"(107, u'\\\\bcp ?93129')"
p41
atp42
Rp43
sS'species'
p44
g3
((lp45
S"(5537, u'(?i)(hippos|hippo)')"
p46
aS"(5958, u'(?i)(rats|rat)')"
p47
aS"(6356, u'(?i)(ais|ai)')"
p48
aS"(7609, u'(?i)(erns|ern)')"
p49
aS"(6753, u'(?i)(da|das)')"
p50
aS"(1055, u'(?i)(men|man)')"
p51
aS"(3812, u'(?i)(studs|stud)')"
p52
aS"(5838, u'(?i)(cubs|cub)')"
p53
aS"(6249, u'(?i)(ants|ant)')"
p54
aS"(1057, u'(?i)(humans|human)')"
p55
aS"(1961, u'(?i)(pens|pen)')"
p56
aS"(1414, u'(?i)(chars|char)')"
p57
aS"(3196, u'(?i)(human|humans)')"
p58
aS"(391, u'(?i)(alli|allis)')"
p59
aS"(2809, u'(?i)(toms|tom)')"
p60
aS"(6325, u'(?i)(caudates|caudate)')"
p61
aS"(1683, u'(?i)(terns|tern)')"
p62
aS"(7552, u'(?i)(bats|bat)')"
p63
atp64
Rp65
sb.