(ifile_types
ParseObject
p0
(dp1
S'methods'
p2
c__builtin__
set
p3
((lp4
S'Method.AGONIST'
p5
atp6
Rp7
sS'topics'
p8
g3
((lp9
S"(26, u'\\\\bbehav')"
p10
aS"(4, u'\\\\btreatment')"
p11
atp12
Rp13
sS'receptors'
p14
g3
((lp15
(S'5ht2c'
p16
I537
I543
tp17
a(S'5ht1b'
p18
I657
I663
tp19
a(S'5ht2c'
p20
I637
I643
tp21
a(S'5ht2c'
p22
I319
I325
tp23
a(S'5ht5'
p24
I210
I220
tp25
a(S'5ht1b'
p26
I340
I346
tp27
atp28
Rp29
sS'raw_text_methods'
p30
g3
((lp31
S"(13, u'\\\\bagonist')"
p32
aS"(33, u'\\\\bmcpp')"
p33
atp34
Rp35
sS'regions'
p36
g3
((lp37
tp38
Rp39
sS'year'
p40
V2006
p41
sS'species'
p42
g3
((lp43
S"(1, u'(?i)\\\\b(mice|mouse)\\\\b')"
p44
aS"(5, u'(?i)\\\\b(mices|mice)\\\\b')"
p45
atp46
Rp47
sb.