(ifile_types
ParseObject
p0
(dp1
S'antagonists'
p2
c__builtin__
set
p3
((lp4
tp5
Rp6
sS'methods'
p7
g3
((lp8
S'Method.ANTAGONIST'
p9
atp10
Rp11
sS'topics'
p12
g3
((lp13
S"(9, u'\\\\bdepress')"
p14
atp15
Rp16
sS'receptors'
p17
g3
((lp18
S'5ht1b'
p19
aS'5ht1a'
p20
aS'5ht1d'
p21
atp22
Rp23
sS'regions'
p24
g3
((lp25
S"(220, u'(?i)\\\\b(striatums|striatum)\\\\b')"
p26
atp27
Rp28
sS'year'
p29
V2000
p30
sS'agonists'
p31
g3
((lp32
S"(96, u'\\\\bsumatriptan')"
p33
atp34
Rp35
sS'species'
p36
g3
((lp37
S"(3062, u'(?i)\\\\b(guineas|guinea)\\\\b')"
p38
aS"(1883, u'(?i)\\\\b(calves|calf)\\\\b')"
p39
aS"(5958, u'(?i)\\\\b(rats|rat)\\\\b')"
p40
aS"(473, u'(?i)\\\\b(rabbits|rabbit)\\\\b')"
p41
aS"(4480, u'(?i)\\\\b(guineas|guinea)(-|\\\\s+)?(pigs|pig)\\\\b')"
p42
aS"(3051, u'(?i)\\\\b(pigs|pig)\\\\b')"
p43
atp44
Rp45
sb.