(ifile_types
ParseObject
p0
(dp1
S'antagonists'
p2
c__builtin__
set
p3
((lp4
S"(32, u'\\\\bway ?100635')"
p5
aS"(114, u'\\\\bimipramine')"
p6
aS"(102, u'\\\\bfluoxetine')"
p7
atp8
Rp9
sS'methods'
p10
g3
((lp11
S'Method.ANTAGONIST'
p12
atp13
Rp14
sS'topics'
p15
g3
((lp16
tp17
Rp18
sS'receptors'
p19
g3
((lp20
S'5ht1a'
p21
aS'5ht5'
p22
atp23
Rp24
sS'regions'
p25
g3
((lp26
S"(318, u'(?i)(raphes|raphe)(-|\\\\s+)?(nuclei|nucleus)')"
p27
aS"(94, u'(?i)(dorsals|dorsal)(-|\\\\s+)?(raphes|raphe)(-|\\\\s+)?(nuclei|nucleus)')"
p28
aS"(34, u'(?i)(pon|pons)')"
p29
atp30
Rp31
sS'year'
p32
V2002
p33
sS'agonists'
p34
g3
((lp35
tp36
Rp37
sS'species'
p38
g3
((lp39
S"(5537, u'(?i)(hippos|hippo)')"
p40
aS"(2568, u'(?i)(hens|hen)')"
p41
aS"(468, u'(?i)(oxen|ox)')"
p42
aS"(1055, u'(?i)(men|man)')"
p43
aS"(6249, u'(?i)(ants|ant)')"
p44
aS"(1349, u'(?i)(rams|ram)')"
p45
aS"(6753, u'(?i)(da|das)')"
p46
aS"(5958, u'(?i)(rats|rat)')"
p47
aS"(5917, u'(?i)(roaches|roach)')"
p48
aS"(6356, u'(?i)(ais|ai)')"
p49
aS"(4247, u'(?i)(tatus|tatu)')"
p50
aS"(821, u'(?i)(lice|louse)')"
p51
atp52
Rp53
sb.