(ifile_types
ParseObject
p0
(dp1
S'methods'
p2
c__builtin__
set
p3
((lp4
tp5
Rp6
sS'topics'
p7
g3
((lp8
S"(34, u'\\\\bparkinson')"
p9
atp10
Rp11
sS'receptors'
p12
g3
((lp13
(S'5ht2'
p14
I546
I550
tp15
a(S'5ht1'
p16
I925
I929
tp17
a(S'5ht1a'
p18
I1398
I1403
tp19
a(S'5ht2'
p20
I1204
I1208
tp21
a(S'5ht1'
p22
I322
I326
tp23
a(S'5ht1a'
p24
I649
I654
tp25
a(S'5ht1'
p26
I537
I541
tp27
a(S'5ht1a'
p28
I1161
I1166
tp29
a(S'5ht2'
p30
I383
I387
tp31
atp32
Rp33
sS'raw_text_methods'
p34
g3
((lp35
S"(2, u'\\\\blabeling')"
p36
aS"(54, u'\\\\bautoradiography')"
p37
aS"(15, u'\\\\b8ohdpat')"
p38
atp39
Rp40
sS'regions'
p41
g3
((lp42
S"(19, u'(?i)\\\\b(cortexes|cortex)\\\\b')"
p43
aS"(4, u'(?i)\\\\b(presynaptics|presynaptic)\\\\b')"
p44
aS"(3, u'(?i)\\\\b(postsynaptics|postsynaptic)\\\\b')"
p45
atp46
Rp47
sS'year'
p48
V1989
p49
sS'species'
p50
g3
((lp51
tp52
Rp53
sb.