(ifile_types
ParseObject
p0
(dp1
S'antagonists'
p2
c__builtin__
set
p3
((lp4
tp5
Rp6
sS'methods'
p7
g3
((lp8
tp9
Rp10
sS'topics'
p11
g3
((lp12
tp13
Rp14
sS'receptors'
p15
g3
((lp16
S'5ht1d'
p17
atp18
Rp19
sS'regions'
p20
g3
((lp21
tp22
Rp23
sS'year'
p24
V1992
p25
sS'agonists'
p26
g3
((lp27
S"(96, u'\\\\bsumatriptan')"
p28
atp29
Rp30
sS'species'
p31
g3
((lp32
S"(2054, u'(?i)\\\\b(heads|head)\\\\b')"
p33
atp34
Rp35
sb.