(ifile_types
ParseObject
p0
(dp1
S'methods'
p2
c__builtin__
set
p3
((lp4
S'Method.PET'
p5
atp6
Rp7
sS'topics'
p8
g3
((lp9
S"(8, u'\\\\banxi')"
p10
aS"(7, u'\\\\bdepressi')"
p11
aS"(2, u'\\\\bdisorder')"
p12
atp13
Rp14
sS'receptors'
p15
g3
((lp16
(S'5ht1a'
p17
I313
I324
tp18
a(S'5ht1a'
p19
I1297
I1303
tp20
a(S'5ht1a'
p21
I327
I333
tp22
a(S'5ht1a'
p23
I1628
I1634
tp24
a(S'5ht1a'
p25
I655
I661
tp26
a(S'5ht1a'
p27
I1687
I1693
tp28
atp29
Rp30
sS'raw_text_methods'
p31
g3
((lp32
S"(17, u'\\\\bpet')"
p33
aS"(19, u'\\\\bpositron emission tomography')"
p34
aS"(18, u'\\\\bimaging')"
p35
atp36
Rp37
sS'regions'
p38
g3
((lp39
S"(16, u'(?i)\\\\b(drns|drn)\\\\b')"
p40
atp41
Rp42
sS'year'
p43
V2018
p44
sS'species'
p45
g3
((lp46
S"(3, u'(?i)\\\\b(males|male)\\\\b')"
p47
atp48
Rp49
sb.