(ifile_types
ParseObject
p0
(dp1
S'antagonists'
p2
c__builtin__
set
p3
((lp4
S"(194, u'\\\\bmethysergide')"
p5
aS"(99, u'\\\\bsb ?242084')"
p6
aS"(91, u'\\\\bfluoxetine')"
p7
aS"(119, u'\\\\britanserin')"
p8
aS"(52, u'\\\\bmdl ?100907')"
p9
atp10
Rp11
sS'methods'
p12
g3
((lp13
S'Method.ANTAGONIST'
p14
atp15
Rp16
sS'topics'
p17
g3
((lp18
tp19
Rp20
sS'receptors'
p21
g3
((lp22
S'5ht2c'
p23
aS'5ht1'
p24
aS'5ht2a'
p25
atp26
Rp27
sS'regions'
p28
g3
((lp29
tp30
Rp31
sS'year'
p32
V2002
p33
sS'agonists'
p34
g3
((lp35
S"(147, u'\\\\bmdma')"
p36
aS"(53, u'\\\\bmethysergide')"
p37
atp38
Rp39
sS'species'
p40
g3
((lp41
S"(5958, u'(?i)\\\\b(rats|rat)\\\\b')"
p42
atp43
Rp44
sb.