(ifile_types
ParseObject
p0
(dp1
S'methods'
p2
c__builtin__
set
p3
((lp4
S'Method.PET'
p5
aS'Method.ANTAGONIST'
p6
atp7
Rp8
sS'topics'
p9
g3
((lp10
tp11
Rp12
sS'receptors'
p13
g3
((lp14
(S'5ht2a'
p15
I88
I94
tp16
a(S'5ht2a'
p17
I1489
I1495
tp18
a(S'5ht2a'
p19
I1410
I1416
tp20
a(S'5ht2a'
p21
I1329
I1335
tp22
a(S'5ht2a'
p23
I643
I649
tp24
atp25
Rp26
sS'raw_text_methods'
p27
g3
((lp28
S"(53, u'\\\\bketanserin')"
p29
aS"(17, u'\\\\bpet')"
p30
aS"(19, u'\\\\bpositron emission tomography')"
p31
aS"(18, u'\\\\bimaging')"
p32
aS"(12, u'\\\\bantagonist')"
p33
atp34
Rp35
sS'regions'
p36
g3
((lp37
S"(9, u'(?i)\\\\b(cerebellums|cerebellum)\\\\b')"
p38
atp39
Rp40
sS'year'
p41
V2002
p42
sS'species'
p43
g3
((lp44
tp45
Rp46
sb.