(ifile_types
ParseObject
p0
(dp1
S'antagonists'
p2
c__builtin__
set
p3
((lp4
tp5
Rp6
sS'methods'
p7
g3
((lp8
S'Method.STIMULATION'
p9
aS'Method.ANTAGONIST'
p10
aS'Method.AGONIST'
p11
atp12
Rp13
sS'topics'
p14
g3
((lp15
tp16
Rp17
sS'receptors'
p18
g3
((lp19
S'5ht2a'
p20
atp21
Rp22
sS'regions'
p23
g3
((lp24
S"(254, u'(?i)(prefrontals|prefrontal)(-|\\\\s+)?(cortexes|cortex)')"
p25
aS"(255, u'(?i)(pres|pre)(-|\\\\s+)?(frontals|frontal)(-|\\\\s+)?(cortexes|cortex)')"
p26
aS"(34, u'(?i)(pon|pons)')"
p27
atp28
Rp29
sS'year'
p30
V2018
p31
sS'agonists'
p32
g3
((lp33
S"(33, u'\\\\bdoi')"
p34
atp35
Rp36
sS'species'
p37
g3
((lp38
S"(2323, u'(?i)(bees|bee)')"
p39
aS"(2054, u'(?i)(heads|head)')"
p40
aS"(6753, u'(?i)(da|das)')"
p41
aS"(2568, u'(?i)(hens|hen)')"
p42
aS"(4979, u'(?i)(cats|cat)')"
p43
aS"(6249, u'(?i)(ants|ant)')"
p44
aS"(468, u'(?i)(oxen|ox)')"
p45
aS"(1055, u'(?i)(men|man)')"
p46
aS"(3726, u'(?i)(mates|mate)')"
p47
aS"(1349, u'(?i)(rams|ram)')"
p48
aS"(853, u'(?i)(minas|mina)')"
p49
aS"(7094, u'(?i)(curs|cur)')"
p50
aS"(5958, u'(?i)(rats|rat)')"
p51
aS"(6331, u'(?i)(mares|mare)')"
p52
aS"(6356, u'(?i)(ais|ai)')"
p53
aS"(4624, u'(?i)(apes|ape)')"
p54
aS"(3152, u'(?i)(layers|layer)')"
p55
aS"(5568, u'(?i)(hakes|hake)')"
p56
aS"(5743, u'(?i)(bots|bot)')"
p57
aS"(821, u'(?i)(lice|louse)')"
p58
aS"(7552, u'(?i)(bats|bat)')"
p59
atp60
Rp61
sb.