(ifile_types
ParseObject
p0
(dp1
S'methods'
p2
c__builtin__
set
p3
((lp4
S'Method.PET'
p5
atp6
Rp7
sS'topics'
p8
g3
((lp9
S"(22, u'\\\\bschizophreni')"
p10
aS"(8, u'\\\\banxi')"
p11
aS"(1, u'\\\\bpatient')"
p12
aS"(7, u'\\\\bdepressi')"
p13
aS"(2, u'\\\\bdisorder')"
p14
atp15
Rp16
sS'receptors'
p17
g3
((lp18
(S'5ht1'
p19
I625
I630
tp20
a(S'5ht2'
p21
I651
I656
tp22
atp23
Rp24
sS'raw_text_methods'
p25
g3
((lp26
S"(17, u'\\\\bpet')"
p27
aS"(18, u'\\\\bimaging')"
p28
atp29
Rp30
sS'regions'
p31
g3
((lp32
tp33
Rp34
sS'year'
p35
V2016
p36
sS'species'
p37
g3
((lp38
tp39
Rp40
sb.