(ifile_types
ParseObject
p0
(dp1
S'methods'
p2
c__builtin__
set
p3
((lp4
S'Method.AGONIST'
p5
atp6
Rp7
sS'topics'
p8
g3
((lp9
S"(1, u'\\\\bpatient')"
p10
aS"(27, u'\\\\bdyskinesia')"
p11
aS"(34, u'\\\\bparkinson')"
p12
aS"(3, u'\\\\bclinical')"
p13
atp14
Rp15
sS'receptors'
p16
g3
((lp17
(S'5ht1a'
p18
I1929
I1935
tp19
a(S'5ht5'
p20
I328
I338
tp21
a(S'5ht1b'
p22
I376
I382
tp23
a(S'5ht1a'
p24
I432
I438
tp25
a(S'5ht1b'
p26
I440
I446
tp27
a(S'5ht1a'
p28
I366
I372
tp29
a(S'5ht1b'
p30
I1940
I1946
tp31
atp32
Rp33
sS'raw_text_methods'
p34
g3
((lp35
S"(13, u'\\\\bagonist')"
p36
atp37
Rp38
sS'regions'
p39
g3
((lp40
tp41
Rp42
sS'year'
p43
V2015
p44
sS'species'
p45
g3
((lp46
S"(4, u'(?i)\\\\b(rats|rat)\\\\b')"
p47
atp48
Rp49
sb.