(ifile_types
ParseObject
p0
(dp1
S'antagonists'
p2
c__builtin__
set
p3
((lp4
S"(5, u'\\\\bcyanopindolol')"
p5
atp6
Rp7
sS'methods'
p8
g3
((lp9
S'Method.KNOCKOUT'
p10
aS'Method.ANTAGONIST'
p11
atp12
Rp13
sS'topics'
p14
g3
((lp15
tp16
Rp17
sS'receptors'
p18
g3
((lp19
S'5ht1b'
p20
aS'5ht5'
p21
aS'5ht1a'
p22
aS'5ht1'
p23
atp24
Rp25
sS'regions'
p26
g3
((lp27
tp28
Rp29
sS'year'
p30
V2014
p31
sS'agonists'
p32
g3
((lp33
tp34
Rp35
sS'species'
p36
g3
((lp37
S"(4624, u'(?i)(apes|ape)')"
p38
aS"(5537, u'(?i)(hippos|hippo)')"
p39
aS"(6753, u'(?i)(da|das)')"
p40
aS"(5958, u'(?i)(rats|rat)')"
p41
aS"(6356, u'(?i)(ais|ai)')"
p42
aS"(867, u'(?i)(tits|tit)')"
p43
aS"(163, u'(?i)(mice|mouse)')"
p44
aS"(479, u'(?i)(lings|ling)')"
p45
aS"(6682, u'(?i)(tera|teras)')"
p46
aS"(1349, u'(?i)(rams|ram)')"
p47
aS"(6249, u'(?i)(ants|ant)')"
p48
aS"(1055, u'(?i)(men|man)')"
p49
aS"(4979, u'(?i)(cats|cat)')"
p50
aS"(3550, u'(?i)(anis|ani)')"
p51
aS"(1961, u'(?i)(pens|pen)')"
p52
aS"(3812, u'(?i)(studs|stud)')"
p53
aS"(7609, u'(?i)(erns|ern)')"
p54
aS"(6580, u'(?i)(dams|dam)')"
p55
aS"(5743, u'(?i)(bots|bot)')"
p56
aS"(1683, u'(?i)(terns|tern)')"
p57
atp58
Rp59
sb.