(ifile_types
ParseObject
p0
(dp1
S'antagonists'
p2
c__builtin__
set
p3
((lp4
S"(5, u'\\\\bcyanopindolol')"
p5
aS"(53, u'\\\\bketanserin')"
p6
aS"(52, u'\\\\bmetergoline')"
p7
aS"(21, u'\\\\bpindolol')"
p8
aS"(9, u'\\\\bgr ?46611')"
p9
aS"(128, u'\\\\bketanserin')"
p10
aS"(35, u'\\\\bmetergoline')"
p11
aS"(39, u'\\\\bsb ?224289')"
p12
aS"(45, u'\\\\bgr ?127935')"
p13
atp14
Rp15
sS'methods'
p16
g3
((lp17
S'Method.ANTAGONIST'
p18
aS'Method.AGONIST'
p19
atp20
Rp21
sS'topics'
p22
g3
((lp23
tp24
Rp25
sS'receptors'
p26
g3
((lp27
S'5ht1b'
p28
aS'5ht5'
p29
aS'5ht1d'
p30
atp31
Rp32
sS'regions'
p33
g3
((lp34
S"(34, u'(?i)(pon|pons)')"
p35
atp36
Rp37
sS'year'
p38
V2002
p39
sS'agonists'
p40
g3
((lp41
S"(103, u'\\\\bsumatriptan')"
p42
aS"(74, u'\\\\bru ?24969')"
p43
aS"(105, u'\\\\b5 ?carboxamidotryptamine')"
p44
aS"(5, u'\\\\b5 ?ct')"
p45
aS"(107, u'\\\\bcp ?93129')"
p46
aS"(119, u'\\\\bgr ?46611')"
p47
aS"(115, u'\\\\bpnu ?109291')"
p48
aS"(29, u'\\\\bdihydroergotamine')"
p49
aS"(121, u'\\\\bl ?694247')"
p50
atp51
Rp52
sS'species'
p53
g3
((lp54
S"(4163, u'(?i)(ermines|ermine)')"
p55
aS"(3404, u'(?i)(titis|titi)')"
p56
aS"(6249, u'(?i)(ants|ant)')"
p57
aS"(6391, u'(?i)(asses|ass)')"
p58
aS"(3812, u'(?i)(studs|stud)')"
p59
aS"(3196, u'(?i)(human|humans)')"
p60
aS"(1070, u'(?i)(pets|pet)')"
p61
aS"(931, u'(?i)(divers|diver)')"
p62
aS"(479, u'(?i)(lings|ling)')"
p63
aS"(468, u'(?i)(oxen|ox)')"
p64
aS"(3062, u'(?i)(guineas|guinea)')"
p65
aS"(3522, u'(?i)(tetras|tetra)')"
p66
aS"(5958, u'(?i)(rats|rat)')"
p67
aS"(3527, u'(?i)(permits|permit)')"
p68
aS"(867, u'(?i)(tits|tit)')"
p69
aS"(1055, u'(?i)(men|man)')"
p70
aS"(853, u'(?i)(minas|mina)')"
p71
aS"(1057, u'(?i)(humans|human)')"
p72
aS"(1414, u'(?i)(chars|char)')"
p73
aS"(4480, u'(?i)(guineas|guinea)(-|\\\\s+)?(pigs|pig)')"
p74
aS"(2323, u'(?i)(bees|bee)')"
p75
aS"(2568, u'(?i)(hens|hen)')"
p76
aS"(6753, u'(?i)(da|das)')"
p77
aS"(3051, u'(?i)(pigs|pig)')"
p78
aS"(1054, u'(?i)(homoes|homo)')"
p79
aS"(4964, u'(?i)(serins|serin)')"
p80
atp81
Rp82
sb.