(ifile_types
ParseObject
p0
(dp1
S'antagonists'
p2
c__builtin__
set
p3
((lp4
tp5
Rp6
sS'methods'
p7
g3
((lp8
S'Method.PET'
p9
atp10
Rp11
sS'topics'
p12
g3
((lp13
S"(35, u'\\\\bstress')"
p14
atp15
Rp16
sS'receptors'
p17
g3
((lp18
S'5ht1a'
p19
aS'5ht5'
p20
atp21
Rp22
sS'regions'
p23
g3
((lp24
S"(209, u'(?i)(amygdalas|amygdala)')"
p25
aS"(292, u'(?i)(anteriors|anterior)(-|\\\\s+)?(cingulates|cingulate)')"
p26
aS"(257, u'(?i)(dorsolaterals|dorsolateral)(-|\\\\s+)?(prefrontals|prefrontal)(-|\\\\s+)?(cortexes|cortex)')"
p27
aS"(254, u'(?i)(prefrontals|prefrontal)(-|\\\\s+)?(cortexes|cortex)')"
p28
aS"(126, u'(?i)(thalamuses|thalamus)')"
p29
aS"(255, u'(?i)(pres|pre)(-|\\\\s+)?(frontals|frontal)(-|\\\\s+)?(cortexes|cortex)')"
p30
atp31
Rp32
sS'year'
p33
V2014
p34
sS'agonists'
p35
g3
((lp36
tp37
Rp38
sS'species'
p39
g3
((lp40
S"(4163, u'(?i)(ermines|ermine)')"
p41
aS"(7094, u'(?i)(curs|cur)')"
p42
aS"(6356, u'(?i)(ais|ai)')"
p43
aS"(3196, u'(?i)(human|humans)')"
p44
aS"(3812, u'(?i)(studs|stud)')"
p45
aS"(6391, u'(?i)(asses|ass)')"
p46
aS"(6125, u'(?i)(females|female)')"
p47
aS"(5967, u'(?i)(males|male)')"
p48
aS"(5743, u'(?i)(bots|bot)')"
p49
aS"(6521, u'(?i)(macaques|macaque)')"
p50
aS"(2809, u'(?i)(toms|tom)')"
p51
aS"(2341, u'(?i)(monkeys|monkey)')"
p52
aS"(5537, u'(?i)(hippos|hippo)')"
p53
aS"(6249, u'(?i)(ants|ant)')"
p54
aS"(2183, u'(?i)(gars|gar)')"
p55
aS"(6682, u'(?i)(tera|teras)')"
p56
aS"(1055, u'(?i)(men|man)')"
p57
aS"(4597, u'(?i)(rhesuses|rhesus)(-|\\\\s+)?(monkeys|monkey)')"
p58
aS"(4979, u'(?i)(cats|cat)')"
p59
aS"(1057, u'(?i)(humans|human)')"
p60
aS"(4247, u'(?i)(tatus|tatu)')"
p61
aS"(4596, u'(?i)(rhesuses|rhesus)')"
p62
aS"(2323, u'(?i)(bees|bee)')"
p63
aS"(2568, u'(?i)(hens|hen)')"
p64
aS"(6753, u'(?i)(da|das)')"
p65
atp66
Rp67
sb.