(ifile_types
ParseObject
p0
(dp1
S'methods'
p2
c__builtin__
set
p3
((lp4
S'Method.AGONIST'
p5
atp6
Rp7
sS'topics'
p8
g3
((lp9
S"(16, u'\\\\blearning')"
p10
aS"(26, u'\\\\bbehav')"
p11
aS"(15, u'\\\\bmemory')"
p12
atp13
Rp14
sS'receptors'
p15
g3
((lp16
(S'5ht7'
p17
I1083
I1088
tp18
a(S'5ht7'
p19
I983
I988
tp20
a(S'5ht7'
p21
I1229
I1234
tp22
a(S'5ht7'
p23
I1429
I1434
tp24
a(S'5ht1a'
p25
I798
I804
tp26
a(S'5ht7'
p27
I823
I828
tp28
a(S'5ht6'
p29
I806
I811
tp30
a(S'5ht7'
p31
I93
I98
tp32
a(S'5ht4'
p33
I814
I819
tp34
atp35
Rp36
sS'raw_text_methods'
p37
g3
((lp38
S"(13, u'\\\\bagonist')"
p39
atp40
Rp41
sS'regions'
p42
g3
((lp43
S"(20, u'(?i)\\\\b(prefrontals|prefrontal)\\\\b')"
p44
aS"(19, u'(?i)\\\\b(cortexes|cortex)\\\\b')"
p45
atp46
Rp47
sS'year'
p48
V2006
p49
sS'species'
p50
g3
((lp51
S"(4, u'(?i)\\\\b(rats|rat)\\\\b')"
p52
atp53
Rp54
sb.