(ifile_types
ParseObject
p0
(dp1
S'antagonists'
p2
c__builtin__
set
p3
((lp4
S"(67, u'\\\\bhaloperidol')"
p5
aS"(14, u'\\\\bmethiothepin')"
p6
aS"(105, u'\\\\bmethysergide')"
p7
atp8
Rp9
sS'methods'
p10
g3
((lp11
S'Method.ANTAGONIST'
p12
aS'Method.AGONIST'
p13
atp14
Rp15
sS'topics'
p16
g3
((lp17
S"(11, u'\\\\banxiolyt')"
p18
aS"(10, u'\\\\banxiety')"
p19
aS"(20, u'\\\\baggressi')"
p20
atp21
Rp22
sS'receptors'
p23
g3
((lp24
S'5ht1b'
p25
aS'5ht1a'
p26
atp27
Rp28
sS'regions'
p29
g3
((lp30
S"(318, u'(?i)(raphes|raphe)(-|\\\\s+)?(nuclei|nucleus)')"
p31
aS"(103, u'(?i)(substantias|substantia)(-|\\\\s+)?(nigras|nigra)')"
p32
aS"(94, u'(?i)(dorsals|dorsal)(-|\\\\s+)?(raphes|raphe)(-|\\\\s+)?(nuclei|nucleus)')"
p33
atp34
Rp35
sS'year'
p36
V1987
p37
sS'agonists'
p38
g3
((lp39
S"(47, u'\\\\bgepirone')"
p40
aS"(48, u'\\\\bhaloperidol')"
p41
aS"(24, u'\\\\bbuspirone')"
p42
aS"(60, u'\\\\bmethysergide')"
p43
atp44
Rp45
sS'species'
p46
g3
((lp47
S"(5537, u'(?i)(hippos|hippo)')"
p48
aS"(6753, u'(?i)(da|das)')"
p49
aS"(5958, u'(?i)(rats|rat)')"
p50
aS"(867, u'(?i)(tits|tit)')"
p51
aS"(163, u'(?i)(mice|mouse)')"
p52
aS"(468, u'(?i)(oxen|ox)')"
p53
aS"(4163, u'(?i)(ermines|ermine)')"
p54
aS"(6249, u'(?i)(ants|ant)')"
p55
aS"(5743, u'(?i)(bots|bot)')"
p56
aS"(3550, u'(?i)(anis|ani)')"
p57
aS"(6356, u'(?i)(ais|ai)')"
p58
aS"(6391, u'(?i)(asses|ass)')"
p59
aS"(7552, u'(?i)(bats|bat)')"
p60
atp61
Rp62
sb.