(ifile_types
ParseObject
p0
(dp1
S'antagonists'
p2
c__builtin__
set
p3
((lp4
S"(53, u'\\\\bketanserin')"
p5
aS"(128, u'\\\\bketanserin')"
p6
aS"(141, u'\\\\bzacopride')"
p7
aS"(102, u'\\\\bfluoxetine')"
p8
aS"(105, u'\\\\bmethysergide')"
p9
atp10
Rp11
sS'methods'
p12
g3
((lp13
S'Method.ANTAGONIST'
p14
aS'Method.AGONIST'
p15
atp16
Rp17
sS'topics'
p18
g3
((lp19
tp20
Rp21
sS'receptors'
p22
g3
((lp23
S'5ht5'
p24
aS'5ht3'
p25
aS'5ht2'
p26
aS'5ht1'
p27
aS'5ht2a'
p28
aS'5ht1a'
p29
aS'5ht2b'
p30
aS'5ht3a'
p31
atp32
Rp33
sS'regions'
p34
g3
((lp35
S"(362, u'(?i)(brains|brain)(-|\\\\s+)?(stems|stem)')"
p36
aS"(34, u'(?i)(pon|pons)')"
p37
atp38
Rp39
sS'year'
p40
V1990
p41
sS'agonists'
p42
g3
((lp43
S"(74, u'\\\\bru ?24969')"
p44
aS"(24, u'\\\\bbuspirone')"
p45
aS"(212, u'\\\\bzacopride')"
p46
aS"(60, u'\\\\bmethysergide')"
p47
aS"(33, u'\\\\bdoi')"
p48
atp49
Rp50
sS'species'
p51
g3
((lp52
S"(2323, u'(?i)(bees|bee)')"
p53
aS"(5958, u'(?i)(rats|rat)')"
p54
aS"(4979, u'(?i)(cats|cat)')"
p55
aS"(468, u'(?i)(oxen|ox)')"
p56
aS"(1055, u'(?i)(men|man)')"
p57
aS"(4964, u'(?i)(serins|serin)')"
p58
aS"(6249, u'(?i)(ants|ant)')"
p59
aS"(7058, u'(?i)(does|doe)')"
p60
aS"(1961, u'(?i)(pens|pen)')"
p61
aS"(3812, u'(?i)(studs|stud)')"
p62
aS"(6356, u'(?i)(ais|ai)')"
p63
atp64
Rp65
sb.