(ifile_types
ParseObject
p0
(dp1
S'methods'
p2
c__builtin__
set
p3
((lp4
S'Method.ANTAGONIST'
p5
atp6
Rp7
sS'topics'
p8
g3
((lp9
S"(14, u'\\\\bcogniti')"
p10
aS"(3, u'\\\\bclinical')"
p11
aS"(17, u'\\\\balzheimer')"
p12
aS"(4, u'\\\\btreatment')"
p13
aS"(2, u'\\\\bdisorder')"
p14
atp15
Rp16
sS'receptors'
p17
g3
((lp18
(S'5ht6'
p19
I233
I238
tp20
a(S'5ht6'
p21
I729
I734
tp22
a(S'5ht2a'
p23
I1304
I1310
tp24
a(S'5ht6'
p25
I220
I230
tp26
a(S'5ht6'
p27
I453
I458
tp28
a(S'5ht2a'
p29
I968
I974
tp30
atp31
Rp32
sS'raw_text_methods'
p33
g3
((lp34
S"(12, u'\\\\bantagonist')"
p35
atp36
Rp37
sS'regions'
p38
g3
((lp39
tp40
Rp41
sS'year'
p42
V2017
p43
sS'species'
p44
g3
((lp45
tp46
Rp47
sb.