(ifile_types
ParseObject
p0
(dp1
S'methods'
p2
c__builtin__
set
p3
((lp4
S'Method.AGONIST'
p5
atp6
Rp7
sS'topics'
p8
g3
((lp9
tp10
Rp11
sS'receptors'
p12
g3
((lp13
(S'5ht3'
p14
I289
I294
tp15
a(S'5ht3'
p16
I426
I431
tp17
a(S'5ht3'
p18
I2044
I2049
tp19
a(S'5ht3'
p20
I92
I97
tp21
a(S'5ht4'
p22
I1513
I1518
tp23
a(S'5ht3'
p24
I307
I312
tp25
a(S'5ht3'
p26
I614
I619
tp27
atp28
Rp29
sS'raw_text_methods'
p30
g3
((lp31
S"(13, u'\\\\bagonist')"
p32
atp33
Rp34
sS'regions'
p35
g3
((lp36
tp37
Rp38
sS'year'
p39
V2005
p40
sS'species'
p41
g3
((lp42
S"(4, u'(?i)\\\\b(rats|rat)\\\\b')"
p43
atp44
Rp45
sb.