(ifile_types
ParseObject
p0
(dp1
S'antagonists'
p2
c__builtin__
set
p3
((lp4
S"(78, u'\\\\bpimavanserin')"
p5
aS"(142, u'\\\\bm1')"
p6
atp7
Rp8
sS'methods'
p9
g3
((lp10
S'Method.ANTAGONIST'
p11
aS'Method.AGONIST'
p12
atp13
Rp14
sS'topics'
p15
g3
((lp16
S"(14, u'\\\\bpsychosis')"
p17
aS"(30, u'\\\\bparkinsons')"
p18
aS"(4, u'\\\\blocomot')"
p19
atp20
Rp21
sS'receptors'
p22
g3
((lp23
S'5ht2c'
p24
aS'5ht2a'
p25
atp26
Rp27
sS'regions'
p28
g3
((lp29
S"(103, u'(?i)(substantias|substantia)(-|\\\\s+)?(nigras|nigra)')"
p30
atp31
Rp32
sS'year'
p33
V2011
p34
sS'agonists'
p35
g3
((lp36
S"(14, u'\\\\bamphetamine')"
p37
atp38
Rp39
sS'species'
p40
g3
((lp41
S"(2054, u'(?i)(heads|head)')"
p42
aS"(5799, u'(?i)(rodents|rodent)')"
p43
aS"(5958, u'(?i)(rats|rat)')"
p44
aS"(6356, u'(?i)(ais|ai)')"
p45
aS"(4964, u'(?i)(serins|serin)')"
p46
aS"(479, u'(?i)(lings|ling)')"
p47
aS"(468, u'(?i)(oxen|ox)')"
p48
aS"(1055, u'(?i)(men|man)')"
p49
aS"(6249, u'(?i)(ants|ant)')"
p50
aS"(3812, u'(?i)(studs|stud)')"
p51
aS"(7094, u'(?i)(curs|cur)')"
p52
aS"(3550, u'(?i)(anis|ani)')"
p53
aS"(6682, u'(?i)(tera|teras)')"
p54
aS"(1057, u'(?i)(humans|human)')"
p55
aS"(6391, u'(?i)(asses|ass)')"
p56
aS"(1414, u'(?i)(chars|char)')"
p57
aS"(3196, u'(?i)(human|humans)')"
p58
aS"(2809, u'(?i)(toms|tom)')"
p59
aS"(5743, u'(?i)(bots|bot)')"
p60
aS"(4979, u'(?i)(cats|cat)')"
p61
atp62
Rp63
sb.