(ifile_types
ParseObject
p0
(dp1
S'antagonists'
p2
c__builtin__
set
p3
((lp4
S"(153, u'\\\\bgr ?113808')"
p5
atp6
Rp7
sS'methods'
p8
g3
((lp9
S'Method.ANTAGONIST'
p10
aS'Method.AGONIST'
p11
atp12
Rp13
sS'topics'
p14
g3
((lp15
S"(8, u'\\\\blearning')"
p16
aS"(6, u'\\\\bcognit')"
p17
atp18
Rp19
sS'receptors'
p20
g3
((lp21
S'5ht4'
p22
atp23
Rp24
sS'regions'
p25
g3
((lp26
tp27
Rp28
sS'year'
p29
V2001
p30
sS'agonists'
p31
g3
((lp32
tp33
Rp34
sS'species'
p35
g3
((lp36
S"(5537, u'(?i)(hippos|hippo)')"
p37
aS"(2568, u'(?i)(hens|hen)')"
p38
aS"(6753, u'(?i)(da|das)')"
p39
aS"(6682, u'(?i)(tera|teras)')"
p40
aS"(1055, u'(?i)(men|man)')"
p41
aS"(6249, u'(?i)(ants|ant)')"
p42
aS"(4979, u'(?i)(cats|cat)')"
p43
aS"(5958, u'(?i)(rats|rat)')"
p44
aS"(5917, u'(?i)(roaches|roach)')"
p45
aS"(1961, u'(?i)(pens|pen)')"
p46
aS"(3812, u'(?i)(studs|stud)')"
p47
aS"(6391, u'(?i)(asses|ass)')"
p48
aS"(6356, u'(?i)(ais|ai)')"
p49
aS"(4133, u'(?i)(pikes|pike)')"
p50
atp51
Rp52
sb.