(ifile_types
ParseObject
p0
(dp1
S'methods'
p2
c__builtin__
set
p3
((lp4
S'Method.PET'
p5
aS'Method.ANTAGONIST'
p6
aS'Method.AGONIST'
p7
atp8
Rp9
sS'topics'
p10
g3
((lp11
tp12
Rp13
sS'receptors'
p14
g3
((lp15
(S'5ht1a'
p16
I121
I127
tp17
a(S'5ht1a'
p18
I3051
I3057
tp19
a(S'5ht1a'
p20
I1847
I1853
tp21
a(S'5ht1a'
p22
I2453
I2459
tp23
a(S'5ht1a'
p24
I1280
I1286
tp25
a(S'5ht1a'
p26
I2703
I2709
tp27
a(S'5ht1a'
p28
I3323
I3329
tp29
a(S'5ht1a'
p30
I452
I458
tp31
a(S'5ht1a'
p32
I2807
I2813
tp33
a(S'5ht1a'
p34
I595
I601
tp35
atp36
Rp37
sS'raw_text_methods'
p38
g3
((lp39
S"(17, u'\\\\bpet')"
p40
aS"(15, u'\\\\b8ohdpat')"
p41
aS"(13, u'\\\\bagonist')"
p42
aS"(54, u'\\\\bautoradiography')"
p43
aS"(51, u'\\\\bway100635')"
p44
aS"(18, u'\\\\bimaging')"
p45
aS"(12, u'\\\\bantagonist')"
p46
atp47
Rp48
sS'regions'
p49
g3
((lp50
S"(19, u'(?i)\\\\b(cortexes|cortex)\\\\b')"
p51
aS"(1, u'(?i)\\\\b(neocortexes|neocortex)\\\\b')"
p52
aS"(9, u'(?i)\\\\b(cerebellums|cerebellum)\\\\b')"
p53
atp54
Rp55
sS'year'
p56
V1998
p57
sS'species'
p58
g3
((lp59
S"(4, u'(?i)\\\\b(rats|rat)\\\\b')"
p60
atp61
Rp62
sb.