(ifile_types
ParseObject
p0
(dp1
S'methods'
p2
c__builtin__
set
p3
((lp4
S'Method.ANTAGONIST'
p5
aS'Method.AGONIST'
p6
atp7
Rp8
sS'topics'
p9
g3
((lp10
S"(4, u'\\\\btreatment')"
p11
atp12
Rp13
sS'receptors'
p14
g3
((lp15
(S'5ht7'
p16
I1688
I1693
tp17
a(S'5ht6'
p18
I788
I796
tp19
a(S'5ht7'
p20
I1210
I1215
tp21
a(S'5ht4'
p22
I1678
I1683
tp23
a(S'5ht4'
p24
I1201
I1206
tp25
a(S'5ht7'
p26
I1507
I1512
tp27
a(S'5ht2'
p28
I788
I794
tp29
a(S'5ht7'
p30
I788
I797
tp31
a(S'5ht1'
p32
I788
I793
tp33
a(S'5ht1a'
p34
I1334
I1340
tp35
a(S'5ht5'
p36
I788
I795
tp37
a(S'5ht4'
p38
I1497
I1502
tp39
a(S'5ht6'
p40
I1412
I1417
tp41
a(S'5ht3'
p42
I1367
I1372
tp43
a(S'5ht4'
p44
I828
I833
tp45
a(S'5ht7'
p46
I871
I876
tp47
a(S'5ht2'
p48
I1029
I1034
tp49
atp50
Rp51
sS'raw_text_methods'
p52
g3
((lp53
S"(13, u'\\\\bagonist')"
p54
aS"(51, u'\\\\bway100635')"
p55
aS"(9, u'\\\\britanserin')"
p56
aS"(12, u'\\\\bantagonist')"
p57
aS"(11, u'\\\\bfluoxetine')"
p58
atp59
Rp60
sS'regions'
p61
g3
((lp62
tp63
Rp64
sS'year'
p65
V2007
p66
sS'species'
p67
g3
((lp68
S"(4, u'(?i)\\\\b(rats|rat)\\\\b')"
p69
atp70
Rp71
sb.