(ifile_types
ParseObject
p0
(dp1
S'antagonists'
p2
c__builtin__
set
p3
((lp4
S"(5, u'\\\\bcyanopindolol')"
p5
aS"(52, u'\\\\bmetergoline')"
p6
aS"(22, u'\\\\bpropranolol')"
p7
aS"(209, u'\\\\btfmpp')"
p8
aS"(35, u'\\\\bmetergoline')"
p9
aS"(11, u'\\\\bisamoltane')"
p10
atp11
Rp12
sS'methods'
p13
g3
((lp14
S'Method.ANTAGONIST'
p15
aS'Method.AGONIST'
p16
atp17
Rp18
sS'topics'
p19
g3
((lp20
tp21
Rp22
sS'receptors'
p23
g3
((lp24
S'5ht1b'
p25
aS'5ht1d'
p26
atp27
Rp28
sS'regions'
p29
g3
((lp30
S"(219, u'(?i)(basals|basal)(-|\\\\s+)?(ganglias|ganglia)')"
p31
atp32
Rp33
sS'year'
p34
V1990
p35
sS'agonists'
p36
g3
((lp37
S"(161, u'\\\\bmcpp')"
p38
aS"(74, u'\\\\bru ?24969')"
p39
aS"(5, u'\\\\b5 ?ct')"
p40
aS"(183, u'\\\\btfmpp')"
p41
atp42
Rp43
sS'species'
p44
g3
((lp45
S"(2323, u'(?i)(bees|bee)')"
p46
aS"(5958, u'(?i)(rats|rat)')"
p47
aS"(867, u'(?i)(tits|tit)')"
p48
aS"(163, u'(?i)(mice|mouse)')"
p49
aS"(1055, u'(?i)(men|man)')"
p50
aS"(4604, u'(?i)(mites|mite)')"
p51
aS"(853, u'(?i)(minas|mina)')"
p52
aS"(6249, u'(?i)(ants|ant)')"
p53
aS"(1057, u'(?i)(humans|human)')"
p54
aS"(3196, u'(?i)(human|humans)')"
p55
aS"(3812, u'(?i)(studs|stud)')"
p56
aS"(2292, u'(?i)(adders|adder)')"
p57
aS"(6356, u'(?i)(ais|ai)')"
p58
atp59
Rp60
sb.