(ifile_types
ParseObject
p0
(dp1
S'antagonists'
p2
c__builtin__
set
p3
((lp4
tp5
Rp6
sS'methods'
p7
g3
((lp8
tp9
Rp10
sS'topics'
p11
g3
((lp12
tp13
Rp14
sS'receptors'
p15
g3
((lp16
S'5ht5'
p17
aS'5ht2c'
p18
aS'5ht2'
p19
aS'5ht2a'
p20
atp21
Rp22
sS'regions'
p23
g3
((lp24
tp25
Rp26
sS'year'
p27
V2004
p28
sS'agonists'
p29
g3
((lp30
S"(155, u'\\\\bmem')"
p31
atp32
Rp33
sS'species'
p34
g3
((lp35
S"(6249, u'(?i)(ants|ant)')"
p36
aS"(7609, u'(?i)(erns|ern)')"
p37
aS"(4979, u'(?i)(cats|cat)')"
p38
aS"(479, u'(?i)(lings|ling)')"
p39
aS"(468, u'(?i)(oxen|ox)')"
p40
aS"(1055, u'(?i)(men|man)')"
p41
aS"(7094, u'(?i)(curs|cur)')"
p42
aS"(1048, u'(?i)(camels|camel)')"
p43
aS"(853, u'(?i)(minas|mina)')"
p44
aS"(6682, u'(?i)(tera|teras)')"
p45
aS"(3426, u'(?i)(hares|hare)')"
p46
aS"(5917, u'(?i)(roaches|roach)')"
p47
aS"(3812, u'(?i)(studs|stud)')"
p48
aS"(6391, u'(?i)(asses|ass)')"
p49
aS"(5743, u'(?i)(bots|bot)')"
p50
aS"(1683, u'(?i)(terns|tern)')"
p51
atp52
Rp53
sb.