(ifile_types
ParseObject
p0
(dp1
S'methods'
p2
c__builtin__
set
p3
((lp4
tp5
Rp6
sS'topics'
p7
g3
((lp8
S"(12, u'\\\\bsleep')"
p9
aS"(7, u'\\\\bdepressi')"
p10
aS"(26, u'\\\\bbehav')"
p11
atp12
Rp13
sS'receptors'
p14
g3
((lp15
(S'5ht5'
p16
I285
I295
tp17
a(S'5ht1a'
p18
I1045
I1051
tp19
a(S'5ht1a'
p20
I1410
I1416
tp21
a(S'5ht1a'
p22
I950
I956
tp23
a(S'5ht1a'
p24
I43
I49
tp25
a(S'5ht1a'
p26
I1282
I1288
tp27
a(S'5ht1a'
p28
I1635
I1641
tp29
a(S'5ht1a'
p30
I733
I739
tp31
a(S'5ht1a'
p32
I320
I326
tp33
a(S'5ht1a'
p34
I635
I641
tp35
atp36
Rp37
sS'raw_text_methods'
p38
g3
((lp39
tp40
Rp41
sS'regions'
p42
g3
((lp43
S"(19, u'(?i)\\\\b(cortexes|cortex)\\\\b')"
p44
atp45
Rp46
sS'year'
p47
V2008
p48
sS'species'
p49
g3
((lp50
S"(1, u'(?i)\\\\b(mice|mouse)\\\\b')"
p51
aS"(4, u'(?i)\\\\b(rats|rat)\\\\b')"
p52
atp53
Rp54
sb.