(ifile_types
ParseObject
p0
(dp1
S'methods'
p2
c__builtin__
set
p3
((lp4
S'Method.AGONIST'
p5
atp6
Rp7
sS'topics'
p8
g3
((lp9
tp10
Rp11
sS'receptors'
p12
g3
((lp13
(S'5ht1a'
p14
I1011
I1017
tp15
a(S'5ht1a'
p16
I153
I159
tp17
a(S'5ht1a'
p18
I1183
I1189
tp19
a(S'5ht1a'
p20
I331
I337
tp21
a(S'5ht1a'
p22
I377
I383
tp23
atp24
Rp25
sS'raw_text_methods'
p26
g3
((lp27
S"(13, u'\\\\bagonist')"
p28
aS"(15, u'\\\\b8ohdpat')"
p29
atp30
Rp31
sS'regions'
p32
g3
((lp33
S"(4, u'(?i)\\\\b(presynaptics|presynaptic)\\\\b')"
p34
aS"(3, u'(?i)\\\\b(postsynaptics|postsynaptic)\\\\b')"
p35
atp36
Rp37
sS'year'
p38
V1993
p39
sS'species'
p40
g3
((lp41
S"(4, u'(?i)\\\\b(rats|rat)\\\\b')"
p42
atp43
Rp44
sb.