(ifile_types
ParseObject
p0
(dp1
S'antagonists'
p2
c__builtin__
set
p3
((lp4
S"(209, u'\\\\btfmpp')"
p5
aS"(32, u'\\\\bway ?100635')"
p6
aS"(45, u'\\\\bgr ?127935')"
p7
aS"(110, u'\\\\bsb ?242084')"
p8
atp9
Rp10
sS'methods'
p11
g3
((lp12
S'Method.ANTAGONIST'
p13
aS'Method.AGONIST'
p14
atp15
Rp16
sS'topics'
p17
g3
((lp18
S"(4, u'\\\\blocomot')"
p19
atp20
Rp21
sS'receptors'
p22
g3
((lp23
S'5ht1b'
p24
aS'5ht1a'
p25
aS'5ht2c'
p26
aS'5ht2'
p27
atp28
Rp29
sS'regions'
p30
g3
((lp31
tp32
Rp33
sS'year'
p34
V2005
p35
sS'agonists'
p36
g3
((lp37
S"(186, u'\\\\bway ?161503')"
p38
aS"(183, u'\\\\btfmpp')"
p39
atp40
Rp41
sS'species'
p42
g3
((lp43
S"(6753, u'(?i)(da|das)')"
p44
aS"(2568, u'(?i)(hens|hen)')"
p45
aS"(5958, u'(?i)(rats|rat)')"
p46
aS"(4979, u'(?i)(cats|cat)')"
p47
aS"(5967, u'(?i)(males|male)')"
p48
aS"(468, u'(?i)(oxen|ox)')"
p49
aS"(1055, u'(?i)(men|man)')"
p50
aS"(6249, u'(?i)(ants|ant)')"
p51
aS"(2942, u'(?i)(daws|daw)')"
p52
aS"(3550, u'(?i)(anis|ani)')"
p53
aS"(3522, u'(?i)(tetras|tetra)')"
p54
aS"(3812, u'(?i)(studs|stud)')"
p55
aS"(6391, u'(?i)(asses|ass)')"
p56
aS"(6356, u'(?i)(ais|ai)')"
p57
atp58
Rp59
sb.