(ifile_types
ParseObject
p0
(dp1
S'antagonists'
p2
c__builtin__
set
p3
((lp4
tp5
Rp6
sS'methods'
p7
g3
((lp8
tp9
Rp10
sS'topics'
p11
g3
((lp12
tp13
Rp14
sS'receptors'
p15
g3
((lp16
S'5ht7'
p17
aS'5ht7a'
p18
aS'5ht1a'
p19
aS'5ht5'
p20
aS'5ht2a'
p21
atp22
Rp23
sS'regions'
p24
g3
((lp25
S"(254, u'(?i)(prefrontals|prefrontal)(-|\\\\s+)?(cortexes|cortex)')"
p26
aS"(255, u'(?i)(pres|pre)(-|\\\\s+)?(frontals|frontal)(-|\\\\s+)?(cortexes|cortex)')"
p27
atp28
Rp29
sS'year'
p30
V2004
p31
sS'agonists'
p32
g3
((lp33
S"(155, u'\\\\bmem')"
p34
atp35
Rp36
sS'species'
p37
g3
((lp38
S"(5958, u'(?i)(rats|rat)')"
p39
aS"(6753, u'(?i)(da|das)')"
p40
aS"(479, u'(?i)(lings|ling)')"
p41
aS"(81, u'(?i)(asps|asp)')"
p42
aS"(468, u'(?i)(oxen|ox)')"
p43
aS"(1055, u'(?i)(men|man)')"
p44
aS"(1349, u'(?i)(rams|ram)')"
p45
aS"(6356, u'(?i)(ais|ai)')"
p46
aS"(3550, u'(?i)(anis|ani)')"
p47
aS"(3247, u'(?i)(youngs|young)')"
p48
aS"(6391, u'(?i)(asses|ass)')"
p49
aS"(3152, u'(?i)(layers|layer)')"
p50
aS"(821, u'(?i)(lice|louse)')"
p51
atp52
Rp53
sb.