(ifile_types
ParseObject
p0
(dp1
S'methods'
p2
c__builtin__
set
p3
((lp4
S'Method.ANTAGONIST'
p5
aS'Method.AGONIST'
p6
atp7
Rp8
sS'topics'
p9
g3
((lp10
S"(9, u'\\\\bstress')"
p11
atp12
Rp13
sS'receptors'
p14
g3
((lp15
(S'5ht7'
p16
I1692
I1697
tp17
a(S'5ht7'
p18
I1748
I1753
tp19
a(S'5ht7'
p20
I49
I54
tp21
a(S'5ht2'
p22
I1041
I1046
tp23
a(S'5ht7'
p24
I1126
I1132
tp25
a(S'5ht7'
p26
I1041
I1047
tp27
a(S'5ht7'
p28
I310
I315
tp29
a(S'5ht7'
p30
I980
I985
tp31
a(S'5ht1a'
p32
I1564
I1570
tp33
a(S'5ht1'
p34
I1126
I1131
tp35
atp36
Rp37
sS'raw_text_methods'
p38
g3
((lp39
S"(13, u'\\\\bagonist')"
p40
aS"(51, u'\\\\bway100635')"
p41
aS"(9, u'\\\\britanserin')"
p42
aS"(34, u'\\\\b5ct')"
p43
aS"(12, u'\\\\bantagonist')"
p44
atp45
Rp46
sS'regions'
p47
g3
((lp48
tp49
Rp50
sS'year'
p51
V2007
p52
sS'species'
p53
g3
((lp54
S"(1, u'(?i)\\\\b(mice|mouse)\\\\b')"
p55
aS"(5, u'(?i)\\\\b(mices|mice)\\\\b')"
p56
atp57
Rp58
sb.