(ifile_types
ParseObject
p0
(dp1
S'methods'
p2
c__builtin__
set
p3
((lp4
tp5
Rp6
sS'topics'
p7
g3
((lp8
S"(24, u'\\\\banxiolytic')"
p9
aS"(8, u'\\\\banxi')"
p10
atp11
Rp12
sS'receptors'
p13
g3
((lp14
(S'5ht1'
p15
I325
I330
tp16
atp17
Rp18
sS'raw_text_methods'
p19
g3
((lp20
S"(7, u'\\\\bpropranolol')"
p21
atp22
Rp23
sS'regions'
p24
g3
((lp25
S"(19, u'(?i)\\\\b(cortexes|cortex)\\\\b')"
p26
atp27
Rp28
sS'year'
p29
V1993
p30
sS'species'
p31
g3
((lp32
S"(4, u'(?i)\\\\b(rats|rat)\\\\b')"
p33
atp34
Rp35
sb.