(ifile_types
ParseObject
p0
(dp1
S'methods'
p2
c__builtin__
set
p3
((lp4
S'Method.AGONIST'
p5
aS'Method.IMMUNOHISTOCHEMISTRY'
p6
aS'Method.STAINING'
p7
atp8
Rp9
sS'topics'
p10
g3
((lp11
S"(4, u'\\\\btreatment')"
p12
atp13
Rp14
sS'receptors'
p15
g3
((lp16
(S'5ht3'
p17
I309
I314
tp18
a(S'5ht3'
p19
I2054
I2059
tp20
a(S'5ht3'
p21
I29
I39
tp22
a(S'5ht3'
p23
I779
I784
tp24
a(S'5ht3'
p25
I2129
I2134
tp26
atp27
Rp28
sS'raw_text_methods'
p29
g3
((lp30
S"(13, u'\\\\bagonist')"
p31
aS"(2, u'\\\\blabeling')"
p32
atp33
Rp34
sS'regions'
p35
g3
((lp36
S"(14, u'(?i)\\\\b(caudals|caudal)\\\\b')"
p37
atp38
Rp39
sS'year'
p40
V2002
p41
sS'species'
p42
g3
((lp43
S"(4, u'(?i)\\\\b(rats|rat)\\\\b')"
p44
atp45
Rp46
sb.