(ifile_types
ParseObject
p0
(dp1
S'methods'
p2
c__builtin__
set
p3
((lp4
S'Method.AGONIST'
p5
atp6
Rp7
sS'topics'
p8
g3
((lp9
tp10
Rp11
sS'receptors'
p12
g3
((lp13
(S'5ht2'
p14
I1040
I1045
tp15
a(S'5ht7'
p16
I397
I402
tp17
a(S'5ht1a'
p18
I986
I992
tp19
a(S'5ht1a'
p20
I1222
I1228
tp21
a(S'5ht1'
p22
I391
I396
tp23
a(S'5ht3'
p24
I1398
I1403
tp25
a(S'5ht2'
p26
I1579
I1584
tp27
a(S'5ht3'
p28
I1088
I1093
tp29
a(S'5ht2'
p30
I1316
I1321
tp31
atp32
Rp33
sS'raw_text_methods'
p34
g3
((lp35
S"(13, u'\\\\bagonist')"
p36
aS"(15, u'\\\\b8ohdpat')"
p37
aS"(11, u'\\\\bfluoxetine')"
p38
aS"(49, u'\\\\bdoi')"
p39
atp40
Rp41
sS'regions'
p42
g3
((lp43
tp44
Rp45
sS'year'
p46
V2001
p47
sS'species'
p48
g3
((lp49
S"(3, u'(?i)\\\\b(males|male)\\\\b')"
p50
aS"(4, u'(?i)\\\\b(rats|rat)\\\\b')"
p51
atp52
Rp53
sb.