(ifile_types
ParseObject
p0
(dp1
S'antagonists'
p2
c__builtin__
set
p3
((lp4
S"(5, u'\\\\bcyanopindolol')"
p5
aS"(53, u'\\\\bketanserin')"
p6
aS"(52, u'\\\\bmetergoline')"
p7
aS"(105, u'\\\\bmethysergide')"
p8
aS"(128, u'\\\\bketanserin')"
p9
aS"(14, u'\\\\bmethiothepin')"
p10
aS"(35, u'\\\\bmetergoline')"
p11
atp12
Rp13
sS'methods'
p14
g3
((lp15
S'Method.ANTAGONIST'
p16
aS'Method.AGONIST'
p17
atp18
Rp19
sS'topics'
p20
g3
((lp21
tp22
Rp23
sS'receptors'
p24
g3
((lp25
S'5ht1d'
p26
aS'5ht3'
p27
aS'5ht2'
p28
aS'5ht1'
p29
aS'5ht2a'
p30
atp31
Rp32
sS'regions'
p33
g3
((lp34
S"(34, u'(?i)(pon|pons)')"
p35
atp36
Rp37
sS'year'
p38
V1992
p39
sS'agonists'
p40
g3
((lp41
S"(103, u'\\\\bsumatriptan')"
p42
aS"(74, u'\\\\bru ?24969')"
p43
aS"(44, u'\\\\bflesinoxan')"
p44
aS"(5, u'\\\\b5 ?ct')"
p45
aS"(190, u'\\\\b2 ?methyl ?5 ?ht')"
p46
aS"(72, u'\\\\brauwolscine')"
p47
aS"(105, u'\\\\b5 ?carboxamidotryptamine')"
p48
aS"(60, u'\\\\bmethysergide')"
p49
aS"(33, u'\\\\bdoi')"
p50
aS"(92, u'\\\\b8 ?oh ?dpat')"
p51
aS"(155, u'\\\\bmem')"
p52
atp53
Rp54
sS'species'
p55
g3
((lp56
S"(2323, u'(?i)(bees|bee)')"
p57
aS"(2568, u'(?i)(hens|hen)')"
p58
aS"(479, u'(?i)(lings|ling)')"
p59
aS"(1883, u'(?i)(calves|calf)')"
p60
aS"(468, u'(?i)(oxen|ox)')"
p61
aS"(1055, u'(?i)(men|man)')"
p62
aS"(6249, u'(?i)(ants|ant)')"
p63
aS"(4964, u'(?i)(serins|serin)')"
p64
aS"(7094, u'(?i)(curs|cur)')"
p65
aS"(5958, u'(?i)(rats|rat)')"
p66
aS"(3522, u'(?i)(tetras|tetra)')"
p67
aS"(1057, u'(?i)(humans|human)')"
p68
aS"(6391, u'(?i)(asses|ass)')"
p69
aS"(1414, u'(?i)(chars|char)')"
p70
aS"(3196, u'(?i)(human|humans)')"
p71
aS"(6356, u'(?i)(ais|ai)')"
p72
atp73
Rp74
sb.