(ifile_types
ParseObject
p0
(dp1
S'methods'
p2
c__builtin__
set
p3
((lp4
S'Method.ANTAGONIST'
p5
aS'Method.AGONIST'
p6
atp7
Rp8
sS'topics'
p9
g3
((lp10
S"(24, u'\\\\banxiolytic')"
p11
aS"(8, u'\\\\banxi')"
p12
aS"(26, u'\\\\bbehav')"
p13
aS"(13, u'\\\\bantidepress')"
p14
aS"(25, u'\\\\bsocial')"
p15
atp16
Rp17
sS'receptors'
p18
g3
((lp19
(S'5ht1a'
p20
I2675
I2681
tp21
a(S'5ht1a'
p22
I1674
I1680
tp23
a(S'5ht1a'
p24
I350
I356
tp25
a(S'5ht1a'
p26
I1149
I1155
tp27
a(S'5ht1a'
p28
I104
I110
tp29
a(S'5ht1a'
p30
I887
I893
tp31
atp32
Rp33
sS'raw_text_methods'
p34
g3
((lp35
S"(13, u'\\\\bagonist')"
p36
aS"(37, u'\\\\bpiperazine')"
p37
aS"(12, u'\\\\bantagonist')"
p38
atp39
Rp40
sS'regions'
p41
g3
((lp42
S"(3, u'(?i)\\\\b(postsynaptics|postsynaptic)\\\\b')"
p43
atp44
Rp45
sS'year'
p46
V2002
p47
sS'species'
p48
g3
((lp49
S"(4, u'(?i)\\\\b(rats|rat)\\\\b')"
p50
atp51
Rp52
sb.