(ifile_types
ParseObject
p0
(dp1
S'antagonists'
p2
c__builtin__
set
p3
((lp4
S"(134, u'\\\\bgranisetron')"
p5
atp6
Rp7
sS'methods'
p8
g3
((lp9
S'Method.ANTAGONIST'
p10
atp11
Rp12
sS'topics'
p13
g3
((lp14
tp15
Rp16
sS'receptors'
p17
g3
((lp18
S'5ht3'
p19
atp20
Rp21
sS'regions'
p22
g3
((lp23
S"(313, u'(?i)(solitaries|solitary)(-|\\\\s+)?(tracts|tract)')"
p24
aS"(164, u'(?i)(supraoptics|supraoptic)(-|\\\\s+)?(nuclei|nucleus)')"
p25
aS"(34, u'(?i)(pon|pons)')"
p26
aS"(159, u'(?i)(paraventriculars|paraventricular)(-|\\\\s+)?(nuclei|nucleus)')"
p27
aS"(27, u'(?i)(areas|area)(-|\\\\s+)?(postremas|postrema)')"
p28
atp29
Rp30
sS'year'
p31
V2004
p32
sS'agonists'
p33
g3
((lp34
tp35
Rp36
sS'species'
p37
g3
((lp38
S"(6215, u'(?i)(racers|racer)')"
p39
aS"(6753, u'(?i)(da|das)')"
p40
aS"(2568, u'(?i)(hens|hen)')"
p41
aS"(5958, u'(?i)(rats|rat)')"
p42
aS"(4979, u'(?i)(cats|cat)')"
p43
aS"(1169, u'(?i)(grades|grade)')"
p44
aS"(1055, u'(?i)(men|man)')"
p45
aS"(6249, u'(?i)(ants|ant)')"
p46
aS"(3592, u'(?i)(ravens|raven)')"
p47
aS"(2334, u'(?i)(eels|eel)')"
p48
aS"(853, u'(?i)(minas|mina)')"
p49
aS"(3550, u'(?i)(anis|ani)')"
p50
aS"(6356, u'(?i)(ais|ai)')"
p51
aS"(2809, u'(?i)(toms|tom)')"
p52
atp53
Rp54
sb.