(ifile_types
ParseObject
p0
(dp1
S'methods'
p2
c__builtin__
set
p3
((lp4
S'Method.ANTAGONIST'
p5
aS'Method.AGONIST'
p6
atp7
Rp8
sS'topics'
p9
g3
((lp10
S"(30, u'\\\\bpain')"
p11
atp12
Rp13
sS'receptors'
p14
g3
((lp15
(S'5ht2'
p16
I1133
I1138
tp17
a(S'5ht2'
p18
I1487
I1492
tp19
a(S'5ht2'
p20
I505
I510
tp21
a(S'5ht2'
p22
I311
I316
tp23
a(S'5ht2a'
p24
I1182
I1188
tp25
a(S'5ht2a'
p26
I1655
I1661
tp27
a(S'5ht2'
p28
I1021
I1026
tp29
a(S'5ht2'
p30
I1566
I1571
tp31
a(S'5ht2'
p32
I199
I204
tp33
a(S'5ht2c'
p34
I1251
I1257
tp35
a(S'5ht2'
p36
I43
I48
tp37
a(S'5ht2'
p38
I740
I745
tp39
atp40
Rp41
sS'raw_text_methods'
p42
g3
((lp43
S"(13, u'\\\\bagonist')"
p44
aS"(53, u'\\\\bketanserin')"
p45
aS"(49, u'\\\\bdoi')"
p46
aS"(12, u'\\\\bantagonist')"
p47
atp48
Rp49
sS'regions'
p50
g3
((lp51
tp52
Rp53
sS'year'
p54
V2003
p55
sS'species'
p56
g3
((lp57
S"(4, u'(?i)\\\\b(rats|rat)\\\\b')"
p58
atp59
Rp60
sb.