(ifile_types
ParseObject
p0
(dp1
S'methods'
p2
c__builtin__
set
p3
((lp4
S'Method.ANTAGONIST'
p5
aS'Method.AGONIST'
p6
atp7
Rp8
sS'topics'
p9
g3
((lp10
S"(22, u'\\\\bschizophreni')"
p11
aS"(26, u'\\\\bbehav')"
p12
aS"(23, u'\\\\bantipsychotic')"
p13
aS"(15, u'\\\\bmemory')"
p14
aS"(18, u'\\\\bavoidan')"
p15
aS"(4, u'\\\\btreatment')"
p16
atp17
Rp18
sS'receptors'
p19
g3
((lp20
(S'5ht2a'
p21
I321
I327
tp22
a(S'5ht1a'
p23
I294
I300
tp24
atp25
Rp26
sS'raw_text_methods'
p27
g3
((lp28
tp29
Rp30
sS'regions'
p31
g3
((lp32
tp33
Rp34
sS'year'
p35
V2011
p36
sS'species'
p37
g3
((lp38
S"(1, u'(?i)\\\\b(mice|mouse)\\\\b')"
p39
aS"(5, u'(?i)\\\\b(mices|mice)\\\\b')"
p40
aS"(3, u'(?i)\\\\b(males|male)\\\\b')"
p41
atp42
Rp43
sb.