(ifile_types
ParseObject
p0
(dp1
S'methods'
p2
c__builtin__
set
p3
((lp4
S'Method.ANTAGONIST'
p5
atp6
Rp7
sS'topics'
p8
g3
((lp9
tp10
Rp11
sS'receptors'
p12
g3
((lp13
(S'5ht3'
p14
I481
I486
tp15
a(S'5ht3'
p16
I1339
I1344
tp17
a(S'5ht3'
p18
I248
I253
tp19
a(S'5ht3'
p20
I1412
I1417
tp21
a(S'5ht3'
p22
I662
I667
tp23
a(S'5ht3'
p24
I1254
I1259
tp25
a(S'5ht3'
p26
I408
I413
tp27
atp28
Rp29
sS'raw_text_methods'
p30
g3
((lp31
S"(54, u'\\\\bautoradiography')"
p32
aS"(12, u'\\\\bantagonist')"
p33
atp34
Rp35
sS'regions'
p36
g3
((lp37
S"(19, u'(?i)\\\\b(cortexes|cortex)\\\\b')"
p38
aS"(12, u'(?i)\\\\b(amygdalas|amygdala)\\\\b')"
p39
aS"(23, u'(?i)\\\\b(forebrains|forebrain)\\\\b')"
p40
aS"(14, u'(?i)\\\\b(caudals|caudal)\\\\b')"
p41
atp42
Rp43
sS'year'
p44
V1990
p45
sS'species'
p46
g3
((lp47
S"(1, u'(?i)\\\\b(mice|mouse)\\\\b')"
p48
aS"(6, u'(?i)\\\\b(rodents|rodent)\\\\b')"
p49
aS"(7, u'(?i)\\\\b(guineas|guinea)(-|\\\\s+)?(pigs|pig)\\\\b')"
p50
aS"(4, u'(?i)\\\\b(rats|rat)\\\\b')"
p51
atp52
Rp53
sb.