(ifile_types
ParseObject
p0
(dp1
S'antagonists'
p2
c__builtin__
set
p3
((lp4
S"(135, u'\\\\bondansetron')"
p5
atp6
Rp7
sS'methods'
p8
g3
((lp9
S'Method.ANTAGONIST'
p10
atp11
Rp12
sS'topics'
p13
g3
((lp14
S"(7, u'\\\\bmemory')"
p15
atp16
Rp17
sS'receptors'
p18
g3
((lp19
S'5ht3'
p20
atp21
Rp22
sS'regions'
p23
g3
((lp24
tp25
Rp26
sS'year'
p27
V2016
p28
sS'agonists'
p29
g3
((lp30
S"(155, u'\\\\bmem')"
p31
atp32
Rp33
sS'species'
p34
g3
((lp35
S"(3812, u'(?i)(studs|stud)')"
p36
aS"(6249, u'(?i)(ants|ant)')"
p37
aS"(6356, u'(?i)(ais|ai)')"
p38
aS"(6391, u'(?i)(asses|ass)')"
p39
aS"(6878, u'(?i)(guans|guan)')"
p40
aS"(5497, u'(?i)(fices|fice)')"
p41
aS"(2103, u'(?i)(nesters|nester)')"
p42
aS"(479, u'(?i)(lings|ling)')"
p43
aS"(5967, u'(?i)(males|male)')"
p44
aS"(3550, u'(?i)(anis|ani)')"
p45
aS"(3522, u'(?i)(tetras|tetra)')"
p46
aS"(5537, u'(?i)(hippos|hippo)')"
p47
aS"(5958, u'(?i)(rats|rat)')"
p48
aS"(3137, u'(?i)(iguanids|iguanid)')"
p49
aS"(163, u'(?i)(mice|mouse)')"
p50
aS"(6682, u'(?i)(tera|teras)')"
p51
aS"(1055, u'(?i)(men|man)')"
p52
aS"(6753, u'(?i)(da|das)')"
p53
aS"(1961, u'(?i)(pens|pen)')"
p54
aS"(2568, u'(?i)(hens|hen)')"
p55
aS"(4663, u'(?i)(nags|nag)')"
p56
aS"(3726, u'(?i)(mates|mate)')"
p57
atp58
Rp59
sb.