(ifile_types
ParseObject
p0
(dp1
S'methods'
p2
c__builtin__
set
p3
((lp4
S'Method.AGONIST'
p5
atp6
Rp7
sS'topics'
p8
g3
((lp9
S"(7, u'\\\\bdepressi')"
p10
aS"(33, u'\\\\blocomot')"
p11
atp12
Rp13
sS'receptors'
p14
g3
((lp15
(S'5ht1a'
p16
I406
I412
tp17
atp18
Rp19
sS'raw_text_methods'
p20
g3
((lp21
S"(13, u'\\\\bagonist')"
p22
aS"(32, u'\\\\blesions')"
p23
atp24
Rp25
sS'regions'
p26
g3
((lp27
S"(15, u'(?i)\\\\b(substantias|substantia)(-|\\\\s+)?(nigras|nigra)\\\\b')"
p28
aS"(3, u'(?i)\\\\b(postsynaptics|postsynaptic)\\\\b')"
p29
atp30
Rp31
sS'year'
p32
V1996
p33
sS'species'
p34
g3
((lp35
S"(1, u'(?i)\\\\b(mice|mouse)\\\\b')"
p36
aS"(5, u'(?i)\\\\b(mices|mice)\\\\b')"
p37
aS"(4, u'(?i)\\\\b(rats|rat)\\\\b')"
p38
atp39
Rp40
sb.