(ifile_types
ParseObject
p0
(dp1
S'antagonists'
p2
c__builtin__
set
p3
((lp4
tp5
Rp6
sS'methods'
p7
g3
((lp8
S'Method.PET'
p9
aS'Method.ANTAGONIST'
p10
atp11
Rp12
sS'topics'
p13
g3
((lp14
tp15
Rp16
sS'receptors'
p17
g3
((lp18
S'5ht1a'
p19
atp20
Rp21
sS'regions'
p22
g3
((lp23
S"(257, u'(?i)(dorsolaterals|dorsolateral)(-|\\\\s+)?(prefrontals|prefrontal)(-|\\\\s+)?(cortexes|cortex)')"
p24
aS"(254, u'(?i)(prefrontals|prefrontal)(-|\\\\s+)?(cortexes|cortex)')"
p25
aS"(318, u'(?i)(raphes|raphe)(-|\\\\s+)?(nuclei|nucleus)')"
p26
aS"(255, u'(?i)(pres|pre)(-|\\\\s+)?(frontals|frontal)(-|\\\\s+)?(cortexes|cortex)')"
p27
atp28
Rp29
sS'year'
p30
V2005
p31
sS'agonists'
p32
g3
((lp33
tp34
Rp35
sS'species'
p36
g3
((lp37
S"(5537, u'(?i)(hippos|hippo)')"
p38
aS"(6753, u'(?i)(da|das)')"
p39
aS"(5958, u'(?i)(rats|rat)')"
p40
aS"(3767, u'(?i)(olms|olm)')"
p41
aS"(6682, u'(?i)(tera|teras)')"
p42
aS"(468, u'(?i)(oxen|ox)')"
p43
aS"(1055, u'(?i)(men|man)')"
p44
aS"(6249, u'(?i)(ants|ant)')"
p45
aS"(1054, u'(?i)(homoes|homo)')"
p46
aS"(4979, u'(?i)(cats|cat)')"
p47
aS"(7094, u'(?i)(curs|cur)')"
p48
aS"(3550, u'(?i)(anis|ani)')"
p49
aS"(5301, u'(?i)(stocks|stock)')"
p50
aS"(3812, u'(?i)(studs|stud)')"
p51
aS"(6391, u'(?i)(asses|ass)')"
p52
aS"(2809, u'(?i)(toms|tom)')"
p53
aS"(6356, u'(?i)(ais|ai)')"
p54
atp55
Rp56
sb.