(ifile_types
ParseObject
p0
(dp1
S'antagonists'
p2
c__builtin__
set
p3
((lp4
S"(26, u'\\\\bspiperone')"
p5
aS"(124, u'\\\\bondansetron')"
p6
aS"(125, u'\\\\btropisetron')"
p7
aS"(117, u'\\\\bketanserin')"
p8
atp9
Rp10
sS'methods'
p11
g3
((lp12
S'Method.ANTAGONIST'
p13
aS'Method.AGONIST'
p14
atp15
Rp16
sS'topics'
p17
g3
((lp18
tp19
Rp20
sS'receptors'
p21
g3
((lp22
S'5ht1a'
p23
aS'5ht3'
p24
atp25
Rp26
sS'regions'
p27
g3
((lp28
S"(248, u'(?i)\\\\b(cerebrals|cerebral)(-|\\\\s+)?(cortexes|cortex)\\\\b')"
p29
atp30
Rp31
sS'year'
p32
V1992
p33
sS'agonists'
p34
g3
((lp35
tp36
Rp37
sS'species'
p38
g3
((lp39
S"(1057, u'(?i)\\\\b(humans|human)\\\\b')"
p40
aS"(3196, u'(?i)\\\\b(human|humans)\\\\b')"
p41
atp42
Rp43
sb.