(ifile_types
ParseObject
p0
(dp1
S'antagonists'
p2
c__builtin__
set
p3
((lp4
S"(5, u'\\\\bcyanopindolol')"
p5
aS"(43, u'\\\\bgr ?127935')"
p6
aS"(14, u'\\\\bmethiothepin')"
p7
aS"(31, u'\\\\bway ?100635')"
p8
atp9
Rp10
sS'methods'
p11
g3
((lp12
S'Method.STIMULATION'
p13
aS'Method.ANTAGONIST'
p14
aS'Method.AGONIST'
p15
atp16
Rp17
sS'topics'
p18
g3
((lp19
tp20
Rp21
sS'receptors'
p22
g3
((lp23
S'5ht1b'
p24
aS'5ht1a'
p25
aS'5ht2c'
p26
aS'5ht1'
p27
aS'5ht1d'
p28
atp29
Rp30
sS'regions'
p31
g3
((lp32
tp33
Rp34
sS'year'
p35
V1998
p36
sS'agonists'
p37
g3
((lp38
S"(96, u'\\\\bsumatriptan')"
p39
aS"(100, u'\\\\bcp ?93129')"
p40
aS"(155, u'\\\\bmcpp')"
p41
aS"(114, u'\\\\bl ?694247')"
p42
aS"(98, u'\\\\b5 ?carboxamidotryptamine')"
p43
aS"(85, u'\\\\b8 ?oh ?dpat')"
p44
aS"(219, u'\\\\b5 ?ct')"
p45
atp46
Rp47
sS'species'
p48
g3
((lp49
S"(5958, u'(?i)\\\\b(rats|rat)\\\\b')"
p50
atp51
Rp52
sb.