(ifile_types
ParseObject
p0
(dp1
S'methods'
p2
c__builtin__
set
p3
((lp4
tp5
Rp6
sS'topics'
p7
g3
((lp8
S"(13, u'\\\\bantidepress')"
p9
atp10
Rp11
sS'receptors'
p12
g3
((lp13
(S'5ht3'
p14
I745
I750
tp15
a(S'5ht2'
p16
I735
I740
tp17
atp18
Rp19
sS'raw_text_methods'
p20
g3
((lp21
S"(38, u'\\\\bssri')"
p22
aS"(39, u'\\\\bselective serotonin reuptake inhibitor')"
p23
atp24
Rp25
sS'regions'
p26
g3
((lp27
tp28
Rp29
sS'year'
p30
V1997
p31
sS'species'
p32
g3
((lp33
tp34
Rp35
sb.