(ifile_types
ParseObject
p0
(dp1
S'antagonists'
p2
c__builtin__
set
p3
((lp4
S"(35, u'\\\\baripiprazole')"
p5
aS"(134, u'\\\\bmirtazapine')"
p6
atp7
Rp8
sS'methods'
p9
g3
((lp10
S'Method.ANTAGONIST'
p11
aS'Method.AGONIST'
p12
atp13
Rp14
sS'topics'
p15
g3
((lp16
tp17
Rp18
sS'receptors'
p19
g3
((lp20
S'5ht1a'
p21
aS'5ht2a'
p22
atp23
Rp24
sS'regions'
p25
g3
((lp26
tp27
Rp28
sS'year'
p29
V2009
p30
sS'agonists'
p31
g3
((lp32
S"(223, u'\\\\baripiprazole')"
p33
atp34
Rp35
sS'species'
p36
g3
((lp37
tp38
Rp39
sb.