(ifile_types
ParseObject
p0
(dp1
S'methods'
p2
c__builtin__
set
p3
((lp4
S'Method.KNOCKOUT'
p5
aS'Method.ANTAGONIST'
p6
atp7
Rp8
sS'topics'
p9
g3
((lp10
S"(3, u'\\\\bclinical')"
p11
atp12
Rp13
sS'receptors'
p14
g3
((lp15
(S'5ht2a'
p16
I1460
I1466
tp17
atp18
Rp19
sS'raw_text_methods'
p20
g3
((lp21
S"(53, u'\\\\bketanserin')"
p22
aS"(17, u'\\\\bpet')"
p23
aS"(12, u'\\\\bantagonist')"
p24
atp25
Rp26
sS'regions'
p27
g3
((lp28
tp29
Rp30
sS'year'
p31
V2013
p32
sS'species'
p33
g3
((lp34
S"(1, u'(?i)\\\\b(mice|mouse)\\\\b')"
p35
aS"(5, u'(?i)\\\\b(mices|mice)\\\\b')"
p36
atp37
Rp38
sb.