(ifile_types
ParseObject
p0
(dp1
S'methods'
p2
c__builtin__
set
p3
((lp4
S'Method.ANTAGONIST'
p5
atp6
Rp7
sS'topics'
p8
g3
((lp9
S"(26, u'\\\\bbehav')"
p10
aS"(33, u'\\\\blocomot')"
p11
aS"(17, u'\\\\balzheimer')"
p12
atp13
Rp14
sS'receptors'
p15
g3
((lp16
(S'5ht2a'
p17
I915
I921
tp18
atp19
Rp20
sS'raw_text_methods'
p21
g3
((lp22
S"(53, u'\\\\bketanserin')"
p23
aS"(41, u'\\\\bhaloperidol')"
p24
aS"(12, u'\\\\bantagonist')"
p25
atp26
Rp27
sS'regions'
p28
g3
((lp29
S"(23, u'(?i)\\\\b(forebrains|forebrain)\\\\b')"
p30
atp31
Rp32
sS'year'
p33
V2009
p34
sS'species'
p35
g3
((lp36
S"(1, u'(?i)\\\\b(mice|mouse)\\\\b')"
p37
aS"(5, u'(?i)\\\\b(mices|mice)\\\\b')"
p38
atp39
Rp40
sb.