(ifile_types
ParseObject
p0
(dp1
S'antagonists'
p2
c__builtin__
set
p3
((lp4
S"(21, u'\\\\bpindolol')"
p5
aS"(117, u'\\\\bketanserin')"
p6
aS"(22, u'\\\\bpropranolol')"
p7
aS"(203, u'\\\\btfmpp')"
p8
aS"(193, u'\\\\bmesulergine')"
p9
aS"(17, u'\\\\bnan ?190')"
p10
aS"(119, u'\\\\britanserin')"
p11
atp12
Rp13
sS'methods'
p14
g3
((lp15
S'Method.ANTAGONIST'
p16
aS'Method.AGONIST'
p17
atp18
Rp19
sS'topics'
p20
g3
((lp21
S"(8, u'\\\\blearning')"
p22
atp23
Rp24
sS'receptors'
p25
g3
((lp26
S'5ht1b'
p27
aS'5ht2c'
p28
aS'5ht2a'
p29
atp30
Rp31
sS'regions'
p32
g3
((lp33
tp34
Rp35
sS'year'
p36
V1997
p37
sS'agonists'
p38
g3
((lp39
S"(165, u'\\\\bmesulergine')"
p40
aS"(178, u'\\\\btfmpp')"
p41
aS"(155, u'\\\\bmcpp')"
p42
aS"(175, u'\\\\bdoi')"
p43
atp44
Rp45
sS'species'
p46
g3
((lp47
S"(5958, u'(?i)\\\\b(rats|rat)\\\\b')"
p48
atp49
Rp50
sb.