(ifile_types
ParseObject
p0
(dp1
S'antagonists'
p2
c__builtin__
set
p3
((lp4
tp5
Rp6
sS'methods'
p7
g3
((lp8
S'Method.PET'
p9
atp10
Rp11
sS'topics'
p12
g3
((lp13
tp14
Rp15
sS'receptors'
p16
g3
((lp17
tp18
Rp19
sS'regions'
p20
g3
((lp21
tp22
Rp23
sS'year'
p24
V2016
p25
sS'agonists'
p26
g3
((lp27
tp28
Rp29
sS'species'
p30
g3
((lp31
S"(1070, u'(?i)(pets|pet)')"
p32
aS"(2323, u'(?i)(bees|bee)')"
p33
aS"(6753, u'(?i)(da|das)')"
p34
aS"(5958, u'(?i)(rats|rat)')"
p35
aS"(4201, u'(?i)(kines|kine)')"
p36
aS"(479, u'(?i)(lings|ling)')"
p37
aS"(468, u'(?i)(oxen|ox)')"
p38
aS"(1055, u'(?i)(men|man)')"
p39
aS"(4604, u'(?i)(mites|mite)')"
p40
aS"(6580, u'(?i)(dams|dam)')"
p41
aS"(6215, u'(?i)(racers|racer)')"
p42
aS"(4979, u'(?i)(cats|cat)')"
p43
aS"(7094, u'(?i)(curs|cur)')"
p44
aS"(1291, u'(?i)(ratels|ratel)')"
p45
aS"(6356, u'(?i)(ais|ai)')"
p46
aS"(2809, u'(?i)(toms|tom)')"
p47
aS"(5743, u'(?i)(bots|bot)')"
p48
atp49
Rp50
sb.