(ifile_types
ParseObject
p0
(dp1
S'methods'
p2
c__builtin__
set
p3
((lp4
S'Method.PET'
p5
atp6
Rp7
sS'topics'
p8
g3
((lp9
tp10
Rp11
sS'receptors'
p12
g3
((lp13
(S'5ht3'
p14
I142
I147
tp15
a(S'5ht3'
p16
I530
I535
tp17
a(S'5ht3'
p18
I1531
I1536
tp19
a(S'5ht3'
p20
I232
I237
tp21
a(S'5ht3'
p22
I1245
I1250
tp23
atp24
Rp25
sS'raw_text_methods'
p26
g3
((lp27
S"(17, u'\\\\bpet')"
p28
aS"(18, u'\\\\bimaging')"
p29
atp30
Rp31
sS'regions'
p32
g3
((lp33
S"(9, u'(?i)\\\\b(cerebellums|cerebellum)\\\\b')"
p34
atp35
Rp36
sS'year'
p37
V2016
p38
sS'species'
p39
g3
((lp40
S"(4, u'(?i)\\\\b(rats|rat)\\\\b')"
p41
atp42
Rp43
sb.