(ifile_types
ParseObject
p0
(dp1
S'methods'
p2
c__builtin__
set
p3
((lp4
S'Method.PET'
p5
atp6
Rp7
sS'topics'
p8
g3
((lp9
S"(1, u'\\\\bpatient')"
p10
aS"(2, u'\\\\bdisorder')"
p11
atp12
Rp13
sS'receptors'
p14
g3
((lp15
(S'5ht2a'
p16
I50
I56
tp17
a(S'5ht2a'
p18
I1745
I1751
tp19
a(S'5ht2a'
p20
I329
I335
tp21
atp22
Rp23
sS'raw_text_methods'
p24
g3
((lp25
S"(53, u'\\\\bketanserin')"
p26
aS"(17, u'\\\\bpet')"
p27
atp28
Rp29
sS'regions'
p30
g3
((lp31
S"(11, u'(?i)\\\\b(cerebrals|cerebral)\\\\b')"
p32
aS"(9, u'(?i)\\\\b(cerebellums|cerebellum)\\\\b')"
p33
atp34
Rp35
sS'year'
p36
V2003
p37
sS'species'
p38
g3
((lp39
tp40
Rp41
sb.