(ifile_types
ParseObject
p0
(dp1
S'antagonists'
p2
c__builtin__
set
p3
((lp4
tp5
Rp6
sS'methods'
p7
g3
((lp8
S'Method.PET'
p9
atp10
Rp11
sS'topics'
p12
g3
((lp13
tp14
Rp15
sS'receptors'
p16
g3
((lp17
S'5ht1b'
p18
atp19
Rp20
sS'regions'
p21
g3
((lp22
S"(223, u'(?i)(putamens|putamen)')"
p23
aS"(209, u'(?i)(amygdalas|amygdala)')"
p24
aS"(291, u'(?i)(cingulates|cingulate)(-|\\\\s+)?(cortexes|cortex)')"
p25
aS"(292, u'(?i)(anteriors|anterior)(-|\\\\s+)?(cingulates|cingulate)')"
p26
aS"(126, u'(?i)(thalamuses|thalamus)')"
p27
aS"(225, u'(?i)(ventrals|ventral)(-|\\\\s+)?(striatums|striatum)')"
p28
aS"(220, u'(?i)(striatums|striatum)')"
p29
atp30
Rp31
sS'year'
p32
V2014
p33
sS'agonists'
p34
g3
((lp35
tp36
Rp37
sS'species'
p38
g3
((lp39
S"(2809, u'(?i)(toms|tom)')"
p40
aS"(6753, u'(?i)(da|das)')"
p41
aS"(4177, u'(?i)(grays|gray)')"
p42
aS"(468, u'(?i)(oxen|ox)')"
p43
aS"(1349, u'(?i)(rams|ram)')"
p44
aS"(7094, u'(?i)(curs|cur)')"
p45
aS"(1055, u'(?i)(men|man)')"
p46
aS"(6215, u'(?i)(racers|racer)')"
p47
aS"(4979, u'(?i)(cats|cat)')"
p48
aS"(6249, u'(?i)(ants|ant)')"
p49
aS"(1057, u'(?i)(humans|human)')"
p50
aS"(1961, u'(?i)(pens|pen)')"
p51
aS"(3812, u'(?i)(studs|stud)')"
p52
aS"(3196, u'(?i)(human|humans)')"
p53
aS"(391, u'(?i)(alli|allis)')"
p54
aS"(2665, u'(?i)(rays|ray)')"
p55
aS"(6325, u'(?i)(caudates|caudate)')"
p56
aS"(6356, u'(?i)(ais|ai)')"
p57
atp58
Rp59
sb.