(ifile_types
ParseObject
p0
(dp1
S'methods'
p2
c__builtin__
set
p3
((lp4
S'Method.ANTAGONIST'
p5
atp6
Rp7
sS'topics'
p8
g3
((lp9
S"(14, u'\\\\bcogniti')"
p10
aS"(26, u'\\\\bbehav')"
p11
aS"(2, u'\\\\bdisorder')"
p12
aS"(13, u'\\\\bantidepress')"
p13
aS"(9, u'\\\\bstress')"
p14
aS"(4, u'\\\\btreatment')"
p15
atp16
Rp17
sS'receptors'
p18
g3
((lp19
(S'5ht7'
p20
I319
I324
tp21
a(S'5ht7'
p22
I225
I230
tp23
a(S'5ht7'
p24
I45
I50
tp25
a(S'5ht7'
p26
I790
I795
tp27
a(S'5ht7'
p28
I910
I915
tp29
a(S'5ht7'
p30
I1566
I1571
tp31
atp32
Rp33
sS'raw_text_methods'
p34
g3
((lp35
S"(12, u'\\\\bantagonist')"
p36
atp37
Rp38
sS'regions'
p39
g3
((lp40
S"(20, u'(?i)\\\\b(prefrontals|prefrontal)\\\\b')"
p41
aS"(19, u'(?i)\\\\b(cortexes|cortex)\\\\b')"
p42
atp43
Rp44
sS'year'
p45
V2012
p46
sS'species'
p47
g3
((lp48
S"(4, u'(?i)\\\\b(rats|rat)\\\\b')"
p49
atp50
Rp51
sb.