(ifile_types
ParseObject
p0
(dp1
S'methods'
p2
c__builtin__
set
p3
((lp4
S'Method.STIMULATION'
p5
aS'Method.ANTAGONIST'
p6
aS'Method.AGONIST'
p7
atp8
Rp9
sS'topics'
p10
g3
((lp11
tp12
Rp13
sS'receptors'
p14
g3
((lp15
(S'5ht1'
p16
I1119
I1124
tp17
a(S'5ht1a'
p18
I1059
I1065
tp19
a(S'5ht1b'
p20
I1447
I1453
tp21
a(S'5ht1d'
p22
I1431
I1437
tp23
a(S'5ht1a'
p24
I1582
I1588
tp25
a(S'5ht1'
p26
I1447
I1453
tp27
a(S'5ht1d'
p28
I128
I134
tp29
a(S'5ht1'
p30
I1431
I1437
tp31
a(S'5ht1d'
p32
I1935
I1941
tp33
atp34
Rp35
sS'raw_text_methods'
p36
g3
((lp37
S"(13, u'\\\\bagonist')"
p38
aS"(7, u'\\\\bpropranolol')"
p39
aS"(12, u'\\\\bantagonist')"
p40
atp41
Rp42
sS'regions'
p43
g3
((lp44
tp45
Rp46
sS'year'
p47
V1996
p48
sS'species'
p49
g3
((lp50
S"(4, u'(?i)\\\\b(rats|rat)\\\\b')"
p51
atp52
Rp53
sb.