(ifile_types
ParseObject
p0
(dp1
S'antagonists'
p2
c__builtin__
set
p3
((lp4
S"(95, u'\\\\bsb ?206553')"
p5
atp6
Rp7
sS'methods'
p8
g3
((lp9
S'Method.ANTAGONIST'
p10
atp11
Rp12
sS'topics'
p13
g3
((lp14
S"(18, u'\\\\bpsychostim')"
p15
atp16
Rp17
sS'receptors'
p18
g3
((lp19
S'5ht5'
p20
aS'5ht2b'
p21
aS'5ht2c'
p22
atp23
Rp24
sS'regions'
p25
g3
((lp26
S"(34, u'(?i)(pon|pons)')"
p27
atp28
Rp29
sS'year'
p30
V1999
p31
sS'agonists'
p32
g3
((lp33
tp34
Rp35
sS'species'
p36
g3
((lp37
S"(2323, u'(?i)(bees|bee)')"
p38
aS"(6249, u'(?i)(ants|ant)')"
p39
aS"(6753, u'(?i)(da|das)')"
p40
aS"(1055, u'(?i)(men|man)')"
p41
aS"(4979, u'(?i)(cats|cat)')"
p42
aS"(1961, u'(?i)(pens|pen)')"
p43
aS"(3812, u'(?i)(studs|stud)')"
p44
aS"(6356, u'(?i)(ais|ai)')"
p45
atp46
Rp47
sb.