(ifile_types
ParseObject
p0
(dp1
S'antagonists'
p2
c__builtin__
set
p3
((lp4
tp5
Rp6
sS'methods'
p7
g3
((lp8
tp9
Rp10
sS'topics'
p11
g3
((lp12
S"(1, u'\\\\bmood')"
p13
atp14
Rp15
sS'receptors'
p16
g3
((lp17
S'5ht1a'
p18
atp19
Rp20
sS'regions'
p21
g3
((lp22
S"(362, u'(?i)(brains|brain)(-|\\\\s+)?(stems|stem)')"
p23
aS"(34, u'(?i)(pon|pons)')"
p24
atp25
Rp26
sS'year'
p27
V2015
p28
sS'agonists'
p29
g3
((lp30
tp31
Rp32
sS'species'
p33
g3
((lp34
S"(2323, u'(?i)(bees|bee)')"
p35
aS"(4624, u'(?i)(apes|ape)')"
p36
aS"(5958, u'(?i)(rats|rat)')"
p37
aS"(6356, u'(?i)(ais|ai)')"
p38
aS"(6753, u'(?i)(da|das)')"
p39
aS"(4163, u'(?i)(ermines|ermine)')"
p40
aS"(1725, u'(?i)(clams|clam)')"
p41
aS"(468, u'(?i)(oxen|ox)')"
p42
aS"(1055, u'(?i)(men|man)')"
p43
aS"(7488, u'(?i)(molas|mola)')"
p44
aS"(853, u'(?i)(minas|mina)')"
p45
aS"(6249, u'(?i)(ants|ant)')"
p46
aS"(1414, u'(?i)(chars|char)')"
p47
aS"(6391, u'(?i)(asses|ass)')"
p48
aS"(821, u'(?i)(lice|louse)')"
p49
atp50
Rp51
sb.