(ifile_types
ParseObject
p0
(dp1
S'methods'
p2
c__builtin__
set
p3
((lp4
S'Method.ANTAGONIST'
p5
atp6
Rp7
sS'topics'
p8
g3
((lp9
S"(15, u'\\\\bmemory')"
p10
atp11
Rp12
sS'receptors'
p13
g3
((lp14
(S'5ht3'
p15
I58
I63
tp16
a(S'5ht3'
p17
I633
I638
tp18
a(S'5ht3'
p19
I1353
I1358
tp20
atp21
Rp22
sS'raw_text_methods'
p23
g3
((lp24
S"(12, u'\\\\bantagonist')"
p25
atp26
Rp27
sS'regions'
p28
g3
((lp29
tp30
Rp31
sS'year'
p32
V1997
p33
sS'species'
p34
g3
((lp35
S"(4, u'(?i)\\\\b(rats|rat)\\\\b')"
p36
atp37
Rp38
sb.