(ifile_types
ParseObject
p0
(dp1
S'methods'
p2
c__builtin__
set
p3
((lp4
S'Method.AGONIST'
p5
atp6
Rp7
sS'topics'
p8
g3
((lp9
tp10
Rp11
sS'receptors'
p12
g3
((lp13
(S'5ht1a'
p14
I625
I631
tp15
a(S'5ht1'
p16
I75
I80
tp17
a(S'5ht3'
p18
I847
I852
tp19
a(S'5ht2'
p20
I694
I699
tp21
a(S'5ht1a'
p22
I570
I576
tp23
a(S'5ht2'
p24
I1106
I1111
tp25
a(S'5ht1b'
p26
I636
I642
tp27
a(S'5ht1'
p28
I1314
I1319
tp29
a(S'5ht1'
p30
I570
I576
tp31
a(S'5ht2'
p32
I1154
I1159
tp33
a(S'5ht2'
p34
I85
I90
tp35
atp36
Rp37
sS'raw_text_methods'
p38
g3
((lp39
S"(13, u'\\\\bagonist')"
p40
aS"(53, u'\\\\bketanserin')"
p41
aS"(49, u'\\\\bdoi')"
p42
atp43
Rp44
sS'regions'
p45
g3
((lp46
tp47
Rp48
sS'year'
p49
V1999
p50
sS'species'
p51
g3
((lp52
S"(4, u'(?i)\\\\b(rats|rat)\\\\b')"
p53
atp54
Rp55
sb.