(ifile_types
ParseObject
p0
(dp1
S'antagonists'
p2
c__builtin__
set
p3
((lp4
S"(30, u'\\\\bway ?100135')"
p5
aS"(43, u'\\\\bgr ?127935')"
p6
atp7
Rp8
sS'methods'
p9
g3
((lp10
S'Method.ANTAGONIST'
p11
aS'Method.AGONIST'
p12
atp13
Rp14
sS'topics'
p15
g3
((lp16
tp17
Rp18
sS'receptors'
p19
g3
((lp20
S'5ht1a'
p21
aS'5ht4'
p22
aS'5ht2c'
p23
aS'5ht2a'
p24
aS'5ht1d'
p25
aS'5ht7b'
p26
aS'5ht1f'
p27
atp28
Rp29
sS'regions'
p30
g3
((lp31
tp32
Rp33
sS'year'
p34
V1996
p35
sS'agonists'
p36
g3
((lp37
S"(219, u'\\\\b5 ?ct')"
p38
atp39
Rp40
sS'species'
p41
g3
((lp42
S"(5799, u'(?i)\\\\b(rodents|rodent)\\\\b')"
p43
aS"(7540, u'(?i)\\\\b(mammalians|mammalian)\\\\b')"
p44
aS"(3062, u'(?i)\\\\b(guineas|guinea)\\\\b')"
p45
aS"(2401, u'(?i)\\\\b(primates|primate)\\\\b')"
p46
aS"(2341, u'(?i)\\\\b(monkeys|monkey)\\\\b')"
p47
aS"(3196, u'(?i)\\\\b(human|humans)\\\\b')"
p48
aS"(1057, u'(?i)\\\\b(humans|human)\\\\b')"
p49
aS"(3051, u'(?i)\\\\b(pigs|pig)\\\\b')"
p50
aS"(4480, u'(?i)\\\\b(guineas|guinea)(-|\\\\s+)?(pigs|pig)\\\\b')"
p51
aS"(5958, u'(?i)\\\\b(rats|rat)\\\\b')"
p52
atp53
Rp54
sb.