(ifile_types
ParseObject
p0
(dp1
S'antagonists'
p2
c__builtin__
set
p3
((lp4
S"(5, u'\\\\bcyanopindolol')"
p5
aS"(53, u'\\\\bketanserin')"
p6
aS"(52, u'\\\\bmetergoline')"
p7
aS"(21, u'\\\\bpindolol')"
p8
aS"(9, u'\\\\bgr ?46611')"
p9
aS"(128, u'\\\\bketanserin')"
p10
aS"(35, u'\\\\bmetergoline')"
p11
aS"(39, u'\\\\bsb ?224289')"
p12
aS"(45, u'\\\\bgr ?127935')"
p13
atp14
Rp15
sS'methods'
p16
g3
((lp17
S'Method.ANTAGONIST'
p18
aS'Method.AGONIST'
p19
atp20
Rp21
sS'topics'
p22
g3
((lp23
tp24
Rp25
sS'receptors'
p26
g3
((lp27
S'5ht1b'
p28
aS'5ht5'
p29
aS'5ht1'
p30
aS'5ht1d'
p31
atp32
Rp33
sS'regions'
p34
g3
((lp35
S"(34, u'(?i)(pon|pons)')"
p36
atp37
Rp38
sS'year'
p39
V2002
p40
sS'agonists'
p41
g3
((lp42
S"(103, u'\\\\bsumatriptan')"
p43
aS"(74, u'\\\\bru ?24969')"
p44
aS"(105, u'\\\\b5 ?carboxamidotryptamine')"
p45
aS"(5, u'\\\\b5 ?ct')"
p46
aS"(107, u'\\\\bcp ?93129')"
p47
aS"(119, u'\\\\bgr ?46611')"
p48
aS"(115, u'\\\\bpnu ?109291')"
p49
aS"(29, u'\\\\bdihydroergotamine')"
p50
aS"(121, u'\\\\bl ?694247')"
p51
atp52
Rp53
sS'species'
p54
g3
((lp55
S"(4163, u'(?i)(ermines|ermine)')"
p56
aS"(3404, u'(?i)(titis|titi)')"
p57
aS"(6356, u'(?i)(ais|ai)')"
p58
aS"(6249, u'(?i)(ants|ant)')"
p59
aS"(6391, u'(?i)(asses|ass)')"
p60
aS"(3812, u'(?i)(studs|stud)')"
p61
aS"(3196, u'(?i)(human|humans)')"
p62
aS"(1070, u'(?i)(pets|pet)')"
p63
aS"(931, u'(?i)(divers|diver)')"
p64
aS"(479, u'(?i)(lings|ling)')"
p65
aS"(468, u'(?i)(oxen|ox)')"
p66
aS"(3062, u'(?i)(guineas|guinea)')"
p67
aS"(3522, u'(?i)(tetras|tetra)')"
p68
aS"(5958, u'(?i)(rats|rat)')"
p69
aS"(3527, u'(?i)(permits|permit)')"
p70
aS"(867, u'(?i)(tits|tit)')"
p71
aS"(1055, u'(?i)(men|man)')"
p72
aS"(853, u'(?i)(minas|mina)')"
p73
aS"(1057, u'(?i)(humans|human)')"
p74
aS"(1414, u'(?i)(chars|char)')"
p75
aS"(4480, u'(?i)(guineas|guinea)(-|\\\\s+)?(pigs|pig)')"
p76
aS"(2323, u'(?i)(bees|bee)')"
p77
aS"(2568, u'(?i)(hens|hen)')"
p78
aS"(6753, u'(?i)(da|das)')"
p79
aS"(3051, u'(?i)(pigs|pig)')"
p80
aS"(1054, u'(?i)(homoes|homo)')"
p81
aS"(4964, u'(?i)(serins|serin)')"
p82
atp83
Rp84
sb.