(ifile_types
ParseObject
p0
(dp1
S'methods'
p2
c__builtin__
set
p3
((lp4
S'Method.AGONIST'
p5
atp6
Rp7
sS'topics'
p8
g3
((lp9
tp10
Rp11
sS'receptors'
p12
g3
((lp13
(S'5ht1b'
p14
I206
I212
tp15
a(S'5ht1'
p16
I161
I166
tp17
atp18
Rp19
sS'raw_text_methods'
p20
g3
((lp21
S"(13, u'\\\\bagonist')"
p22
aS"(46, u'\\\\bspiperone')"
p23
aS"(21, u'\\\\bipsapirone')"
p24
aS"(22, u'\\\\bbuspirone')"
p25
atp26
Rp27
sS'regions'
p28
g3
((lp29
tp30
Rp31
sS'year'
p32
V1992
p33
sS'species'
p34
g3
((lp35
tp36
Rp37
sb.