(ifile_types
ParseObject
p0
(dp1
S'methods'
p2
c__builtin__
set
p3
((lp4
S'Method.ANTAGONIST'
p5
aS'Method.AGONIST'
p6
atp7
Rp8
sS'topics'
p9
g3
((lp10
S"(24, u'\\\\banxiolytic')"
p11
aS"(8, u'\\\\banxi')"
p12
aS"(23, u'\\\\bantipsychotic')"
p13
aS"(2, u'\\\\bdisorder')"
p14
atp15
Rp16
sS'receptors'
p17
g3
((lp18
(S'5ht1a'
p19
I1390
I1396
tp20
a(S'5ht1a'
p21
I53
I59
tp22
a(S'5ht1a'
p23
I1234
I1240
tp24
a(S'5ht1a'
p25
I767
I773
tp26
a(S'5ht1a'
p27
I258
I264
tp28
atp29
Rp30
sS'raw_text_methods'
p31
g3
((lp32
S"(13, u'\\\\bagonist')"
p33
aS"(41, u'\\\\bhaloperidol')"
p34
aS"(12, u'\\\\bantagonist')"
p35
atp36
Rp37
sS'regions'
p38
g3
((lp39
S"(23, u'(?i)\\\\b(forebrains|forebrain)\\\\b')"
p40
atp41
Rp42
sS'year'
p43
V2009
p44
sS'species'
p45
g3
((lp46
S"(1, u'(?i)\\\\b(mice|mouse)\\\\b')"
p47
aS"(5, u'(?i)\\\\b(mices|mice)\\\\b')"
p48
atp49
Rp50
sb.