(ifile_types
ParseObject
p0
(dp1
S'antagonists'
p2
c__builtin__
set
p3
((lp4
S"(102, u'\\\\bfluoxetine')"
p5
aS"(45, u'\\\\bgr ?127935')"
p6
atp7
Rp8
sS'methods'
p9
g3
((lp10
S'Method.ANTAGONIST'
p11
atp12
Rp13
sS'topics'
p14
g3
((lp15
tp16
Rp17
sS'receptors'
p18
g3
((lp19
S'5ht1b'
p20
aS'5ht5'
p21
aS'5ht6'
p22
aS'5ht1d'
p23
atp24
Rp25
sS'regions'
p26
g3
((lp27
S"(254, u'(?i)(prefrontals|prefrontal)(-|\\\\s+)?(cortexes|cortex)')"
p28
aS"(255, u'(?i)(pres|pre)(-|\\\\s+)?(frontals|frontal)(-|\\\\s+)?(cortexes|cortex)')"
p29
atp30
Rp31
sS'year'
p32
V1999
p33
sS'agonists'
p34
g3
((lp35
S"(6, u'\\\\b5 ?mt')"
p36
atp37
Rp38
sS'species'
p39
g3
((lp40
S"(2568, u'(?i)(hens|hen)')"
p41
aS"(6682, u'(?i)(tera|teras)')"
p42
aS"(468, u'(?i)(oxen|ox)')"
p43
aS"(1055, u'(?i)(men|man)')"
p44
aS"(6249, u'(?i)(ants|ant)')"
p45
aS"(6356, u'(?i)(ais|ai)')"
p46
aS"(5958, u'(?i)(rats|rat)')"
p47
aS"(1961, u'(?i)(pens|pen)')"
p48
aS"(1414, u'(?i)(chars|char)')"
p49
aS"(6391, u'(?i)(asses|ass)')"
p50
aS"(1628, u'(?i)(cod|cod)')"
p51
aS"(5949, u'(?i)(dogs|dog)')"
p52
atp53
Rp54
sb.