(ifile_types
ParseObject
p0
(dp1
S'methods'
p2
c__builtin__
set
p3
((lp4
tp5
Rp6
sS'topics'
p7
g3
((lp8
S"(14, u'\\\\bcogniti')"
p9
aS"(4, u'\\\\btreatment')"
p10
aS"(2, u'\\\\bdisorder')"
p11
atp12
Rp13
sS'receptors'
p14
g3
((lp15
(S'5ht6'
p16
I706
I711
tp17
a(S'5ht6'
p18
I143
I148
tp19
a(S'5ht6'
p20
I613
I618
tp21
a(S'5ht6'
p22
I273
I278
tp23
atp24
Rp25
sS'raw_text_methods'
p26
g3
((lp27
tp28
Rp29
sS'regions'
p30
g3
((lp31
tp32
Rp33
sS'year'
p34
V2012
p35
sS'species'
p36
g3
((lp37
tp38
Rp39
sb.