(ifile_types
ParseObject
p0
(dp1
S'antagonists'
p2
c__builtin__
set
p3
((lp4
tp5
Rp6
sS'methods'
p7
g3
((lp8
S'Method.ANTAGONIST'
p9
atp10
Rp11
sS'topics'
p12
g3
((lp13
tp14
Rp15
sS'receptors'
p16
g3
((lp17
S'5ht3'
p18
atp19
Rp20
sS'regions'
p21
g3
((lp22
tp23
Rp24
sS'year'
p25
V1997
p26
sS'agonists'
p27
g3
((lp28
tp29
Rp30
sS'species'
p31
g3
((lp32
S"(5958, u'(?i)(rats|rat)')"
p33
aS"(1667, u'(?i)(polyps|polyp)')"
p34
aS"(479, u'(?i)(lings|ling)')"
p35
aS"(468, u'(?i)(oxen|ox)')"
p36
aS"(1055, u'(?i)(men|man)')"
p37
aS"(6249, u'(?i)(ants|ant)')"
p38
aS"(3550, u'(?i)(anis|ani)')"
p39
aS"(7127, u'(?i)(monitors|monitor)')"
p40
aS"(3812, u'(?i)(studs|stud)')"
p41
aS"(6391, u'(?i)(asses|ass)')"
p42
aS"(2809, u'(?i)(toms|tom)')"
p43
aS"(5949, u'(?i)(dogs|dog)')"
p44
atp45
Rp46
sb.