(ifile_types
ParseObject
p0
(dp1
S'methods'
p2
c__builtin__
set
p3
((lp4
tp5
Rp6
sS'topics'
p7
g3
((lp8
S"(1, u'\\\\bpatient')"
p9
aS"(17, u'\\\\balzheimer')"
p10
aS"(5, u'\\\\btherap')"
p11
aS"(4, u'\\\\btreatment')"
p12
atp13
Rp14
sS'receptors'
p15
g3
((lp16
(S'5ht2c'
p17
I1249
I1255
tp18
a(S'5ht6'
p19
I1150
I1155
tp20
a(S'5ht7'
p21
I1130
I1135
tp22
a(S'5ht2b'
p23
I1276
I1282
tp24
a(S'5ht1a'
p25
I1258
I1264
tp26
a(S'5ht6'
p27
I1227
I1232
tp28
a(S'5ht7'
p29
I1219
I1224
tp30
a(S'5ht3'
p31
I1283
I1288
tp32
a(S'5ht2a'
p33
I1240
I1246
tp34
a(S'5ht1b'
p35
I1267
I1273
tp36
atp37
Rp38
sS'raw_text_methods'
p39
g3
((lp40
tp41
Rp42
sS'regions'
p43
g3
((lp44
tp45
Rp46
sS'year'
p47
V2010
p48
sS'species'
p49
g3
((lp50
tp51
Rp52
sb.