(ifile_types
ParseObject
p0
(dp1
S'antagonists'
p2
c__builtin__
set
p3
((lp4
S"(95, u'\\\\bsb ?206553')"
p5
atp6
Rp7
sS'methods'
p8
g3
((lp9
S'Method.ANTAGONIST'
p10
aS'Method.AGONIST'
p11
atp12
Rp13
sS'topics'
p14
g3
((lp15
tp16
Rp17
sS'receptors'
p18
g3
((lp19
S'5ht5'
p20
aS'5ht2c'
p21
aS'5ht2a'
p22
atp23
Rp24
sS'regions'
p25
g3
((lp26
S"(248, u'(?i)(cerebrals|cerebral)(-|\\\\s+)?(cortexes|cortex)')"
p27
aS"(34, u'(?i)(pon|pons)')"
p28
atp29
Rp30
sS'year'
p31
V2008
p32
sS'agonists'
p33
g3
((lp34
tp35
Rp36
sS'species'
p37
g3
((lp38
S"(2568, u'(?i)(hens|hen)')"
p39
aS"(6753, u'(?i)(da|das)')"
p40
aS"(7539, u'(?i)(mammals|mammal)')"
p41
aS"(479, u'(?i)(lings|ling)')"
p42
aS"(4091, u'(?i)(adults|adult)')"
p43
aS"(468, u'(?i)(oxen|ox)')"
p44
aS"(1055, u'(?i)(men|man)')"
p45
aS"(6249, u'(?i)(ants|ant)')"
p46
aS"(1349, u'(?i)(rams|ram)')"
p47
aS"(3812, u'(?i)(studs|stud)')"
p48
aS"(5958, u'(?i)(rats|rat)')"
p49
aS"(7540, u'(?i)(mammalians|mammalian)')"
p50
aS"(1961, u'(?i)(pens|pen)')"
p51
aS"(3247, u'(?i)(youngs|young)')"
p52
aS"(3152, u'(?i)(layers|layer)')"
p53
atp54
Rp55
sb.