(ifile_types
ParseObject
p0
(dp1
S'antagonists'
p2
c__builtin__
set
p3
((lp4
S"(119, u'\\\\britanserin')"
p5
aS"(113, u'\\\\brisperidone')"
p6
aS"(58, u'\\\\bhaloperidol')"
p7
atp8
Rp9
sS'methods'
p10
g3
((lp11
S'Method.ANTAGONIST'
p12
atp13
Rp14
sS'topics'
p15
g3
((lp16
tp17
Rp18
sS'receptors'
p19
g3
((lp20
S'5ht2c'
p21
aS'5ht2a'
p22
atp23
Rp24
sS'regions'
p25
g3
((lp26
S"(223, u'(?i)\\\\b(putamens|putamen)\\\\b')"
p27
aS"(220, u'(?i)\\\\b(striatums|striatum)\\\\b')"
p28
aS"(226, u'(?i)\\\\b(nuclei|nucleus)(-|\\\\s+)?(accumben|accumbens)\\\\b')"
p29
atp30
Rp31
sS'year'
p32
V1998
p33
sS'agonists'
p34
g3
((lp35
S"(43, u'\\\\bhaloperidol')"
p36
atp37
Rp38
sS'species'
p39
g3
((lp40
S"(6325, u'(?i)\\\\b(caudates|caudate)\\\\b')"
p41
aS"(5958, u'(?i)\\\\b(rats|rat)\\\\b')"
p42
atp43
Rp44
sb.