(ifile_types
ParseObject
p0
(dp1
S'methods'
p2
c__builtin__
set
p3
((lp4
S'Method.ANTAGONIST'
p5
atp6
Rp7
sS'topics'
p8
g3
((lp9
S"(29, u'\\\\bhyperactiv')"
p10
aS"(33, u'\\\\blocomot')"
p11
aS"(3, u'\\\\bclinical')"
p12
atp13
Rp14
sS'receptors'
p15
g3
((lp16
(S'5ht2a'
p17
I520
I526
tp18
a(S'5ht2a'
p19
I242
I248
tp20
a(S'5ht2a'
p21
I50
I56
tp22
a(S'5ht2a'
p23
I725
I731
tp24
a(S'5ht2a'
p25
I2110
I2116
tp26
atp27
Rp28
sS'raw_text_methods'
p29
g3
((lp30
S"(53, u'\\\\bketanserin')"
p31
aS"(9, u'\\\\britanserin')"
p32
aS"(12, u'\\\\bantagonist')"
p33
atp34
Rp35
sS'regions'
p36
g3
((lp37
S"(11, u'(?i)\\\\b(cerebrals|cerebral)\\\\b')"
p38
atp39
Rp40
sS'year'
p41
V1995
p42
sS'species'
p43
g3
((lp44
S"(1, u'(?i)\\\\b(mice|mouse)\\\\b')"
p45
aS"(5, u'(?i)\\\\b(mices|mice)\\\\b')"
p46
aS"(4, u'(?i)\\\\b(rats|rat)\\\\b')"
p47
atp48
Rp49
sb.