(ifile_types
ParseObject
p0
(dp1
S'antagonists'
p2
c__builtin__
set
p3
((lp4
S"(17, u'\\\\bnan ?190')"
p5
atp6
Rp7
sS'methods'
p8
g3
((lp9
S'Method.ANTAGONIST'
p10
aS'Method.AGONIST'
p11
atp12
Rp13
sS'topics'
p14
g3
((lp15
S"(7, u'\\\\bmemory')"
p16
atp17
Rp18
sS'receptors'
p19
g3
((lp20
S'5ht1a'
p21
atp22
Rp23
sS'regions'
p24
g3
((lp25
S"(254, u'(?i)(prefrontals|prefrontal)(-|\\\\s+)?(cortexes|cortex)')"
p26
aS"(255, u'(?i)(pres|pre)(-|\\\\s+)?(frontals|frontal)(-|\\\\s+)?(cortexes|cortex)')"
p27
aS"(290, u'(?i)(insulars|insular)(-|\\\\s+)?(cortexes|cortex)')"
p28
atp29
Rp30
sS'year'
p31
V2001
p32
sS'agonists'
p33
g3
((lp34
S"(92, u'\\\\b8 ?oh ?dpat')"
p35
aS"(155, u'\\\\bmem')"
p36
atp37
Rp38
sS'species'
p39
g3
((lp40
S"(2568, u'(?i)(hens|hen)')"
p41
aS"(5958, u'(?i)(rats|rat)')"
p42
aS"(6753, u'(?i)(da|das)')"
p43
aS"(479, u'(?i)(lings|ling)')"
p44
aS"(4091, u'(?i)(adults|adult)')"
p45
aS"(5967, u'(?i)(males|male)')"
p46
aS"(468, u'(?i)(oxen|ox)')"
p47
aS"(1055, u'(?i)(men|man)')"
p48
aS"(6249, u'(?i)(ants|ant)')"
p49
aS"(5743, u'(?i)(bots|bot)')"
p50
aS"(3550, u'(?i)(anis|ani)')"
p51
aS"(3522, u'(?i)(tetras|tetra)')"
p52
aS"(6356, u'(?i)(ais|ai)')"
p53
aS"(6682, u'(?i)(tera|teras)')"
p54
atp55
Rp56
sb.