(ifile_types
ParseObject
p0
(dp1
S'methods'
p2
c__builtin__
set
p3
((lp4
S'Method.PET'
p5
aS'Method.ANTAGONIST'
p6
atp7
Rp8
sS'topics'
p9
g3
((lp10
S"(1, u'\\\\bpatient')"
p11
aS"(7, u'\\\\bdepressi')"
p12
aS"(4, u'\\\\btreatment')"
p13
aS"(2, u'\\\\bdisorder')"
p14
atp15
Rp16
sS'receptors'
p17
g3
((lp18
(S'5ht1b'
p19
I217
I223
tp20
a(S'5ht1b'
p21
I2053
I2059
tp22
a(S'5ht1b'
p23
I1895
I1901
tp24
a(S'5ht1b'
p25
I62
I68
tp26
a(S'5ht1b'
p27
I1674
I1680
tp28
a(S'5ht1b'
p29
I574
I580
tp30
a(S'5ht1b'
p31
I1800
I1806
tp32
atp33
Rp34
sS'raw_text_methods'
p35
g3
((lp36
S"(1, u'\\\\bneuroimag')"
p37
aS"(17, u'\\\\bpet')"
p38
aS"(2, u'\\\\blabeling')"
p39
aS"(54, u'\\\\bautoradiography')"
p40
aS"(19, u'\\\\bpositron emission tomography')"
p41
aS"(12, u'\\\\bantagonist')"
p42
atp43
Rp44
sS'regions'
p45
g3
((lp46
S"(19, u'(?i)\\\\b(cortexes|cortex)\\\\b')"
p47
aS"(9, u'(?i)\\\\b(cerebellums|cerebellum)\\\\b')"
p48
atp49
Rp50
sS'year'
p51
V2008
p52
sS'species'
p53
g3
((lp54
S"(8, u'(?i)\\\\b(primates|primate)\\\\b')"
p55
atp56
Rp57
sb.