(ifile_types
ParseObject
p0
(dp1
S'methods'
p2
c__builtin__
set
p3
((lp4
S'Method.ANTAGONIST'
p5
atp6
Rp7
sS'topics'
p8
g3
((lp9
S"(23, u'\\\\bantipsychotic')"
p10
atp11
Rp12
sS'receptors'
p13
g3
((lp14
(S'5ht2a'
p15
I696
I702
tp16
a(S'5ht2a'
p17
I1743
I1749
tp18
atp19
Rp20
sS'raw_text_methods'
p21
g3
((lp22
tp23
Rp24
sS'regions'
p25
g3
((lp26
S"(20, u'(?i)\\\\b(prefrontals|prefrontal)\\\\b')"
p27
aS"(19, u'(?i)\\\\b(cortexes|cortex)\\\\b')"
p28
atp29
Rp30
sS'year'
p31
V2011
p32
sS'species'
p33
g3
((lp34
S"(4, u'(?i)\\\\b(rats|rat)\\\\b')"
p35
atp36
Rp37
sb.