(ifile_types
ParseObject
p0
(dp1
S'antagonists'
p2
c__builtin__
set
p3
((lp4
tp5
Rp6
sS'methods'
p7
g3
((lp8
tp9
Rp10
sS'topics'
p11
g3
((lp12
tp13
Rp14
sS'receptors'
p15
g3
((lp16
S'5ht1a'
p17
atp18
Rp19
sS'regions'
p20
g3
((lp21
S"(318, u'(?i)(raphes|raphe)(-|\\\\s+)?(nuclei|nucleus)')"
p22
aS"(94, u'(?i)(dorsals|dorsal)(-|\\\\s+)?(raphes|raphe)(-|\\\\s+)?(nuclei|nucleus)')"
p23
aS"(34, u'(?i)(pon|pons)')"
p24
atp25
Rp26
sS'year'
p27
V2001
p28
sS'agonists'
p29
g3
((lp30
S"(92, u'\\\\b8 ?oh ?dpat')"
p31
atp32
Rp33
sS'species'
p34
g3
((lp35
S"(2323, u'(?i)(bees|bee)')"
p36
aS"(5958, u'(?i)(rats|rat)')"
p37
aS"(3636, u'(?i)(martins|martin)')"
p38
aS"(468, u'(?i)(oxen|ox)')"
p39
aS"(1055, u'(?i)(men|man)')"
p40
aS"(3592, u'(?i)(ravens|raven)')"
p41
aS"(6753, u'(?i)(da|das)')"
p42
aS"(3522, u'(?i)(tetras|tetra)')"
p43
aS"(7058, u'(?i)(does|doe)')"
p44
atp45
Rp46
sb.