(ifile_types
ParseObject
p0
(dp1
S'methods'
p2
c__builtin__
set
p3
((lp4
S'Method.ANTAGONIST'
p5
aS'Method.AGONIST'
p6
atp7
Rp8
sS'topics'
p9
g3
((lp10
S"(24, u'\\\\banxiolytic')"
p11
aS"(8, u'\\\\banxi')"
p12
aS"(14, u'\\\\bcogniti')"
p13
atp14
Rp15
sS'receptors'
p16
g3
((lp17
(S'5ht3'
p18
I1673
I1678
tp19
a(S'5ht3'
p20
I2689
I2694
tp21
a(S'5ht1'
p22
I1039
I1044
tp23
a(S'5ht3'
p24
I1931
I1936
tp25
a(S'5ht3'
p26
I446
I451
tp27
a(S'5ht3'
p28
I2116
I2121
tp29
a(S'5ht1a'
p30
I1152
I1158
tp31
a(S'5ht4'
p32
I1397
I1402
tp33
a(S'5ht3'
p34
I83
I88
tp35
a(S'5ht5'
p36
I1966
I1971
tp37
a(S'5ht3'
p38
I2272
I2277
tp39
a(S'5ht2'
p40
I1955
I1960
tp41
atp42
Rp43
sS'raw_text_methods'
p44
g3
((lp45
S"(13, u'\\\\bagonist')"
p46
aS"(37, u'\\\\bpiperazine')"
p47
aS"(30, u'\\\\b2methyl')"
p48
aS"(12, u'\\\\bantagonist')"
p49
atp50
Rp51
sS'regions'
p52
g3
((lp53
S"(8, u'(?i)\\\\b(centrals|central)(-|\\\\s+)?(nervouses|nervous)(-|\\\\s+)?(systems|system)\\\\b')"
p54
aS"(3, u'(?i)\\\\b(postsynaptics|postsynaptic)\\\\b')"
p55
atp56
Rp57
sS'year'
p58
V1994
p59
sS'species'
p60
g3
((lp61
S"(4, u'(?i)\\\\b(rats|rat)\\\\b')"
p62
atp63
Rp64
sb.