(ifile_types
ParseObject
p0
(dp1
S'methods'
p2
c__builtin__
set
p3
((lp4
S'Method.ANTAGONIST'
p5
aS'Method.AGONIST'
p6
atp7
Rp8
sS'topics'
p9
g3
((lp10
S"(5, u'\\\\btherap')"
p11
aS"(13, u'\\\\bantidepress')"
p12
aS"(4, u'\\\\btreatment')"
p13
atp14
Rp15
sS'receptors'
p16
g3
((lp17
(S'5ht1b'
p18
I761
I767
tp19
a(S'5ht1d'
p20
I1077
I1083
tp21
a(S'5ht1d'
p22
I1586
I1592
tp23
a(S'5ht1d'
p24
I948
I956
tp25
a(S'5ht1a'
p26
I2006
I2012
tp27
a(S'5ht1d'
p28
I761
I769
tp29
a(S'5ht1d'
p30
I1975
I1981
tp31
a(S'5ht1d'
p32
I403
I409
tp33
a(S'5ht1d'
p34
I1160
I1166
tp35
a(S'5ht1d'
p36
I518
I524
tp37
a(S'5ht1b'
p38
I948
I954
tp39
atp40
Rp41
sS'raw_text_methods'
p42
g3
((lp43
S"(13, u'\\\\bagonist')"
p44
aS"(15, u'\\\\b8ohdpat')"
p45
aS"(44, u'\\\\btetrodotoxin')"
p46
aS"(47, u'\\\\bsumatriptan')"
p47
aS"(12, u'\\\\bantagonist')"
p48
atp49
Rp50
sS'regions'
p51
g3
((lp52
tp53
Rp54
sS'year'
p55
V1996
p56
sS'species'
p57
g3
((lp58
S"(4, u'(?i)\\\\b(rats|rat)\\\\b')"
p59
atp60
Rp61
sb.