(ifile_types
ParseObject
p0
(dp1
S'antagonists'
p2
c__builtin__
set
p3
((lp4
S"(142, u'\\\\bm1')"
p5
atp6
Rp7
sS'methods'
p8
g3
((lp9
S'Method.AGONIST'
p10
atp11
Rp12
sS'topics'
p13
g3
((lp14
S"(26, u'\\\\bcardiovascular')"
p15
aS"(24, u'\\\\banalgesi')"
p16
aS"(1, u'\\\\bmood')"
p17
atp18
Rp19
sS'receptors'
p20
g3
((lp21
S'5ht1a'
p22
aS'5ht2'
p23
aS'5ht1'
p24
atp25
Rp26
sS'regions'
p27
g3
((lp28
tp29
Rp30
sS'year'
p31
V1989
p32
sS'agonists'
p33
g3
((lp34
S"(153, u'\\\\bmdma')"
p35
aS"(154, u'\\\\bmda')"
p36
aS"(14, u'\\\\bamphetamine')"
p37
atp38
Rp39
sS'species'
p40
g3
((lp41
S"(6753, u'(?i)(da|das)')"
p42
aS"(2568, u'(?i)(hens|hen)')"
p43
aS"(867, u'(?i)(tits|tit)')"
p44
aS"(4979, u'(?i)(cats|cat)')"
p45
aS"(4163, u'(?i)(ermines|ermine)')"
p46
aS"(5958, u'(?i)(rats|rat)')"
p47
aS"(468, u'(?i)(oxen|ox)')"
p48
aS"(1055, u'(?i)(men|man)')"
p49
aS"(6249, u'(?i)(ants|ant)')"
p50
aS"(3812, u'(?i)(studs|stud)')"
p51
aS"(3550, u'(?i)(anis|ani)')"
p52
aS"(1057, u'(?i)(humans|human)')"
p53
aS"(4371, u'(?i)(lizas|liza)')"
p54
aS"(1414, u'(?i)(chars|char)')"
p55
aS"(3196, u'(?i)(human|humans)')"
p56
aS"(2809, u'(?i)(toms|tom)')"
p57
aS"(6356, u'(?i)(ais|ai)')"
p58
aS"(7552, u'(?i)(bats|bat)')"
p59
atp60
Rp61
sb.