(ifile_types
ParseObject
p0
(dp1
S'methods'
p2
c__builtin__
set
p3
((lp4
S'Method.ANTAGONIST'
p5
atp6
Rp7
sS'topics'
p8
g3
((lp9
S"(5, u'\\\\btherap')"
p10
aS"(20, u'\\\\bmood')"
p11
atp12
Rp13
sS'receptors'
p14
g3
((lp15
(S'5ht1a'
p16
I1120
I1126
tp17
a(S'5ht1a'
p18
I109
I115
tp19
a(S'5ht2'
p20
I841
I846
tp21
a(S'5ht1a'
p22
I363
I369
tp23
a(S'5ht1a'
p24
I834
I840
tp25
atp26
Rp27
sS'raw_text_methods'
p28
g3
((lp29
S"(46, u'\\\\bspiperone')"
p30
aS"(27, u'\\\\blsd')"
p31
aS"(29, u'\\\\bdiethylamide')"
p32
aS"(12, u'\\\\bantagonist')"
p33
atp34
Rp35
sS'regions'
p36
g3
((lp37
S"(3, u'(?i)\\\\b(postsynaptics|postsynaptic)\\\\b')"
p38
atp39
Rp40
sS'year'
p41
V1994
p42
sS'species'
p43
g3
((lp44
S"(4, u'(?i)\\\\b(rats|rat)\\\\b')"
p45
atp46
Rp47
sb.