(ifile_types
ParseObject
p0
(dp1
S'antagonists'
p2
c__builtin__
set
p3
((lp4
S"(112, u'\\\\bquetiapine')"
p5
aS"(110, u'\\\\bclozapine')"
p6
aS"(114, u'\\\\bziprasidone')"
p7
aS"(113, u'\\\\brisperidone')"
p8
aS"(50, u'\\\\bquetiapine')"
p9
aS"(111, u'\\\\bolanzapine')"
p10
aS"(201, u'\\\\bsertindole')"
p11
aS"(180, u'\\\\bsertindole')"
p12
atp13
Rp14
sS'methods'
p15
g3
((lp16
S'Method.ANTAGONIST'
p17
atp18
Rp19
sS'topics'
p20
g3
((lp21
S"(15, u'\\\\bschizophreni')"
p22
aS"(6, u'\\\\bcognit')"
p23
aS"(1, u'\\\\bmood')"
p24
atp25
Rp26
sS'receptors'
p27
g3
((lp28
S'5ht7'
p29
aS'5ht1a'
p30
aS'5ht6a'
p31
aS'5ht2c'
p32
aS'5ht2a'
p33
atp34
Rp35
sS'regions'
p36
g3
((lp37
tp38
Rp39
sS'year'
p40
V1999
p41
sS'agonists'
p42
g3
((lp43
S"(57, u'\\\\bolanzapine')"
p44
aS"(23, u'\\\\bclozapine')"
p45
aS"(84, u'\\\\bziprasidone')"
p46
aS"(64, u'\\\\bquetiapine')"
p47
atp48
Rp49
sS'species'
p50
g3
((lp51
tp52
Rp53
sb.