(ifile_types
ParseObject
p0
(dp1
S'methods'
p2
c__builtin__
set
p3
((lp4
tp5
Rp6
sS'topics'
p7
g3
((lp8
S"(5, u'\\\\btherap')"
p9
atp10
Rp11
sS'receptors'
p12
g3
((lp13
(S'5ht1'
p14
I691
I696
tp15
a(S'5ht1f'
p16
I724
I729
tp17
a(S'5ht1d'
p18
I649
I654
tp19
a(S'5ht1d'
p20
I691
I696
tp21
atp22
Rp23
sS'raw_text_methods'
p24
g3
((lp25
S"(47, u'\\\\bsumatriptan')"
p26
atp27
Rp28
sS'regions'
p29
g3
((lp30
S"(19, u'(?i)\\\\b(cortexes|cortex)\\\\b')"
p31
aS"(7, u'(?i)\\\\b(entorhinals|entorhinal)\\\\b')"
p32
atp33
Rp34
sS'year'
p35
V1996
p36
sS'species'
p37
g3
((lp38
S"(7, u'(?i)\\\\b(guineas|guinea)(-|\\\\s+)?(pigs|pig)\\\\b')"
p39
aS"(4, u'(?i)\\\\b(rats|rat)\\\\b')"
p40
atp41
Rp42
sb.