(ifile_types
ParseObject
p0
(dp1
S'antagonists'
p2
c__builtin__
set
p3
((lp4
tp5
Rp6
sS'methods'
p7
g3
((lp8
S'Method.AGONIST'
p9
atp10
Rp11
sS'topics'
p12
g3
((lp13
S"(15, u'\\\\bschizophreni')"
p14
atp15
Rp16
sS'receptors'
p17
g3
((lp18
S'5ht5'
p19
aS'5ht2a'
p20
atp21
Rp22
sS'regions'
p23
g3
((lp24
S"(96, u'(?i)(ventrals|ventral)(-|\\\\s+)?(tegmentals|tegmental)(-|\\\\s+)?(areas|area)')"
p25
aS"(254, u'(?i)(prefrontals|prefrontal)(-|\\\\s+)?(cortexes|cortex)')"
p26
aS"(226, u'(?i)(nuclei|nucleus)(-|\\\\s+)?(accumben|accumbens)')"
p27
aS"(255, u'(?i)(pres|pre)(-|\\\\s+)?(frontals|frontal)(-|\\\\s+)?(cortexes|cortex)')"
p28
aS"(315, u'(?i)(mesolimbics|mesolimbic)(-|\\\\s+)?(pathways|pathway)')"
p29
atp30
Rp31
sS'year'
p32
V2014
p33
sS'agonists'
p34
g3
((lp35
S"(33, u'\\\\bdoi')"
p36
atp37
Rp38
sS'species'
p39
g3
((lp40
S"(4624, u'(?i)(apes|ape)')"
p41
aS"(5176, u'(?i)(tegs|teg)')"
p42
aS"(5958, u'(?i)(rats|rat)')"
p43
aS"(4979, u'(?i)(cats|cat)')"
p44
aS"(6753, u'(?i)(da|das)')"
p45
aS"(1169, u'(?i)(grades|grade)')"
p46
aS"(6682, u'(?i)(tera|teras)')"
p47
aS"(1055, u'(?i)(men|man)')"
p48
aS"(3726, u'(?i)(mates|mate)')"
p49
aS"(3152, u'(?i)(layers|layer)')"
p50
aS"(853, u'(?i)(minas|mina)')"
p51
aS"(6249, u'(?i)(ants|ant)')"
p52
aS"(6391, u'(?i)(asses|ass)')"
p53
aS"(6356, u'(?i)(ais|ai)')"
p54
aS"(1349, u'(?i)(rams|ram)')"
p55
atp56
Rp57
sb.