(ifile_types
ParseObject
p0
(dp1
S'methods'
p2
c__builtin__
set
p3
((lp4
S'Method.ANTAGONIST'
p5
aS'Method.AGONIST'
p6
atp7
Rp8
sS'topics'
p9
g3
((lp10
tp11
Rp12
sS'receptors'
p13
g3
((lp14
(S'5ht1a'
p15
I769
I775
tp16
a(S'5ht1'
p17
I650
I655
tp18
a(S'5ht1b'
p19
I1571
I1577
tp20
a(S'5ht1d'
p21
I29
I35
tp22
a(S'5ht1'
p23
I1248
I1253
tp24
a(S'5ht1d'
p25
I2190
I2196
tp26
a(S'5ht1a'
p27
I1861
I1867
tp28
a(S'5ht1b'
p29
I1303
I1309
tp30
a(S'5ht1'
p31
I1813
I1818
tp32
a(S'5ht1a'
p33
I598
I604
tp34
a(S'5ht2'
p35
I1813
I1819
tp36
a(S'5ht1d'
p37
I1908
I1916
tp38
a(S'5ht1b'
p39
I1908
I1914
tp40
a(S'5ht1d'
p41
I1008
I1014
tp42
a(S'5ht1a'
p43
I2168
I2174
tp44
a(S'5ht1d'
p45
I1303
I1311
tp46
a(S'5ht1b'
p47
I1748
I1754
tp48
atp49
Rp50
sS'raw_text_methods'
p51
g3
((lp52
S"(13, u'\\\\bagonist')"
p53
aS"(15, u'\\\\b8ohdpat')"
p54
aS"(34, u'\\\\b5ct')"
p55
aS"(47, u'\\\\bsumatriptan')"
p56
aS"(12, u'\\\\bantagonist')"
p57
atp58
Rp59
sS'regions'
p60
g3
((lp61
tp62
Rp63
sS'year'
p64
V1995
p65
sS'species'
p66
g3
((lp67
S"(4, u'(?i)\\\\b(rats|rat)\\\\b')"
p68
atp69
Rp70
sb.