(ifile_types
ParseObject
p0
(dp1
S'methods'
p2
c__builtin__
set
p3
((lp4
S'Method.ANTAGONIST'
p5
aS'Method.AGONIST'
p6
atp7
Rp8
sS'topics'
p9
g3
((lp10
S"(27, u'\\\\bdyskinesia')"
p11
aS"(19, u'\\\\bpsychosis')"
p12
aS"(2, u'\\\\bdisorder')"
p13
aS"(7, u'\\\\bdepressi')"
p14
aS"(33, u'\\\\blocomot')"
p15
aS"(34, u'\\\\bparkinson')"
p16
aS"(5, u'\\\\btherap')"
p17
aS"(1, u'\\\\bpatient')"
p18
aS"(4, u'\\\\btreatment')"
p19
atp20
Rp21
sS'receptors'
p22
g3
((lp23
(S'5ht2c'
p24
I218
I226
tp25
a(S'5ht2a'
p26
I1565
I1571
tp27
a(S'5ht2a'
p28
I218
I224
tp29
a(S'5ht2a'
p30
I506
I512
tp31
a(S'5ht2a'
p32
I1996
I2002
tp33
a(S'5ht2c'
p34
I1565
I1573
tp35
a(S'5ht2c'
p36
I506
I514
tp37
a(S'5ht2c'
p38
I1851
I1859
tp39
a(S'5ht2c'
p40
I1996
I2004
tp41
a(S'5ht2a'
p42
I1851
I1857
tp43
a(S'5ht2'
p44
I757
I762
tp45
atp46
Rp47
sS'raw_text_methods'
p48
g3
((lp49
S"(13, u'\\\\bagonist')"
p50
aS"(53, u'\\\\bketanserin')"
p51
aS"(12, u'\\\\bantagonist')"
p52
atp53
Rp54
sS'regions'
p55
g3
((lp56
tp57
Rp58
sS'year'
p59
V2006
p60
sS'species'
p61
g3
((lp62
S"(6, u'(?i)\\\\b(rodents|rodent)\\\\b')"
p63
aS"(4, u'(?i)\\\\b(rats|rat)\\\\b')"
p64
atp65
Rp66
sb.