(ifile_types
ParseObject
p0
(dp1
S'antagonists'
p2
c__builtin__
set
p3
((lp4
S"(53, u'\\\\bketanserin')"
p5
aS"(128, u'\\\\bketanserin')"
p6
aS"(4, u'\\\\bbmy ?7378')"
p7
aS"(117, u'\\\\bmianserin')"
p8
atp9
Rp10
sS'methods'
p11
g3
((lp12
S'Method.ANTAGONIST'
p13
atp14
Rp15
sS'topics'
p16
g3
((lp17
tp18
Rp19
sS'receptors'
p20
g3
((lp21
S'5ht1a'
p22
aS'5ht3a'
p23
aS'5ht2'
p24
atp25
Rp26
sS'regions'
p27
g3
((lp28
tp29
Rp30
sS'year'
p31
V1990
p32
sS'agonists'
p33
g3
((lp34
tp35
Rp36
sS'species'
p37
g3
((lp38
S"(5537, u'(?i)(hippos|hippo)')"
p39
aS"(5958, u'(?i)(rats|rat)')"
p40
aS"(4964, u'(?i)(serins|serin)')"
p41
aS"(479, u'(?i)(lings|ling)')"
p42
aS"(1055, u'(?i)(men|man)')"
p43
aS"(6249, u'(?i)(ants|ant)')"
p44
aS"(3812, u'(?i)(studs|stud)')"
p45
aS"(3550, u'(?i)(anis|ani)')"
p46
aS"(7094, u'(?i)(curs|cur)')"
p47
aS"(3722, u'(?i)(pups|pup)')"
p48
aS"(5743, u'(?i)(bots|bot)')"
p49
aS"(4979, u'(?i)(cats|cat)')"
p50
atp51
Rp52
sb.