(ifile_types
ParseObject
p0
(dp1
S'antagonists'
p2
c__builtin__
set
p3
((lp4
S"(38, u'\\\\bsb ?224289')"
p5
aS"(9, u'\\\\bgr ?46611')"
p6
aS"(52, u'\\\\bmdl ?100907')"
p7
aS"(117, u'\\\\bketanserin')"
p8
aS"(203, u'\\\\btfmpp')"
p9
aS"(43, u'\\\\bgr ?127935')"
p10
atp11
Rp12
sS'methods'
p13
g3
((lp14
S'Method.ANTAGONIST'
p15
aS'Method.AGONIST'
p16
atp17
Rp18
sS'topics'
p19
g3
((lp20
S"(8, u'\\\\blearning')"
p21
aS"(7, u'\\\\bmemory')"
p22
atp23
Rp24
sS'receptors'
p25
g3
((lp26
S'5ht7'
p27
aS'5ht1b'
p28
aS'5ht1a'
p29
aS'5ht3'
p30
aS'5ht2'
p31
aS'5ht2a'
p32
aS'5ht1d'
p33
aS'5ht2c'
p34
atp35
Rp36
sS'regions'
p37
g3
((lp38
tp39
Rp40
sS'year'
p41
V2001
p42
sS'agonists'
p43
g3
((lp44
S"(178, u'\\\\btfmpp')"
p45
aS"(155, u'\\\\bmcpp')"
p46
aS"(112, u'\\\\bgr ?46611')"
p47
aS"(85, u'\\\\b8 ?oh ?dpat')"
p48
aS"(149, u'\\\\bmem')"
p49
atp50
Rp51
sS'species'
p52
g3
((lp53
tp54
Rp55
sb.