(ifile_types
ParseObject
p0
(dp1
S'methods'
p2
c__builtin__
set
p3
((lp4
S'Method.AGONIST'
p5
atp6
Rp7
sS'topics'
p8
g3
((lp9
tp10
Rp11
sS'receptors'
p12
g3
((lp13
(S'5ht1'
p14
I767
I772
tp15
a(S'5ht1'
p16
I896
I901
tp17
a(S'5ht1'
p18
I585
I590
tp19
a(S'5ht1'
p20
I1847
I1852
tp21
a(S'5ht1'
p22
I1393
I1398
tp23
a(S'5ht1a'
p24
I85
I91
tp25
a(S'5ht1'
p26
I1724
I1729
tp27
a(S'5ht1'
p28
I699
I704
tp29
a(S'5ht1'
p30
I932
I937
tp31
a(S'5ht1'
p32
I275
I280
tp33
a(S'5ht1'
p34
I1365
I1370
tp35
a(S'5ht1a'
p36
I258
I264
tp37
a(S'5ht1'
p38
I1644
I1649
tp39
atp40
Rp41
sS'raw_text_methods'
p42
g3
((lp43
S"(13, u'\\\\bagonist')"
p44
aS"(15, u'\\\\b8ohdpat')"
p45
atp46
Rp47
sS'regions'
p48
g3
((lp49
S"(3, u'(?i)\\\\b(postsynaptics|postsynaptic)\\\\b')"
p50
aS"(14, u'(?i)\\\\b(caudals|caudal)\\\\b')"
p51
atp52
Rp53
sS'year'
p54
V2014
p55
sS'species'
p56
g3
((lp57
S"(4, u'(?i)\\\\b(rats|rat)\\\\b')"
p58
atp59
Rp60
sb.