(ifile_types
ParseObject
p0
(dp1
S'methods'
p2
c__builtin__
set
p3
((lp4
S'Method.AGONIST'
p5
atp6
Rp7
sS'topics'
p8
g3
((lp9
S"(22, u'\\\\bschizophreni')"
p10
aS"(14, u'\\\\bcogniti')"
p11
aS"(27, u'\\\\bdyskinesia')"
p12
aS"(2, u'\\\\bdisorder')"
p13
aS"(7, u'\\\\bdepressi')"
p14
aS"(34, u'\\\\bparkinson')"
p15
aS"(23, u'\\\\bantipsychotic')"
p16
aS"(5, u'\\\\btherap')"
p17
aS"(8, u'\\\\banxi')"
p18
aS"(4, u'\\\\btreatment')"
p19
aS"(3, u'\\\\bclinical')"
p20
atp21
Rp22
sS'receptors'
p23
g3
((lp24
(S'5ht1a'
p25
I337
I343
tp26
a(S'5ht1a'
p27
I1427
I1433
tp28
a(S'5ht1a'
p29
I620
I626
tp30
a(S'5ht1a'
p31
I453
I459
tp32
a(S'5ht1a'
p33
I1452
I1458
tp34
a(S'5ht1a'
p35
I1014
I1020
tp36
a(S'5ht1a'
p37
I59
I65
tp38
a(S'5ht1a'
p39
I1556
I1562
tp40
a(S'5ht1a'
p41
I1732
I1738
tp42
a(S'5ht1a'
p43
I817
I823
tp44
atp45
Rp46
sS'raw_text_methods'
p47
g3
((lp48
S"(13, u'\\\\bagonist')"
p49
atp50
Rp51
sS'regions'
p52
g3
((lp53
S"(8, u'(?i)\\\\b(centrals|central)(-|\\\\s+)?(nervouses|nervous)(-|\\\\s+)?(systems|system)\\\\b')"
p54
aS"(13, u'(?i)\\\\b(septums|septum)\\\\b')"
p55
aS"(4, u'(?i)\\\\b(presynaptics|presynaptic)\\\\b')"
p56
aS"(3, u'(?i)\\\\b(postsynaptics|postsynaptic)\\\\b')"
p57
atp58
Rp59
sS'year'
p60
V2010
p61
sS'species'
p62
g3
((lp63
tp64
Rp65
sb.