(ifile_types
ParseObject
p0
(dp1
S'methods'
p2
c__builtin__
set
p3
((lp4
S'Method.IMMUNOHISTOCHEMISTRY'
p5
atp6
Rp7
sS'topics'
p8
g3
((lp9
S"(3, u'\\\\bclinical')"
p10
atp11
Rp12
sS'receptors'
p13
g3
((lp14
(S'5ht1a'
p15
I1698
I1704
tp16
a(S'5ht1'
p17
I1474
I1480
tp18
a(S'5ht2a'
p19
I1503
I1509
tp20
a(S'5ht1a'
p21
I1474
I1480
tp22
atp23
Rp24
sS'raw_text_methods'
p25
g3
((lp26
tp27
Rp28
sS'regions'
p29
g3
((lp30
tp31
Rp32
sS'year'
p33
V2006
p34
sS'species'
p35
g3
((lp36
tp37
Rp38
sb.