(ifile_types
ParseObject
p0
(dp1
S'methods'
p2
c__builtin__
set
p3
((lp4
tp5
Rp6
sS'topics'
p7
g3
((lp8
S"(24, u'\\\\banxiolytic')"
p9
aS"(8, u'\\\\banxi')"
p10
atp11
Rp12
sS'receptors'
p13
g3
((lp14
(S'5ht2a'
p15
I1773
I1779
tp16
a(S'5ht1a'
p17
I612
I618
tp18
a(S'5ht2a'
p19
I1130
I1136
tp20
a(S'5ht1a'
p21
I1104
I1110
tp22
a(S'5ht2'
p23
I623
I629
tp24
a(S'5ht1a'
p25
I1746
I1752
tp26
a(S'5ht2a'
p27
I623
I629
tp28
atp29
Rp30
sS'raw_text_methods'
p31
g3
((lp32
tp33
Rp34
sS'regions'
p35
g3
((lp36
tp37
Rp38
sS'year'
p39
V1995
p40
sS'species'
p41
g3
((lp42
S"(4, u'(?i)\\\\b(rats|rat)\\\\b')"
p43
atp44
Rp45
sb.