(ifile_types
ParseObject
p0
(dp1
S'methods'
p2
c__builtin__
set
p3
((lp4
tp5
Rp6
sS'topics'
p7
g3
((lp8
S"(6, u'\\\\baggressi')"
p9
aS"(26, u'\\\\bbehav')"
p10
aS"(4, u'\\\\btreatment')"
p11
atp12
Rp13
sS'receptors'
p14
g3
((lp15
(S'5ht2a'
p16
I1068
I1074
tp17
a(S'5ht2a'
p18
I510
I516
tp19
a(S'5ht2a'
p20
I1499
I1505
tp21
a(S'5ht2a'
p22
I71
I77
tp23
atp24
Rp25
sS'raw_text_methods'
p26
g3
((lp27
S"(18, u'\\\\bimaging')"
p28
aS"(39, u'\\\\bselective serotonin reuptake inhibitor')"
p29
atp30
Rp31
sS'regions'
p32
g3
((lp33
tp34
Rp35
sS'year'
p36
V2005
p37
sS'species'
p38
g3
((lp39
tp40
Rp41
sb.