(ifile_types
ParseObject
p0
(dp1
S'methods'
p2
c__builtin__
set
p3
((lp4
S'Method.AGONIST'
p5
atp6
Rp7
sS'topics'
p8
g3
((lp9
tp10
Rp11
sS'receptors'
p12
g3
((lp13
(S'5ht2a'
p14
I118
I131
tp15
a(S'5ht1a'
p16
I118
I129
tp17
a(S'5ht1a'
p18
I381
I387
tp19
atp20
Rp21
sS'raw_text_methods'
p22
g3
((lp23
S"(1, u'\\\\bneuroimag')"
p24
aS"(13, u'\\\\bagonist')"
p25
atp26
Rp27
sS'regions'
p28
g3
((lp29
S"(11, u'(?i)\\\\b(cerebrals|cerebral)\\\\b')"
p30
aS"(19, u'(?i)\\\\b(cortexes|cortex)\\\\b')"
p31
aS"(12, u'(?i)\\\\b(amygdalas|amygdala)\\\\b')"
p32
atp33
Rp34
sS'year'
p35
V2014
p36
sS'species'
p37
g3
((lp38
tp39
Rp40
sb.