(ifile_types
ParseObject
p0
(dp1
S'antagonists'
p2
c__builtin__
set
p3
((lp4
S"(194, u'\\\\bmethysergide')"
p5
aS"(117, u'\\\\bketanserin')"
p6
aS"(119, u'\\\\britanserin')"
p7
atp8
Rp9
sS'methods'
p10
g3
((lp11
S'Method.ANTAGONIST'
p12
atp13
Rp14
sS'topics'
p15
g3
((lp16
tp17
Rp18
sS'receptors'
p19
g3
((lp20
S'5ht3'
p21
aS'5ht3a'
p22
aS'5ht2a'
p23
atp24
Rp25
sS'regions'
p26
g3
((lp27
S"(362, u'(?i)\\\\b(brains|brain)(-|\\\\s+)?(stems|stem)\\\\b')"
p28
atp29
Rp30
sS'year'
p31
V1992
p32
sS'agonists'
p33
g3
((lp34
S"(53, u'\\\\bmethysergide')"
p35
atp36
Rp37
sS'species'
p38
g3
((lp39
tp40
Rp41
sb.