(ifile_types
ParseObject
p0
(dp1
S'antagonists'
p2
c__builtin__
set
p3
((lp4
S"(31, u'\\\\bway ?100635')"
p5
aS"(119, u'\\\\britanserin')"
p6
atp7
Rp8
sS'methods'
p9
g3
((lp10
S'Method.AGONIST'
p11
atp12
Rp13
sS'topics'
p14
g3
((lp15
tp16
Rp17
sS'receptors'
p18
g3
((lp19
S'5ht7'
p20
aS'5ht1a'
p21
aS'5ht2'
p22
atp23
Rp24
sS'regions'
p25
g3
((lp26
S"(318, u'(?i)\\\\b(raphes|raphe)(-|\\\\s+)?(nuclei|nucleus)\\\\b')"
p27
aS"(158, u'(?i)\\\\b(suprachiasmatics|suprachiasmatic)(-|\\\\s+)?(nuclei|nucleus)\\\\b')"
p28
atp29
Rp30
sS'year'
p31
V1998
p32
sS'agonists'
p33
g3
((lp34
S"(85, u'\\\\b8 ?oh ?dpat')"
p35
aS"(90, u'\\\\bmkc ?242')"
p36
atp37
Rp38
sS'species'
p39
g3
((lp40
S"(4099, u'(?i)\\\\b(hamsters|hamster)\\\\b')"
p41
atp42
Rp43
sb.