(ifile_types
ParseObject
p0
(dp1
S'antagonists'
p2
c__builtin__
set
p3
((lp4
S"(200, u'\\\\bmesulergine')"
p5
aS"(130, u'\\\\britanserin')"
p6
aS"(52, u'\\\\bmetergoline')"
p7
aS"(54, u'\\\\britanserin')"
p8
aS"(117, u'\\\\bmianserin')"
p9
aS"(35, u'\\\\bmetergoline')"
p10
atp11
Rp12
sS'methods'
p13
g3
((lp14
S'Method.ANTAGONIST'
p15
aS'Method.AGONIST'
p16
atp17
Rp18
sS'topics'
p19
g3
((lp20
tp21
Rp22
sS'receptors'
p23
g3
((lp24
S'5ht5'
p25
aS'5ht2c'
p26
aS'5ht2a'
p27
atp28
Rp29
sS'regions'
p30
g3
((lp31
S"(34, u'(?i)(pon|pons)')"
p32
atp33
Rp34
sS'year'
p35
V1997
p36
sS'agonists'
p37
g3
((lp38
S"(161, u'\\\\bmcpp')"
p39
aS"(171, u'\\\\bmesulergine')"
p40
aS"(33, u'\\\\bdoi')"
p41
atp42
Rp43
sS'species'
p44
g3
((lp45
S"(6753, u'(?i)(da|das)')"
p46
aS"(2568, u'(?i)(hens|hen)')"
p47
aS"(5743, u'(?i)(bots|bot)')"
p48
aS"(468, u'(?i)(oxen|ox)')"
p49
aS"(1055, u'(?i)(men|man)')"
p50
aS"(6249, u'(?i)(ants|ant)')"
p51
aS"(4964, u'(?i)(serins|serin)')"
p52
aS"(5958, u'(?i)(rats|rat)')"
p53
aS"(3812, u'(?i)(studs|stud)')"
p54
aS"(6356, u'(?i)(ais|ai)')"
p55
atp56
Rp57
sb.