(ifile_types
ParseObject
p0
(dp1
S'antagonists'
p2
c__builtin__
set
p3
((lp4
S"(53, u'\\\\bketanserin')"
p5
aS"(200, u'\\\\bmesulergine')"
p6
aS"(9, u'\\\\bgr ?46611')"
p7
aS"(128, u'\\\\bketanserin')"
p8
aS"(209, u'\\\\btfmpp')"
p9
aS"(61, u'\\\\bmdl ?100907')"
p10
aS"(45, u'\\\\bgr ?127935')"
p11
atp12
Rp13
sS'methods'
p14
g3
((lp15
S'Method.ANTAGONIST'
p16
aS'Method.AGONIST'
p17
atp18
Rp19
sS'topics'
p20
g3
((lp21
S"(8, u'\\\\blearning')"
p22
aS"(6, u'\\\\bcognit')"
p23
aS"(7, u'\\\\bmemory')"
p24
atp25
Rp26
sS'receptors'
p27
g3
((lp28
S'5ht1b'
p29
aS'5ht1a'
p30
aS'5ht2b'
p31
aS'5ht2c'
p32
aS'5ht2a'
p33
aS'5ht1d'
p34
aS'5ht2'
p35
atp36
Rp37
sS'regions'
p38
g3
((lp39
tp40
Rp41
sS'year'
p42
V1997
p43
sS'agonists'
p44
g3
((lp45
S"(33, u'\\\\bdoi')"
p46
aS"(119, u'\\\\bgr ?46611')"
p47
aS"(183, u'\\\\btfmpp')"
p48
aS"(171, u'\\\\bmesulergine')"
p49
aS"(161, u'\\\\bmcpp')"
p50
aS"(92, u'\\\\b8 ?oh ?dpat')"
p51
aS"(155, u'\\\\bmem')"
p52
atp53
Rp54
sS'species'
p55
g3
((lp56
S"(6753, u'(?i)(da|das)')"
p57
aS"(5958, u'(?i)(rats|rat)')"
p58
aS"(4964, u'(?i)(serins|serin)')"
p59
aS"(1055, u'(?i)(men|man)')"
p60
aS"(107, u'(?i)(stags|stag)')"
p61
aS"(5743, u'(?i)(bots|bot)')"
p62
aS"(6249, u'(?i)(ants|ant)')"
p63
aS"(1291, u'(?i)(ratels|ratel)')"
p64
aS"(6356, u'(?i)(ais|ai)')"
p65
atp66
Rp67
sb.