(ifile_types
ParseObject
p0
(dp1
S'methods'
p2
c__builtin__
set
p3
((lp4
tp5
Rp6
sS'topics'
p7
g3
((lp8
S"(26, u'\\\\bbehav')"
p9
atp10
Rp11
sS'receptors'
p12
g3
((lp13
(S'5ht2c'
p14
I1364
I1370
tp15
a(S'5ht3a'
p16
I939
I945
tp17
atp18
Rp19
sS'raw_text_methods'
p20
g3
((lp21
tp22
Rp23
sS'regions'
p24
g3
((lp25
S"(20, u'(?i)\\\\b(prefrontals|prefrontal)\\\\b')"
p26
aS"(19, u'(?i)\\\\b(cortexes|cortex)\\\\b')"
p27
aS"(12, u'(?i)\\\\b(amygdalas|amygdala)\\\\b')"
p28
atp29
Rp30
sS'year'
p31
V2007
p32
sS'species'
p33
g3
((lp34
S"(4, u'(?i)\\\\b(rats|rat)\\\\b')"
p35
atp36
Rp37
sb.