(ifile_types
ParseObject
p0
(dp1
S'methods'
p2
c__builtin__
set
p3
((lp4
S'Method.ANTAGONIST'
p5
aS'Method.AGONIST'
p6
atp7
Rp8
sS'topics'
p9
g3
((lp10
S"(3, u'\\\\bclinical')"
p11
atp12
Rp13
sS'receptors'
p14
g3
((lp15
(S'5ht1a'
p16
I2517
I2523
tp17
a(S'5ht1'
p18
I2790
I2796
tp19
a(S'5ht1a'
p20
I1959
I1965
tp21
a(S'5ht1a'
p22
I1514
I1520
tp23
a(S'5ht1a'
p24
I2085
I2091
tp25
a(S'5ht1a'
p26
I2307
I2313
tp27
a(S'5ht1a'
p28
I460
I466
tp29
a(S'5ht1a'
p30
I2463
I2469
tp31
a(S'5ht1'
p32
I2964
I2969
tp33
a(S'5ht1a'
p34
I760
I766
tp35
a(S'5ht1a'
p36
I3082
I3088
tp37
a(S'5ht1a'
p38
I2658
I2664
tp39
a(S'5ht1a'
p40
I95
I101
tp41
a(S'5ht1a'
p42
I2790
I2796
tp43
a(S'5ht1a'
p44
I1282
I1288
tp45
a(S'5ht1a'
p46
I2256
I2262
tp47
a(S'5ht1a'
p48
I3325
I3331
tp49
a(S'5ht1a'
p50
I534
I540
tp51
a(S'5ht1a'
p52
I2596
I2602
tp53
a(S'5ht1a'
p54
I1835
I1841
tp55
atp56
Rp57
sS'raw_text_methods'
p58
g3
((lp59
S"(13, u'\\\\bagonist')"
p60
aS"(12, u'\\\\bantagonist')"
p61
atp62
Rp63
sS'regions'
p64
g3
((lp65
tp66
Rp67
sS'year'
p68
V1998
p69
sS'species'
p70
g3
((lp71
S"(4, u'(?i)\\\\b(rats|rat)\\\\b')"
p72
atp73
Rp74
sb.