(ifile_types
ParseObject
p0
(dp1
S'antagonists'
p2
c__builtin__
set
p3
((lp4
tp5
Rp6
sS'methods'
p7
g3
((lp8
tp9
Rp10
sS'topics'
p11
g3
((lp12
tp13
Rp14
sS'receptors'
p15
g3
((lp16
S'5ht1c'
p17
aS'5ht2'
p18
aS'5ht2c'
p19
atp20
Rp21
sS'regions'
p22
g3
((lp23
tp24
Rp25
sS'year'
p26
V1995
p27
sS'agonists'
p28
g3
((lp29
tp30
Rp31
sS'species'
p32
g3
((lp33
S"(4624, u'(?i)(apes|ape)')"
p34
aS"(5176, u'(?i)(tegs|teg)')"
p35
aS"(5958, u'(?i)(rats|rat)')"
p36
aS"(4979, u'(?i)(cats|cat)')"
p37
aS"(6753, u'(?i)(da|das)')"
p38
aS"(2183, u'(?i)(gars|gar)')"
p39
aS"(3726, u'(?i)(mates|mate)')"
p40
aS"(853, u'(?i)(minas|mina)')"
p41
aS"(3550, u'(?i)(anis|ani)')"
p42
aS"(7094, u'(?i)(curs|cur)')"
p43
aS"(6391, u'(?i)(asses|ass)')"
p44
aS"(5743, u'(?i)(bots|bot)')"
p45
atp46
Rp47
sb.