(ifile_types
ParseObject
p0
(dp1
S'antagonists'
p2
c__builtin__
set
p3
((lp4
S"(135, u'\\\\bondansetron')"
p5
atp6
Rp7
sS'methods'
p8
g3
((lp9
S'Method.ANTAGONIST'
p10
atp11
Rp12
sS'topics'
p13
g3
((lp14
tp15
Rp16
sS'receptors'
p17
g3
((lp18
S'5ht3'
p19
atp20
Rp21
sS'regions'
p22
g3
((lp23
tp24
Rp25
sS'year'
p26
V1992
p27
sS'agonists'
p28
g3
((lp29
S"(14, u'\\\\bamphetamine')"
p30
atp31
Rp32
sS'species'
p33
g3
((lp34
S"(2323, u'(?i)(bees|bee)')"
p35
aS"(5958, u'(?i)(rats|rat)')"
p36
aS"(6753, u'(?i)(da|das)')"
p37
aS"(853, u'(?i)(minas|mina)')"
p38
aS"(6249, u'(?i)(ants|ant)')"
p39
aS"(6356, u'(?i)(ais|ai)')"
p40
aS"(3812, u'(?i)(studs|stud)')"
p41
atp42
Rp43
sb.