(ifile_types
ParseObject
p0
(dp1
S'methods'
p2
c__builtin__
set
p3
((lp4
S'Method.ANTAGONIST'
p5
aS'Method.AGONIST'
p6
atp7
Rp8
sS'topics'
p9
g3
((lp10
S"(22, u'\\\\bschizophreni')"
p11
aS"(26, u'\\\\bbehav')"
p12
aS"(23, u'\\\\bantipsychotic')"
p13
atp14
Rp15
sS'receptors'
p16
g3
((lp17
(S'5ht2a'
p18
I1492
I1498
tp19
a(S'5ht2c'
p20
I1492
I1502
tp21
a(S'5ht2b'
p22
I1492
I1500
tp23
atp24
Rp25
sS'raw_text_methods'
p26
g3
((lp27
S"(13, u'\\\\bagonist')"
p28
aS"(41, u'\\\\bhaloperidol')"
p29
aS"(40, u'\\\\bclozapine')"
p30
aS"(9, u'\\\\britanserin')"
p31
atp32
Rp33
sS'regions'
p34
g3
((lp35
tp36
Rp37
sS'year'
p38
V2008
p39
sS'species'
p40
g3
((lp41
S"(1, u'(?i)\\\\b(mice|mouse)\\\\b')"
p42
aS"(5, u'(?i)\\\\b(mices|mice)\\\\b')"
p43
atp44
Rp45
sb.