(ifile_types
ParseObject
p0
(dp1
S'methods'
p2
c__builtin__
set
p3
((lp4
S'Method.ANTAGONIST'
p5
atp6
Rp7
sS'topics'
p8
g3
((lp9
S"(28, u'\\\\bgastrointestin')"
p10
aS"(26, u'\\\\bbehav')"
p11
aS"(2, u'\\\\bdisorder')"
p12
aS"(9, u'\\\\bstress')"
p13
aS"(5, u'\\\\btherap')"
p14
aS"(30, u'\\\\bpain')"
p15
atp16
Rp17
sS'receptors'
p18
g3
((lp19
(S'5ht2b'
p20
I1660
I1666
tp21
a(S'5ht2b'
p22
I527
I533
tp23
a(S'5ht2b'
p24
I648
I654
tp25
a(S'5ht2b'
p26
I33
I39
tp27
atp28
Rp29
sS'raw_text_methods'
p30
g3
((lp31
S"(12, u'\\\\bantagonist')"
p32
atp33
Rp34
sS'regions'
p35
g3
((lp36
tp37
Rp38
sS'year'
p39
V2010
p40
sS'species'
p41
g3
((lp42
S"(4, u'(?i)\\\\b(rats|rat)\\\\b')"
p43
atp44
Rp45
sb.