(ifile_types
ParseObject
p0
(dp1
S'methods'
p2
c__builtin__
set
p3
((lp4
S'Method.IMMUNOHISTOCHEMISTRY'
p5
atp6
Rp7
sS'topics'
p8
g3
((lp9
tp10
Rp11
sS'receptors'
p12
g3
((lp13
(S'5ht1a'
p14
I1221
I1227
tp15
a(S'5ht7'
p16
I1232
I1237
tp17
a(S'5ht5'
p18
I701
I706
tp19
a(S'5ht5'
p20
I874
I879
tp21
a(S'5ht5a'
p22
I299
I305
tp23
a(S'5ht5a'
p24
I47
I53
tp25
a(S'5ht5'
p26
I1032
I1037
tp27
a(S'5ht5'
p28
I520
I525
tp29
atp30
Rp31
sS'raw_text_methods'
p32
g3
((lp33
S"(3, u'\\\\bimmunoreactiv')"
p34
atp35
Rp36
sS'regions'
p37
g3
((lp38
S"(10, u'(?i)\\\\b(peripherals|peripheral)(-|\\\\s+)?(nervouses|nervous)(-|\\\\s+)?(systems|system)\\\\b')"
p39
atp40
Rp41
sS'year'
p42
V2000
p43
sS'species'
p44
g3
((lp45
S"(4, u'(?i)\\\\b(rats|rat)\\\\b')"
p46
atp47
Rp48
sb.