(ifile_types
ParseObject
p0
(dp1
S'antagonists'
p2
c__builtin__
set
p3
((lp4
tp5
Rp6
sS'methods'
p7
g3
((lp8
tp9
Rp10
sS'topics'
p11
g3
((lp12
tp13
Rp14
sS'receptors'
p15
g3
((lp16
S'5ht1d'
p17
atp18
Rp19
sS'regions'
p20
g3
((lp21
S"(103, u'(?i)(substantias|substantia)(-|\\\\s+)?(nigras|nigra)')"
p22
atp23
Rp24
sS'year'
p25
V1993
p26
sS'agonists'
p27
g3
((lp28
S"(105, u'\\\\b5 ?carboxamidotryptamine')"
p29
aS"(5, u'\\\\b5 ?ct')"
p30
atp31
Rp32
sS'species'
p33
g3
((lp34
S"(5958, u'(?i)(rats|rat)')"
p35
aS"(6682, u'(?i)(tera|teras)')"
p36
aS"(3051, u'(?i)(pigs|pig)')"
p37
aS"(468, u'(?i)(oxen|ox)')"
p38
aS"(3062, u'(?i)(guineas|guinea)')"
p39
aS"(2334, u'(?i)(eels|eel)')"
p40
aS"(6249, u'(?i)(ants|ant)')"
p41
aS"(6391, u'(?i)(asses|ass)')"
p42
aS"(4480, u'(?i)(guineas|guinea)(-|\\\\s+)?(pigs|pig)')"
p43
aS"(7058, u'(?i)(does|doe)')"
p44
atp45
Rp46
sb.