(ifile_types
ParseObject
p0
(dp1
S'antagonists'
p2
c__builtin__
set
p3
((lp4
tp5
Rp6
sS'methods'
p7
g3
((lp8
S'Method.AGONIST'
p9
atp10
Rp11
sS'topics'
p12
g3
((lp13
S"(18, u'\\\\bpsychostim')"
p14
aS"(9, u'\\\\bdepress')"
p15
aS"(35, u'\\\\bstress')"
p16
aS"(10, u'\\\\banxiety')"
p17
aS"(20, u'\\\\baggressi')"
p18
atp19
Rp20
sS'receptors'
p21
g3
((lp22
S'5ht1a'
p23
atp24
Rp25
sS'regions'
p26
g3
((lp27
tp28
Rp29
sS'year'
p30
V1995
p31
sS'agonists'
p32
g3
((lp33
tp34
Rp35
sS'species'
p36
g3
((lp37
S"(3248, u'(?i)\\\\b(offspring|offspring)\\\\b')"
p38
aS"(6125, u'(?i)\\\\b(females|female)\\\\b')"
p39
aS"(3196, u'(?i)\\\\b(human|humans)\\\\b')"
p40
aS"(1057, u'(?i)\\\\b(humans|human)\\\\b')"
p41
aS"(4091, u'(?i)\\\\b(adults|adult)\\\\b')"
p42
aS"(5958, u'(?i)\\\\b(rats|rat)\\\\b')"
p43
aS"(5967, u'(?i)\\\\b(males|male)\\\\b')"
p44
atp45
Rp46
sb.