(ifile_types
ParseObject
p0
(dp1
S'antagonists'
p2
c__builtin__
set
p3
((lp4
tp5
Rp6
sS'methods'
p7
g3
((lp8
S'Method.IMMUNOHISTOCHEMISTRY'
p9
atp10
Rp11
sS'topics'
p12
g3
((lp13
S"(3, u'\\\\bsleep')"
p14
aS"(16, u'\\\\bfeed')"
p15
aS"(1, u'\\\\bmood')"
p16
atp17
Rp18
sS'receptors'
p19
g3
((lp20
S'5ht1a'
p21
atp22
Rp23
sS'regions'
p24
g3
((lp25
S"(161, u'(?i)\\\\b(anteriors|anterior)(-|\\\\s+)?(hypothalamics|hypothalamic)(-|\\\\s+)?(nuclei|nucleus)\\\\b')"
p26
aS"(164, u'(?i)\\\\b(supraoptics|supraoptic)(-|\\\\s+)?(nuclei|nucleus)\\\\b')"
p27
aS"(233, u'(?i)\\\\b(substantias|substantia)(-|\\\\s+)?(innominatas|innominata)\\\\b')"
p28
aS"(190, u'(?i)\\\\b(zonas|zona)(-|\\\\s+)?(incertas|incerta)\\\\b')"
p29
aS"(118, u'(?i)\\\\b(diencephalons|diencephalon)\\\\b')"
p30
aS"(159, u'(?i)\\\\b(paraventriculars|paraventricular)(-|\\\\s+)?(nuclei|nucleus)\\\\b')"
p31
aS"(216, u'(?i)\\\\b(strias|stria)(-|\\\\s+)?(terminali|terminalis)\\\\b')"
p32
aS"(235, u'(?i)\\\\b(diagonals|diagonal)(-|\\\\s+)?(bands|band)(-|\\\\s+)?(ofs|of)(-|\\\\s+)?(brocas|broca)\\\\b')"
p33
atp34
Rp35
sS'year'
p36
V2010
p37
sS'agonists'
p38
g3
((lp39
tp40
Rp41
sS'species'
p42
g3
((lp43
S"(5958, u'(?i)\\\\b(rats|rat)\\\\b')"
p44
atp45
Rp46
sb.