(ifile_types
ParseObject
p0
(dp1
S'antagonists'
p2
c__builtin__
set
p3
((lp4
S"(32, u'\\\\bway ?100635')"
p5
aS"(6, u'\\\\bcyproheptadine')"
p6
aS"(93, u'\\\\bsb ?200646')"
p7
aS"(62, u'\\\\bcyproheptadine')"
p8
aS"(204, u'\\\\bsb ?269970')"
p9
aS"(135, u'\\\\bondansetron')"
p10
aS"(184, u'\\\\bsb ?357134')"
p11
aS"(185, u'\\\\bsb ?399885')"
p12
aS"(155, u'\\\\bgr ?125487')"
p13
aS"(186, u'\\\\bro 04 ?6790')"
p14
aS"(61, u'\\\\bmdl ?100907')"
p15
aS"(39, u'\\\\bsb ?224289')"
p16
aS"(45, u'\\\\bgr ?127935')"
p17
atp18
Rp19
sS'methods'
p20
g3
((lp21
S'Method.ANTAGONIST'
p22
atp23
Rp24
sS'topics'
p25
g3
((lp26
S"(8, u'\\\\blearning')"
p27
aS"(7, u'\\\\bmemory')"
p28
atp29
Rp30
sS'receptors'
p31
g3
((lp32
S'5ht7'
p33
aS'5ht1b'
p34
aS'5ht5'
p35
aS'5ht4'
p36
aS'5ht2b'
p37
aS'5ht2c'
p38
aS'5ht1'
p39
aS'5ht2a'
p40
aS'5ht6'
p41
aS'5ht1a'
p42
aS'5ht3'
p43
atp44
Rp45
sS'regions'
p46
g3
((lp47
tp48
Rp49
sS'year'
p50
V2007
p51
sS'agonists'
p52
g3
((lp53
S"(155, u'\\\\bmem')"
p54
atp55
Rp56
sS'species'
p57
g3
((lp58
S"(5537, u'(?i)(hippos|hippo)')"
p59
aS"(6753, u'(?i)(da|das)')"
p60
aS"(5958, u'(?i)(rats|rat)')"
p61
aS"(5156, u'(?i)(invertebrates|invertebrate)')"
p62
aS"(468, u'(?i)(oxen|ox)')"
p63
aS"(1055, u'(?i)(men|man)')"
p64
aS"(3726, u'(?i)(mates|mate)')"
p65
aS"(4979, u'(?i)(cats|cat)')"
p66
aS"(6249, u'(?i)(ants|ant)')"
p67
aS"(1057, u'(?i)(humans|human)')"
p68
aS"(1961, u'(?i)(pens|pen)')"
p69
aS"(3812, u'(?i)(studs|stud)')"
p70
aS"(3196, u'(?i)(human|humans)')"
p71
aS"(2621, u'(?i)(vertebrates|vertebrate)')"
p72
aS"(5743, u'(?i)(bots|bot)')"
p73
aS"(6356, u'(?i)(ais|ai)')"
p74
atp75
Rp76
sb.