(ifile_types
ParseObject
p0
(dp1
S'antagonists'
p2
c__builtin__
set
p3
((lp4
S"(9, u'\\\\bgr ?46611')"
p5
aS"(45, u'\\\\bgr ?127935')"
p6
aS"(39, u'\\\\bsb ?224289')"
p7
atp8
Rp9
sS'methods'
p10
g3
((lp11
S'Method.ANTAGONIST'
p12
aS'Method.AGONIST'
p13
atp14
Rp15
sS'topics'
p16
g3
((lp17
tp18
Rp19
sS'receptors'
p20
g3
((lp21
S'5ht1b'
p22
aS'5ht5'
p23
atp24
Rp25
sS'regions'
p26
g3
((lp27
S"(224, u'(?i)(caudates|caudate)(-|\\\\s+)?(nuclei|nucleus)')"
p28
aS"(103, u'(?i)(substantias|substantia)(-|\\\\s+)?(nigras|nigra)')"
p29
aS"(34, u'(?i)(pon|pons)')"
p30
atp31
Rp32
sS'year'
p33
V1999
p34
sS'agonists'
p35
g3
((lp36
S"(119, u'\\\\bgr ?46611')"
p37
aS"(107, u'\\\\bcp ?93129')"
p38
atp39
Rp40
sS'species'
p41
g3
((lp42
S"(2323, u'(?i)(bees|bee)')"
p43
aS"(4624, u'(?i)(apes|ape)')"
p44
aS"(5958, u'(?i)(rats|rat)')"
p45
aS"(7609, u'(?i)(erns|ern)')"
p46
aS"(867, u'(?i)(tits|tit)')"
p47
aS"(6753, u'(?i)(da|das)')"
p48
aS"(479, u'(?i)(lings|ling)')"
p49
aS"(1055, u'(?i)(men|man)')"
p50
aS"(7094, u'(?i)(curs|cur)')"
p51
aS"(2334, u'(?i)(eels|eel)')"
p52
aS"(5743, u'(?i)(bots|bot)')"
p53
aS"(4099, u'(?i)(hamsters|hamster)')"
p54
aS"(6249, u'(?i)(ants|ant)')"
p55
aS"(1057, u'(?i)(humans|human)')"
p56
aS"(3812, u'(?i)(studs|stud)')"
p57
aS"(3196, u'(?i)(human|humans)')"
p58
aS"(6325, u'(?i)(caudates|caudate)')"
p59
aS"(7058, u'(?i)(does|doe)')"
p60
aS"(6356, u'(?i)(ais|ai)')"
p61
atp62
Rp63
sb.