(ifile_types
ParseObject
p0
(dp1
S'methods'
p2
c__builtin__
set
p3
((lp4
S'Method.ANTAGONIST'
p5
atp6
Rp7
sS'topics'
p8
g3
((lp9
S"(7, u'\\\\bdepressi')"
p10
atp11
Rp12
sS'receptors'
p13
g3
((lp14
(S'5ht2c'
p15
I1441
I1447
tp16
a(S'5ht4'
p17
I1389
I1394
tp18
a(S'5ht4'
p19
I1636
I1641
tp20
a(S'5ht2a'
p21
I1625
I1631
tp22
a(S'5ht2'
p23
I1354
I1359
tp24
atp25
Rp26
sS'raw_text_methods'
p27
g3
((lp28
S"(37, u'\\\\bpiperazine')"
p29
aS"(12, u'\\\\bantagonist')"
p30
atp31
Rp32
sS'regions'
p33
g3
((lp34
S"(15, u'(?i)\\\\b(substantias|substantia)(-|\\\\s+)?(nigras|nigra)\\\\b')"
p35
aS"(3, u'(?i)\\\\b(postsynaptics|postsynaptic)\\\\b')"
p36
atp37
Rp38
sS'year'
p39
V2003
p40
sS'species'
p41
g3
((lp42
S"(4, u'(?i)\\\\b(rats|rat)\\\\b')"
p43
atp44
Rp45
sb.