(ifile_types
ParseObject
p0
(dp1
S'antagonists'
p2
c__builtin__
set
p3
((lp4
tp5
Rp6
sS'methods'
p7
g3
((lp8
S'Method.AGONIST'
p9
atp10
Rp11
sS'topics'
p12
g3
((lp13
S"(3, u'\\\\bsleep')"
p14
atp15
Rp16
sS'receptors'
p17
g3
((lp18
S'5ht7'
p19
aS'5ht5'
p20
atp21
Rp22
sS'regions'
p23
g3
((lp24
S"(235, u'(?i)(diagonals|diagonal)(-|\\\\s+)?(bands|band)(-|\\\\s+)?(ofs|of)(-|\\\\s+)?(brocas|broca)')"
p25
aS"(49, u'(?i)(loci|locus)(-|\\\\s+)?(coeruleuses|coeruleus)')"
p26
aS"(231, u'(?i)(basals|basal)(-|\\\\s+)?(forebrains|forebrain)')"
p27
aS"(34, u'(?i)(pon|pons)')"
p28
aS"(318, u'(?i)(raphes|raphe)(-|\\\\s+)?(nuclei|nucleus)')"
p29
aS"(51, u'(?i)(laterodorsals|laterodorsal)(-|\\\\s+)?(tegmentals|tegmental)(-|\\\\s+)?(nuclei|nucleus)')"
p30
aS"(94, u'(?i)(dorsals|dorsal)(-|\\\\s+)?(raphes|raphe)(-|\\\\s+)?(nuclei|nucleus)')"
p31
atp32
Rp33
sS'year'
p34
V2014
p35
sS'agonists'
p36
g3
((lp37
S"(233, u'\\\\blp ?211')"
p38
atp39
Rp40
sS'species'
p41
g3
((lp42
S"(4624, u'(?i)(apes|ape)')"
p43
aS"(6753, u'(?i)(da|das)')"
p44
aS"(5958, u'(?i)(rats|rat)')"
p45
aS"(5176, u'(?i)(tegs|teg)')"
p46
aS"(4091, u'(?i)(adults|adult)')"
p47
aS"(1055, u'(?i)(men|man)')"
p48
aS"(7094, u'(?i)(curs|cur)')"
p49
aS"(3812, u'(?i)(studs|stud)')"
p50
aS"(6249, u'(?i)(ants|ant)')"
p51
aS"(1414, u'(?i)(chars|char)')"
p52
aS"(6356, u'(?i)(ais|ai)')"
p53
atp54
Rp55
sb.