(ifile_types
ParseObject
p0
(dp1
S'antagonists'
p2
c__builtin__
set
p3
((lp4
S"(174, u'\\\\bsb ?258585')"
p5
atp6
Rp7
sS'methods'
p8
g3
((lp9
S'Method.PET'
p10
aS'Method.ANTAGONIST'
p11
atp12
Rp13
sS'topics'
p14
g3
((lp15
S"(15, u'\\\\bschizophreni')"
p16
aS"(33, u'\\\\balzheimers')"
p17
atp18
Rp19
sS'receptors'
p20
g3
((lp21
S'5ht6'
p22
aS'5ht6a'
p23
aS'5ht6f'
p24
atp25
Rp26
sS'regions'
p27
g3
((lp28
tp29
Rp30
sS'year'
p31
V2015
p32
sS'agonists'
p33
g3
((lp34
tp35
Rp36
sS'species'
p37
g3
((lp38
S"(1070, u'(?i)\\\\b(pets|pet)\\\\b')"
p39
aS"(2401, u'(?i)\\\\b(primates|primate)\\\\b')"
p40
aS"(6521, u'(?i)\\\\b(macaques|macaque)\\\\b')"
p41
aS"(2341, u'(?i)\\\\b(monkeys|monkey)\\\\b')"
p42
aS"(4979, u'(?i)\\\\b(cats|cat)\\\\b')"
p43
aS"(5958, u'(?i)\\\\b(rats|rat)\\\\b')"
p44
aS"(4952, u'(?i)\\\\b(felines|feline)\\\\b')"
p45
atp46
Rp47
sb.