(ifile_types
ParseObject
p0
(dp1
S'methods'
p2
c__builtin__
set
p3
((lp4
S'Method.ANTAGONIST'
p5
atp6
Rp7
sS'topics'
p8
g3
((lp9
S"(26, u'\\\\bbehav')"
p10
atp11
Rp12
sS'receptors'
p13
g3
((lp14
(S'5ht3'
p15
I109
I114
tp16
a(S'5ht3'
p17
I681
I686
tp18
a(S'5ht2'
p19
I672
I677
tp20
a(S'5ht2'
p21
I97
I102
tp22
atp23
Rp24
sS'raw_text_methods'
p25
g3
((lp26
S"(23, u'\\\\bmdl')"
p27
aS"(12, u'\\\\bantagonist')"
p28
atp29
Rp30
sS'regions'
p31
g3
((lp32
tp33
Rp34
sS'year'
p35
V1993
p36
sS'species'
p37
g3
((lp38
tp39
Rp40
sb.