(ifile_types
ParseObject
p0
(dp1
S'methods'
p2
c__builtin__
set
p3
((lp4
S'Method.ANTAGONIST'
p5
aS'Method.AGONIST'
p6
atp7
Rp8
sS'topics'
p9
g3
((lp10
tp11
Rp12
sS'receptors'
p13
g3
((lp14
(S'5ht1b'
p15
I1902
I1908
tp16
a(S'5ht1b'
p17
I1744
I1749
tp18
a(S'5ht1a'
p19
I599
I605
tp20
a(S'5ht1d'
p21
I1001
I1007
tp22
a(S'5ht1a'
p23
I764
I770
tp24
a(S'5ht2'
p25
I1810
I1816
tp26
a(S'5ht1b'
p27
I1296
I1301
tp28
a(S'5ht1d'
p29
I2174
I2180
tp30
a(S'5ht1'
p31
I1810
I1815
tp32
a(S'5ht1'
p33
I645
I650
tp34
a(S'5ht1a'
p35
I2152
I2158
tp36
a(S'5ht1b'
p37
I1566
I1572
tp38
a(S'5ht1a'
p39
I1856
I1861
tp40
a(S'5ht1d'
p41
I1902
I1910
tp42
a(S'5ht1d'
p43
I1296
I1303
tp44
atp45
Rp46
sS'raw_text_methods'
p47
g3
((lp48
S"(13, u'\\\\bagonist')"
p49
aS"(15, u'\\\\b8ohdpat')"
p50
aS"(34, u'\\\\b5ct')"
p51
aS"(47, u'\\\\bsumatriptan')"
p52
aS"(12, u'\\\\bantagonist')"
p53
atp54
Rp55
sS'regions'
p56
g3
((lp57
tp58
Rp59
sS'year'
p60
V1995
p61
sS'species'
p62
g3
((lp63
S"(4, u'(?i)\\\\b(rats|rat)\\\\b')"
p64
atp65
Rp66
sb.