(ifile_types
ParseObject
p0
(dp1
S'antagonists'
p2
c__builtin__
set
p3
((lp4
tp5
Rp6
sS'methods'
p7
g3
((lp8
tp9
Rp10
sS'topics'
p11
g3
((lp12
S"(9, u'\\\\bdepress')"
p13
aS"(16, u'\\\\bfeed')"
p14
atp15
Rp16
sS'receptors'
p17
g3
((lp18
S'5ht5a'
p19
atp20
Rp21
sS'regions'
p22
g3
((lp23
S"(248, u'(?i)(cerebrals|cerebral)(-|\\\\s+)?(cortexes|cortex)')"
p24
aS"(34, u'(?i)(pon|pons)')"
p25
atp26
Rp27
sS'year'
p28
V2015
p29
sS'agonists'
p30
g3
((lp31
tp32
Rp33
sS'species'
p34
g3
((lp35
S"(6753, u'(?i)(da|das)')"
p36
aS"(2568, u'(?i)(hens|hen)')"
p37
aS"(163, u'(?i)(mice|mouse)')"
p38
aS"(6391, u'(?i)(asses|ass)')"
p39
aS"(479, u'(?i)(lings|ling)')"
p40
aS"(4371, u'(?i)(lizas|liza)')"
p41
aS"(468, u'(?i)(oxen|ox)')"
p42
aS"(1055, u'(?i)(men|man)')"
p43
aS"(4979, u'(?i)(cats|cat)')"
p44
aS"(5958, u'(?i)(rats|rat)')"
p45
aS"(6682, u'(?i)(tera|teras)')"
p46
aS"(1961, u'(?i)(pens|pen)')"
p47
aS"(6356, u'(?i)(ais|ai)')"
p48
aS"(3048, u'(?i)(hogs|hog)')"
p49
aS"(2809, u'(?i)(toms|tom)')"
p50
aS"(5743, u'(?i)(bots|bot)')"
p51
atp52
Rp53
sb.