(ifile_types
ParseObject
p0
(dp1
S'antagonists'
p2
c__builtin__
set
p3
((lp4
S"(32, u'\\\\bway ?100635')"
p5
aS"(102, u'\\\\bfluoxetine')"
p6
atp7
Rp8
sS'methods'
p9
g3
((lp10
S'Method.ANTAGONIST'
p11
atp12
Rp13
sS'topics'
p14
g3
((lp15
tp16
Rp17
sS'receptors'
p18
g3
((lp19
S'5ht5'
p20
aS'5ht1a'
p21
atp22
Rp23
sS'regions'
p24
g3
((lp25
S"(34, u'(?i)(pon|pons)')"
p26
atp27
Rp28
sS'year'
p29
V2011
p30
sS'agonists'
p31
g3
((lp32
tp33
Rp34
sS'species'
p35
g3
((lp36
S"(2568, u'(?i)(hens|hen)')"
p37
aS"(5917, u'(?i)(roaches|roach)')"
p38
aS"(702, u'(?i)(genets|genet)')"
p39
aS"(6753, u'(?i)(da|das)')"
p40
aS"(479, u'(?i)(lings|ling)')"
p41
aS"(4091, u'(?i)(adults|adult)')"
p42
aS"(3051, u'(?i)(pigs|pig)')"
p43
aS"(468, u'(?i)(oxen|ox)')"
p44
aS"(1055, u'(?i)(men|man)')"
p45
aS"(6249, u'(?i)(ants|ant)')"
p46
aS"(4979, u'(?i)(cats|cat)')"
p47
aS"(7094, u'(?i)(curs|cur)')"
p48
aS"(3550, u'(?i)(anis|ani)')"
p49
aS"(6682, u'(?i)(tera|teras)')"
p50
aS"(5958, u'(?i)(rats|rat)')"
p51
aS"(5229, u'(?i)(moles|mole)')"
p52
aS"(6391, u'(?i)(asses|ass)')"
p53
aS"(6356, u'(?i)(ais|ai)')"
p54
aS"(4247, u'(?i)(tatus|tatu)')"
p55
aS"(391, u'(?i)(alli|allis)')"
p56
aS"(6967, u'(?i)(scavengers|scavenger)')"
p57
atp58
Rp59
sb.