(ifile_types
ParseObject
p0
(dp1
S'methods'
p2
c__builtin__
set
p3
((lp4
S'Method.ANTAGONIST'
p5
atp6
Rp7
sS'topics'
p8
g3
((lp9
S"(26, u'\\\\bbehav')"
p10
aS"(7, u'\\\\bdepressi')"
p11
aS"(15, u'\\\\bmemory')"
p12
aS"(16, u'\\\\blearning')"
p13
aS"(8, u'\\\\banxi')"
p14
aS"(4, u'\\\\btreatment')"
p15
atp16
Rp17
sS'receptors'
p18
g3
((lp19
(S'5ht2c'
p20
I29
I35
tp21
a(S'5ht2c'
p22
I971
I977
tp23
a(S'5ht2c'
p24
I1018
I1024
tp25
atp26
Rp27
sS'raw_text_methods'
p28
g3
((lp29
S"(38, u'\\\\bssri')"
p30
aS"(39, u'\\\\bselective serotonin reuptake inhibitor')"
p31
aS"(12, u'\\\\bantagonist')"
p32
atp33
Rp34
sS'regions'
p35
g3
((lp36
tp37
Rp38
sS'year'
p39
V2016
p40
sS'species'
p41
g3
((lp42
tp43
Rp44
sb.