(ifile_types
ParseObject
p0
(dp1
S'methods'
p2
c__builtin__
set
p3
((lp4
S'Method.PET'
p5
aS'Method.AGONIST'
p6
atp7
Rp8
sS'topics'
p9
g3
((lp10
S"(2, u'\\\\bdisorder')"
p11
atp12
Rp13
sS'receptors'
p14
g3
((lp15
(S'5ht2c'
p16
I228
I233
tp17
a(S'5ht2c'
p18
I935
I940
tp19
a(S'5ht2c'
p20
I400
I405
tp21
a(S'5ht2c'
p22
I54
I59
tp23
atp24
Rp25
sS'raw_text_methods'
p26
g3
((lp27
S"(13, u'\\\\bagonist')"
p28
aS"(17, u'\\\\bpet')"
p29
aS"(19, u'\\\\bpositron emission tomography')"
p30
aS"(18, u'\\\\bimaging')"
p31
atp32
Rp33
sS'regions'
p34
g3
((lp35
S"(8, u'(?i)\\\\b(centrals|central)(-|\\\\s+)?(nervouses|nervous)(-|\\\\s+)?(systems|system)\\\\b')"
p36
atp37
Rp38
sS'year'
p39
V2014
p40
sS'species'
p41
g3
((lp42
tp43
Rp44
sb.