(ifile_types
ParseObject
p0
(dp1
S'antagonists'
p2
c__builtin__
set
p3
((lp4
S"(53, u'\\\\bketanserin')"
p5
aS"(128, u'\\\\bketanserin')"
p6
aS"(135, u'\\\\bondansetron')"
p7
atp8
Rp9
sS'methods'
p10
g3
((lp11
S'Method.ANTAGONIST'
p12
aS'Method.AGONIST'
p13
atp14
Rp15
sS'topics'
p16
g3
((lp17
tp18
Rp19
sS'receptors'
p20
g3
((lp21
S'5ht7'
p22
aS'5ht5'
p23
aS'5ht3a'
p24
aS'5ht2a'
p25
aS'5ht7a'
p26
aS'5ht3'
p27
atp28
Rp29
sS'regions'
p30
g3
((lp31
tp32
Rp33
sS'year'
p34
V1998
p35
sS'agonists'
p36
g3
((lp37
S"(105, u'\\\\b5 ?carboxamidotryptamine')"
p38
atp39
Rp40
sS'species'
p41
g3
((lp42
S"(3550, u'(?i)(anis|ani)')"
p43
aS"(2568, u'(?i)(hens|hen)')"
p44
aS"(5958, u'(?i)(rats|rat)')"
p45
aS"(6753, u'(?i)(da|das)')"
p46
aS"(1885, u'(?i)(apars|apar)')"
p47
aS"(6249, u'(?i)(ants|ant)')"
p48
aS"(468, u'(?i)(oxen|ox)')"
p49
aS"(1349, u'(?i)(rams|ram)')"
p50
aS"(4604, u'(?i)(mites|mite)')"
p51
aS"(3592, u'(?i)(ravens|raven)')"
p52
aS"(4964, u'(?i)(serins|serin)')"
p53
aS"(1147, u'(?i)(bronchoes|broncho)')"
p54
aS"(6356, u'(?i)(ais|ai)')"
p55
aS"(6391, u'(?i)(asses|ass)')"
p56
aS"(1146, u'(?i)(broncs|bronc)')"
p57
atp58
Rp59
sb.