(ifile_types
ParseObject
p0
(dp1
S'antagonists'
p2
c__builtin__
set
p3
((lp4
S"(130, u'\\\\britanserin')"
p5
aS"(105, u'\\\\bmethysergide')"
p6
aS"(67, u'\\\\bhaloperidol')"
p7
aS"(54, u'\\\\britanserin')"
p8
aS"(22, u'\\\\bpropranolol')"
p9
aS"(27, u'\\\\bspiperone')"
p10
atp11
Rp12
sS'methods'
p13
g3
((lp14
S'Method.ANTAGONIST'
p15
atp16
Rp17
sS'topics'
p18
g3
((lp19
tp20
Rp21
sS'receptors'
p22
g3
((lp23
S'5ht1c'
p24
aS'5ht1b'
p25
aS'5ht1a'
p26
aS'5ht3'
p27
aS'5ht2'
p28
aS'5ht1'
p29
aS'5ht5'
p30
atp31
Rp32
sS'regions'
p33
g3
((lp34
S"(34, u'(?i)(pon|pons)')"
p35
atp36
Rp37
sS'year'
p38
V1991
p39
sS'agonists'
p40
g3
((lp41
S"(48, u'\\\\bhaloperidol')"
p42
aS"(60, u'\\\\bmethysergide')"
p43
atp44
Rp45
sS'species'
p46
g3
((lp47
S"(6753, u'(?i)(da|das)')"
p48
aS"(5958, u'(?i)(rats|rat)')"
p49
aS"(4979, u'(?i)(cats|cat)')"
p50
aS"(468, u'(?i)(oxen|ox)')"
p51
aS"(3592, u'(?i)(ravens|raven)')"
p52
aS"(1055, u'(?i)(men|man)')"
p53
aS"(4964, u'(?i)(serins|serin)')"
p54
aS"(6249, u'(?i)(ants|ant)')"
p55
aS"(1961, u'(?i)(pens|pen)')"
p56
aS"(6356, u'(?i)(ais|ai)')"
p57
aS"(5743, u'(?i)(bots|bot)')"
p58
atp59
Rp60
sb.