(ifile_types
ParseObject
p0
(dp1
S'methods'
p2
c__builtin__
set
p3
((lp4
S'Method.ANTAGONIST'
p5
aS'Method.AGONIST'
p6
atp7
Rp8
sS'topics'
p9
g3
((lp10
S"(6, u'\\\\baggressi')"
p11
aS"(25, u'\\\\bsocial')"
p12
aS"(26, u'\\\\bbehav')"
p13
aS"(9, u'\\\\bstress')"
p14
aS"(4, u'\\\\btreatment')"
p15
atp16
Rp17
sS'receptors'
p18
g3
((lp19
(S'5ht1'
p20
I942
I947
tp21
a(S'5ht1c'
p22
I1405
I1411
tp23
a(S'5ht1a'
p24
I707
I713
tp25
a(S'5ht3'
p26
I1686
I1691
tp27
a(S'5ht2'
p28
I1395
I1400
tp29
a(S'5ht2'
p30
I1620
I1625
tp31
atp32
Rp33
sS'raw_text_methods'
p34
g3
((lp35
S"(21, u'\\\\bipsapirone')"
p36
aS"(22, u'\\\\bbuspirone')"
p37
aS"(15, u'\\\\b8ohdpat')"
p38
aS"(13, u'\\\\bagonist')"
p39
aS"(49, u'\\\\bdoi')"
p40
aS"(12, u'\\\\bantagonist')"
p41
atp42
Rp43
sS'regions'
p44
g3
((lp45
tp46
Rp47
sS'year'
p48
V1992
p49
sS'species'
p50
g3
((lp51
S"(6, u'(?i)\\\\b(rodents|rodent)\\\\b')"
p52
aS"(2, u'(?i)\\\\b(females|female)\\\\b')"
p53
aS"(3, u'(?i)\\\\b(males|male)\\\\b')"
p54
aS"(4, u'(?i)\\\\b(rats|rat)\\\\b')"
p55
atp56
Rp57
sb.