(ifile_types
ParseObject
p0
(dp1
S'antagonists'
p2
c__builtin__
set
p3
((lp4
tp5
Rp6
sS'methods'
p7
g3
((lp8
S'Method.AGONIST'
p9
aS'Method.IMMUNOHISTOCHEMISTRY'
p10
atp11
Rp12
sS'topics'
p13
g3
((lp14
tp15
Rp16
sS'receptors'
p17
g3
((lp18
S'5ht1b'
p19
atp20
Rp21
sS'regions'
p22
g3
((lp23
S"(364, u'(?i)(middles|middle)(-|\\\\s+)?(cerebrals|cerebral)(-|\\\\s+)?(arteries|artery)')"
p24
aS"(34, u'(?i)(pon|pons)')"
p25
atp26
Rp27
sS'year'
p28
V2007
p29
sS'agonists'
p30
g3
((lp31
S"(105, u'\\\\b5 ?carboxamidotryptamine')"
p32
aS"(5, u'\\\\b5 ?ct')"
p33
atp34
Rp35
sS'species'
p36
g3
((lp37
S"(5958, u'(?i)(rats|rat)')"
p38
aS"(6356, u'(?i)(ais|ai)')"
p39
aS"(7609, u'(?i)(erns|ern)')"
p40
aS"(867, u'(?i)(tits|tit)')"
p41
aS"(6753, u'(?i)(da|das)')"
p42
aS"(468, u'(?i)(oxen|ox)')"
p43
aS"(745, u'(?i)(arachnoids|arachnoid)')"
p44
aS"(5131, u'(?i)(hags|hag)')"
p45
aS"(1055, u'(?i)(men|man)')"
p46
aS"(4979, u'(?i)(cats|cat)')"
p47
aS"(6249, u'(?i)(ants|ant)')"
p48
aS"(6391, u'(?i)(asses|ass)')"
p49
aS"(3812, u'(?i)(studs|stud)')"
p50
aS"(3048, u'(?i)(hogs|hog)')"
p51
aS"(1683, u'(?i)(terns|tern)')"
p52
atp53
Rp54
sb.