(ifile_types
ParseObject
p0
(dp1
S'methods'
p2
c__builtin__
set
p3
((lp4
S'Method.ANTAGONIST'
p5
atp6
Rp7
sS'topics'
p8
g3
((lp9
tp10
Rp11
sS'receptors'
p12
g3
((lp13
(S'5ht1a'
p14
I317
I323
tp15
a(S'5ht1a'
p16
I302
I313
tp17
a(S'5ht1a'
p18
I35
I41
tp19
a(S'5ht1a'
p20
I1641
I1647
tp21
atp22
Rp23
sS'raw_text_methods'
p24
g3
((lp25
S"(15, u'\\\\b8ohdpat')"
p26
aS"(22, u'\\\\bbuspirone')"
p27
aS"(12, u'\\\\bantagonist')"
p28
atp29
Rp30
sS'regions'
p31
g3
((lp32
tp33
Rp34
sS'year'
p35
V1997
p36
sS'species'
p37
g3
((lp38
tp39
Rp40
sb.