(ifile_types
ParseObject
p0
(dp1
S'antagonists'
p2
c__builtin__
set
p3
((lp4
S"(32, u'\\\\bway ?100635')"
p5
atp6
Rp7
sS'methods'
p8
g3
((lp9
S'Method.ANTAGONIST'
p10
atp11
Rp12
sS'topics'
p13
g3
((lp14
S"(12, u'\\\\banxiogen')"
p15
aS"(35, u'\\\\bstress')"
p16
aS"(11, u'\\\\banxiolyt')"
p17
aS"(10, u'\\\\banxiety')"
p18
atp19
Rp20
sS'receptors'
p21
g3
((lp22
S'5ht1a'
p23
atp24
Rp25
sS'regions'
p26
g3
((lp27
S"(254, u'(?i)(prefrontals|prefrontal)(-|\\\\s+)?(cortexes|cortex)')"
p28
aS"(255, u'(?i)(pres|pre)(-|\\\\s+)?(frontals|frontal)(-|\\\\s+)?(cortexes|cortex)')"
p29
aS"(34, u'(?i)(pon|pons)')"
p30
atp31
Rp32
sS'year'
p33
V2015
p34
sS'agonists'
p35
g3
((lp36
S"(25, u'\\\\bcannabidiol')"
p37
atp38
Rp39
sS'species'
p40
g3
((lp41
S"(2568, u'(?i)(hens|hen)')"
p42
aS"(5958, u'(?i)(rats|rat)')"
p43
aS"(4979, u'(?i)(cats|cat)')"
p44
aS"(5967, u'(?i)(males|male)')"
p45
aS"(6682, u'(?i)(tera|teras)')"
p46
aS"(6249, u'(?i)(ants|ant)')"
p47
aS"(5743, u'(?i)(bots|bot)')"
p48
aS"(3550, u'(?i)(anis|ani)')"
p49
aS"(1961, u'(?i)(pens|pen)')"
p50
aS"(6356, u'(?i)(ais|ai)')"
p51
aS"(2809, u'(?i)(toms|tom)')"
p52
atp53
Rp54
sb.