(ifile_types
ParseObject
p0
(dp1
S'methods'
p2
c__builtin__
set
p3
((lp4
S'Method.ANTAGONIST'
p5
aS'Method.AGONIST'
p6
atp7
Rp8
sS'topics'
p9
g3
((lp10
S"(26, u'\\\\bbehav')"
p11
atp12
Rp13
sS'receptors'
p14
g3
((lp15
(S'5ht2'
p16
I1282
I1286
tp17
a(S'5ht1b'
p18
I2077
I2082
tp19
a(S'5ht1'
p20
I1365
I1369
tp21
a(S'5ht1b'
p22
I32
I37
tp23
a(S'5ht1b'
p24
I1800
I1805
tp25
a(S'5ht1b'
p26
I1955
I1960
tp27
a(S'5ht1b'
p28
I1874
I1879
tp29
a(S'5ht1b'
p30
I772
I777
tp31
a(S'5ht1a'
p32
I1230
I1235
tp33
a(S'5ht1b'
p34
I922
I927
tp35
atp36
Rp37
sS'raw_text_methods'
p38
g3
((lp39
S"(13, u'\\\\bagonist')"
p40
aS"(12, u'\\\\bantagonist')"
p41
atp42
Rp43
sS'regions'
p44
g3
((lp45
S"(14, u'(?i)\\\\b(caudals|caudal)\\\\b')"
p46
atp47
Rp48
sS'year'
p49
V1996
p50
sS'species'
p51
g3
((lp52
tp53
Rp54
sb.