(ifile_types
ParseObject
p0
(dp1
S'methods'
p2
c__builtin__
set
p3
((lp4
S'Method.AGONIST'
p5
atp6
Rp7
sS'topics'
p8
g3
((lp9
tp10
Rp11
sS'receptors'
p12
g3
((lp13
(S'5ht2a'
p14
I628
I634
tp15
a(S'5ht2c'
p16
I111
I119
tp17
a(S'5ht2c'
p18
I101
I112
tp19
a(S'5ht2a'
p20
I1090
I1096
tp21
a(S'5ht2c'
p22
I1231
I1237
tp23
a(S'5ht2a'
p24
I1472
I1478
tp25
a(S'5ht2c'
p26
I518
I526
tp27
a(S'5ht2a'
p28
I1707
I1713
tp29
a(S'5ht2a'
p30
I1304
I1310
tp31
a(S'5ht2c'
p32
I628
I636
tp33
a(S'5ht2c'
p34
I1100
I1106
tp35
a(S'5ht2a'
p36
I518
I524
tp37
a(S'5ht2a'
p38
I111
I117
tp39
atp40
Rp41
sS'raw_text_methods'
p42
g3
((lp43
S"(13, u'\\\\bagonist')"
p44
aS"(27, u'\\\\blsd')"
p45
aS"(49, u'\\\\bdoi')"
p46
atp47
Rp48
sS'regions'
p49
g3
((lp50
S"(19, u'(?i)\\\\b(cortexes|cortex)\\\\b')"
p51
atp52
Rp53
sS'year'
p54
V1994
p55
sS'species'
p56
g3
((lp57
S"(4, u'(?i)\\\\b(rats|rat)\\\\b')"
p58
atp59
Rp60
sb.