(ifile_types
ParseObject
p0
(dp1
S'methods'
p2
c__builtin__
set
p3
((lp4
S'Method.STIMULATION'
p5
aS'Method.ANTAGONIST'
p6
aS'Method.AGONIST'
p7
atp8
Rp9
sS'topics'
p10
g3
((lp11
S"(5, u'\\\\btherap')"
p12
aS"(3, u'\\\\bclinical')"
p13
aS"(34, u'\\\\bparkinson')"
p14
aS"(4, u'\\\\btreatment')"
p15
aS"(2, u'\\\\bdisorder')"
p16
atp17
Rp18
sS'receptors'
p19
g3
((lp20
(S'5ht1b'
p21
I764
I772
tp22
a(S'5ht1c'
p23
I804
I811
tp24
a(S'5ht1b'
p25
I2811
I2817
tp26
a(S'5ht1a'
p27
I631
I637
tp28
a(S'5ht1a'
p29
I1431
I1437
tp30
a(S'5ht1a'
p31
I764
I770
tp32
a(S'5ht1c'
p33
I2868
I2874
tp34
a(S'5ht2'
p35
I849
I854
tp36
a(S'5ht1c'
p37
I849
I856
tp38
a(S'5ht2'
p39
I2859
I2864
tp40
a(S'5ht1b'
p41
I670
I676
tp42
a(S'5ht3'
p43
I935
I940
tp44
a(S'5ht1b'
p45
I2848
I2854
tp46
a(S'5ht2'
p47
I804
I809
tp48
atp49
Rp50
sS'raw_text_methods'
p51
g3
((lp52
S"(15, u'\\\\b8ohdpat')"
p53
aS"(13, u'\\\\bagonist')"
p54
aS"(8, u'\\\\bru24969')"
p55
aS"(49, u'\\\\bdoi')"
p56
aS"(9, u'\\\\britanserin')"
p57
aS"(12, u'\\\\bantagonist')"
p58
atp59
Rp60
sS'regions'
p61
g3
((lp62
S"(15, u'(?i)\\\\b(substantias|substantia)(-|\\\\s+)?(nigras|nigra)\\\\b')"
p63
aS"(23, u'(?i)\\\\b(forebrains|forebrain)\\\\b')"
p64
atp65
Rp66
sS'year'
p67
V1992
p68
sS'species'
p69
g3
((lp70
S"(4, u'(?i)\\\\b(rats|rat)\\\\b')"
p71
atp72
Rp73
sb.