(ifile_types
ParseObject
p0
(dp1
S'methods'
p2
c__builtin__
set
p3
((lp4
S'Method.PET'
p5
atp6
Rp7
sS'topics'
p8
g3
((lp9
S"(3, u'\\\\bclinical')"
p10
atp11
Rp12
sS'receptors'
p13
g3
((lp14
(S'5ht6'
p15
I114
I119
tp16
a(S'5ht2a'
p17
I1493
I1499
tp18
a(S'5ht6'
p19
I500
I505
tp20
a(S'5ht6'
p21
I249
I254
tp22
a(S'5ht6'
p23
I1805
I1810
tp24
a(S'5ht6'
p25
I1620
I1625
tp26
a(S'5ht6'
p27
I596
I601
tp28
a(S'5ht6'
p29
I1150
I1155
tp30
a(S'5ht6'
p31
I1401
I1406
tp32
atp33
Rp34
sS'raw_text_methods'
p35
g3
((lp36
S"(17, u'\\\\bpet')"
p37
aS"(18, u'\\\\bimaging')"
p38
aS"(54, u'\\\\bautoradiography')"
p39
atp40
Rp41
sS'regions'
p42
g3
((lp43
S"(19, u'(?i)\\\\b(cortexes|cortex)\\\\b')"
p44
aS"(8, u'(?i)\\\\b(centrals|central)(-|\\\\s+)?(nervouses|nervous)(-|\\\\s+)?(systems|system)\\\\b')"
p45
aS"(9, u'(?i)\\\\b(cerebellums|cerebellum)\\\\b')"
p46
atp47
Rp48
sS'year'
p49
V2012
p50
sS'species'
p51
g3
((lp52
S"(8, u'(?i)\\\\b(primates|primate)\\\\b')"
p53
atp54
Rp55
sb.