(ifile_types
ParseObject
p0
(dp1
S'methods'
p2
c__builtin__
set
p3
((lp4
tp5
Rp6
sS'topics'
p7
g3
((lp8
S"(26, u'\\\\bbehav')"
p9
aS"(4, u'\\\\btreatment')"
p10
atp11
Rp12
sS'receptors'
p13
g3
((lp14
(S'5ht2a'
p15
I1124
I1130
tp16
a(S'5ht2a'
p17
I973
I979
tp18
a(S'5ht2a'
p19
I406
I412
tp20
a(S'5ht2a'
p21
I798
I804
tp22
a(S'5ht2a'
p23
I54
I65
tp24
a(S'5ht2c'
p25
I1124
I1132
tp26
a(S'5ht2c'
p27
I616
I622
tp28
a(S'5ht2c'
p29
I406
I414
tp30
a(S'5ht2c'
p31
I973
I981
tp32
a(S'5ht2c'
p33
I54
I67
tp34
a(S'5ht2c'
p35
I198
I206
tp36
a(S'5ht2a'
p37
I198
I204
tp38
atp39
Rp40
sS'raw_text_methods'
p41
g3
((lp42
tp43
Rp44
sS'regions'
p45
g3
((lp46
S"(19, u'(?i)\\\\b(cortexes|cortex)\\\\b')"
p47
atp48
Rp49
sS'year'
p50
V1996
p51
sS'species'
p52
g3
((lp53
S"(4, u'(?i)\\\\b(rats|rat)\\\\b')"
p54
atp55
Rp56
sb.