(ifile_types
ParseObject
p0
(dp1
S'methods'
p2
c__builtin__
set
p3
((lp4
S'Method.ANTAGONIST'
p5
aS'Method.AGONIST'
p6
atp7
Rp8
sS'topics'
p9
g3
((lp10
tp11
Rp12
sS'receptors'
p13
g3
((lp14
(S'5ht2c'
p15
I508
I516
tp16
a(S'5ht2a'
p17
I345
I351
tp18
a(S'5ht2a'
p19
I1398
I1404
tp20
a(S'5ht2a'
p21
I1354
I1360
tp22
a(S'5ht2a'
p23
I1479
I1485
tp24
a(S'5ht2a'
p25
I508
I514
tp26
a(S'5ht2a'
p27
I28
I39
tp28
a(S'5ht2a'
p29
I1019
I1025
tp30
a(S'5ht2a'
p31
I754
I760
tp32
a(S'5ht2a'
p33
I783
I789
tp34
atp35
Rp36
sS'raw_text_methods'
p37
g3
((lp38
S"(13, u'\\\\bagonist')"
p39
aS"(49, u'\\\\bdoi')"
p40
aS"(12, u'\\\\bantagonist')"
p41
atp42
Rp43
sS'regions'
p44
g3
((lp45
S"(11, u'(?i)\\\\b(cerebrals|cerebral)\\\\b')"
p46
aS"(19, u'(?i)\\\\b(cortexes|cortex)\\\\b')"
p47
atp48
Rp49
sS'year'
p50
V2014
p51
sS'species'
p52
g3
((lp53
S"(4, u'(?i)\\\\b(rats|rat)\\\\b')"
p54
atp55
Rp56
sb.