(ifile_types
ParseObject
p0
(dp1
S'antagonists'
p2
c__builtin__
set
p3
((lp4
S"(53, u'\\\\bketanserin')"
p5
aS"(129, u'\\\\bly ?53857')"
p6
aS"(130, u'\\\\britanserin')"
p7
aS"(52, u'\\\\bmetergoline')"
p8
aS"(34, u'\\\\byohimbine')"
p9
aS"(128, u'\\\\bketanserin')"
p10
aS"(54, u'\\\\britanserin')"
p11
aS"(200, u'\\\\bmesulergine')"
p12
aS"(22, u'\\\\bpropranolol')"
p13
aS"(117, u'\\\\bmianserin')"
p14
aS"(27, u'\\\\bspiperone')"
p15
aS"(135, u'\\\\bondansetron')"
p16
aS"(35, u'\\\\bmetergoline')"
p17
atp18
Rp19
sS'methods'
p20
g3
((lp21
S'Method.STIMULATION'
p22
aS'Method.ANTAGONIST'
p23
aS'Method.AGONIST'
p24
atp25
Rp26
sS'topics'
p27
g3
((lp28
tp29
Rp30
sS'receptors'
p31
g3
((lp32
S'5ht1b'
p33
aS'5ht5'
p34
aS'5ht2b'
p35
aS'5ht2c'
p36
aS'5ht1'
p37
aS'5ht2a'
p38
aS'5ht1a'
p39
aS'5ht3a'
p40
aS'5ht2d'
p41
atp42
Rp43
sS'regions'
p44
g3
((lp45
S"(34, u'(?i)(pon|pons)')"
p46
atp47
Rp48
sS'year'
p49
V1996
p50
sS'agonists'
p51
g3
((lp52
S"(89, u'\\\\byohimbine')"
p53
aS"(161, u'\\\\bmcpp')"
p54
aS"(171, u'\\\\bmesulergine')"
p55
aS"(33, u'\\\\bdoi')"
p56
atp57
Rp58
sS'species'
p59
g3
((lp60
S"(2323, u'(?i)(bees|bee)')"
p61
aS"(4624, u'(?i)(apes|ape)')"
p62
aS"(2568, u'(?i)(hens|hen)')"
p63
aS"(6753, u'(?i)(da|das)')"
p64
aS"(468, u'(?i)(oxen|ox)')"
p65
aS"(1055, u'(?i)(men|man)')"
p66
aS"(6249, u'(?i)(ants|ant)')"
p67
aS"(4964, u'(?i)(serins|serin)')"
p68
aS"(5958, u'(?i)(rats|rat)')"
p69
aS"(736, u'(?i)(fawns|fawn)')"
p70
aS"(3812, u'(?i)(studs|stud)')"
p71
aS"(6356, u'(?i)(ais|ai)')"
p72
atp73
Rp74
sb.