(ifile_types
ParseObject
p0
(dp1
S'antagonists'
p2
c__builtin__
set
p3
((lp4
tp5
Rp6
sS'methods'
p7
g3
((lp8
S'Method.AGONIST'
p9
atp10
Rp11
sS'topics'
p12
g3
((lp13
S"(7, u'\\\\bmemory')"
p14
aS"(1, u'\\\\bmood')"
p15
atp16
Rp17
sS'receptors'
p18
g3
((lp19
S'5ht1b'
p20
aS'5ht1a'
p21
aS'5ht1'
p22
atp23
Rp24
sS'regions'
p25
g3
((lp26
S"(71, u'(?i)\\\\b(cerebellums|cerebellum)\\\\b')"
p27
aS"(209, u'(?i)\\\\b(amygdalas|amygdala)\\\\b')"
p28
atp29
Rp30
sS'year'
p31
V2000
p32
sS'agonists'
p33
g3
((lp34
S"(221, u'\\\\b5 ?mt')"
p35
aS"(149, u'\\\\bmem')"
p36
atp37
Rp38
sS'species'
p39
g3
((lp40
S"(5958, u'(?i)\\\\b(rats|rat)\\\\b')"
p41
aS"(6125, u'(?i)\\\\b(females|female)\\\\b')"
p42
atp43
Rp44
sb.