(ifile_types
ParseObject
p0
(dp1
S'methods'
p2
c__builtin__
set
p3
((lp4
tp5
Rp6
sS'topics'
p7
g3
((lp8
S"(8, u'\\\\banxi')"
p9
aS"(7, u'\\\\bdepressi')"
p10
aS"(2, u'\\\\bdisorder')"
p11
atp12
Rp13
sS'receptors'
p14
g3
((lp15
(S'5ht1b'
p16
I614
I620
tp17
a(S'5ht1b'
p18
I1039
I1045
tp19
a(S'5ht1d'
p20
I631
I637
tp21
a(S'5ht1b'
p22
I740
I746
tp23
a(S'5ht1b'
p24
I127
I133
tp25
a(S'5ht1b'
p26
I1261
I1267
tp27
a(S'5ht1b'
p28
I804
I810
tp29
atp30
Rp31
sS'raw_text_methods'
p32
g3
((lp33
tp34
Rp35
sS'regions'
p36
g3
((lp37
tp38
Rp39
sS'year'
p40
V1992
p41
sS'species'
p42
g3
((lp43
S"(6, u'(?i)\\\\b(rodents|rodent)\\\\b')"
p44
atp45
Rp46
sb.