(ifile_types
ParseObject
p0
(dp1
S'methods'
p2
c__builtin__
set
p3
((lp4
S'Method.ANTAGONIST'
p5
aS'Method.AGONIST'
p6
atp7
Rp8
sS'topics'
p9
g3
((lp10
tp11
Rp12
sS'receptors'
p13
g3
((lp14
(S'5ht2a'
p15
I887
I893
tp16
atp17
Rp18
sS'raw_text_methods'
p19
g3
((lp20
tp21
Rp22
sS'regions'
p23
g3
((lp24
tp25
Rp26
sS'year'
p27
V2003
p28
sS'species'
p29
g3
((lp30
S"(4, u'(?i)\\\\b(rats|rat)\\\\b')"
p31
atp32
Rp33
sb.