(ifile_types
ParseObject
p0
(dp1
S'antagonists'
p2
c__builtin__
set
p3
((lp4
S"(23, u'\\\\brisperidone')"
p5
aS"(67, u'\\\\bhaloperidol')"
p6
aS"(54, u'\\\\britanserin')"
p7
aS"(59, u'\\\\brisperidone')"
p8
aS"(130, u'\\\\britanserin')"
p9
atp10
Rp11
sS'methods'
p12
g3
((lp13
S'Method.ANTAGONIST'
p14
atp15
Rp16
sS'topics'
p17
g3
((lp18
tp19
Rp20
sS'receptors'
p21
g3
((lp22
S'5ht5'
p23
aS'5ht2c'
p24
aS'5ht2a'
p25
atp26
Rp27
sS'regions'
p28
g3
((lp29
S"(220, u'(?i)(striatums|striatum)')"
p30
aS"(226, u'(?i)(nuclei|nucleus)(-|\\\\s+)?(accumben|accumbens)')"
p31
aS"(223, u'(?i)(putamens|putamen)')"
p32
aS"(34, u'(?i)(pon|pons)')"
p33
atp34
Rp35
sS'year'
p36
V1998
p37
sS'agonists'
p38
g3
((lp39
S"(48, u'\\\\bhaloperidol')"
p40
atp41
Rp42
sS'species'
p43
g3
((lp44
S"(2670, u'(?i)(arabs|arab)')"
p45
aS"(6753, u'(?i)(da|das)')"
p46
aS"(2568, u'(?i)(hens|hen)')"
p47
aS"(867, u'(?i)(tits|tit)')"
p48
aS"(4979, u'(?i)(cats|cat)')"
p49
aS"(4163, u'(?i)(ermines|ermine)')"
p50
aS"(1055, u'(?i)(men|man)')"
p51
aS"(6249, u'(?i)(ants|ant)')"
p52
aS"(4964, u'(?i)(serins|serin)')"
p53
aS"(5958, u'(?i)(rats|rat)')"
p54
aS"(7094, u'(?i)(curs|cur)')"
p55
aS"(3812, u'(?i)(studs|stud)')"
p56
aS"(6325, u'(?i)(caudates|caudate)')"
p57
aS"(5743, u'(?i)(bots|bot)')"
p58
aS"(6356, u'(?i)(ais|ai)')"
p59
atp60
Rp61
sb.