(ifile_types
ParseObject
p0
(dp1
S'antagonists'
p2
c__builtin__
set
p3
((lp4
S"(110, u'\\\\bclozapine')"
p5
aS"(131, u'\\\\bm1')"
p6
aS"(31, u'\\\\bway ?100635')"
p7
atp8
Rp9
sS'methods'
p10
g3
((lp11
S'Method.ANTAGONIST'
p12
aS'Method.AGONIST'
p13
atp14
Rp15
sS'topics'
p16
g3
((lp17
S"(15, u'\\\\bschizophreni')"
p18
aS"(6, u'\\\\bcognit')"
p19
atp20
Rp21
sS'receptors'
p22
g3
((lp23
S'5ht6'
p24
aS'5ht1a'
p25
aS'5ht4'
p26
aS'5ht2b'
p27
aS'5ht2a'
p28
aS'5ht7a'
p29
aS'5ht6a'
p30
aS'5ht3'
p31
atp32
Rp33
sS'regions'
p34
g3
((lp35
S"(96, u'(?i)\\\\b(ventrals|ventral)(-|\\\\s+)?(tegmentals|tegmental)(-|\\\\s+)?(areas|area)\\\\b')"
p36
aS"(103, u'(?i)\\\\b(substantias|substantia)(-|\\\\s+)?(nigras|nigra)\\\\b')"
p37
aS"(226, u'(?i)\\\\b(nuclei|nucleus)(-|\\\\s+)?(accumben|accumbens)\\\\b')"
p38
atp39
Rp40
sS'year'
p41
V2007
p42
sS'agonists'
p43
g3
((lp44
S"(23, u'\\\\bclozapine')"
p45
aS"(39, u'\\\\bflesinoxan')"
p46
atp47
Rp48
sS'species'
p49
g3
((lp50
S"(3062, u'(?i)\\\\b(guineas|guinea)\\\\b')"
p51
aS"(3196, u'(?i)\\\\b(human|humans)\\\\b')"
p52
aS"(1057, u'(?i)\\\\b(humans|human)\\\\b')"
p53
aS"(5958, u'(?i)\\\\b(rats|rat)\\\\b')"
p54
aS"(4480, u'(?i)\\\\b(guineas|guinea)(-|\\\\s+)?(pigs|pig)\\\\b')"
p55
aS"(3051, u'(?i)\\\\b(pigs|pig)\\\\b')"
p56
atp57
Rp58
sb.