(ifile_types
ParseObject
p0
(dp1
S'methods'
p2
c__builtin__
set
p3
((lp4
S'Method.ANTAGONIST'
p5
aS'Method.AGONIST'
p6
atp7
Rp8
sS'topics'
p9
g3
((lp10
S"(4, u'\\\\btreatment')"
p11
atp12
Rp13
sS'receptors'
p14
g3
((lp15
(S'5ht3'
p16
I1006
I1011
tp17
a(S'5ht3'
p18
I395
I400
tp19
a(S'5ht3'
p20
I83
I88
tp21
a(S'5ht3'
p22
I744
I749
tp23
a(S'5ht3'
p24
I1141
I1146
tp25
atp26
Rp27
sS'raw_text_methods'
p28
g3
((lp29
S"(13, u'\\\\bagonist')"
p30
aS"(20, u'\\\\bondansetron')"
p31
aS"(12, u'\\\\bantagonist')"
p32
atp33
Rp34
sS'regions'
p35
g3
((lp36
S"(14, u'(?i)\\\\b(caudals|caudal)\\\\b')"
p37
atp38
Rp39
sS'year'
p40
V1998
p41
sS'species'
p42
g3
((lp43
tp44
Rp45
sb.