(ifile_types
ParseObject
p0
(dp1
S'antagonists'
p2
c__builtin__
set
p3
((lp4
S"(130, u'\\\\britanserin')"
p5
aS"(1, u'\\\\balprenolol')"
p6
aS"(135, u'\\\\bondansetron')"
p7
aS"(4, u'\\\\bbmy ?7378')"
p8
aS"(27, u'\\\\bspiperone')"
p9
aS"(54, u'\\\\britanserin')"
p10
atp11
Rp12
sS'methods'
p13
g3
((lp14
S'Method.ANTAGONIST'
p15
aS'Method.AGONIST'
p16
atp17
Rp18
sS'topics'
p19
g3
((lp20
tp21
Rp22
sS'receptors'
p23
g3
((lp24
S'5ht1c'
p25
aS'5ht1b'
p26
aS'5ht1a'
p27
aS'5ht3'
p28
aS'5ht2'
p29
aS'5ht2a'
p30
aS'5ht3a'
p31
atp32
Rp33
sS'regions'
p34
g3
((lp35
S"(318, u'(?i)(raphes|raphe)(-|\\\\s+)?(nuclei|nucleus)')"
p36
aS"(94, u'(?i)(dorsals|dorsal)(-|\\\\s+)?(raphes|raphe)(-|\\\\s+)?(nuclei|nucleus)')"
p37
aS"(34, u'(?i)(pon|pons)')"
p38
atp39
Rp40
sS'year'
p41
V1992
p42
sS'agonists'
p43
g3
((lp44
S"(92, u'\\\\b8 ?oh ?dpat')"
p45
aS"(44, u'\\\\bflesinoxan')"
p46
aS"(24, u'\\\\bbuspirone')"
p47
atp48
Rp49
sS'species'
p50
g3
((lp51
S"(1070, u'(?i)(pets|pet)')"
p52
aS"(3404, u'(?i)(titis|titi)')"
p53
aS"(6753, u'(?i)(da|das)')"
p54
aS"(2568, u'(?i)(hens|hen)')"
p55
aS"(867, u'(?i)(tits|tit)')"
p56
aS"(4979, u'(?i)(cats|cat)')"
p57
aS"(6682, u'(?i)(tera|teras)')"
p58
aS"(81, u'(?i)(asps|asp)')"
p59
aS"(468, u'(?i)(oxen|ox)')"
p60
aS"(1055, u'(?i)(men|man)')"
p61
aS"(6249, u'(?i)(ants|ant)')"
p62
aS"(1349, u'(?i)(rams|ram)')"
p63
aS"(4964, u'(?i)(serins|serin)')"
p64
aS"(3550, u'(?i)(anis|ani)')"
p65
aS"(3522, u'(?i)(tetras|tetra)')"
p66
aS"(5958, u'(?i)(rats|rat)')"
p67
aS"(6356, u'(?i)(ais|ai)')"
p68
aS"(5743, u'(?i)(bots|bot)')"
p69
atp70
Rp71
sb.