(ifile_types
ParseObject
p0
(dp1
S'antagonists'
p2
c__builtin__
set
p3
((lp4
S"(32, u'\\\\bway ?100635')"
p5
aS"(123, u'\\\\bclozapine')"
p6
aS"(142, u'\\\\bm1')"
p7
aS"(56, u'\\\\bclozapine')"
p8
atp9
Rp10
sS'methods'
p11
g3
((lp12
S'Method.ANTAGONIST'
p13
aS'Method.AGONIST'
p14
atp15
Rp16
sS'topics'
p17
g3
((lp18
S"(15, u'\\\\bschizophreni')"
p19
aS"(6, u'\\\\bcognit')"
p20
atp21
Rp22
sS'receptors'
p23
g3
((lp24
S'5ht6'
p25
aS'5ht1a'
p26
aS'5ht4'
p27
aS'5ht2b'
p28
aS'5ht2a'
p29
aS'5ht7a'
p30
aS'5ht6a'
p31
aS'5ht5'
p32
aS'5ht3'
p33
atp34
Rp35
sS'regions'
p36
g3
((lp37
S"(272, u'(?i)(v3s|v3)')"
p38
aS"(96, u'(?i)(ventrals|ventral)(-|\\\\s+)?(tegmentals|tegmental)(-|\\\\s+)?(areas|area)')"
p39
aS"(226, u'(?i)(nuclei|nucleus)(-|\\\\s+)?(accumben|accumbens)')"
p40
aS"(103, u'(?i)(substantias|substantia)(-|\\\\s+)?(nigras|nigra)')"
p41
aS"(34, u'(?i)(pon|pons)')"
p42
atp43
Rp44
sS'year'
p45
V2007
p46
sS'agonists'
p47
g3
((lp48
S"(44, u'\\\\bflesinoxan')"
p49
aS"(27, u'\\\\bclozapine')"
p50
atp51
Rp52
sS'species'
p53
g3
((lp54
S"(5537, u'(?i)(hippos|hippo)')"
p55
aS"(5176, u'(?i)(tegs|teg)')"
p56
aS"(2568, u'(?i)(hens|hen)')"
p57
aS"(6356, u'(?i)(ais|ai)')"
p58
aS"(4979, u'(?i)(cats|cat)')"
p59
aS"(6391, u'(?i)(asses|ass)')"
p60
aS"(3051, u'(?i)(pigs|pig)')"
p61
aS"(468, u'(?i)(oxen|ox)')"
p62
aS"(1055, u'(?i)(men|man)')"
p63
aS"(4371, u'(?i)(lizas|liza)')"
p64
aS"(3062, u'(?i)(guineas|guinea)')"
p65
aS"(853, u'(?i)(minas|mina)')"
p66
aS"(5958, u'(?i)(rats|rat)')"
p67
aS"(1057, u'(?i)(humans|human)')"
p68
aS"(1961, u'(?i)(pens|pen)')"
p69
aS"(1414, u'(?i)(chars|char)')"
p70
aS"(3196, u'(?i)(human|humans)')"
p71
aS"(4480, u'(?i)(guineas|guinea)(-|\\\\s+)?(pigs|pig)')"
p72
aS"(3812, u'(?i)(studs|stud)')"
p73
aS"(6249, u'(?i)(ants|ant)')"
p74
atp75
Rp76
sb.