(ifile_types
ParseObject
p0
(dp1
S'antagonists'
p2
c__builtin__
set
p3
((lp4
tp5
Rp6
sS'methods'
p7
g3
((lp8
S'Method.ANTAGONIST'
p9
aS'Method.AGONIST'
p10
atp11
Rp12
sS'topics'
p13
g3
((lp14
S"(11, u'\\\\banxiolyt')"
p15
aS"(10, u'\\\\banxiety')"
p16
atp17
Rp18
sS'receptors'
p19
g3
((lp20
S'5ht1a'
p21
atp22
Rp23
sS'regions'
p24
g3
((lp25
tp26
Rp27
sS'year'
p28
V1992
p29
sS'agonists'
p30
g3
((lp31
S"(85, u'\\\\b8 ?oh ?dpat')"
p32
atp33
Rp34
sS'species'
p35
g3
((lp36
S"(5799, u'(?i)\\\\b(rodents|rodent)\\\\b')"
p37
aS"(163, u'(?i)\\\\b(mice|mouse)\\\\b')"
p38
aS"(2418, u'(?i)\\\\b(squirrels|squirrel)(-|\\\\s+)?(monkeys|monkey)\\\\b')"
p39
aS"(2341, u'(?i)\\\\b(monkeys|monkey)\\\\b')"
p40
aS"(6771, u'(?i)\\\\b(squirrels|squirrel)\\\\b')"
p41
aS"(5958, u'(?i)\\\\b(rats|rat)\\\\b')"
p42
aS"(4074, u'(?i)\\\\b(bulls|bull)\\\\b')"
p43
atp44
Rp45
sb.