(ifile_types
ParseObject
p0
(dp1
S'methods'
p2
c__builtin__
set
p3
((lp4
S'Method.KNOCKOUT'
p5
aS'Method.STAINING'
p6
atp7
Rp8
sS'topics'
p9
g3
((lp10
tp11
Rp12
sS'receptors'
p13
g3
((lp14
(S'5ht2a'
p15
I1486
I1492
tp16
atp17
Rp18
sS'raw_text_methods'
p19
g3
((lp20
tp21
Rp22
sS'regions'
p23
g3
((lp24
S"(13, u'(?i)\\\\b(septums|septum)\\\\b')"
p25
atp26
Rp27
sS'year'
p28
V2009
p29
sS'species'
p30
g3
((lp31
S"(1, u'(?i)\\\\b(mice|mouse)\\\\b')"
p32
aS"(5, u'(?i)\\\\b(mices|mice)\\\\b')"
p33
atp34
Rp35
sb.