(ifile_types
ParseObject
p0
(dp1
S'antagonists'
p2
c__builtin__
set
p3
((lp4
tp5
Rp6
sS'methods'
p7
g3
((lp8
tp9
Rp10
sS'topics'
p11
g3
((lp12
S"(33, u'\\\\balzheimers')"
p13
aS"(34, u'\\\\bdementia')"
p14
aS"(7, u'\\\\bmemory')"
p15
atp16
Rp17
sS'receptors'
p18
g3
((lp19
S'5ht7'
p20
aS'5ht6'
p21
aS'5ht1a'
p22
aS'5ht4'
p23
aS'5ht2b'
p24
aS'5ht2c'
p25
aS'5ht1'
p26
aS'5ht2a'
p27
aS'5ht6a'
p28
aS'5ht5'
p29
aS'5ht4a'
p30
atp31
Rp32
sS'regions'
p33
g3
((lp34
S"(34, u'(?i)(pon|pons)')"
p35
atp36
Rp37
sS'year'
p38
V2017
p39
sS'agonists'
p40
g3
((lp41
S"(155, u'\\\\bmem')"
p42
atp43
Rp44
sS'species'
p45
g3
((lp46
S"(2323, u'(?i)(bees|bee)')"
p47
aS"(4624, u'(?i)(apes|ape)')"
p48
aS"(2568, u'(?i)(hens|hen)')"
p49
aS"(931, u'(?i)(divers|diver)')"
p50
aS"(5958, u'(?i)(rats|rat)')"
p51
aS"(7539, u'(?i)(mammals|mammal)')"
p52
aS"(479, u'(?i)(lings|ling)')"
p53
aS"(468, u'(?i)(oxen|ox)')"
p54
aS"(1055, u'(?i)(men|man)')"
p55
aS"(4979, u'(?i)(cats|cat)')"
p56
aS"(3550, u'(?i)(anis|ani)')"
p57
aS"(5917, u'(?i)(roaches|roach)')"
p58
aS"(6468, u'(?i)(tuna|tuna)')"
p59
aS"(1414, u'(?i)(chars|char)')"
p60
aS"(6356, u'(?i)(ais|ai)')"
p61
atp62
Rp63
sb.