(ifile_types
ParseObject
p0
(dp1
S'methods'
p2
c__builtin__
set
p3
((lp4
S'Method.ANTAGONIST'
p5
aS'Method.AGONIST'
p6
atp7
Rp8
sS'topics'
p9
g3
((lp10
S"(29, u'\\\\bhyperactiv')"
p11
aS"(26, u'\\\\bbehav')"
p12
aS"(33, u'\\\\blocomot')"
p13
atp14
Rp15
sS'receptors'
p16
g3
((lp17
(S'5ht1b'
p18
I803
I809
tp19
a(S'5ht1b'
p20
I2275
I2281
tp21
a(S'5ht1d'
p22
I803
I810
tp23
a(S'5ht1b'
p24
I683
I689
tp25
a(S'5ht1a'
p26
I892
I898
tp27
a(S'5ht1b'
p28
I1223
I1229
tp29
a(S'5ht1a'
p30
I1412
I1418
tp31
a(S'5ht1b'
p32
I407
I413
tp33
a(S'5ht1b'
p34
I492
I498
tp35
a(S'5ht1a'
p36
I792
I798
tp37
a(S'5ht1d'
p38
I1620
I1627
tp39
a(S'5ht1d'
p40
I683
I690
tp41
a(S'5ht1a'
p42
I571
I577
tp43
a(S'5ht1b'
p44
I176
I182
tp45
a(S'5ht1d'
p46
I492
I499
tp47
a(S'5ht1a'
p48
I2386
I2392
tp49
a(S'5ht1a'
p50
I61
I67
tp51
a(S'5ht1d'
p52
I2275
I2282
tp53
a(S'5ht1d'
p54
I1223
I1230
tp55
a(S'5ht1b'
p56
I1620
I1626
tp57
a(S'5ht1d'
p58
I176
I183
tp59
atp60
Rp61
sS'raw_text_methods'
p62
g3
((lp63
S"(22, u'\\\\bbuspirone')"
p64
aS"(15, u'\\\\b8ohdpat')"
p65
aS"(13, u'\\\\bagonist')"
p66
aS"(30, u'\\\\b2methyl')"
p67
aS"(6, u'\\\\bgr127935')"
p68
aS"(51, u'\\\\bway100635')"
p69
aS"(12, u'\\\\bantagonist')"
p70
atp71
Rp72
sS'regions'
p73
g3
((lp74
tp75
Rp76
sS'year'
p77
V1999
p78
sS'species'
p79
g3
((lp80
S"(7, u'(?i)\\\\b(guineas|guinea)(-|\\\\s+)?(pigs|pig)\\\\b')"
p81
aS"(4, u'(?i)\\\\b(rats|rat)\\\\b')"
p82
atp83
Rp84
sb.