(ifile_types
ParseObject
p0
(dp1
S'methods'
p2
c__builtin__
set
p3
((lp4
S'Method.ANTAGONIST'
p5
aS'Method.AGONIST'
p6
atp7
Rp8
sS'topics'
p9
g3
((lp10
S"(24, u'\\\\banxiolytic')"
p11
aS"(8, u'\\\\banxi')"
p12
aS"(26, u'\\\\bbehav')"
p13
aS"(33, u'\\\\blocomot')"
p14
atp15
Rp16
sS'receptors'
p17
g3
((lp18
(S'5ht2c'
p19
I1770
I1778
tp20
a(S'5ht1a'
p21
I403
I409
tp22
a(S'5ht2a'
p23
I1125
I1131
tp24
a(S'5ht2c'
p25
I1864
I1869
tp26
a(S'5ht2b'
p27
I843
I849
tp28
a(S'5ht2a'
p29
I1770
I1776
tp30
a(S'5ht2'
p31
I414
I419
tp32
a(S'5ht2c'
p33
I1015
I1021
tp34
a(S'5ht2c'
p35
I1125
I1133
tp36
a(S'5ht2b'
p37
I1004
I1010
tp38
a(S'5ht2c'
p39
I843
I851
tp40
a(S'5ht2'
p41
I36
I41
tp42
a(S'5ht2'
p43
I741
I746
tp44
atp45
Rp46
sS'raw_text_methods'
p47
g3
((lp48
S"(13, u'\\\\bagonist')"
p49
aS"(53, u'\\\\bketanserin')"
p50
aS"(33, u'\\\\bmcpp')"
p51
aS"(12, u'\\\\bantagonist')"
p52
atp53
Rp54
sS'regions'
p55
g3
((lp56
S"(12, u'(?i)\\\\b(amygdalas|amygdala)\\\\b')"
p57
aS"(23, u'(?i)\\\\b(forebrains|forebrain)\\\\b')"
p58
atp59
Rp60
sS'year'
p61
V2008
p62
sS'species'
p63
g3
((lp64
S"(1, u'(?i)\\\\b(mice|mouse)\\\\b')"
p65
aS"(6, u'(?i)\\\\b(rodents|rodent)\\\\b')"
p66
aS"(5, u'(?i)\\\\b(mices|mice)\\\\b')"
p67
atp68
Rp69
sb.