(ifile_types
ParseObject
p0
(dp1
S'methods'
p2
c__builtin__
set
p3
((lp4
tp5
Rp6
sS'topics'
p7
g3
((lp8
S"(6, u'\\\\baggressi')"
p9
aS"(26, u'\\\\bbehav')"
p10
atp11
Rp12
sS'receptors'
p13
g3
((lp14
(S'5ht1a'
p15
I979
I984
tp16
atp17
Rp18
sS'raw_text_methods'
p19
g3
((lp20
tp21
Rp22
sS'regions'
p23
g3
((lp24
S"(19, u'(?i)\\\\b(cortexes|cortex)\\\\b')"
p25
atp26
Rp27
sS'year'
p28
V1991
p29
sS'species'
p30
g3
((lp31
tp32
Rp33
sb.