(ifile_types
ParseObject
p0
(dp1
S'methods'
p2
c__builtin__
set
p3
((lp4
S'Method.ANTAGONIST'
p5
aS'Method.AGONIST'
p6
atp7
Rp8
sS'topics'
p9
g3
((lp10
tp11
Rp12
sS'receptors'
p13
g3
((lp14
(S'5ht2a'
p15
I2057
I2063
tp16
a(S'5ht1a'
p17
I279
I285
tp18
a(S'5ht2a'
p19
I313
I319
tp20
a(S'5ht1a'
p21
I1244
I1250
tp22
a(S'5ht2a'
p23
I1930
I1936
tp24
a(S'5ht2a'
p25
I1347
I1353
tp26
a(S'5ht1a'
p27
I134
I140
tp28
a(S'5ht1a'
p29
I1855
I1861
tp30
a(S'5ht2a'
p31
I1773
I1779
tp32
a(S'5ht1a'
p33
I861
I867
tp34
a(S'5ht1a'
p35
I2046
I2052
tp36
a(S'5ht2a'
p37
I91
I97
tp38
atp39
Rp40
sS'raw_text_methods'
p41
g3
((lp42
S"(13, u'\\\\bagonist')"
p43
aS"(15, u'\\\\b8ohdpat')"
p44
aS"(49, u'\\\\bdoi')"
p45
aS"(51, u'\\\\bway100635')"
p46
aS"(12, u'\\\\bantagonist')"
p47
atp48
Rp49
sS'regions'
p50
g3
((lp51
tp52
Rp53
sS'year'
p54
V2006
p55
sS'species'
p56
g3
((lp57
S"(3, u'(?i)\\\\b(males|male)\\\\b')"
p58
aS"(4, u'(?i)\\\\b(rats|rat)\\\\b')"
p59
atp60
Rp61
sb.