(ifile_types
ParseObject
p0
(dp1
S'methods'
p2
c__builtin__
set
p3
((lp4
tp5
Rp6
sS'topics'
p7
g3
((lp8
S"(8, u'\\\\banxi')"
p9
aS"(7, u'\\\\bdepressi')"
p10
aS"(20, u'\\\\bmood')"
p11
aS"(4, u'\\\\btreatment')"
p12
aS"(2, u'\\\\bdisorder')"
p13
atp14
Rp15
sS'receptors'
p16
g3
((lp17
(S'5ht1a'
p18
I1209
I1215
tp19
a(S'5ht1a'
p20
I1235
I1241
tp21
a(S'5ht1a'
p22
I390
I396
tp23
a(S'5ht1a'
p24
I1116
I1122
tp25
a(S'5ht1a'
p26
I82
I88
tp27
a(S'5ht1a'
p28
I1086
I1092
tp29
a(S'5ht1a'
p30
I1883
I1889
tp31
a(S'5ht1a'
p32
I1619
I1625
tp33
a(S'5ht1a'
p34
I660
I666
tp35
a(S'5ht1a'
p36
I1677
I1683
tp37
a(S'5ht1a'
p38
I160
I166
tp39
a(S'5ht1a'
p40
I1796
I1802
tp41
a(S'5ht1a'
p42
I1347
I1353
tp43
atp44
Rp45
sS'raw_text_methods'
p46
g3
((lp47
tp48
Rp49
sS'regions'
p50
g3
((lp51
S"(19, u'(?i)\\\\b(cortexes|cortex)\\\\b')"
p52
atp53
Rp54
sS'year'
p55
V2003
p56
sS'species'
p57
g3
((lp58
tp59
Rp60
sb.