(ifile_types
ParseObject
p0
(dp1
S'methods'
p2
c__builtin__
set
p3
((lp4
S'Method.ANTAGONIST'
p5
aS'Method.AGONIST'
p6
atp7
Rp8
sS'topics'
p9
g3
((lp10
S"(26, u'\\\\bbehav')"
p11
atp12
Rp13
sS'receptors'
p14
g3
((lp15
(S'5ht1b'
p16
I182
I188
tp17
a(S'5ht1b'
p18
I729
I735
tp19
a(S'5ht1b'
p20
I2432
I2438
tp21
a(S'5ht1b'
p22
I2795
I2801
tp23
a(S'5ht1b'
p24
I1765
I1771
tp25
a(S'5ht1b'
p26
I1237
I1243
tp27
a(S'5ht1b'
p28
I310
I316
tp29
a(S'5ht1b'
p30
I620
I626
tp31
a(S'5ht1b'
p32
I2882
I2888
tp33
a(S'5ht1b'
p34
I1326
I1332
tp35
a(S'5ht1b'
p36
I632
I638
tp37
a(S'5ht1b'
p38
I2346
I2352
tp39
a(S'5ht1b'
p40
I2739
I2745
tp41
a(S'5ht1b'
p42
I116
I122
tp43
atp44
Rp45
sS'raw_text_methods'
p46
g3
((lp47
S"(53, u'\\\\bketanserin')"
p48
aS"(34, u'\\\\b5ct')"
p49
aS"(13, u'\\\\bagonist')"
p50
aS"(30, u'\\\\b2methyl')"
p51
aS"(47, u'\\\\bsumatriptan')"
p52
aS"(9, u'\\\\britanserin')"
p53
aS"(12, u'\\\\bantagonist')"
p54
atp55
Rp56
sS'regions'
p57
g3
((lp58
tp59
Rp60
sS'year'
p61
V1998
p62
sS'species'
p63
g3
((lp64
S"(7, u'(?i)\\\\b(guineas|guinea)(-|\\\\s+)?(pigs|pig)\\\\b')"
p65
aS"(4, u'(?i)\\\\b(rats|rat)\\\\b')"
p66
atp67
Rp68
sb.