(ifile_types
ParseObject
p0
(dp1
S'antagonists'
p2
c__builtin__
set
p3
((lp4
S"(32, u'\\\\bway ?100635')"
p5
aS"(54, u'\\\\britanserin')"
p6
aS"(186, u'\\\\bro 04 ?6790')"
p7
aS"(130, u'\\\\britanserin')"
p8
atp9
Rp10
sS'methods'
p11
g3
((lp12
S'Method.ANTAGONIST'
p13
atp14
Rp15
sS'topics'
p16
g3
((lp17
S"(8, u'\\\\blearning')"
p18
aS"(7, u'\\\\bmemory')"
p19
atp20
Rp21
sS'receptors'
p22
g3
((lp23
S'5ht7'
p24
aS'5ht6'
p25
aS'5ht1a'
p26
aS'5ht4'
p27
aS'5ht2b'
p28
aS'5ht2c'
p29
aS'5ht1'
p30
aS'5ht2a'
p31
aS'5ht7b'
p32
aS'5ht5'
p33
aS'5ht3'
p34
atp35
Rp36
sS'regions'
p37
g3
((lp38
tp39
Rp40
sS'year'
p41
V2001
p42
sS'agonists'
p43
g3
((lp44
S"(161, u'\\\\bmcpp')"
p45
aS"(92, u'\\\\b8 ?oh ?dpat')"
p46
aS"(155, u'\\\\bmem')"
p47
atp48
Rp49
sS'species'
p50
g3
((lp51
S"(2568, u'(?i)(hens|hen)')"
p52
aS"(6753, u'(?i)(da|das)')"
p53
aS"(1055, u'(?i)(men|man)')"
p54
aS"(4964, u'(?i)(serins|serin)')"
p55
aS"(6249, u'(?i)(ants|ant)')"
p56
aS"(6356, u'(?i)(ais|ai)')"
p57
atp58
Rp59
sb.