(ifile_types
ParseObject
p0
(dp1
S'methods'
p2
c__builtin__
set
p3
((lp4
S'Method.ANTAGONIST'
p5
atp6
Rp7
sS'topics'
p8
g3
((lp9
S"(4, u'\\\\btreatment')"
p10
atp11
Rp12
sS'receptors'
p13
g3
((lp14
(S'5ht1a'
p15
I1514
I1520
tp16
a(S'5ht1a'
p17
I421
I427
tp18
a(S'5ht1a'
p19
I1972
I1978
tp20
a(S'5ht1a'
p21
I2230
I2236
tp22
a(S'5ht1'
p23
I421
I427
tp24
a(S'5ht1a'
p25
I1844
I1850
tp26
atp27
Rp28
sS'raw_text_methods'
p29
g3
((lp30
S"(7, u'\\\\bpropranolol')"
p31
aS"(22, u'\\\\bbuspirone')"
p32
aS"(15, u'\\\\b8ohdpat')"
p33
aS"(46, u'\\\\bspiperone')"
p34
aS"(9, u'\\\\britanserin')"
p35
aS"(12, u'\\\\bantagonist')"
p36
atp37
Rp38
sS'regions'
p39
g3
((lp40
S"(11, u'(?i)\\\\b(cerebrals|cerebral)\\\\b')"
p41
aS"(19, u'(?i)\\\\b(cortexes|cortex)\\\\b')"
p42
atp43
Rp44
sS'year'
p45
V1996
p46
sS'species'
p47
g3
((lp48
S"(4, u'(?i)\\\\b(rats|rat)\\\\b')"
p49
atp50
Rp51
sb.