(ifile_types
ParseObject
p0
(dp1
S'methods'
p2
c__builtin__
set
p3
((lp4
tp5
Rp6
sS'topics'
p7
g3
((lp8
S"(3, u'\\\\bclinical')"
p9
atp10
Rp11
sS'receptors'
p12
g3
((lp13
(S'5ht3'
p14
I434
I439
tp15
a(S'5ht3'
p16
I203
I208
tp17
a(S'5ht3'
p18
I92
I97
tp19
a(S'5ht3'
p20
I1580
I1585
tp21
a(S'5ht3'
p22
I1787
I1792
tp23
a(S'5ht3'
p24
I1732
I1737
tp25
a(S'5ht3'
p26
I816
I821
tp27
atp28
Rp29
sS'raw_text_methods'
p30
g3
((lp31
tp32
Rp33
sS'regions'
p34
g3
((lp35
S"(23, u'(?i)\\\\b(forebrains|forebrain)\\\\b')"
p36
aS"(17, u'(?i)\\\\b(caudates|caudate)\\\\b')"
p37
aS"(18, u'(?i)\\\\b(putamens|putamen)\\\\b')"
p38
atp39
Rp40
sS'year'
p41
V1996
p42
sS'species'
p43
g3
((lp44
tp45
Rp46
sb.