(ifile_types
ParseObject
p0
(dp1
S'antagonists'
p2
c__builtin__
set
p3
((lp4
tp5
Rp6
sS'methods'
p7
g3
((lp8
S'Method.KNOCKOUT'
p9
aS'Method.ANTAGONIST'
p10
aS'Method.AGONIST'
p11
atp12
Rp13
sS'topics'
p14
g3
((lp15
tp16
Rp17
sS'receptors'
p18
g3
((lp19
S'5ht1b'
p20
aS'5ht1a'
p21
atp22
Rp23
sS'regions'
p24
g3
((lp25
S"(226, u'(?i)(nuclei|nucleus)(-|\\\\s+)?(accumben|accumbens)')"
p26
atp27
Rp28
sS'year'
p29
V2000
p30
sS'agonists'
p31
g3
((lp32
tp33
Rp34
sS'species'
p35
g3
((lp36
S"(2670, u'(?i)(arabs|arab)')"
p37
aS"(2568, u'(?i)(hens|hen)')"
p38
aS"(6356, u'(?i)(ais|ai)')"
p39
aS"(163, u'(?i)(mice|mouse)')"
p40
aS"(6249, u'(?i)(ants|ant)')"
p41
aS"(3726, u'(?i)(mates|mate)')"
p42
aS"(853, u'(?i)(minas|mina)')"
p43
aS"(3550, u'(?i)(anis|ani)')"
p44
aS"(7094, u'(?i)(curs|cur)')"
p45
aS"(1961, u'(?i)(pens|pen)')"
p46
aS"(3812, u'(?i)(studs|stud)')"
p47
aS"(6391, u'(?i)(asses|ass)')"
p48
aS"(5743, u'(?i)(bots|bot)')"
p49
aS"(4979, u'(?i)(cats|cat)')"
p50
atp51
Rp52
sb.