(ifile_types
ParseObject
p0
(dp1
S'antagonists'
p2
c__builtin__
set
p3
((lp4
tp5
Rp6
sS'methods'
p7
g3
((lp8
S'Method.AGONIST'
p9
atp10
Rp11
sS'topics'
p12
g3
((lp13
tp14
Rp15
sS'receptors'
p16
g3
((lp17
S'5ht1c'
p18
aS'5ht1b'
p19
aS'5ht1a'
p20
aS'5ht2b'
p21
aS'5ht1e'
p22
aS'5ht1'
p23
aS'5ht1d'
p24
aS'5ht5'
p25
aS'5ht3'
p26
atp27
Rp28
sS'regions'
p29
g3
((lp30
S"(103, u'(?i)(substantias|substantia)(-|\\\\s+)?(nigras|nigra)')"
p31
aS"(34, u'(?i)(pon|pons)')"
p32
atp33
Rp34
sS'year'
p35
V1993
p36
sS'agonists'
p37
g3
((lp38
S"(103, u'\\\\bsumatriptan')"
p39
aS"(121, u'\\\\bl ?694247')"
p40
atp41
Rp42
sS'species'
p43
g3
((lp44
S"(2323, u'(?i)(bees|bee)')"
p45
aS"(5958, u'(?i)(rats|rat)')"
p46
aS"(3051, u'(?i)(pigs|pig)')"
p47
aS"(468, u'(?i)(oxen|ox)')"
p48
aS"(1055, u'(?i)(men|man)')"
p49
aS"(6249, u'(?i)(ants|ant)')"
p50
aS"(3062, u'(?i)(guineas|guinea)')"
p51
aS"(5743, u'(?i)(bots|bot)')"
p52
aS"(3550, u'(?i)(anis|ani)')"
p53
aS"(6356, u'(?i)(ais|ai)')"
p54
aS"(6391, u'(?i)(asses|ass)')"
p55
aS"(4480, u'(?i)(guineas|guinea)(-|\\\\s+)?(pigs|pig)')"
p56
aS"(821, u'(?i)(lice|louse)')"
p57
atp58
Rp59
sb.