(ifile_types
ParseObject
p0
(dp1
S'methods'
p2
c__builtin__
set
p3
((lp4
S'Method.AGONIST'
p5
atp6
Rp7
sS'topics'
p8
g3
((lp9
S"(26, u'\\\\bbehav')"
p10
aS"(25, u'\\\\bsocial')"
p11
aS"(33, u'\\\\blocomot')"
p12
aS"(6, u'\\\\baggressi')"
p13
aS"(1, u'\\\\bpatient')"
p14
aS"(4, u'\\\\btreatment')"
p15
aS"(3, u'\\\\bclinical')"
p16
atp17
Rp18
sS'receptors'
p19
g3
((lp20
(S'5ht1'
p21
I1823
I1828
tp22
atp23
Rp24
sS'raw_text_methods'
p25
g3
((lp26
S"(41, u'\\\\bhaloperidol')"
p27
aS"(22, u'\\\\bbuspirone')"
p28
aS"(36, u'\\\\bbenzodiazepine')"
p29
aS"(31, u'\\\\bbenzodiazepines')"
p30
aS"(13, u'\\\\bagonist')"
p31
aS"(42, u'\\\\bneuroleptics')"
p32
atp33
Rp34
sS'regions'
p35
g3
((lp36
tp37
Rp38
sS'year'
p39
V1990
p40
sS'species'
p41
g3
((lp42
S"(1, u'(?i)\\\\b(mice|mouse)\\\\b')"
p43
aS"(5, u'(?i)\\\\b(mices|mice)\\\\b')"
p44
aS"(3, u'(?i)\\\\b(males|male)\\\\b')"
p45
aS"(4, u'(?i)\\\\b(rats|rat)\\\\b')"
p46
atp47
Rp48
sb.