(ifile_types
ParseObject
p0
(dp1
S'methods'
p2
c__builtin__
set
p3
((lp4
S'Method.AGONIST'
p5
atp6
Rp7
sS'topics'
p8
g3
((lp9
S"(13, u'\\\\bantidepress')"
p10
aS"(26, u'\\\\bbehav')"
p11
atp12
Rp13
sS'receptors'
p14
g3
((lp15
(S'5ht1a'
p16
I49
I55
tp17
a(S'5ht1b'
p18
I587
I593
tp19
a(S'5ht1a'
p20
I465
I471
tp21
a(S'5ht1a'
p22
I261
I267
tp23
a(S'5ht1b'
p24
I60
I66
tp25
a(S'5ht1a'
p26
I639
I645
tp27
a(S'5ht1b'
p28
I272
I278
tp29
a(S'5ht1b'
p30
I639
I646
tp31
atp32
Rp33
sS'raw_text_methods'
p34
g3
((lp35
S"(13, u'\\\\bagonist')"
p36
aS"(8, u'\\\\bru24969')"
p37
aS"(15, u'\\\\b8ohdpat')"
p38
atp39
Rp40
sS'regions'
p41
g3
((lp42
tp43
Rp44
sS'year'
p45
V2001
p46
sS'species'
p47
g3
((lp48
S"(1, u'(?i)\\\\b(mice|mouse)\\\\b')"
p49
aS"(5, u'(?i)\\\\b(mices|mice)\\\\b')"
p50
atp51
Rp52
sb.