(ifile_types
ParseObject
p0
(dp1
S'antagonists'
p2
c__builtin__
set
p3
((lp4
S"(112, u'\\\\bquetiapine')"
p5
aS"(110, u'\\\\bclozapine')"
p6
aS"(114, u'\\\\bziprasidone')"
p7
aS"(113, u'\\\\brisperidone')"
p8
aS"(50, u'\\\\bquetiapine')"
p9
aS"(111, u'\\\\bolanzapine')"
p10
aS"(35, u'\\\\baripiprazole')"
p11
atp12
Rp13
sS'methods'
p14
g3
((lp15
S'Method.ANTAGONIST'
p16
aS'Method.AGONIST'
p17
atp18
Rp19
sS'topics'
p20
g3
((lp21
S"(15, u'\\\\bschizophreni')"
p22
aS"(6, u'\\\\bcognit')"
p23
atp24
Rp25
sS'receptors'
p26
g3
((lp27
S'5ht1a'
p28
atp29
Rp30
sS'regions'
p31
g3
((lp32
tp33
Rp34
sS'year'
p35
V2008
p36
sS'agonists'
p37
g3
((lp38
S"(20, u'\\\\bbuspirone')"
p39
aS"(59, u'\\\\bperospirone')"
p40
aS"(223, u'\\\\baripiprazole')"
p41
aS"(57, u'\\\\bolanzapine')"
p42
aS"(84, u'\\\\bziprasidone')"
p43
aS"(64, u'\\\\bquetiapine')"
p44
aS"(73, u'\\\\btandospirone')"
p45
aS"(23, u'\\\\bclozapine')"
p46
aS"(176, u'\\\\bdom')"
p47
atp48
Rp49
sS'species'
p50
g3
((lp51
S"(7058, u'(?i)\\\\b(does|doe)\\\\b')"
p52
atp53
Rp54
sb.