(ifile_types
ParseObject
p0
(dp1
S'methods'
p2
c__builtin__
set
p3
((lp4
tp5
Rp6
sS'topics'
p7
g3
((lp8
S"(33, u'\\\\blocomot')"
p9
aS"(13, u'\\\\bantidepress')"
p10
aS"(26, u'\\\\bbehav')"
p11
aS"(4, u'\\\\btreatment')"
p12
aS"(3, u'\\\\bclinical')"
p13
atp14
Rp15
sS'receptors'
p16
g3
((lp17
(S'5ht1b'
p18
I1538
I1544
tp19
a(S'5ht2'
p20
I1488
I1493
tp21
a(S'5ht1a'
p22
I1498
I1504
tp23
a(S'5ht1a'
p24
I1628
I1634
tp25
a(S'5ht1b'
p26
I2026
I2032
tp27
a(S'5ht2'
p28
I1766
I1771
tp29
atp30
Rp31
sS'raw_text_methods'
p32
g3
((lp33
S"(23, u'\\\\bmdl')"
p34
atp35
Rp36
sS'regions'
p37
g3
((lp38
tp39
Rp40
sS'year'
p41
V1986
p42
sS'species'
p43
g3
((lp44
S"(4, u'(?i)\\\\b(rats|rat)\\\\b')"
p45
atp46
Rp47
sb.