(ifile_types
ParseObject
p0
(dp1
S'methods'
p2
c__builtin__
set
p3
((lp4
tp5
Rp6
sS'topics'
p7
g3
((lp8
tp9
Rp10
sS'receptors'
p11
g3
((lp12
(S'5ht1a'
p13
I97
I103
tp14
a(S'5ht1a'
p15
I879
I885
tp16
a(S'5ht1a'
p17
I578
I584
tp18
atp19
Rp20
sS'raw_text_methods'
p21
g3
((lp22
S"(18, u'\\\\bimaging')"
p23
atp24
Rp25
sS'regions'
p26
g3
((lp27
tp28
Rp29
sS'year'
p30
V2002
p31
sS'species'
p32
g3
((lp33
S"(4, u'(?i)\\\\b(rats|rat)\\\\b')"
p34
atp35
Rp36
sb.