(ifile_types
ParseObject
p0
(dp1
S'methods'
p2
c__builtin__
set
p3
((lp4
S'Method.ANTAGONIST'
p5
aS'Method.AGONIST'
p6
atp7
Rp8
sS'topics'
p9
g3
((lp10
S"(26, u'\\\\bbehav')"
p11
atp12
Rp13
sS'receptors'
p14
g3
((lp15
(S'5ht1b'
p16
I470
I476
tp17
a(S'5ht1b'
p18
I2017
I2023
tp19
a(S'5ht1b'
p20
I455
I466
tp21
a(S'5ht1b'
p22
I727
I733
tp23
a(S'5ht7'
p24
I1179
I1186
tp25
a(S'5ht1b'
p26
I1628
I1634
tp27
a(S'5ht1a'
p28
I1398
I1404
tp29
a(S'5ht1b'
p30
I255
I266
tp31
a(S'5ht1b'
p32
I270
I276
tp33
a(S'5ht1b'
p34
I41
I52
tp35
a(S'5ht1a'
p36
I1179
I1185
tp37
atp38
Rp39
sS'raw_text_methods'
p40
g3
((lp41
S"(13, u'\\\\bagonist')"
p42
aS"(15, u'\\\\b8ohdpat')"
p43
aS"(12, u'\\\\bantagonist')"
p44
atp45
Rp46
sS'regions'
p47
g3
((lp48
tp49
Rp50
sS'year'
p51
V2004
p52
sS'species'
p53
g3
((lp54
S"(4, u'(?i)\\\\b(rats|rat)\\\\b')"
p55
atp56
Rp57
sb.