(ifile_types
ParseObject
p0
(dp1
S'methods'
p2
c__builtin__
set
p3
((lp4
S'Method.ANTAGONIST'
p5
aS'Method.AGONIST'
p6
atp7
Rp8
sS'topics'
p9
g3
((lp10
S"(4, u'\\\\btreatment')"
p11
atp12
Rp13
sS'receptors'
p14
g3
((lp15
(S'5ht1a'
p16
I604
I610
tp17
atp18
Rp19
sS'raw_text_methods'
p20
g3
((lp21
S"(16, u'\\\\bdiazepam')"
p22
aS"(15, u'\\\\b8ohdpat')"
p23
aS"(36, u'\\\\bbenzodiazepine')"
p24
aS"(13, u'\\\\bagonist')"
p25
aS"(4, u'\\\\bpcpa')"
p26
aS"(12, u'\\\\bantagonist')"
p27
atp28
Rp29
sS'regions'
p30
g3
((lp31
tp32
Rp33
sS'year'
p34
V2003
p35
sS'species'
p36
g3
((lp37
S"(1, u'(?i)\\\\b(mice|mouse)\\\\b')"
p38
aS"(5, u'(?i)\\\\b(mices|mice)\\\\b')"
p39
atp40
Rp41
sb.