(ifile_types
ParseObject
p0
(dp1
S'methods'
p2
c__builtin__
set
p3
((lp4
S'Method.AGONIST'
p5
atp6
Rp7
sS'topics'
p8
g3
((lp9
S"(8, u'\\\\banxi')"
p10
aS"(5, u'\\\\btherap')"
p11
aS"(7, u'\\\\bdepressi')"
p12
aS"(2, u'\\\\bdisorder')"
p13
atp14
Rp15
sS'receptors'
p16
g3
((lp17
(S'5ht1a'
p18
I338
I344
tp19
a(S'5ht1a'
p20
I324
I335
tp21
a(S'5ht1a'
p22
I614
I620
tp23
a(S'5ht1a'
p24
I170
I176
tp25
atp26
Rp27
sS'raw_text_methods'
p28
g3
((lp29
S"(13, u'\\\\bagonist')"
p30
aS"(17, u'\\\\bpet')"
p31
atp32
Rp33
sS'regions'
p34
g3
((lp35
tp36
Rp37
sS'year'
p38
V2011
p39
sS'species'
p40
g3
((lp41
tp42
Rp43
sb.