(ifile_types
ParseObject
p0
(dp1
S'methods'
p2
c__builtin__
set
p3
((lp4
S'Method.ANTAGONIST'
p5
aS'Method.IMMUNOHISTOCHEMISTRY'
p6
atp7
Rp8
sS'topics'
p9
g3
((lp10
S"(23, u'\\\\bantipsychotic')"
p11
atp12
Rp13
sS'receptors'
p14
g3
((lp15
(S'5ht2a'
p16
I776
I782
tp17
atp18
Rp19
sS'raw_text_methods'
p20
g3
((lp21
S"(46, u'\\\\bspiperone')"
p22
aS"(41, u'\\\\bhaloperidol')"
p23
aS"(3, u'\\\\bimmunoreactiv')"
p24
aS"(40, u'\\\\bclozapine')"
p25
aS"(12, u'\\\\bantagonist')"
p26
atp27
Rp28
sS'regions'
p29
g3
((lp30
S"(23, u'(?i)\\\\b(forebrains|forebrain)\\\\b')"
p31
atp32
Rp33
sS'year'
p34
V2004
p35
sS'species'
p36
g3
((lp37
S"(4, u'(?i)\\\\b(rats|rat)\\\\b')"
p38
atp39
Rp40
sb.