(ifile_types
ParseObject
p0
(dp1
S'methods'
p2
c__builtin__
set
p3
((lp4
S'Method.PET'
p5
atp6
Rp7
sS'topics'
p8
g3
((lp9
S"(8, u'\\\\banxi')"
p10
aS"(1, u'\\\\bpatient')"
p11
aS"(9, u'\\\\bstress')"
p12
aS"(10, u'\\\\bocd')"
p13
aS"(2, u'\\\\bdisorder')"
p14
atp15
Rp16
sS'receptors'
p17
g3
((lp18
(S'5ht1a'
p19
I1369
I1375
tp20
a(S'5ht2a'
p21
I802
I808
tp22
a(S'5ht2'
p23
I802
I808
tp24
a(S'5ht1a'
p25
I1866
I1872
tp26
atp27
Rp28
sS'raw_text_methods'
p29
g3
((lp30
S"(17, u'\\\\bpet')"
p31
aS"(18, u'\\\\bimaging')"
p32
atp33
Rp34
sS'regions'
p35
g3
((lp36
S"(1, u'(?i)\\\\b(neocortexes|neocortex)\\\\b')"
p37
aS"(9, u'(?i)\\\\b(cerebellums|cerebellum)\\\\b')"
p38
atp39
Rp40
sS'year'
p41
V2010
p42
sS'species'
p43
g3
((lp44
tp45
Rp46
sb.