(ifile_types
ParseObject
p0
(dp1
S'methods'
p2
c__builtin__
set
p3
((lp4
S'Method.ANTAGONIST'
p5
aS'Method.AGONIST'
p6
atp7
Rp8
sS'topics'
p9
g3
((lp10
S"(26, u'\\\\bbehav')"
p11
atp12
Rp13
sS'receptors'
p14
g3
((lp15
(S'5ht1b'
p16
I1182
I1187
tp17
a(S'5ht1b'
p18
I169
I175
tp19
a(S'5ht1d'
p20
I1805
I1811
tp21
a(S'5ht1b'
p22
I1399
I1405
tp23
a(S'5ht1b'
p24
I2842
I2848
tp25
a(S'5ht1d'
p26
I1182
I1189
tp27
a(S'5ht1b'
p28
I2616
I2622
tp29
a(S'5ht1b'
p30
I1571
I1577
tp31
a(S'5ht1d'
p32
I1571
I1579
tp33
atp34
Rp35
sS'raw_text_methods'
p36
g3
((lp37
S"(13, u'\\\\bagonist')"
p38
aS"(12, u'\\\\bantagonist')"
p39
atp40
Rp41
sS'regions'
p42
g3
((lp43
tp44
Rp45
sS'year'
p46
V2006
p47
sS'species'
p48
g3
((lp49
S"(4, u'(?i)\\\\b(rats|rat)\\\\b')"
p50
atp51
Rp52
sb.