(ifile_types
ParseObject
p0
(dp1
S'antagonists'
p2
c__builtin__
set
p3
((lp4
S"(130, u'\\\\britanserin')"
p5
aS"(105, u'\\\\bmethysergide')"
p6
aS"(54, u'\\\\britanserin')"
p7
aS"(110, u'\\\\bsb ?242084')"
p8
aS"(61, u'\\\\bmdl ?100907')"
p9
aS"(102, u'\\\\bfluoxetine')"
p10
atp11
Rp12
sS'methods'
p13
g3
((lp14
S'Method.ANTAGONIST'
p15
atp16
Rp17
sS'topics'
p18
g3
((lp19
tp20
Rp21
sS'receptors'
p22
g3
((lp23
S'5ht2c'
p24
aS'5ht1'
p25
aS'5ht2a'
p26
atp27
Rp28
sS'regions'
p29
g3
((lp30
S"(34, u'(?i)(pon|pons)')"
p31
atp32
Rp33
sS'year'
p34
V2002
p35
sS'agonists'
p36
g3
((lp37
S"(153, u'\\\\bmdma')"
p38
aS"(60, u'\\\\bmethysergide')"
p39
atp40
Rp41
sS'species'
p42
g3
((lp43
S"(2323, u'(?i)(bees|bee)')"
p44
aS"(5537, u'(?i)(hippos|hippo)')"
p45
aS"(5958, u'(?i)(rats|rat)')"
p46
aS"(4979, u'(?i)(cats|cat)')"
p47
aS"(468, u'(?i)(oxen|ox)')"
p48
aS"(1055, u'(?i)(men|man)')"
p49
aS"(4964, u'(?i)(serins|serin)')"
p50
aS"(6249, u'(?i)(ants|ant)')"
p51
aS"(1961, u'(?i)(pens|pen)')"
p52
aS"(6356, u'(?i)(ais|ai)')"
p53
atp54
Rp55
sb.