(ifile_types
ParseObject
p0
(dp1
S'methods'
p2
c__builtin__
set
p3
((lp4
S'Method.AGONIST'
p5
atp6
Rp7
sS'topics'
p8
g3
((lp9
S"(30, u'\\\\bpain')"
p10
aS"(35, u'\\\\bnocicept')"
p11
aS"(4, u'\\\\btreatment')"
p12
atp13
Rp14
sS'receptors'
p15
g3
((lp16
(S'5ht1'
p17
I1326
I1331
tp18
a(S'5ht1b'
p19
I1371
I1377
tp20
a(S'5ht1b'
p21
I277
I283
tp22
a(S'5ht1b'
p23
I2578
I2584
tp24
a(S'5ht1d'
p25
I2707
I2713
tp26
a(S'5ht1d'
p27
I2999
I3005
tp28
a(S'5ht1b'
p29
I2880
I2886
tp30
a(S'5ht1d'
p31
I2630
I2636
tp32
a(S'5ht1d'
p33
I2880
I2887
tp34
atp35
Rp36
sS'raw_text_methods'
p37
g3
((lp38
S"(13, u'\\\\bagonist')"
p39
aS"(3, u'\\\\bimmunoreactiv')"
p40
aS"(47, u'\\\\bsumatriptan')"
p41
atp42
Rp43
sS'regions'
p44
g3
((lp45
tp46
Rp47
sS'year'
p48
V1992
p49
sS'species'
p50
g3
((lp51
S"(4, u'(?i)\\\\b(rats|rat)\\\\b')"
p52
atp53
Rp54
sb.