(ifile_types
ParseObject
p0
(dp1
S'antagonists'
p2
c__builtin__
set
p3
((lp4
S"(31, u'\\\\bway ?100635')"
p5
atp6
Rp7
sS'methods'
p8
g3
((lp9
S'Method.ANTAGONIST'
p10
aS'Method.AGONIST'
p11
atp12
Rp13
sS'topics'
p14
g3
((lp15
S"(3, u'\\\\bsleep')"
p16
atp17
Rp18
sS'receptors'
p19
g3
((lp20
S'5ht1a'
p21
atp22
Rp23
sS'regions'
p24
g3
((lp25
S"(146, u'(?i)\\\\b(pulvinars|pulvinar)\\\\b')"
p26
aS"(126, u'(?i)\\\\b(thalamuses|thalamus)\\\\b')"
p27
aS"(174, u'(?i)\\\\b(posteriors|posterior)\\\\b')"
p28
atp29
Rp30
sS'year'
p31
V2002
p32
sS'agonists'
p33
g3
((lp34
S"(85, u'\\\\b8 ?oh ?dpat')"
p35
atp36
Rp37
sS'species'
p38
g3
((lp39
S"(3015, u'(?i)\\\\b(ferrets|ferret)\\\\b')"
p40
atp41
Rp42
sb.