(ifile_types
ParseObject
p0
(dp1
S'antagonists'
p2
c__builtin__
set
p3
((lp4
tp5
Rp6
sS'methods'
p7
g3
((lp8
tp9
Rp10
sS'topics'
p11
g3
((lp12
S"(7, u'\\\\bmemory')"
p13
atp14
Rp15
sS'receptors'
p16
g3
((lp17
S'5ht7'
p18
aS'5ht1b'
p19
aS'5ht5'
p20
aS'5ht4'
p21
aS'5ht2b'
p22
aS'5ht2c'
p23
aS'5ht6'
p24
aS'5ht2a'
p25
aS'5ht1d'
p26
aS'5ht1a'
p27
aS'5ht6a'
p28
aS'5ht3'
p29
atp30
Rp31
sS'regions'
p32
g3
((lp33
tp34
Rp35
sS'year'
p36
V2017
p37
sS'agonists'
p38
g3
((lp39
S"(155, u'\\\\bmem')"
p40
atp41
Rp42
sS'species'
p43
g3
((lp44
S"(4624, u'(?i)(apes|ape)')"
p45
aS"(2568, u'(?i)(hens|hen)')"
p46
aS"(931, u'(?i)(divers|diver)')"
p47
aS"(5958, u'(?i)(rats|rat)')"
p48
aS"(7539, u'(?i)(mammals|mammal)')"
p49
aS"(479, u'(?i)(lings|ling)')"
p50
aS"(468, u'(?i)(oxen|ox)')"
p51
aS"(1055, u'(?i)(men|man)')"
p52
aS"(7094, u'(?i)(curs|cur)')"
p53
aS"(1349, u'(?i)(rams|ram)')"
p54
aS"(6356, u'(?i)(ais|ai)')"
p55
aS"(3550, u'(?i)(anis|ani)')"
p56
aS"(1553, u'(?i)(mews|mew)')"
p57
aS"(5917, u'(?i)(roaches|roach)')"
p58
aS"(6391, u'(?i)(asses|ass)')"
p59
aS"(1414, u'(?i)(chars|char)')"
p60
aS"(6234, u'(?i)(searchers|searcher)')"
p61
atp62
Rp63
sb.