(ifile_types
ParseObject
p0
(dp1
S'antagonists'
p2
c__builtin__
set
p3
((lp4
S"(21, u'\\\\bpindolol')"
p5
atp6
Rp7
sS'methods'
p8
g3
((lp9
S'Method.AGONIST'
p10
atp11
Rp12
sS'topics'
p13
g3
((lp14
tp15
Rp16
sS'receptors'
p17
g3
((lp18
S'5ht5'
p19
aS'5ht1a'
p20
atp21
Rp22
sS'regions'
p23
g3
((lp24
tp25
Rp26
sS'year'
p27
V1996
p28
sS'agonists'
p29
g3
((lp30
S"(24, u'\\\\bbuspirone')"
p31
atp32
Rp33
sS'species'
p34
g3
((lp35
S"(5537, u'(?i)(hippos|hippo)')"
p36
aS"(2334, u'(?i)(eels|eel)')"
p37
aS"(5958, u'(?i)(rats|rat)')"
p38
aS"(6753, u'(?i)(da|das)')"
p39
aS"(468, u'(?i)(oxen|ox)')"
p40
aS"(6249, u'(?i)(ants|ant)')"
p41
aS"(1054, u'(?i)(homoes|homo)')"
p42
aS"(853, u'(?i)(minas|mina)')"
p43
aS"(3550, u'(?i)(anis|ani)')"
p44
aS"(1961, u'(?i)(pens|pen)')"
p45
aS"(6356, u'(?i)(ais|ai)')"
p46
atp47
Rp48
sb.