(ifile_types
ParseObject
p0
(dp1
S'antagonists'
p2
c__builtin__
set
p3
((lp4
tp5
Rp6
sS'methods'
p7
g3
((lp8
S'Method.AGONIST'
p9
atp10
Rp11
sS'topics'
p12
g3
((lp13
S"(35, u'\\\\bstress')"
p14
aS"(12, u'\\\\banxiogen')"
p15
aS"(10, u'\\\\banxiety')"
p16
aS"(16, u'\\\\bfeed')"
p17
atp18
Rp19
sS'receptors'
p20
g3
((lp21
S'5ht2c'
p22
atp23
Rp24
sS'regions'
p25
g3
((lp26
tp27
Rp28
sS'year'
p29
V2014
p30
sS'agonists'
p31
g3
((lp32
S"(141, u'\\\\bro60 ?0175')"
p33
atp34
Rp35
sS'species'
p36
g3
((lp37
S"(2395, u'(?i)\\\\b(mutants|mutant)\\\\b')"
p38
aS"(163, u'(?i)\\\\b(mice|mouse)\\\\b')"
p39
aS"(3636, u'(?i)\\\\b(martins|martin)\\\\b')"
p40
atp41
Rp42
sb.