(ifile_types
ParseObject
p0
(dp1
S'methods'
p2
c__builtin__
set
p3
((lp4
S'Method.STIMULATION'
p5
aS'Method.ANTAGONIST'
p6
aS'Method.IMMUNOHISTOCHEMISTRY'
p7
atp8
Rp9
sS'topics'
p10
g3
((lp11
tp12
Rp13
sS'receptors'
p14
g3
((lp15
(S'5ht3'
p16
I1313
I1318
tp17
atp18
Rp19
sS'raw_text_methods'
p20
g3
((lp21
S"(3, u'\\\\bimmunoreactiv')"
p22
aS"(12, u'\\\\bantagonist')"
p23
atp24
Rp25
sS'regions'
p26
g3
((lp27
tp28
Rp29
sS'year'
p30
V2007
p31
sS'species'
p32
g3
((lp33
tp34
Rp35
sb.