(ifile_types
ParseObject
p0
(dp1
S'methods'
p2
c__builtin__
set
p3
((lp4
S'Method.AGONIST'
p5
atp6
Rp7
sS'topics'
p8
g3
((lp9
S"(11, u'\\\\bobsessive compulsive disorder')"
p10
aS"(2, u'\\\\bdisorder')"
p11
aS"(20, u'\\\\bmood')"
p12
aS"(8, u'\\\\banxi')"
p13
aS"(1, u'\\\\bpatient')"
p14
aS"(10, u'\\\\bocd')"
p15
atp16
Rp17
sS'receptors'
p18
g3
((lp19
(S'5ht1d'
p20
I45
I51
tp21
atp22
Rp23
sS'raw_text_methods'
p24
g3
((lp25
S"(13, u'\\\\bagonist')"
p26
aS"(33, u'\\\\bmcpp')"
p27
aS"(52, u'\\\\bmk212')"
p28
aS"(47, u'\\\\bsumatriptan')"
p29
atp30
Rp31
sS'regions'
p32
g3
((lp33
tp34
Rp35
sS'year'
p36
V1998
p37
sS'species'
p38
g3
((lp39
tp40
Rp41
sb.