(ifile_types
ParseObject
p0
(dp1
S'methods'
p2
c__builtin__
set
p3
((lp4
S'Method.ANTAGONIST'
p5
atp6
Rp7
sS'topics'
p8
g3
((lp9
S"(24, u'\\\\banxiolytic')"
p10
aS"(8, u'\\\\banxi')"
p11
aS"(26, u'\\\\bbehav')"
p12
aS"(9, u'\\\\bstress')"
p13
atp14
Rp15
sS'receptors'
p16
g3
((lp17
(S'5ht3'
p18
I1478
I1483
tp19
atp20
Rp21
sS'raw_text_methods'
p22
g3
((lp23
S"(16, u'\\\\bdiazepam')"
p24
aS"(20, u'\\\\bondansetron')"
p25
aS"(36, u'\\\\bbenzodiazepine')"
p26
aS"(31, u'\\\\bbenzodiazepines')"
p27
aS"(12, u'\\\\bantagonist')"
p28
atp29
Rp30
sS'regions'
p31
g3
((lp32
S"(19, u'(?i)\\\\b(cortexes|cortex)\\\\b')"
p33
atp34
Rp35
sS'year'
p36
V1996
p37
sS'species'
p38
g3
((lp39
S"(4, u'(?i)\\\\b(rats|rat)\\\\b')"
p40
atp41
Rp42
sb.