(ifile_types
ParseObject
p0
(dp1
S'antagonists'
p2
c__builtin__
set
p3
((lp4
S"(134, u'\\\\bgranisetron')"
p5
aS"(67, u'\\\\bhaloperidol')"
p6
atp7
Rp8
sS'methods'
p9
g3
((lp10
S'Method.ANTAGONIST'
p11
aS'Method.AGONIST'
p12
atp13
Rp14
sS'topics'
p15
g3
((lp16
tp17
Rp18
sS'receptors'
p19
g3
((lp20
S'5ht3'
p21
atp22
Rp23
sS'regions'
p24
g3
((lp25
S"(104, u'(?i)(par|pars)(-|\\\\s+)?(compactas|compacta)')"
p26
aS"(103, u'(?i)(substantias|substantia)(-|\\\\s+)?(nigras|nigra)')"
p27
aS"(90, u'(?i)(tegmentums|tegmentum)')"
p28
aS"(34, u'(?i)(pon|pons)')"
p29
atp30
Rp31
sS'year'
p32
V1991
p33
sS'agonists'
p34
g3
((lp35
S"(48, u'\\\\bhaloperidol')"
p36
atp37
Rp38
sS'species'
p39
g3
((lp40
S"(6753, u'(?i)(da|das)')"
p41
aS"(5958, u'(?i)(rats|rat)')"
p42
aS"(5176, u'(?i)(tegs|teg)')"
p43
aS"(1055, u'(?i)(men|man)')"
p44
aS"(6249, u'(?i)(ants|ant)')"
p45
aS"(1349, u'(?i)(rams|ram)')"
p46
aS"(853, u'(?i)(minas|mina)')"
p47
aS"(3550, u'(?i)(anis|ani)')"
p48
aS"(1961, u'(?i)(pens|pen)')"
p49
aS"(3812, u'(?i)(studs|stud)')"
p50
atp51
Rp52
sb.