(ifile_types
ParseObject
p0
(dp1
S'methods'
p2
c__builtin__
set
p3
((lp4
tp5
Rp6
sS'topics'
p7
g3
((lp8
S"(7, u'\\\\bdepressi')"
p9
aS"(20, u'\\\\bmood')"
p10
atp11
Rp12
sS'receptors'
p13
g3
((lp14
(S'5ht1a'
p15
I1543
I1549
tp16
atp17
Rp18
sS'raw_text_methods'
p19
g3
((lp20
S"(36, u'\\\\bbenzodiazepine')"
p21
atp22
Rp23
sS'regions'
p24
g3
((lp25
S"(22, u'(?i)\\\\b(anteriors|anterior)(-|\\\\s+)?(cingulates|cingulate)\\\\b')"
p26
aS"(19, u'(?i)\\\\b(cortexes|cortex)\\\\b')"
p27
aS"(14, u'(?i)\\\\b(caudals|caudal)\\\\b')"
p28
atp29
Rp30
sS'year'
p31
V2008
p32
sS'species'
p33
g3
((lp34
tp35
Rp36
sb.