(ifile_types
ParseObject
p0
(dp1
S'methods'
p2
c__builtin__
set
p3
((lp4
S'Method.ANTAGONIST'
p5
aS'Method.AGONIST'
p6
atp7
Rp8
sS'topics'
p9
g3
((lp10
S"(5, u'\\\\btherap')"
p11
aS"(4, u'\\\\btreatment')"
p12
atp13
Rp14
sS'receptors'
p15
g3
((lp16
(S'5ht1a'
p17
I2048
I2054
tp18
a(S'5ht1a'
p19
I746
I752
tp20
a(S'5ht1a'
p21
I1061
I1067
tp22
a(S'5ht1a'
p23
I376
I382
tp24
a(S'5ht1b'
p25
I1232
I1238
tp26
a(S'5ht1a'
p27
I86
I92
tp28
a(S'5ht1d'
p29
I1232
I1239
tp30
atp31
Rp32
sS'raw_text_methods'
p33
g3
((lp34
S"(38, u'\\\\bssri')"
p35
aS"(34, u'\\\\b5ct')"
p36
aS"(13, u'\\\\bagonist')"
p37
aS"(11, u'\\\\bfluoxetine')"
p38
aS"(6, u'\\\\bgr127935')"
p39
aS"(54, u'\\\\bautoradiography')"
p40
aS"(30, u'\\\\b2methyl')"
p41
aS"(39, u'\\\\bselective serotonin reuptake inhibitor')"
p42
aS"(12, u'\\\\bantagonist')"
p43
atp44
Rp45
sS'regions'
p46
g3
((lp47
S"(15, u'(?i)\\\\b(substantias|substantia)(-|\\\\s+)?(nigras|nigra)\\\\b')"
p48
aS"(4, u'(?i)\\\\b(presynaptics|presynaptic)\\\\b')"
p49
atp50
Rp51
sS'year'
p52
V2002
p53
sS'species'
p54
g3
((lp55
S"(1, u'(?i)\\\\b(mice|mouse)\\\\b')"
p56
aS"(5, u'(?i)\\\\b(mices|mice)\\\\b')"
p57
aS"(3, u'(?i)\\\\b(males|male)\\\\b')"
p58
atp59
Rp60
sb.