(ifile_types
ParseObject
p0
(dp1
S'methods'
p2
c__builtin__
set
p3
((lp4
S'Method.ANTAGONIST'
p5
atp6
Rp7
sS'topics'
p8
g3
((lp9
tp10
Rp11
sS'receptors'
p12
g3
((lp13
(S'5ht1a'
p14
I393
I399
tp15
a(S'5ht5'
p16
I181
I191
tp17
a(S'5ht2'
p18
I1273
I1278
tp19
a(S'5ht1'
p20
I1259
I1265
tp21
a(S'5ht1a'
p22
I786
I792
tp23
a(S'5ht1a'
p24
I1259
I1265
tp25
a(S'5ht2'
p26
I847
I852
tp27
atp28
Rp29
sS'raw_text_methods'
p30
g3
((lp31
S"(7, u'\\\\bpropranolol')"
p32
aS"(12, u'\\\\bantagonist')"
p33
atp34
Rp35
sS'regions'
p36
g3
((lp37
S"(19, u'(?i)\\\\b(cortexes|cortex)\\\\b')"
p38
atp39
Rp40
sS'year'
p41
V1988
p42
sS'species'
p43
g3
((lp44
tp45
Rp46
sb.