(ifile_types
ParseObject
p0
(dp1
S'antagonists'
p2
c__builtin__
set
p3
((lp4
tp5
Rp6
sS'methods'
p7
g3
((lp8
tp9
Rp10
sS'topics'
p11
g3
((lp12
S"(19, u'\\\\bimpulsiv')"
p13
aS"(20, u'\\\\baggressi')"
p14
atp15
Rp16
sS'receptors'
p17
g3
((lp18
S'5ht1b'
p19
atp20
Rp21
sS'regions'
p22
g3
((lp23
tp24
Rp25
sS'year'
p26
V2004
p27
sS'agonists'
p28
g3
((lp29
S"(181, u'\\\\bdom')"
p30
atp31
Rp32
sS'species'
p33
g3
((lp34
S"(2323, u'(?i)(bees|bee)')"
p35
aS"(4624, u'(?i)(apes|ape)')"
p36
aS"(949, u'(?i)(cohoes|coho)')"
p37
aS"(6356, u'(?i)(ais|ai)')"
p38
aS"(702, u'(?i)(genets|genet)')"
p39
aS"(867, u'(?i)(tits|tit)')"
p40
aS"(4979, u'(?i)(cats|cat)')"
p41
aS"(7609, u'(?i)(erns|ern)')"
p42
aS"(6249, u'(?i)(ants|ant)')"
p43
aS"(1055, u'(?i)(men|man)')"
p44
aS"(3726, u'(?i)(mates|mate)')"
p45
aS"(853, u'(?i)(minas|mina)')"
p46
aS"(7094, u'(?i)(curs|cur)')"
p47
aS"(3550, u'(?i)(anis|ani)')"
p48
aS"(5958, u'(?i)(rats|rat)')"
p49
aS"(5917, u'(?i)(roaches|roach)')"
p50
aS"(3812, u'(?i)(studs|stud)')"
p51
aS"(6391, u'(?i)(asses|ass)')"
p52
aS"(1628, u'(?i)(cod|cod)')"
p53
aS"(1683, u'(?i)(terns|tern)')"
p54
atp55
Rp56
sb.