(ifile_types
ParseObject
p0
(dp1
S'methods'
p2
c__builtin__
set
p3
((lp4
S'Method.PET'
p5
aS'Method.ANTAGONIST'
p6
aS'Method.AGONIST'
p7
atp8
Rp9
sS'topics'
p10
g3
((lp11
S"(23, u'\\\\bantipsychotic')"
p12
aS"(3, u'\\\\bclinical')"
p13
atp14
Rp15
sS'receptors'
p16
g3
((lp17
(S'5ht2a'
p18
I581
I587
tp19
a(S'5ht2a'
p20
I1658
I1664
tp21
a(S'5ht2a'
p22
I54
I60
tp23
a(S'5ht2a'
p24
I427
I433
tp25
a(S'5ht2a'
p26
I327
I333
tp27
atp28
Rp29
sS'raw_text_methods'
p30
g3
((lp31
S"(13, u'\\\\bagonist')"
p32
aS"(17, u'\\\\bpet')"
p33
aS"(19, u'\\\\bpositron emission tomography')"
p34
aS"(12, u'\\\\bantagonist')"
p35
atp36
Rp37
sS'regions'
p38
g3
((lp39
tp40
Rp41
sS'year'
p42
V2008
p43
sS'species'
p44
g3
((lp45
tp46
Rp47
sb.