(ifile_types
ParseObject
p0
(dp1
S'methods'
p2
c__builtin__
set
p3
((lp4
S'Method.ANTAGONIST'
p5
atp6
Rp7
sS'topics'
p8
g3
((lp9
S"(30, u'\\\\bpain')"
p10
aS"(1, u'\\\\bpatient')"
p11
aS"(3, u'\\\\bclinical')"
p12
atp13
Rp14
sS'receptors'
p15
g3
((lp16
(S'5ht3'
p17
I349
I354
tp18
atp19
Rp20
sS'raw_text_methods'
p21
g3
((lp22
S"(12, u'\\\\bantagonist')"
p23
atp24
Rp25
sS'regions'
p26
g3
((lp27
tp28
Rp29
sS'year'
p30
V2012
p31
sS'species'
p32
g3
((lp33
tp34
Rp35
sb.