(ifile_types
ParseObject
p0
(dp1
S'methods'
p2
c__builtin__
set
p3
((lp4
S'Method.ANTAGONIST'
p5
aS'Method.AGONIST'
p6
atp7
Rp8
sS'topics'
p9
g3
((lp10
S"(7, u'\\\\bdepressi')"
p11
aS"(13, u'\\\\bantidepress')"
p12
aS"(4, u'\\\\btreatment')"
p13
atp14
Rp15
sS'receptors'
p16
g3
((lp17
(S'5ht1a'
p18
I185
I191
tp19
a(S'5ht1a'
p20
I1683
I1689
tp21
a(S'5ht1a'
p22
I826
I832
tp23
a(S'5ht1a'
p24
I98
I104
tp25
a(S'5ht1a'
p26
I448
I454
tp27
a(S'5ht1a'
p28
I1026
I1032
tp29
a(S'5ht1a'
p30
I393
I399
tp31
atp32
Rp33
sS'raw_text_methods'
p34
g3
((lp35
S"(13, u'\\\\bagonist')"
p36
aS"(15, u'\\\\b8ohdpat')"
p37
aS"(12, u'\\\\bantagonist')"
p38
atp39
Rp40
sS'regions'
p41
g3
((lp42
S"(4, u'(?i)\\\\b(presynaptics|presynaptic)\\\\b')"
p43
aS"(3, u'(?i)\\\\b(postsynaptics|postsynaptic)\\\\b')"
p44
atp45
Rp46
sS'year'
p47
V1992
p48
sS'species'
p49
g3
((lp50
tp51
Rp52
sb.