(ifile_types
ParseObject
p0
(dp1
S'antagonists'
p2
c__builtin__
set
p3
((lp4
S"(32, u'\\\\bway ?100635')"
p5
atp6
Rp7
sS'methods'
p8
g3
((lp9
S'Method.ANTAGONIST'
p10
atp11
Rp12
sS'topics'
p13
g3
((lp14
tp15
Rp16
sS'receptors'
p17
g3
((lp18
S'5ht2d'
p19
aS'5ht1a'
p20
aS'5ht2'
p21
atp22
Rp23
sS'regions'
p24
g3
((lp25
tp26
Rp27
sS'year'
p28
V1998
p29
sS'agonists'
p30
g3
((lp31
tp32
Rp33
sS'species'
p34
g3
((lp35
S"(2568, u'(?i)(hens|hen)')"
p36
aS"(468, u'(?i)(oxen|ox)')"
p37
aS"(6249, u'(?i)(ants|ant)')"
p38
aS"(2334, u'(?i)(eels|eel)')"
p39
aS"(5743, u'(?i)(bots|bot)')"
p40
aS"(5958, u'(?i)(rats|rat)')"
p41
aS"(1961, u'(?i)(pens|pen)')"
p42
atp43
Rp44
sb.