(ifile_types
ParseObject
p0
(dp1
S'antagonists'
p2
c__builtin__
set
p3
((lp4
tp5
Rp6
sS'methods'
p7
g3
((lp8
S'Method.ANTAGONIST'
p9
aS'Method.AGONIST'
p10
atp11
Rp12
sS'topics'
p13
g3
((lp14
tp15
Rp16
sS'receptors'
p17
g3
((lp18
S'5ht1b'
p19
aS'5ht3a'
p20
aS'5ht3'
p21
atp22
Rp23
sS'regions'
p24
g3
((lp25
tp26
Rp27
sS'year'
p28
V1992
p29
sS'agonists'
p30
g3
((lp31
S"(74, u'\\\\bru ?24969')"
p32
aS"(190, u'\\\\b2 ?methyl ?5 ?ht')"
p33
atp34
Rp35
sS'species'
p36
g3
((lp37
S"(5537, u'(?i)(hippos|hippo)')"
p38
aS"(4301, u'(?i)(hydras|hydra)')"
p39
aS"(2568, u'(?i)(hens|hen)')"
p40
aS"(3636, u'(?i)(martins|martin)')"
p41
aS"(867, u'(?i)(tits|tit)')"
p42
aS"(6753, u'(?i)(da|das)')"
p43
aS"(4163, u'(?i)(ermines|ermine)')"
p44
aS"(468, u'(?i)(oxen|ox)')"
p45
aS"(1055, u'(?i)(men|man)')"
p46
aS"(6249, u'(?i)(ants|ant)')"
p47
aS"(6215, u'(?i)(racers|racer)')"
p48
aS"(4979, u'(?i)(cats|cat)')"
p49
aS"(5958, u'(?i)(rats|rat)')"
p50
aS"(3522, u'(?i)(tetras|tetra)')"
p51
aS"(7094, u'(?i)(curs|cur)')"
p52
atp53
Rp54
sb.