(ifile_types
ParseObject
p0
(dp1
S'antagonists'
p2
c__builtin__
set
p3
((lp4
S"(53, u'\\\\bketanserin')"
p5
aS"(128, u'\\\\bketanserin')"
p6
aS"(17, u'\\\\bnan ?190')"
p7
aS"(209, u'\\\\btfmpp')"
p8
atp9
Rp10
sS'methods'
p11
g3
((lp12
S'Method.ANTAGONIST'
p13
aS'Method.AGONIST'
p14
atp15
Rp16
sS'topics'
p17
g3
((lp18
tp19
Rp20
sS'receptors'
p21
g3
((lp22
S'5ht1b'
p23
aS'5ht5'
p24
aS'5ht2c'
p25
aS'5ht1'
p26
aS'5ht2a'
p27
aS'5ht1a'
p28
atp29
Rp30
sS'regions'
p31
g3
((lp32
S"(362, u'(?i)(brains|brain)(-|\\\\s+)?(stems|stem)')"
p33
aS"(34, u'(?i)(pon|pons)')"
p34
atp35
Rp36
sS'year'
p37
V1995
p38
sS'agonists'
p39
g3
((lp40
S"(92, u'\\\\b8 ?oh ?dpat')"
p41
aS"(105, u'\\\\b5 ?carboxamidotryptamine')"
p42
aS"(5, u'\\\\b5 ?ct')"
p43
aS"(183, u'\\\\btfmpp')"
p44
aS"(33, u'\\\\bdoi')"
p45
atp46
Rp47
sS'species'
p48
g3
((lp49
S"(1070, u'(?i)(pets|pet)')"
p50
aS"(5967, u'(?i)(males|male)')"
p51
aS"(6753, u'(?i)(da|das)')"
p52
aS"(2568, u'(?i)(hens|hen)')"
p53
aS"(5510, u'(?i)(bays|bay)')"
p54
aS"(867, u'(?i)(tits|tit)')"
p55
aS"(4979, u'(?i)(cats|cat)')"
p56
aS"(1725, u'(?i)(clams|clam)')"
p57
aS"(468, u'(?i)(oxen|ox)')"
p58
aS"(1055, u'(?i)(men|man)')"
p59
aS"(6249, u'(?i)(ants|ant)')"
p60
aS"(4964, u'(?i)(serins|serin)')"
p61
aS"(5958, u'(?i)(rats|rat)')"
p62
aS"(3522, u'(?i)(tetras|tetra)')"
p63
aS"(7094, u'(?i)(curs|cur)')"
p64
aS"(6356, u'(?i)(ais|ai)')"
p65
aS"(5743, u'(?i)(bots|bot)')"
p66
aS"(821, u'(?i)(lice|louse)')"
p67
atp68
Rp69
sb.