(ifile_types
ParseObject
p0
(dp1
S'antagonists'
p2
c__builtin__
set
p3
((lp4
tp5
Rp6
sS'methods'
p7
g3
((lp8
S'Method.PET'
p9
atp10
Rp11
sS'topics'
p12
g3
((lp13
S"(9, u'\\\\bdepress')"
p14
aS"(1, u'\\\\bmood')"
p15
atp16
Rp17
sS'receptors'
p18
g3
((lp19
S'5ht5'
p20
aS'5ht2a'
p21
atp22
Rp23
sS'regions'
p24
g3
((lp25
tp26
Rp27
sS'year'
p28
V1998
p29
sS'agonists'
p30
g3
((lp31
tp32
Rp33
sS'species'
p34
g3
((lp35
S"(1070, u'(?i)(pets|pet)')"
p36
aS"(2323, u'(?i)(bees|bee)')"
p37
aS"(6753, u'(?i)(da|das)')"
p38
aS"(5958, u'(?i)(rats|rat)')"
p39
aS"(6356, u'(?i)(ais|ai)')"
p40
aS"(4964, u'(?i)(serins|serin)')"
p41
aS"(1055, u'(?i)(men|man)')"
p42
aS"(4604, u'(?i)(mites|mite)')"
p43
aS"(3812, u'(?i)(studs|stud)')"
p44
aS"(6249, u'(?i)(ants|ant)')"
p45
aS"(1057, u'(?i)(humans|human)')"
p46
aS"(3247, u'(?i)(youngs|young)')"
p47
aS"(3196, u'(?i)(human|humans)')"
p48
aS"(4624, u'(?i)(apes|ape)')"
p49
aS"(2809, u'(?i)(toms|tom)')"
p50
aS"(5743, u'(?i)(bots|bot)')"
p51
aS"(4979, u'(?i)(cats|cat)')"
p52
atp53
Rp54
sb.