(ifile_types
ParseObject
p0
(dp1
S'antagonists'
p2
c__builtin__
set
p3
((lp4
S"(112, u'\\\\bquetiapine')"
p5
aS"(110, u'\\\\bclozapine')"
p6
aS"(114, u'\\\\bziprasidone')"
p7
aS"(113, u'\\\\brisperidone')"
p8
aS"(50, u'\\\\bquetiapine')"
p9
aS"(111, u'\\\\bolanzapine')"
p10
aS"(35, u'\\\\baripiprazole')"
p11
aS"(58, u'\\\\bhaloperidol')"
p12
atp13
Rp14
sS'methods'
p15
g3
((lp16
S'Method.ANTAGONIST'
p17
aS'Method.AGONIST'
p18
atp19
Rp20
sS'topics'
p21
g3
((lp22
S"(15, u'\\\\bschizophreni')"
p23
atp24
Rp25
sS'receptors'
p26
g3
((lp27
S'5ht6'
p28
aS'5ht1a'
p29
aS'5ht2c'
p30
aS'5ht2a'
p31
atp32
Rp33
sS'regions'
p34
g3
((lp35
S"(318, u'(?i)\\\\b(raphes|raphe)(-|\\\\s+)?(nuclei|nucleus)\\\\b')"
p36
aS"(103, u'(?i)\\\\b(substantias|substantia)(-|\\\\s+)?(nigras|nigra)\\\\b')"
p37
aS"(90, u'(?i)\\\\b(tegmentums|tegmentum)\\\\b')"
p38
atp39
Rp40
sS'year'
p41
V2003
p42
sS'agonists'
p43
g3
((lp44
S"(64, u'\\\\bquetiapine')"
p45
aS"(223, u'\\\\baripiprazole')"
p46
aS"(57, u'\\\\bolanzapine')"
p47
aS"(84, u'\\\\bziprasidone')"
p48
aS"(43, u'\\\\bhaloperidol')"
p49
aS"(23, u'\\\\bclozapine')"
p50
atp51
Rp52
sS'species'
p53
g3
((lp54
S"(6753, u'(?i)\\\\b(da|das)\\\\b')"
p55
atp56
Rp57
sb.