(ifile_types
ParseObject
p0
(dp1
S'antagonists'
p2
c__builtin__
set
p3
((lp4
tp5
Rp6
sS'methods'
p7
g3
((lp8
S'Method.AGONIST'
p9
atp10
Rp11
sS'topics'
p12
g3
((lp13
tp14
Rp15
sS'receptors'
p16
g3
((lp17
S'5ht1a'
p18
aS'5ht2b'
p19
aS'5ht5'
p20
aS'5ht1'
p21
aS'5ht2'
p22
atp23
Rp24
sS'regions'
p25
g3
((lp26
S"(220, u'(?i)\\\\b(striatums|striatum)\\\\b')"
p27
aS"(248, u'(?i)\\\\b(cerebrals|cerebral)(-|\\\\s+)?(cortexes|cortex)\\\\b')"
p28
atp29
Rp30
sS'year'
p31
V1989
p32
sS'agonists'
p33
g3
((lp34
S"(149, u'\\\\bmem')"
p35
atp36
Rp37
sS'species'
p38
g3
((lp39
S"(163, u'(?i)\\\\b(mice|mouse)\\\\b')"
p40
aS"(5958, u'(?i)\\\\b(rats|rat)\\\\b')"
p41
atp42
Rp43
sb.