(ifile_types
ParseObject
p0
(dp1
S'methods'
p2
c__builtin__
set
p3
((lp4
S'Method.ANTAGONIST'
p5
atp6
Rp7
sS'topics'
p8
g3
((lp9
tp10
Rp11
sS'receptors'
p12
g3
((lp13
(S'5ht1d'
p14
I1073
I1081
tp15
a(S'5ht1a'
p16
I1041
I1047
tp17
a(S'5ht5'
p18
I166
I176
tp19
a(S'5ht1b'
p20
I1073
I1079
tp21
a(S'5ht1d'
p22
I1780
I1786
tp23
a(S'5ht1d'
p24
I1137
I1143
tp25
a(S'5ht4'
p26
I1199
I1204
tp27
a(S'5ht2'
p28
I1756
I1764
tp29
a(S'5ht2b'
p30
I1114
I1122
tp31
a(S'5ht2a'
p32
I1114
I1120
tp33
a(S'5ht1'
p34
I1041
I1047
tp35
a(S'5ht1'
p36
I1137
I1143
tp37
a(S'5ht2a'
p38
I1756
I1762
tp39
a(S'5ht1b'
p40
I1748
I1754
tp41
a(S'5ht2b'
p42
I1756
I1764
tp43
a(S'5ht2'
p44
I1114
I1122
tp45
a(S'5ht2'
p46
I1073
I1082
tp47
a(S'5ht3'
p48
I1177
I1182
tp49
a(S'5ht2'
p50
I1156
I1161
tp51
atp52
Rp53
sS'raw_text_methods'
p54
g3
((lp55
S"(20, u'\\\\bondansetron')"
p56
aS"(12, u'\\\\bantagonist')"
p57
atp58
Rp59
sS'regions'
p60
g3
((lp61
tp62
Rp63
sS'year'
p64
V1999
p65
sS'species'
p66
g3
((lp67
S"(4, u'(?i)\\\\b(rats|rat)\\\\b')"
p68
atp69
Rp70
sb.