(ifile_types
ParseObject
p0
(dp1
S'methods'
p2
c__builtin__
set
p3
((lp4
S'Method.KNOCKOUT'
p5
atp6
Rp7
sS'topics'
p8
g3
((lp9
tp10
Rp11
sS'receptors'
p12
g3
((lp13
(S'5ht3'
p14
I113
I118
tp15
a(S'5ht3'
p16
I250
I255
tp17
a(S'5ht3'
p18
I1193
I1203
tp19
a(S'5ht3'
p20
I1503
I1508
tp21
a(S'5ht3a'
p22
I2497
I2503
tp23
a(S'5ht3'
p24
I237
I247
tp25
a(S'5ht3a'
p26
I1771
I1777
tp27
a(S'5ht3a'
p28
I694
I700
tp29
a(S'5ht3a'
p30
I2574
I2580
tp31
a(S'5ht3'
p32
I1205
I1210
tp33
a(S'5ht3'
p34
I2802
I2807
tp35
a(S'5ht3'
p36
I549
I554
tp37
a(S'5ht3'
p38
I472
I477
tp39
a(S'5ht3a'
p40
I506
I512
tp41
atp42
Rp43
sS'raw_text_methods'
p44
g3
((lp45
tp46
Rp47
sS'regions'
p48
g3
((lp49
S"(9, u'(?i)\\\\b(cerebellums|cerebellum)\\\\b')"
p50
atp51
Rp52
sS'year'
p53
V2013
p54
sS'species'
p55
g3
((lp56
S"(1, u'(?i)\\\\b(mice|mouse)\\\\b')"
p57
aS"(5, u'(?i)\\\\b(mices|mice)\\\\b')"
p58
atp59
Rp60
sb.