(ifile_types
ParseObject
p0
(dp1
S'methods'
p2
c__builtin__
set
p3
((lp4
S'Method.ANTAGONIST'
p5
aS'Method.AGONIST'
p6
atp7
Rp8
sS'topics'
p9
g3
((lp10
S"(22, u'\\\\bschizophreni')"
p11
aS"(26, u'\\\\bbehav')"
p12
aS"(23, u'\\\\bantipsychotic')"
p13
aS"(5, u'\\\\btherap')"
p14
aS"(1, u'\\\\bpatient')"
p15
aS"(4, u'\\\\btreatment')"
p16
atp17
Rp18
sS'receptors'
p19
g3
((lp20
(S'5ht1a'
p21
I1911
I1917
tp22
a(S'5ht1a'
p23
I234
I240
tp24
a(S'5ht1a'
p25
I1484
I1490
tp26
a(S'5ht1a'
p27
I920
I926
tp28
a(S'5ht1a'
p29
I461
I467
tp30
a(S'5ht1a'
p31
I38
I44
tp32
a(S'5ht1a'
p33
I2012
I2018
tp34
atp35
Rp36
sS'raw_text_methods'
p37
g3
((lp38
S"(13, u'\\\\bagonist')"
p39
aS"(51, u'\\\\bway100635')"
p40
aS"(40, u'\\\\bclozapine')"
p41
aS"(12, u'\\\\bantagonist')"
p42
atp43
Rp44
sS'regions'
p45
g3
((lp46
tp47
Rp48
sS'year'
p49
V2007
p50
sS'species'
p51
g3
((lp52
S"(4, u'(?i)\\\\b(rats|rat)\\\\b')"
p53
atp54
Rp55
sb.