(ifile_types
ParseObject
p0
(dp1
S'methods'
p2
c__builtin__
set
p3
((lp4
tp5
Rp6
sS'topics'
p7
g3
((lp8
tp9
Rp10
sS'receptors'
p11
g3
((lp12
(S'5ht2a'
p13
I1247
I1253
tp14
a(S'5ht1a'
p15
I739
I745
tp16
a(S'5ht2a'
p17
I637
I643
tp18
a(S'5ht2a'
p19
I1435
I1441
tp20
a(S'5ht3'
p21
I414
I419
tp22
a(S'5ht2a'
p23
I807
I813
tp24
a(S'5ht2'
p25
I492
I497
tp26
a(S'5ht1'
p27
I482
I487
tp28
a(S'5ht2a'
p29
I983
I989
tp30
a(S'5ht1a'
p31
I626
I632
tp32
a(S'5ht2a'
p33
I1000
I1006
tp34
a(S'5ht1a'
p35
I62
I68
tp36
a(S'5ht2a'
p37
I75
I81
tp38
atp39
Rp40
sS'raw_text_methods'
p41
g3
((lp42
tp43
Rp44
sS'regions'
p45
g3
((lp46
S"(9, u'(?i)\\\\b(cerebellums|cerebellum)\\\\b')"
p47
atp48
Rp49
sS'year'
p50
V2014
p51
sS'species'
p52
g3
((lp53
S"(1, u'(?i)\\\\b(mice|mouse)\\\\b')"
p54
aS"(5, u'(?i)\\\\b(mices|mice)\\\\b')"
p55
atp56
Rp57
sb.