(ifile_types
ParseObject
p0
(dp1
S'antagonists'
p2
c__builtin__
set
p3
((lp4
S"(34, u'\\\\byohimbine')"
p5
aS"(10, u'\\\\biodocyanopindolol')"
p6
atp7
Rp8
sS'methods'
p9
g3
((lp10
S'Method.ANTAGONIST'
p11
aS'Method.AGONIST'
p12
atp13
Rp14
sS'topics'
p15
g3
((lp16
tp17
Rp18
sS'receptors'
p19
g3
((lp20
S'5ht1c'
p21
aS'5ht1b'
p22
aS'5ht5'
p23
aS'5ht3'
p24
aS'5ht2'
p25
aS'5ht1a'
p26
atp27
Rp28
sS'regions'
p29
g3
((lp30
tp31
Rp32
sS'year'
p33
V1992
p34
sS'agonists'
p35
g3
((lp36
S"(72, u'\\\\brauwolscine')"
p37
aS"(89, u'\\\\byohimbine')"
p38
aS"(74, u'\\\\bru ?24969')"
p39
aS"(224, u'\\\\b5 ?methoxytryptamine')"
p40
atp41
Rp42
sS'species'
p43
g3
((lp44
S"(1070, u'(?i)(pets|pet)')"
p45
aS"(4624, u'(?i)(apes|ape)')"
p46
aS"(6753, u'(?i)(da|das)')"
p47
aS"(2568, u'(?i)(hens|hen)')"
p48
aS"(6356, u'(?i)(ais|ai)')"
p49
aS"(867, u'(?i)(tits|tit)')"
p50
aS"(4979, u'(?i)(cats|cat)')"
p51
aS"(6249, u'(?i)(ants|ant)')"
p52
aS"(468, u'(?i)(oxen|ox)')"
p53
aS"(1055, u'(?i)(men|man)')"
p54
aS"(3726, u'(?i)(mates|mate)')"
p55
aS"(3404, u'(?i)(titis|titi)')"
p56
aS"(853, u'(?i)(minas|mina)')"
p57
aS"(5958, u'(?i)(rats|rat)')"
p58
aS"(3522, u'(?i)(tetras|tetra)')"
p59
aS"(7058, u'(?i)(does|doe)')"
p60
aS"(1414, u'(?i)(chars|char)')"
p61
aS"(6391, u'(?i)(asses|ass)')"
p62
aS"(3812, u'(?i)(studs|stud)')"
p63
atp64
Rp65
sb.