(ifile_types
ParseObject
p0
(dp1
S'methods'
p2
c__builtin__
set
p3
((lp4
S'Method.ANTAGONIST'
p5
atp6
Rp7
sS'topics'
p8
g3
((lp9
tp10
Rp11
sS'receptors'
p12
g3
((lp13
(S'5ht3'
p14
I921
I926
tp15
a(S'5ht2'
p16
I616
I621
tp17
a(S'5ht2'
p18
I912
I917
tp19
a(S'5ht1c'
p20
I871
I877
tp21
a(S'5ht3'
p22
I644
I649
tp23
a(S'5ht1'
p24
I855
I860
tp25
a(S'5ht2'
p26
I515
I522
tp27
a(S'5ht1'
p28
I87
I92
tp29
a(S'5ht1c'
p30
I515
I521
tp31
atp32
Rp33
sS'raw_text_methods'
p34
g3
((lp35
S"(53, u'\\\\bketanserin')"
p36
aS"(20, u'\\\\bondansetron')"
p37
aS"(23, u'\\\\bmdl')"
p38
aS"(26, u'\\\\bmdl72222')"
p39
aS"(12, u'\\\\bantagonist')"
p40
atp41
Rp42
sS'regions'
p43
g3
((lp44
tp45
Rp46
sS'year'
p47
V1993
p48
sS'species'
p49
g3
((lp50
S"(4, u'(?i)\\\\b(rats|rat)\\\\b')"
p51
atp52
Rp53
sb.