(ifile_types
ParseObject
p0
(dp1
S'methods'
p2
c__builtin__
set
p3
((lp4
S'Method.KNOCKOUT'
p5
aS'Method.ANTAGONIST'
p6
atp7
Rp8
sS'topics'
p9
g3
((lp10
S"(4, u'\\\\btreatment')"
p11
atp12
Rp13
sS'receptors'
p14
g3
((lp15
(S'5ht1a'
p16
I585
I591
tp17
a(S'5ht1a'
p18
I1114
I1120
tp19
a(S'5ht1a'
p20
I467
I473
tp21
a(S'5ht1a'
p22
I344
I350
tp23
atp24
Rp25
sS'raw_text_methods'
p26
g3
((lp27
S"(18, u'\\\\bimaging')"
p28
aS"(54, u'\\\\bautoradiography')"
p29
aS"(12, u'\\\\bantagonist')"
p30
atp31
Rp32
sS'regions'
p33
g3
((lp34
S"(9, u'(?i)\\\\b(cerebellums|cerebellum)\\\\b')"
p35
atp36
Rp37
sS'year'
p38
V2000
p39
sS'species'
p40
g3
((lp41
S"(1, u'(?i)\\\\b(mice|mouse)\\\\b')"
p42
aS"(5, u'(?i)\\\\b(mices|mice)\\\\b')"
p43
aS"(3, u'(?i)\\\\b(males|male)\\\\b')"
p44
aS"(4, u'(?i)\\\\b(rats|rat)\\\\b')"
p45
atp46
Rp47
sb.