(ifile_types
ParseObject
p0
(dp1
S'methods'
p2
c__builtin__
set
p3
((lp4
S'Method.ANTAGONIST'
p5
aS'Method.AGONIST'
p6
atp7
Rp8
sS'topics'
p9
g3
((lp10
S"(26, u'\\\\bbehav')"
p11
atp12
Rp13
sS'receptors'
p14
g3
((lp15
(S'5ht1a'
p16
I1177
I1183
tp17
a(S'5ht1'
p18
I1279
I1284
tp19
a(S'5ht1a'
p20
I391
I397
tp21
a(S'5ht1'
p22
I1264
I1269
tp23
a(S'5ht1a'
p24
I652
I658
tp25
a(S'5ht1a'
p26
I2186
I2192
tp27
a(S'5ht1'
p28
I1807
I1812
tp29
a(S'5ht1a'
p30
I1464
I1470
tp31
a(S'5ht1'
p32
I1993
I1998
tp33
a(S'5ht1a'
p34
I75
I81
tp35
a(S'5ht1'
p36
I1915
I1920
tp37
a(S'5ht1a'
p38
I2404
I2410
tp39
a(S'5ht1a'
p40
I1958
I1964
tp41
a(S'5ht1'
p42
I1689
I1694
tp43
atp44
Rp45
sS'raw_text_methods'
p46
g3
((lp47
S"(13, u'\\\\bagonist')"
p48
aS"(15, u'\\\\b8ohdpat')"
p49
aS"(12, u'\\\\bantagonist')"
p50
atp51
Rp52
sS'regions'
p53
g3
((lp54
S"(11, u'(?i)\\\\b(cerebrals|cerebral)\\\\b')"
p55
aS"(19, u'(?i)\\\\b(cortexes|cortex)\\\\b')"
p56
atp57
Rp58
sS'year'
p59
V1994
p60
sS'species'
p61
g3
((lp62
S"(4, u'(?i)\\\\b(rats|rat)\\\\b')"
p63
atp64
Rp65
sb.