(ifile_types
ParseObject
p0
(dp1
S'antagonists'
p2
c__builtin__
set
p3
((lp4
S"(33, u'\\\\byohimbine')"
p5
aS"(14, u'\\\\bmethiothepin')"
p6
aS"(124, u'\\\\bondansetron')"
p7
aS"(117, u'\\\\bketanserin')"
p8
aS"(22, u'\\\\bpropranolol')"
p9
atp10
Rp11
sS'methods'
p12
g3
((lp13
S'Method.STIMULATION'
p14
aS'Method.ANTAGONIST'
p15
aS'Method.AGONIST'
p16
atp17
Rp18
sS'topics'
p19
g3
((lp20
tp21
Rp22
sS'receptors'
p23
g3
((lp24
S'5ht7'
p25
aS'5ht1b'
p26
aS'5ht1a'
p27
aS'5ht4'
p28
aS'5ht2b'
p29
aS'5ht1f'
p30
aS'5ht1e'
p31
aS'5ht2a'
p32
aS'5ht6b'
p33
aS'5ht1d'
p34
aS'5ht5c'
p35
aS'5ht5b'
p36
aS'5ht5a'
p37
aS'5ht3'
p38
aS'5ht2c'
p39
atp40
Rp41
sS'regions'
p42
g3
((lp43
tp44
Rp45
sS'year'
p46
V1996
p47
sS'agonists'
p48
g3
((lp49
S"(220, u'\\\\b5 ?methoxytryptamine')"
p50
aS"(96, u'\\\\bsumatriptan')"
p51
aS"(95, u'\\\\boxymetazoline')"
p52
aS"(82, u'\\\\byohimbine')"
p53
aS"(222, u'\\\\b5 ?meot')"
p54
aS"(114, u'\\\\bl ?694247')"
p55
aS"(198, u'\\\\bcisapride')"
p56
aS"(98, u'\\\\b5 ?carboxamidotryptamine')"
p57
aS"(67, u'\\\\bru ?24969')"
p58
aS"(219, u'\\\\b5 ?ct')"
p59
atp60
Rp61
sS'species'
p62
g3
((lp63
S"(1057, u'(?i)\\\\b(humans|human)\\\\b')"
p64
aS"(3196, u'(?i)\\\\b(human|humans)\\\\b')"
p65
atp66
Rp67
sb.