(ifile_types
ParseObject
p0
(dp1
S'antagonists'
p2
c__builtin__
set
p3
((lp4
S"(32, u'\\\\bway ?100635')"
p5
aS"(34, u'\\\\byohimbine')"
p6
aS"(9, u'\\\\bgr ?46611')"
p7
aS"(102, u'\\\\bfluoxetine')"
p8
atp9
Rp10
sS'methods'
p11
g3
((lp12
S'Method.ANTAGONIST'
p13
aS'Method.AGONIST'
p14
atp15
Rp16
sS'topics'
p17
g3
((lp18
S"(9, u'\\\\bdepress')"
p19
atp20
Rp21
sS'receptors'
p22
g3
((lp23
S'5ht1b'
p24
aS'5ht5'
p25
aS'5ht1a'
p26
aS'5ht1'
p27
aS'5ht1d'
p28
atp29
Rp30
sS'regions'
p31
g3
((lp32
S"(318, u'(?i)(raphes|raphe)(-|\\\\s+)?(nuclei|nucleus)')"
p33
aS"(34, u'(?i)(pon|pons)')"
p34
atp35
Rp36
sS'year'
p37
V2000
p38
sS'agonists'
p39
g3
((lp40
S"(89, u'\\\\byohimbine')"
p41
aS"(119, u'\\\\bgr ?46611')"
p42
atp43
Rp44
sS'species'
p45
g3
((lp46
S"(5537, u'(?i)(hippos|hippo)')"
p47
aS"(5958, u'(?i)(rats|rat)')"
p48
aS"(6753, u'(?i)(da|das)')"
p49
aS"(6682, u'(?i)(tera|teras)')"
p50
aS"(3051, u'(?i)(pigs|pig)')"
p51
aS"(468, u'(?i)(oxen|ox)')"
p52
aS"(3062, u'(?i)(guineas|guinea)')"
p53
aS"(1055, u'(?i)(men|man)')"
p54
aS"(2334, u'(?i)(eels|eel)')"
p55
aS"(5743, u'(?i)(bots|bot)')"
p56
aS"(6249, u'(?i)(ants|ant)')"
p57
aS"(1057, u'(?i)(humans|human)')"
p58
aS"(6391, u'(?i)(asses|ass)')"
p59
aS"(3196, u'(?i)(human|humans)')"
p60
aS"(4480, u'(?i)(guineas|guinea)(-|\\\\s+)?(pigs|pig)')"
p61
atp62
Rp63
sb.