(ifile_types
ParseObject
p0
(dp1
S'methods'
p2
c__builtin__
set
p3
((lp4
S'Method.ANTAGONIST'
p5
aS'Method.AGONIST'
p6
atp7
Rp8
sS'topics'
p9
g3
((lp10
S"(33, u'\\\\blocomot')"
p11
aS"(29, u'\\\\bhyperactiv')"
p12
aS"(13, u'\\\\bantidepress')"
p13
aS"(26, u'\\\\bbehav')"
p14
atp15
Rp16
sS'receptors'
p17
g3
((lp18
(S'5ht2c'
p19
I243
I249
tp20
a(S'5ht2c'
p21
I1321
I1327
tp22
a(S'5ht2c'
p23
I148
I154
tp24
a(S'5ht2c'
p25
I700
I706
tp26
atp27
Rp28
sS'raw_text_methods'
p29
g3
((lp30
S"(13, u'\\\\bagonist')"
p31
aS"(43, u'\\\\bagomelatine')"
p32
aS"(12, u'\\\\bantagonist')"
p33
atp34
Rp35
sS'regions'
p36
g3
((lp37
tp38
Rp39
sS'year'
p40
V2012
p41
sS'species'
p42
g3
((lp43
S"(3, u'(?i)\\\\b(males|male)\\\\b')"
p44
aS"(4, u'(?i)\\\\b(rats|rat)\\\\b')"
p45
atp46
Rp47
sb.