(ifile_types
ParseObject
p0
(dp1
S'methods'
p2
c__builtin__
set
p3
((lp4
S'Method.AGONIST'
p5
atp6
Rp7
sS'topics'
p8
g3
((lp9
S"(1, u'\\\\bpatient')"
p10
aS"(2, u'\\\\bdisorder')"
p11
atp12
Rp13
sS'receptors'
p14
g3
((lp15
(S'5ht2a'
p16
I76
I82
tp17
a(S'5ht2a'
p18
I980
I986
tp19
a(S'5ht2a'
p20
I1856
I1862
tp21
a(S'5ht2a'
p22
I2028
I2034
tp23
a(S'5ht2a'
p24
I1260
I1266
tp25
atp26
Rp27
sS'raw_text_methods'
p28
g3
((lp29
S"(13, u'\\\\bagonist')"
p30
aS"(53, u'\\\\bketanserin')"
p31
atp32
Rp33
sS'regions'
p34
g3
((lp35
S"(20, u'(?i)\\\\b(prefrontals|prefrontal)\\\\b')"
p36
atp37
Rp38
sS'year'
p39
V2017
p40
sS'species'
p41
g3
((lp42
tp43
Rp44
sb.