(ifile_types
ParseObject
p0
(dp1
S'methods'
p2
c__builtin__
set
p3
((lp4
S'Method.ANTAGONIST'
p5
aS'Method.AGONIST'
p6
atp7
Rp8
sS'topics'
p9
g3
((lp10
S"(14, u'\\\\bcogniti')"
p11
aS"(26, u'\\\\bbehav')"
p12
aS"(2, u'\\\\bdisorder')"
p13
aS"(13, u'\\\\bantidepress')"
p14
aS"(9, u'\\\\bstress')"
p15
aS"(23, u'\\\\bantipsychotic')"
p16
aS"(5, u'\\\\btherap')"
p17
atp18
Rp19
sS'receptors'
p20
g3
((lp21
(S'5ht7'
p22
I351
I356
tp23
a(S'5ht7'
p24
I1291
I1296
tp25
a(S'5ht7'
p26
I769
I774
tp27
a(S'5ht7'
p28
I1137
I1142
tp29
a(S'5ht7'
p30
I100
I105
tp31
a(S'5ht7'
p32
I169
I174
tp33
atp34
Rp35
sS'raw_text_methods'
p36
g3
((lp37
S"(13, u'\\\\bagonist')"
p38
aS"(12, u'\\\\bantagonist')"
p39
atp40
Rp41
sS'regions'
p42
g3
((lp43
tp44
Rp45
sS'year'
p46
V2013
p47
sS'species'
p48
g3
((lp49
S"(4, u'(?i)\\\\b(rats|rat)\\\\b')"
p50
atp51
Rp52
sb.