(ifile_types
ParseObject
p0
(dp1
S'antagonists'
p2
c__builtin__
set
p3
((lp4
S"(26, u'\\\\bspiperone')"
p5
aS"(14, u'\\\\bmethiothepin')"
p6
aS"(21, u'\\\\bpindolol')"
p7
aS"(117, u'\\\\bketanserin')"
p8
atp9
Rp10
sS'methods'
p11
g3
((lp12
S'Method.ANTAGONIST'
p13
aS'Method.AGONIST'
p14
atp15
Rp16
sS'topics'
p17
g3
((lp18
tp19
Rp20
sS'receptors'
p21
g3
((lp22
S'5ht1b'
p23
aS'5ht1a'
p24
atp25
Rp26
sS'regions'
p27
g3
((lp28
S"(357, u'(?i)\\\\b(optics|optic)(-|\\\\s+)?(tracts|tract)\\\\b')"
p29
atp30
Rp31
sS'year'
p32
V1994
p33
sS'agonists'
p34
g3
((lp35
S"(149, u'\\\\bmem')"
p36
atp37
Rp38
sS'species'
p39
g3
((lp40
S"(4099, u'(?i)\\\\b(hamsters|hamster)\\\\b')"
p41
aS"(4091, u'(?i)\\\\b(adults|adult)\\\\b')"
p42
atp43
Rp44
sb.