(ifile_types
ParseObject
p0
(dp1
S'antagonists'
p2
c__builtin__
set
p3
((lp4
tp5
Rp6
sS'methods'
p7
g3
((lp8
tp9
Rp10
sS'topics'
p11
g3
((lp12
tp13
Rp14
sS'receptors'
p15
g3
((lp16
S'5ht1a'
p17
atp18
Rp19
sS'regions'
p20
g3
((lp21
S"(94, u'(?i)\\\\b(dorsals|dorsal)(-|\\\\s+)?(raphes|raphe)(-|\\\\s+)?(nuclei|nucleus)\\\\b')"
p22
aS"(318, u'(?i)\\\\b(raphes|raphe)(-|\\\\s+)?(nuclei|nucleus)\\\\b')"
p23
aS"(34, u'(?i)\\\\b(pon|pons)\\\\b')"
p24
aS"(70, u'(?i)\\\\b(fourths|fourth)(-|\\\\s+)?(ventricles|ventricle)\\\\b')"
p25
atp26
Rp27
sS'year'
p28
V2008
p29
sS'agonists'
p30
g3
((lp31
S"(176, u'\\\\bdom')"
p32
aS"(149, u'\\\\bmem')"
p33
atp34
Rp35
sS'species'
p36
g3
((lp37
S"(5958, u'(?i)\\\\b(rats|rat)\\\\b')"
p38
atp39
Rp40
sb.