(ifile_types
ParseObject
p0
(dp1
S'antagonists'
p2
c__builtin__
set
p3
((lp4
S"(131, u'\\\\bm1')"
p5
aS"(69, u'\\\\bpimavanserin')"
p6
atp7
Rp8
sS'methods'
p9
g3
((lp10
S'Method.ANTAGONIST'
p11
aS'Method.AGONIST'
p12
atp13
Rp14
sS'topics'
p15
g3
((lp16
S"(14, u'\\\\bpsychosis')"
p17
aS"(30, u'\\\\bparkinsons')"
p18
aS"(4, u'\\\\blocomot')"
p19
atp20
Rp21
sS'receptors'
p22
g3
((lp23
S'5ht2c'
p24
aS'5ht2a'
p25
atp26
Rp27
sS'regions'
p28
g3
((lp29
S"(103, u'(?i)\\\\b(substantias|substantia)(-|\\\\s+)?(nigras|nigra)\\\\b')"
p30
atp31
Rp32
sS'year'
p33
V2011
p34
sS'agonists'
p35
g3
((lp36
S"(11, u'\\\\bamphetamine')"
p37
atp38
Rp39
sS'species'
p40
g3
((lp41
S"(5799, u'(?i)\\\\b(rodents|rodent)\\\\b')"
p42
aS"(1057, u'(?i)\\\\b(humans|human)\\\\b')"
p43
aS"(2054, u'(?i)\\\\b(heads|head)\\\\b')"
p44
aS"(3196, u'(?i)\\\\b(human|humans)\\\\b')"
p45
atp46
Rp47
sb.