(ifile_types
ParseObject
p0
(dp1
S'antagonists'
p2
c__builtin__
set
p3
((lp4
S"(53, u'\\\\bketanserin')"
p5
aS"(128, u'\\\\bketanserin')"
p6
aS"(34, u'\\\\byohimbine')"
p7
atp8
Rp9
sS'methods'
p10
g3
((lp11
S'Method.ANTAGONIST'
p12
aS'Method.AGONIST'
p13
atp14
Rp15
sS'topics'
p16
g3
((lp17
tp18
Rp19
sS'receptors'
p20
g3
((lp21
S'5ht1a'
p22
aS'5ht2b'
p23
aS'5ht2c'
p24
aS'5ht2a'
p25
atp26
Rp27
sS'regions'
p28
g3
((lp29
S"(71, u'(?i)(cerebellums|cerebellum)')"
p30
aS"(209, u'(?i)(amygdalas|amygdala)')"
p31
aS"(223, u'(?i)(putamens|putamen)')"
p32
aS"(34, u'(?i)(pon|pons)')"
p33
aS"(318, u'(?i)(raphes|raphe)(-|\\\\s+)?(nuclei|nucleus)')"
p34
aS"(94, u'(?i)(dorsals|dorsal)(-|\\\\s+)?(raphes|raphe)(-|\\\\s+)?(nuclei|nucleus)')"
p35
atp36
Rp37
sS'year'
p38
V2014
p39
sS'agonists'
p40
g3
((lp41
S"(89, u'\\\\byohimbine')"
p42
aS"(146, u'\\\\bbw ?723c86')"
p43
aS"(147, u'\\\\bro60 ?0175')"
p44
atp45
Rp46
sS'species'
p47
g3
((lp48
S"(2323, u'(?i)(bees|bee)')"
p49
aS"(5537, u'(?i)(hippos|hippo)')"
p50
aS"(5958, u'(?i)(rats|rat)')"
p51
aS"(867, u'(?i)(tits|tit)')"
p52
aS"(6753, u'(?i)(da|das)')"
p53
aS"(4163, u'(?i)(ermines|ermine)')"
p54
aS"(5967, u'(?i)(males|male)')"
p55
aS"(468, u'(?i)(oxen|ox)')"
p56
aS"(1055, u'(?i)(men|man)')"
p57
aS"(3726, u'(?i)(mates|mate)')"
p58
aS"(4964, u'(?i)(serins|serin)')"
p59
aS"(6249, u'(?i)(ants|ant)')"
p60
aS"(3522, u'(?i)(tetras|tetra)')"
p61
aS"(5229, u'(?i)(moles|mole)')"
p62
aS"(1414, u'(?i)(chars|char)')"
p63
aS"(6391, u'(?i)(asses|ass)')"
p64
aS"(6094, u'(?i)(emus|emu)')"
p65
aS"(6325, u'(?i)(caudates|caudate)')"
p66
aS"(6356, u'(?i)(ais|ai)')"
p67
atp68
Rp69
sb.