(ifile_types
ParseObject
p0
(dp1
S'antagonists'
p2
c__builtin__
set
p3
((lp4
tp5
Rp6
sS'methods'
p7
g3
((lp8
S'Method.PET'
p9
atp10
Rp11
sS'topics'
p12
g3
((lp13
S"(29, u'\\\\bsex')"
p14
aS"(9, u'\\\\bdepress')"
p15
atp16
Rp17
sS'receptors'
p18
g3
((lp19
S'5ht1a'
p20
atp21
Rp22
sS'regions'
p23
g3
((lp24
S"(292, u'(?i)(anteriors|anterior)(-|\\\\s+)?(cingulates|cingulate)')"
p25
aS"(280, u'(?i)(inferiors|inferior)(-|\\\\s+)?(temporals|temporal)(-|\\\\s+)?(cortexes|cortex)')"
p26
aS"(254, u'(?i)(prefrontals|prefrontal)(-|\\\\s+)?(cortexes|cortex)')"
p27
aS"(318, u'(?i)(raphes|raphe)(-|\\\\s+)?(nuclei|nucleus)')"
p28
aS"(255, u'(?i)(pres|pre)(-|\\\\s+)?(frontals|frontal)(-|\\\\s+)?(cortexes|cortex)')"
p29
atp30
Rp31
sS'year'
p32
V2008
p33
sS'agonists'
p34
g3
((lp35
tp36
Rp37
sS'species'
p38
g3
((lp39
S"(2323, u'(?i)(bees|bee)')"
p40
aS"(2568, u'(?i)(hens|hen)')"
p41
aS"(6753, u'(?i)(da|das)')"
p42
aS"(6391, u'(?i)(asses|ass)')"
p43
aS"(6682, u'(?i)(tera|teras)')"
p44
aS"(468, u'(?i)(oxen|ox)')"
p45
aS"(1055, u'(?i)(men|man)')"
p46
aS"(6249, u'(?i)(ants|ant)')"
p47
aS"(4979, u'(?i)(cats|cat)')"
p48
aS"(7094, u'(?i)(curs|cur)')"
p49
aS"(5958, u'(?i)(rats|rat)')"
p50
aS"(1057, u'(?i)(humans|human)')"
p51
aS"(5229, u'(?i)(moles|mole)')"
p52
aS"(1961, u'(?i)(pens|pen)')"
p53
aS"(6356, u'(?i)(ais|ai)')"
p54
aS"(3196, u'(?i)(human|humans)')"
p55
aS"(2809, u'(?i)(toms|tom)')"
p56
atp57
Rp58
sb.