(ifile_types
ParseObject
p0
(dp1
S'antagonists'
p2
c__builtin__
set
p3
((lp4
S"(28, u'\\\\bspiroxatrine')"
p5
atp6
Rp7
sS'methods'
p8
g3
((lp9
S'Method.ANTAGONIST'
p10
atp11
Rp12
sS'topics'
p13
g3
((lp14
S"(35, u'\\\\bstress')"
p15
atp16
Rp17
sS'receptors'
p18
g3
((lp19
S'5ht1a'
p20
atp21
Rp22
sS'regions'
p23
g3
((lp24
S"(390, u'(?i)\\\\b(laterals|lateral)(-|\\\\s+)?(ventricle|ventricles)\\\\b')"
p25
atp26
Rp27
sS'year'
p28
V1991
p29
sS'agonists'
p30
g3
((lp31
S"(20, u'\\\\bbuspirone')"
p32
atp33
Rp34
sS'species'
p35
g3
((lp36
S"(5958, u'(?i)\\\\b(rats|rat)\\\\b')"
p37
atp38
Rp39
sb.