(ifile_types
ParseObject
p0
(dp1
S'methods'
p2
c__builtin__
set
p3
((lp4
S'Method.PET'
p5
atp6
Rp7
sS'topics'
p8
g3
((lp9
S"(22, u'\\\\bschizophreni')"
p10
aS"(1, u'\\\\bpatient')"
p11
aS"(23, u'\\\\bantipsychotic')"
p12
aS"(4, u'\\\\btreatment')"
p13
aS"(3, u'\\\\bclinical')"
p14
atp15
Rp16
sS'receptors'
p17
g3
((lp18
(S'5ht2a'
p19
I626
I632
tp20
a(S'5ht2a'
p21
I745
I751
tp22
a(S'5ht2'
p23
I911
I916
tp24
atp25
Rp26
sS'raw_text_methods'
p27
g3
((lp28
S"(17, u'\\\\bpet')"
p29
aS"(19, u'\\\\bpositron emission tomography')"
p30
aS"(18, u'\\\\bimaging')"
p31
aS"(40, u'\\\\bclozapine')"
p32
aS"(42, u'\\\\bneuroleptics')"
p33
atp34
Rp35
sS'regions'
p36
g3
((lp37
tp38
Rp39
sS'year'
p40
V1998
p41
sS'species'
p42
g3
((lp43
tp44
Rp45
sb.