(ifile_types
ParseObject
p0
(dp1
S'methods'
p2
c__builtin__
set
p3
((lp4
S'Method.ANTAGONIST'
p5
aS'Method.AGONIST'
p6
atp7
Rp8
sS'topics'
p9
g3
((lp10
tp11
Rp12
sS'receptors'
p13
g3
((lp14
(S'5ht1a'
p15
I201
I207
tp16
a(S'5ht1a'
p17
I421
I427
tp18
a(S'5ht1a'
p19
I1221
I1227
tp20
a(S'5ht1a'
p21
I124
I135
tp22
a(S'5ht1a'
p23
I1428
I1434
tp24
a(S'5ht1a'
p25
I699
I705
tp26
a(S'5ht1a'
p27
I996
I1002
tp28
a(S'5ht1a'
p29
I186
I197
tp30
atp31
Rp32
sS'raw_text_methods'
p33
g3
((lp34
S"(13, u'\\\\bagonist')"
p35
aS"(15, u'\\\\b8ohdpat')"
p36
aS"(12, u'\\\\bantagonist')"
p37
atp38
Rp39
sS'regions'
p40
g3
((lp41
tp42
Rp43
sS'year'
p44
V2005
p45
sS'species'
p46
g3
((lp47
tp48
Rp49
sb.