(ifile_types
ParseObject
p0
(dp1
S'methods'
p2
c__builtin__
set
p3
((lp4
S'Method.ANTAGONIST'
p5
aS'Method.AGONIST'
p6
atp7
Rp8
sS'topics'
p9
g3
((lp10
S"(26, u'\\\\bbehav')"
p11
atp12
Rp13
sS'receptors'
p14
g3
((lp15
(S'5ht1a'
p16
I705
I711
tp17
a(S'5ht2a'
p18
I377
I383
tp19
a(S'5ht2a'
p20
I601
I607
tp21
a(S'5ht1a'
p22
I636
I642
tp23
a(S'5ht1a'
p24
I858
I864
tp25
a(S'5ht1a'
p26
I608
I614
tp27
a(S'5ht1a'
p28
I560
I566
tp29
a(S'5ht1a'
p30
I1243
I1249
tp31
a(S'5ht1a'
p32
I68
I74
tp33
a(S'5ht1a'
p34
I366
I372
tp35
a(S'5ht1a'
p36
I1064
I1070
tp37
atp38
Rp39
sS'raw_text_methods'
p40
g3
((lp41
S"(13, u'\\\\bagonist')"
p42
aS"(12, u'\\\\bantagonist')"
p43
atp44
Rp45
sS'regions'
p46
g3
((lp47
tp48
Rp49
sS'year'
p50
V1999
p51
sS'species'
p52
g3
((lp53
tp54
Rp55
sb.