(ifile_types
ParseObject
p0
(dp1
S'antagonists'
p2
c__builtin__
set
p3
((lp4
S"(141, u'\\\\bzacopride')"
p5
atp6
Rp7
sS'methods'
p8
g3
((lp9
S'Method.ANTAGONIST'
p10
atp11
Rp12
sS'topics'
p13
g3
((lp14
S"(28, u'\\\\bemesis')"
p15
atp16
Rp17
sS'receptors'
p18
g3
((lp19
S'5ht3'
p20
atp21
Rp22
sS'regions'
p23
g3
((lp24
tp25
Rp26
sS'year'
p27
V1992
p28
sS'agonists'
p29
g3
((lp30
S"(212, u'\\\\bzacopride')"
p31
atp32
Rp33
sS'species'
p34
g3
((lp35
S"(2323, u'(?i)(bees|bee)')"
p36
aS"(4624, u'(?i)(apes|ape)')"
p37
aS"(6753, u'(?i)(da|das)')"
p38
aS"(2568, u'(?i)(hens|hen)')"
p39
aS"(5743, u'(?i)(bots|bot)')"
p40
aS"(1055, u'(?i)(men|man)')"
p41
aS"(6249, u'(?i)(ants|ant)')"
p42
aS"(3812, u'(?i)(studs|stud)')"
p43
aS"(5958, u'(?i)(rats|rat)')"
p44
aS"(6981, u'(?i)(moths|moth)')"
p45
aS"(1414, u'(?i)(chars|char)')"
p46
aS"(6356, u'(?i)(ais|ai)')"
p47
atp48
Rp49
sb.