(ifile_types
ParseObject
p0
(dp1
S'methods'
p2
c__builtin__
set
p3
((lp4
S'Method.ANTAGONIST'
p5
atp6
Rp7
sS'topics'
p8
g3
((lp9
S"(18, u'\\\\bavoidan')"
p10
aS"(8, u'\\\\banxi')"
p11
aS"(26, u'\\\\bbehav')"
p12
atp13
Rp14
sS'receptors'
p15
g3
((lp16
(S'5ht2a'
p17
I1028
I1034
tp18
a(S'5ht1a'
p19
I1015
I1021
tp20
a(S'5ht2a'
p21
I1673
I1679
tp22
a(S'5ht1a'
p23
I1614
I1620
tp24
a(S'5ht2c'
p25
I1028
I1036
tp26
a(S'5ht2c'
p27
I1673
I1681
tp28
atp29
Rp30
sS'raw_text_methods'
p31
g3
((lp32
S"(53, u'\\\\bketanserin')"
p33
aS"(51, u'\\\\bway100635')"
p34
aS"(12, u'\\\\bantagonist')"
p35
atp36
Rp37
sS'regions'
p38
g3
((lp39
S"(16, u'(?i)\\\\b(drns|drn)\\\\b')"
p40
atp41
Rp42
sS'year'
p43
V2010
p44
sS'species'
p45
g3
((lp46
S"(4, u'(?i)\\\\b(rats|rat)\\\\b')"
p47
atp48
Rp49
sb.