(ifile_types
ParseObject
p0
(dp1
S'antagonists'
p2
c__builtin__
set
p3
((lp4
S"(133, u'\\\\bmianserin')"
p5
aS"(34, u'\\\\bmetergoline')"
p6
aS"(193, u'\\\\bmesulergine')"
p7
aS"(119, u'\\\\britanserin')"
p8
atp9
Rp10
sS'methods'
p11
g3
((lp12
S'Method.ANTAGONIST'
p13
aS'Method.AGONIST'
p14
atp15
Rp16
sS'topics'
p17
g3
((lp18
tp19
Rp20
sS'receptors'
p21
g3
((lp22
S'5ht2c'
p23
aS'5ht2a'
p24
atp25
Rp26
sS'regions'
p27
g3
((lp28
tp29
Rp30
sS'year'
p31
V1997
p32
sS'agonists'
p33
g3
((lp34
S"(165, u'\\\\bmesulergine')"
p35
aS"(155, u'\\\\bmcpp')"
p36
aS"(175, u'\\\\bdoi')"
p37
atp38
Rp39
sS'species'
p40
g3
((lp41
tp42
Rp43
sb.