(ifile_types
ParseObject
p0
(dp1
S'methods'
p2
c__builtin__
set
p3
((lp4
S'Method.ANTAGONIST'
p5
aS'Method.AGONIST'
p6
atp7
Rp8
sS'topics'
p9
g3
((lp10
S"(35, u'\\\\bnocicept')"
p11
atp12
Rp13
sS'receptors'
p14
g3
((lp15
(S'5ht7'
p16
I1560
I1565
tp17
a(S'5ht1'
p18
I1247
I1252
tp19
a(S'5ht1'
p20
I965
I970
tp21
a(S'5ht1'
p22
I1177
I1182
tp23
a(S'5ht1'
p24
I1080
I1085
tp25
a(S'5ht1'
p26
I1045
I1050
tp27
a(S'5ht1'
p28
I1124
I1129
tp29
a(S'5ht2'
p30
I1391
I1396
tp31
a(S'5ht7'
p32
I1080
I1086
tp33
a(S'5ht7'
p34
I1534
I1539
tp35
a(S'5ht5'
p36
I425
I435
tp37
atp38
Rp39
sS'raw_text_methods'
p40
g3
((lp41
S"(13, u'\\\\bagonist')"
p42
aS"(15, u'\\\\b8ohdpat')"
p43
aS"(51, u'\\\\bway100635')"
p44
aS"(53, u'\\\\bketanserin')"
p45
aS"(12, u'\\\\bantagonist')"
p46
atp47
Rp48
sS'regions'
p49
g3
((lp50
tp51
Rp52
sS'year'
p53
V2019
p54
sS'species'
p55
g3
((lp56
S"(1, u'(?i)\\\\b(mice|mouse)\\\\b')"
p57
aS"(5, u'(?i)\\\\b(mices|mice)\\\\b')"
p58
atp59
Rp60
sb.