(ifile_types
ParseObject
p0
(dp1
S'methods'
p2
c__builtin__
set
p3
((lp4
S'Method.PET'
p5
aS'Method.AGONIST'
p6
atp7
Rp8
sS'topics'
p9
g3
((lp10
tp11
Rp12
sS'receptors'
p13
g3
((lp14
(S'5ht1a'
p15
I410
I416
tp16
a(S'5ht1a'
p17
I70
I76
tp18
atp19
Rp20
sS'raw_text_methods'
p21
g3
((lp22
S"(13, u'\\\\bagonist')"
p23
aS"(17, u'\\\\bpet')"
p24
aS"(18, u'\\\\bimaging')"
p25
atp26
Rp27
sS'regions'
p28
g3
((lp29
S"(9, u'(?i)\\\\b(cerebellums|cerebellum)\\\\b')"
p30
atp31
Rp32
sS'year'
p33
V2012
p34
sS'species'
p35
g3
((lp36
tp37
Rp38
sb.