(ifile_types
ParseObject
p0
(dp1
S'antagonists'
p2
c__builtin__
set
p3
((lp4
S"(81, u'\\\\bagomelatine')"
p5
aS"(44, u'\\\\bvortioxetine')"
p6
atp7
Rp8
sS'methods'
p9
g3
((lp10
S'Method.ANTAGONIST'
p11
aS'Method.AGONIST'
p12
atp13
Rp14
sS'topics'
p15
g3
((lp16
S"(6, u'\\\\bcognit')"
p17
aS"(9, u'\\\\bdepress')"
p18
aS"(1, u'\\\\bmood')"
p19
atp20
Rp21
sS'receptors'
p22
g3
((lp23
S'5ht6'
p24
aS'5ht6a'
p25
aS'5ht2c'
p26
atp27
Rp28
sS'regions'
p29
g3
((lp30
tp31
Rp32
sS'year'
p33
V2016
p34
sS'agonists'
p35
g3
((lp36
S"(181, u'\\\\bdom')"
p37
aS"(87, u'\\\\bvilazodone')"
p38
aS"(101, u'\\\\bvortioxetine')"
p39
atp40
Rp41
sS'species'
p42
g3
((lp43
S"(4624, u'(?i)(apes|ape)')"
p44
aS"(1846, u'(?i)(robins|robin)')"
p45
aS"(7094, u'(?i)(curs|cur)')"
p46
aS"(3812, u'(?i)(studs|stud)')"
p47
aS"(6249, u'(?i)(ants|ant)')"
p48
aS"(6391, u'(?i)(asses|ass)')"
p49
aS"(6356, u'(?i)(ais|ai)')"
p50
aS"(3048, u'(?i)(hogs|hog)')"
p51
aS"(479, u'(?i)(lings|ling)')"
p52
aS"(81, u'(?i)(asps|asp)')"
p53
aS"(468, u'(?i)(oxen|ox)')"
p54
aS"(2866, u'(?i)(sables|sable)')"
p55
aS"(6753, u'(?i)(da|das)')"
p56
aS"(5958, u'(?i)(rats|rat)')"
p57
aS"(6682, u'(?i)(tera|teras)')"
p58
aS"(1055, u'(?i)(men|man)')"
p59
aS"(2334, u'(?i)(eels|eel)')"
p60
aS"(5176, u'(?i)(tegs|teg)')"
p61
aS"(1961, u'(?i)(pens|pen)')"
p62
aS"(1414, u'(?i)(chars|char)')"
p63
aS"(2323, u'(?i)(bees|bee)')"
p64
aS"(5799, u'(?i)(rodents|rodent)')"
p65
aS"(4979, u'(?i)(cats|cat)')"
p66
aS"(3726, u'(?i)(mates|mate)')"
p67
aS"(4964, u'(?i)(serins|serin)')"
p68
aS"(5917, u'(?i)(roaches|roach)')"
p69
atp70
Rp71
sb.