(ifile_types
ParseObject
p0
(dp1
S'antagonists'
p2
c__builtin__
set
p3
((lp4
S"(61, u'\\\\bmdl ?100907')"
p5
aS"(142, u'\\\\bm1')"
p6
aS"(102, u'\\\\bfluoxetine')"
p7
atp8
Rp9
sS'methods'
p10
g3
((lp11
S'Method.ANTAGONIST'
p12
atp13
Rp14
sS'topics'
p15
g3
((lp16
S"(9, u'\\\\bdepress')"
p17
atp18
Rp19
sS'receptors'
p20
g3
((lp21
S'5ht5'
p22
aS'5ht2a'
p23
atp24
Rp25
sS'regions'
p26
g3
((lp27
S"(254, u'(?i)(prefrontals|prefrontal)(-|\\\\s+)?(cortexes|cortex)')"
p28
aS"(255, u'(?i)(pres|pre)(-|\\\\s+)?(frontals|frontal)(-|\\\\s+)?(cortexes|cortex)')"
p29
aS"(34, u'(?i)(pon|pons)')"
p30
atp31
Rp32
sS'year'
p33
V2005
p34
sS'agonists'
p35
g3
((lp36
tp37
Rp38
sS'species'
p39
g3
((lp40
S"(2323, u'(?i)(bees|bee)')"
p41
aS"(4624, u'(?i)(apes|ape)')"
p42
aS"(5799, u'(?i)(rodents|rodent)')"
p43
aS"(2568, u'(?i)(hens|hen)')"
p44
aS"(6857, u'(?i)(ormers|ormer)')"
p45
aS"(5743, u'(?i)(bots|bot)')"
p46
aS"(6682, u'(?i)(tera|teras)')"
p47
aS"(6249, u'(?i)(ants|ant)')"
p48
aS"(468, u'(?i)(oxen|ox)')"
p49
aS"(1055, u'(?i)(men|man)')"
p50
aS"(3726, u'(?i)(mates|mate)')"
p51
aS"(3812, u'(?i)(studs|stud)')"
p52
aS"(7094, u'(?i)(curs|cur)')"
p53
aS"(5958, u'(?i)(rats|rat)')"
p54
aS"(6331, u'(?i)(mares|mare)')"
p55
aS"(1414, u'(?i)(chars|char)')"
p56
aS"(7609, u'(?i)(erns|ern)')"
p57
aS"(1823, u'(?i)(merls|merl)')"
p58
aS"(1683, u'(?i)(terns|tern)')"
p59
atp60
Rp61
sb.