(ifile_types
ParseObject
p0
(dp1
S'antagonists'
p2
c__builtin__
set
p3
((lp4
tp5
Rp6
sS'methods'
p7
g3
((lp8
S'Method.PET'
p9
atp10
Rp11
sS'topics'
p12
g3
((lp13
S"(15, u'\\\\bschizophreni')"
p14
aS"(6, u'\\\\bcognit')"
p15
atp16
Rp17
sS'receptors'
p18
g3
((lp19
S'5ht2a'
p20
atp21
Rp22
sS'regions'
p23
g3
((lp24
S"(249, u'(?i)\\\\b(frontals|frontal)(-|\\\\s+)?(lobes|lobe)\\\\b')"
p25
atp26
Rp27
sS'year'
p28
V2007
p29
sS'agonists'
p30
g3
((lp31
tp32
Rp33
sS'species'
p34
g3
((lp35
S"(7058, u'(?i)\\\\b(does|doe)\\\\b')"
p36
aS"(1057, u'(?i)\\\\b(humans|human)\\\\b')"
p37
aS"(1070, u'(?i)\\\\b(pets|pet)\\\\b')"
p38
aS"(3196, u'(?i)\\\\b(human|humans)\\\\b')"
p39
atp40
Rp41
sb.