(ifile_types
ParseObject
p0
(dp1
S'antagonists'
p2
c__builtin__
set
p3
((lp4
tp5
Rp6
sS'methods'
p7
g3
((lp8
S'Method.PET'
p9
atp10
Rp11
sS'topics'
p12
g3
((lp13
S"(9, u'\\\\bdepress')"
p14
atp15
Rp16
sS'receptors'
p17
g3
((lp18
S'5ht1a'
p19
atp20
Rp21
sS'regions'
p22
g3
((lp23
S"(290, u'(?i)\\\\b(insulars|insular)(-|\\\\s+)?(cortexes|cortex)\\\\b')"
p24
aS"(277, u'(?i)\\\\b(temporals|temporal)(-|\\\\s+)?(lobes|lobe)\\\\b')"
p25
aS"(288, u'(?i)\\\\b(fusiforms|fusiform)(-|\\\\s+)?(gyruses|gyrus)\\\\b')"
p26
aS"(209, u'(?i)\\\\b(amygdalas|amygdala)\\\\b')"
p27
atp28
Rp29
sS'year'
p30
V2013
p31
sS'agonists'
p32
g3
((lp33
tp34
Rp35
sS'species'
p36
g3
((lp37
S"(1070, u'(?i)\\\\b(pets|pet)\\\\b')"
p38
atp39
Rp40
sb.