(ifile_types
ParseObject
p0
(dp1
S'antagonists'
p2
c__builtin__
set
p3
((lp4
tp5
Rp6
sS'methods'
p7
g3
((lp8
S'Method.KNOCKOUT'
p9
atp10
Rp11
sS'topics'
p12
g3
((lp13
tp14
Rp15
sS'receptors'
p16
g3
((lp17
S'5ht2a'
p18
atp19
Rp20
sS'regions'
p21
g3
((lp22
S"(254, u'(?i)(prefrontals|prefrontal)(-|\\\\s+)?(cortexes|cortex)')"
p23
aS"(255, u'(?i)(pres|pre)(-|\\\\s+)?(frontals|frontal)(-|\\\\s+)?(cortexes|cortex)')"
p24
aS"(34, u'(?i)(pon|pons)')"
p25
atp26
Rp27
sS'year'
p28
V2007
p29
sS'agonists'
p30
g3
((lp31
S"(55, u'\\\\blysergic acid diethylamide')"
p32
aS"(181, u'\\\\bdom')"
p33
atp34
Rp35
sS'species'
p36
g3
((lp37
S"(1070, u'(?i)(pets|pet)')"
p38
aS"(6753, u'(?i)(da|das)')"
p39
aS"(5958, u'(?i)(rats|rat)')"
p40
aS"(5917, u'(?i)(roaches|roach)')"
p41
aS"(702, u'(?i)(genets|genet)')"
p42
aS"(4979, u'(?i)(cats|cat)')"
p43
aS"(1169, u'(?i)(grades|grade)')"
p44
aS"(468, u'(?i)(oxen|ox)')"
p45
aS"(1055, u'(?i)(men|man)')"
p46
aS"(3726, u'(?i)(mates|mate)')"
p47
aS"(1349, u'(?i)(rams|ram)')"
p48
aS"(853, u'(?i)(minas|mina)')"
p49
aS"(3550, u'(?i)(anis|ani)')"
p50
aS"(5229, u'(?i)(moles|mole)')"
p51
aS"(3812, u'(?i)(studs|stud)')"
p52
aS"(6391, u'(?i)(asses|ass)')"
p53
aS"(6249, u'(?i)(ants|ant)')"
p54
atp55
Rp56
sb.