(ifile_types
ParseObject
p0
(dp1
S'methods'
p2
c__builtin__
set
p3
((lp4
S'Method.ANTAGONIST'
p5
aS'Method.AGONIST'
p6
atp7
Rp8
sS'topics'
p9
g3
((lp10
S"(26, u'\\\\bbehav')"
p11
atp12
Rp13
sS'receptors'
p14
g3
((lp15
(S'5ht1'
p16
I1771
I1776
tp17
a(S'5ht2'
p18
I760
I768
tp19
a(S'5ht2c'
p20
I760
I768
tp21
a(S'5ht1a'
p22
I691
I697
tp23
a(S'5ht1'
p24
I104
I109
tp25
a(S'5ht2'
p26
I993
I998
tp27
a(S'5ht2'
p28
I1771
I1777
tp29
a(S'5ht1'
p30
I875
I881
tp31
a(S'5ht3'
p32
I1028
I1033
tp33
a(S'5ht1'
p34
I723
I728
tp35
a(S'5ht1a'
p36
I584
I590
tp37
a(S'5ht2a'
p38
I760
I766
tp39
a(S'5ht2'
p40
I104
I110
tp41
a(S'5ht4'
p42
I1154
I1159
tp43
a(S'5ht2'
p44
I723
I729
tp45
a(S'5ht1'
p46
I691
I697
tp47
a(S'5ht1'
p48
I584
I590
tp49
a(S'5ht1d'
p50
I875
I881
tp51
atp52
Rp53
sS'raw_text_methods'
p54
g3
((lp55
S"(13, u'\\\\bagonist')"
p56
aS"(20, u'\\\\bondansetron')"
p57
aS"(6, u'\\\\bgr127935')"
p58
aS"(12, u'\\\\bantagonist')"
p59
atp60
Rp61
sS'regions'
p62
g3
((lp63
tp64
Rp65
sS'year'
p66
V1998
p67
sS'species'
p68
g3
((lp69
S"(7, u'(?i)\\\\b(guineas|guinea)(-|\\\\s+)?(pigs|pig)\\\\b')"
p70
atp71
Rp72
sb.