(ifile_types
ParseObject
p0
(dp1
S'methods'
p2
c__builtin__
set
p3
((lp4
S'Method.ANTAGONIST'
p5
atp6
Rp7
sS'topics'
p8
g3
((lp9
S"(24, u'\\\\banxiolytic')"
p10
aS"(8, u'\\\\banxi')"
p11
aS"(13, u'\\\\bantidepress')"
p12
aS"(26, u'\\\\bbehav')"
p13
atp14
Rp15
sS'receptors'
p16
g3
((lp17
(S'5ht2c'
p18
I1160
I1166
tp19
atp20
Rp21
sS'raw_text_methods'
p22
g3
((lp23
S"(16, u'\\\\bdiazepam')"
p24
aS"(43, u'\\\\bagomelatine')"
p25
aS"(22, u'\\\\bbuspirone')"
p26
aS"(12, u'\\\\bantagonist')"
p27
atp28
Rp29
sS'regions'
p30
g3
((lp31
tp32
Rp33
sS'year'
p34
V2006
p35
sS'species'
p36
g3
((lp37
tp38
Rp39
sb.