(ifile_types
ParseObject
p0
(dp1
S'methods'
p2
c__builtin__
set
p3
((lp4
tp5
Rp6
sS'topics'
p7
g3
((lp8
S"(14, u'\\\\bcogniti')"
p9
aS"(5, u'\\\\btherap')"
p10
aS"(2, u'\\\\bdisorder')"
p11
atp12
Rp13
sS'receptors'
p14
g3
((lp15
(S'5ht1'
p16
I218
I223
tp17
a(S'5ht1'
p18
I1762
I1767
tp19
a(S'5ht1b'
p20
I50
I61
tp21
a(S'5ht1'
p22
I1144
I1149
tp23
a(S'5ht1'
p24
I1860
I1865
tp25
a(S'5ht1'
p26
I523
I528
tp27
a(S'5ht1'
p28
I459
I464
tp29
a(S'5ht1'
p30
I787
I792
tp31
a(S'5ht1'
p32
I931
I936
tp33
a(S'5ht1'
p34
I1196
I1201
tp35
a(S'5ht1'
p36
I1653
I1658
tp37
a(S'5ht1'
p38
I1332
I1337
tp39
a(S'5ht1'
p40
I1982
I1987
tp41
a(S'5ht1'
p42
I748
I753
tp43
a(S'5ht1b'
p44
I194
I205
tp45
atp46
Rp47
sS'raw_text_methods'
p48
g3
((lp49
S"(2, u'\\\\blabeling')"
p50
atp51
Rp52
sS'regions'
p53
g3
((lp54
tp55
Rp56
sS'year'
p57
V2010
p58
sS'species'
p59
g3
((lp60
tp61
Rp62
sb.