(ifile_types
ParseObject
p0
(dp1
S'methods'
p2
c__builtin__
set
p3
((lp4
S'Method.ANTAGONIST'
p5
aS'Method.AGONIST'
p6
atp7
Rp8
sS'topics'
p9
g3
((lp10
S"(5, u'\\\\btherap')"
p11
aS"(35, u'\\\\bnocicept')"
p12
atp13
Rp14
sS'receptors'
p15
g3
((lp16
(S'5ht3'
p17
I1282
I1287
tp18
a(S'5ht1a'
p19
I801
I807
tp20
a(S'5ht1b'
p21
I1222
I1228
tp22
a(S'5ht1a'
p23
I1399
I1405
tp24
a(S'5ht1a'
p25
I330
I336
tp26
a(S'5ht1a'
p27
I1532
I1538
tp28
a(S'5ht1c'
p29
I1251
I1257
tp30
a(S'5ht1c'
p31
I1222
I1229
tp32
a(S'5ht1a'
p33
I30
I36
tp34
a(S'5ht2'
p35
I1251
I1258
tp36
a(S'5ht2'
p37
I1876
I1883
tp38
a(S'5ht1a'
p39
I98
I104
tp40
a(S'5ht1c'
p41
I1876
I1882
tp42
a(S'5ht3'
p43
I1920
I1925
tp44
a(S'5ht1a'
p45
I1813
I1819
tp46
a(S'5ht1a'
p47
I2215
I2221
tp48
atp49
Rp50
sS'raw_text_methods'
p51
g3
((lp52
S"(15, u'\\\\b8ohdpat')"
p53
aS"(20, u'\\\\bondansetron')"
p54
aS"(13, u'\\\\bagonist')"
p55
aS"(49, u'\\\\bdoi')"
p56
aS"(9, u'\\\\britanserin')"
p57
aS"(12, u'\\\\bantagonist')"
p58
atp59
Rp60
sS'regions'
p61
g3
((lp62
S"(3, u'(?i)\\\\b(postsynaptics|postsynaptic)\\\\b')"
p63
atp64
Rp65
sS'year'
p66
V1993
p67
sS'species'
p68
g3
((lp69
S"(4, u'(?i)\\\\b(rats|rat)\\\\b')"
p70
atp71
Rp72
sb.