(ifile_types
ParseObject
p0
(dp1
S'antagonists'
p2
c__builtin__
set
p3
((lp4
S"(108, u'\\\\brs ?102221')"
p5
aS"(142, u'\\\\bm1')"
p6
aS"(95, u'\\\\bsb ?206553')"
p7
atp8
Rp9
sS'methods'
p10
g3
((lp11
S'Method.ANTAGONIST'
p12
aS'Method.AGONIST'
p13
atp14
Rp15
sS'topics'
p16
g3
((lp17
tp18
Rp19
sS'receptors'
p20
g3
((lp21
S'5ht1b'
p22
aS'5ht5'
p23
aS'5ht2b'
p24
aS'5ht2'
p25
aS'5ht2a'
p26
aS'5ht2c'
p27
atp28
Rp29
sS'regions'
p30
g3
((lp31
S"(34, u'(?i)(pon|pons)')"
p32
atp33
Rp34
sS'year'
p35
V2003
p36
sS'agonists'
p37
g3
((lp38
S"(161, u'\\\\bmcpp')"
p39
aS"(169, u'\\\\bfenfluramine')"
p40
aS"(146, u'\\\\bbw ?723c86')"
p41
aS"(172, u'\\\\bmk ?212')"
p42
aS"(33, u'\\\\bdoi')"
p43
atp44
Rp45
sS'species'
p46
g3
((lp47
S"(6753, u'(?i)(da|das)')"
p48
aS"(5958, u'(?i)(rats|rat)')"
p49
aS"(867, u'(?i)(tits|tit)')"
p50
aS"(853, u'(?i)(minas|mina)')"
p51
aS"(5967, u'(?i)(males|male)')"
p52
aS"(1349, u'(?i)(rams|ram)')"
p53
aS"(2942, u'(?i)(daws|daw)')"
p54
aS"(6249, u'(?i)(ants|ant)')"
p55
aS"(1961, u'(?i)(pens|pen)')"
p56
aS"(6356, u'(?i)(ais|ai)')"
p57
aS"(7058, u'(?i)(does|doe)')"
p58
atp59
Rp60
sb.