(ifile_types
ParseObject
p0
(dp1
S'methods'
p2
c__builtin__
set
p3
((lp4
S'Method.ANTAGONIST'
p5
atp6
Rp7
sS'topics'
p8
g3
((lp9
S"(13, u'\\\\bantidepress')"
p10
aS"(3, u'\\\\bclinical')"
p11
atp12
Rp13
sS'receptors'
p14
g3
((lp15
(S'5ht1a'
p16
I1458
I1464
tp17
a(S'5ht1a'
p18
I505
I511
tp19
a(S'5ht1a'
p20
I624
I630
tp21
a(S'5ht1a'
p22
I874
I880
tp23
a(S'5ht1a'
p24
I272
I278
tp25
atp26
Rp27
sS'raw_text_methods'
p28
g3
((lp29
S"(12, u'\\\\bantagonist')"
p30
atp31
Rp32
sS'regions'
p33
g3
((lp34
S"(3, u'(?i)\\\\b(postsynaptics|postsynaptic)\\\\b')"
p35
atp36
Rp37
sS'year'
p38
V1999
p39
sS'species'
p40
g3
((lp41
S"(3, u'(?i)\\\\b(males|male)\\\\b')"
p42
atp43
Rp44
sb.