(ifile_types
ParseObject
p0
(dp1
S'methods'
p2
c__builtin__
set
p3
((lp4
S'Method.ANTAGONIST'
p5
aS'Method.AGONIST'
p6
atp7
Rp8
sS'topics'
p9
g3
((lp10
S"(26, u'\\\\bbehav')"
p11
aS"(33, u'\\\\blocomot')"
p12
aS"(4, u'\\\\btreatment')"
p13
atp14
Rp15
sS'receptors'
p16
g3
((lp17
(S'5ht1b'
p18
I322
I328
tp19
a(S'5ht1b'
p20
I871
I877
tp21
a(S'5ht1b'
p22
I309
I320
tp23
a(S'5ht1a'
p24
I864
I870
tp25
atp26
Rp27
sS'raw_text_methods'
p28
g3
((lp29
S"(13, u'\\\\bagonist')"
p30
aS"(7, u'\\\\bpropranolol')"
p31
aS"(12, u'\\\\bantagonist')"
p32
aS"(8, u'\\\\bru24969')"
p33
atp34
Rp35
sS'regions'
p36
g3
((lp37
S"(4, u'(?i)\\\\b(presynaptics|presynaptic)\\\\b')"
p38
atp39
Rp40
sS'year'
p41
V1991
p42
sS'species'
p43
g3
((lp44
S"(1, u'(?i)\\\\b(mice|mouse)\\\\b')"
p45
aS"(5, u'(?i)\\\\b(mices|mice)\\\\b')"
p46
atp47
Rp48
sb.