(ifile_types
ParseObject
p0
(dp1
S'antagonists'
p2
c__builtin__
set
p3
((lp4
S"(111, u'\\\\bolanzapine')"
p5
aS"(133, u'\\\\bmianserin')"
p6
aS"(134, u'\\\\bmirtazapine')"
p7
aS"(113, u'\\\\brisperidone')"
p8
atp9
Rp10
sS'methods'
p11
g3
((lp12
S'Method.ANTAGONIST'
p13
atp14
Rp15
sS'topics'
p16
g3
((lp17
S"(9, u'\\\\bdepress')"
p18
atp19
Rp20
sS'receptors'
p21
g3
((lp22
S'5ht7'
p23
aS'5ht1b'
p24
aS'5ht1a'
p25
aS'5ht2c'
p26
aS'5ht1d'
p27
aS'5ht2a'
p28
aS'5ht5'
p29
aS'5ht2'
p30
atp31
Rp32
sS'regions'
p33
g3
((lp34
tp35
Rp36
sS'year'
p37
V2003
p38
sS'agonists'
p39
g3
((lp40
S"(57, u'\\\\bolanzapine')"
p41
atp42
Rp43
sS'species'
p44
g3
((lp45
tp46
Rp47
sb.