(ifile_types
ParseObject
p0
(dp1
S'methods'
p2
c__builtin__
set
p3
((lp4
tp5
Rp6
sS'topics'
p7
g3
((lp8
S"(7, u'\\\\bdepressi')"
p9
aS"(26, u'\\\\bbehav')"
p10
aS"(4, u'\\\\btreatment')"
p11
atp12
Rp13
sS'receptors'
p14
g3
((lp15
(S'5ht2c'
p16
I745
I751
tp17
a(S'5ht1a'
p18
I1395
I1401
tp19
a(S'5ht2c'
p20
I1371
I1377
tp21
a(S'5ht2a'
p22
I1363
I1369
tp23
a(S'5ht1a'
p24
I1058
I1064
tp25
a(S'5ht2a'
p26
I891
I897
tp27
atp28
Rp29
sS'raw_text_methods'
p30
g3
((lp31
S"(15, u'\\\\b8ohdpat')"
p32
aS"(49, u'\\\\bdoi')"
p33
atp34
Rp35
sS'regions'
p36
g3
((lp37
S"(4, u'(?i)\\\\b(presynaptics|presynaptic)\\\\b')"
p38
aS"(3, u'(?i)\\\\b(postsynaptics|postsynaptic)\\\\b')"
p39
atp40
Rp41
sS'year'
p42
V1996
p43
sS'species'
p44
g3
((lp45
S"(4, u'(?i)\\\\b(rats|rat)\\\\b')"
p46
atp47
Rp48
sb.