(ifile_types
ParseObject
p0
(dp1
S'methods'
p2
c__builtin__
set
p3
((lp4
S'Method.ANTAGONIST'
p5
atp6
Rp7
sS'topics'
p8
g3
((lp9
tp10
Rp11
sS'receptors'
p12
g3
((lp13
(S'5ht4'
p14
I2080
I2090
tp15
a(S'5ht4'
p16
I706
I716
tp17
a(S'5ht4'
p18
I1781
I1791
tp19
a(S'5ht4'
p20
I43
I53
tp21
atp22
Rp23
sS'raw_text_methods'
p24
g3
((lp25
S"(3, u'\\\\bimmunoreactiv')"
p26
aS"(32, u'\\\\blesions')"
p27
aS"(54, u'\\\\bautoradiography')"
p28
aS"(12, u'\\\\bantagonist')"
p29
atp30
Rp31
sS'regions'
p32
g3
((lp33
S"(15, u'(?i)\\\\b(substantias|substantia)(-|\\\\s+)?(nigras|nigra)\\\\b')"
p34
aS"(23, u'(?i)\\\\b(forebrains|forebrain)\\\\b')"
p35
atp36
Rp37
sS'year'
p38
V1995
p39
sS'species'
p40
g3
((lp41
S"(4, u'(?i)\\\\b(rats|rat)\\\\b')"
p42
atp43
Rp44
sb.