(ifile_types
ParseObject
p0
(dp1
S'methods'
p2
c__builtin__
set
p3
((lp4
S'Method.PET'
p5
aS'Method.ANTAGONIST'
p6
atp7
Rp8
sS'topics'
p9
g3
((lp10
S"(30, u'\\\\bpain')"
p11
aS"(1, u'\\\\bpatient')"
p12
aS"(35, u'\\\\bnocicept')"
p13
aS"(5, u'\\\\btherap')"
p14
aS"(4, u'\\\\btreatment')"
p15
atp16
Rp17
sS'receptors'
p18
g3
((lp19
(S'5ht3'
p20
I181
I186
tp21
a(S'5ht3'
p22
I197
I202
tp23
a(S'5ht3'
p24
I83
I88
tp25
a(S'5ht3'
p26
I1686
I1691
tp27
a(S'5ht3'
p28
I1384
I1389
tp29
atp30
Rp31
sS'raw_text_methods'
p32
g3
((lp33
S"(17, u'\\\\bpet')"
p34
aS"(19, u'\\\\bpositron emission tomography')"
p35
aS"(12, u'\\\\bantagonist')"
p36
atp37
Rp38
sS'regions'
p39
g3
((lp40
S"(11, u'(?i)\\\\b(cerebrals|cerebral)\\\\b')"
p41
aS"(12, u'(?i)\\\\b(amygdalas|amygdala)\\\\b')"
p42
atp43
Rp44
sS'year'
p45
V2002
p46
sS'species'
p47
g3
((lp48
S"(2, u'(?i)\\\\b(females|female)\\\\b')"
p49
atp50
Rp51
sb.