(ifile_types
ParseObject
p0
(dp1
S'methods'
p2
c__builtin__
set
p3
((lp4
S'Method.AGONIST'
p5
atp6
Rp7
sS'topics'
p8
g3
((lp9
S"(14, u'\\\\bcogniti')"
p10
aS"(15, u'\\\\bmemory')"
p11
atp12
Rp13
sS'receptors'
p14
g3
((lp15
(S'5ht4'
p16
I433
I438
tp17
a(S'5ht4'
p18
I1142
I1147
tp19
a(S'5ht4'
p20
I1801
I1806
tp21
a(S'5ht4'
p22
I909
I914
tp23
a(S'5ht4'
p24
I54
I59
tp25
a(S'5ht4'
p26
I230
I235
tp27
a(S'5ht4'
p28
I1331
I1336
tp29
a(S'5ht4'
p30
I458
I463
tp31
a(S'5ht4'
p32
I1455
I1460
tp33
a(S'5ht4'
p34
I748
I753
tp35
atp36
Rp37
sS'raw_text_methods'
p38
g3
((lp39
S"(13, u'\\\\bagonist')"
p40
atp41
Rp42
sS'regions'
p43
g3
((lp44
S"(19, u'(?i)\\\\b(cortexes|cortex)\\\\b')"
p45
aS"(23, u'(?i)\\\\b(forebrains|forebrain)\\\\b')"
p46
atp47
Rp48
sS'year'
p49
V2015
p50
sS'species'
p51
g3
((lp52
S"(4, u'(?i)\\\\b(rats|rat)\\\\b')"
p53
atp54
Rp55
sb.