(ifile_types
ParseObject
p0
(dp1
S'antagonists'
p2
c__builtin__
set
p3
((lp4
S"(5, u'\\\\bcyanopindolol')"
p5
aS"(14, u'\\\\bmethiothepin')"
p6
atp7
Rp8
sS'methods'
p9
g3
((lp10
S'Method.STIMULATION'
p11
aS'Method.ANTAGONIST'
p12
aS'Method.AGONIST'
p13
atp14
Rp15
sS'topics'
p16
g3
((lp17
S"(16, u'\\\\bfeed')"
p18
atp19
Rp20
sS'receptors'
p21
g3
((lp22
S'5ht1b'
p23
aS'5ht1a'
p24
atp25
Rp26
sS'regions'
p27
g3
((lp28
S"(34, u'(?i)(pon|pons)')"
p29
atp30
Rp31
sS'year'
p32
V2003
p33
sS'agonists'
p34
g3
((lp35
S"(161, u'\\\\bmcpp')"
p36
aS"(105, u'\\\\b5 ?carboxamidotryptamine')"
p37
aS"(5, u'\\\\b5 ?ct')"
p38
aS"(107, u'\\\\bcp ?93129')"
p39
aS"(29, u'\\\\bdihydroergotamine')"
p40
atp41
Rp42
sS'species'
p43
g3
((lp44
S"(5967, u'(?i)(males|male)')"
p45
aS"(7610, u'(?i)(ernes|erne)')"
p46
aS"(3812, u'(?i)(studs|stud)')"
p47
aS"(5958, u'(?i)(rats|rat)')"
p48
aS"(6356, u'(?i)(ais|ai)')"
p49
aS"(1725, u'(?i)(clams|clam)')"
p50
aS"(468, u'(?i)(oxen|ox)')"
p51
aS"(1349, u'(?i)(rams|ram)')"
p52
aS"(5743, u'(?i)(bots|bot)')"
p53
aS"(3522, u'(?i)(tetras|tetra)')"
p54
aS"(821, u'(?i)(lice|louse)')"
p55
aS"(5537, u'(?i)(hippos|hippo)')"
p56
aS"(6249, u'(?i)(ants|ant)')"
p57
aS"(7609, u'(?i)(erns|ern)')"
p58
aS"(6682, u'(?i)(tera|teras)')"
p59
aS"(6753, u'(?i)(da|das)')"
p60
aS"(1414, u'(?i)(chars|char)')"
p61
aS"(2323, u'(?i)(bees|bee)')"
p62
aS"(2568, u'(?i)(hens|hen)')"
p63
aS"(4979, u'(?i)(cats|cat)')"
p64
aS"(3726, u'(?i)(mates|mate)')"
p65
aS"(1683, u'(?i)(terns|tern)')"
p66
atp67
Rp68
sb.