(ifile_types
ParseObject
p0
(dp1
S'methods'
p2
c__builtin__
set
p3
((lp4
tp5
Rp6
sS'topics'
p7
g3
((lp8
tp9
Rp10
sS'receptors'
p11
g3
((lp12
(S'5ht1a'
p13
I2407
I2413
tp14
a(S'5ht1c'
p15
I539
I545
tp16
a(S'5ht1c'
p17
I2433
I2439
tp18
a(S'5ht1a'
p19
I520
I526
tp20
a(S'5ht1'
p21
I3423
I3428
tp22
a(S'5ht1'
p23
I2340
I2345
tp24
a(S'5ht1'
p25
I1912
I1922
tp26
a(S'5ht1'
p27
I1482
I1492
tp28
a(S'5ht5'
p29
I1626
I1636
tp30
a(S'5ht1c'
p31
I2079
I2085
tp32
a(S'5ht1'
p33
I2020
I2025
tp34
a(S'5ht1'
p35
I483
I488
tp36
a(S'5ht1a'
p37
I2063
I2069
tp38
a(S'5ht1'
p39
I1439
I1449
tp40
a(S'5ht1a'
p41
I3479
I3485
tp42
a(S'5ht1c'
p43
I3718
I3724
tp44
a(S'5ht1'
p45
I3359
I3364
tp46
a(S'5ht1'
p47
I2518
I2523
tp48
a(S'5ht1'
p49
I3003
I3008
tp50
a(S'5ht1'
p51
I680
I685
tp52
a(S'5ht1'
p53
I539
I545
tp54
a(S'5ht1b'
p55
I2071
I2077
tp56
a(S'5ht1b'
p57
I3598
I3604
tp58
a(S'5ht1'
p59
I1495
I1500
tp60
a(S'5ht1b'
p61
I528
I534
tp62
a(S'5ht1'
p63
I3754
I3759
tp64
a(S'5ht1d'
p65
I3423
I3429
tp66
atp67
Rp68
sS'raw_text_methods'
p69
g3
((lp70
S"(2, u'\\\\blabeling')"
p71
aS"(54, u'\\\\bautoradiography')"
p72
atp73
Rp74
sS'regions'
p75
g3
((lp76
S"(15, u'(?i)\\\\b(substantias|substantia)(-|\\\\s+)?(nigras|nigra)\\\\b')"
p77
aS"(19, u'(?i)\\\\b(cortexes|cortex)\\\\b')"
p78
aS"(17, u'(?i)\\\\b(caudates|caudate)\\\\b')"
p79
aS"(7, u'(?i)\\\\b(entorhinals|entorhinal)\\\\b')"
p80
aS"(18, u'(?i)\\\\b(putamens|putamen)\\\\b')"
p81
atp82
Rp83
sS'year'
p84
V2016
p85
sS'species'
p86
g3
((lp87
S"(4, u'(?i)\\\\b(rats|rat)\\\\b')"
p88
atp89
Rp90
sb.