(ifile_types
ParseObject
p0
(dp1
S'methods'
p2
c__builtin__
set
p3
((lp4
S'Method.AGONIST'
p5
atp6
Rp7
sS'topics'
p8
g3
((lp9
S"(4, u'\\\\btreatment')"
p10
atp11
Rp12
sS'receptors'
p13
g3
((lp14
(S'5ht1c'
p15
I1430
I1436
tp16
a(S'5ht1'
p17
I310
I315
tp18
a(S'5ht1'
p19
I69
I74
tp20
a(S'5ht2'
p21
I1313
I1318
tp22
atp23
Rp24
sS'raw_text_methods'
p25
g3
((lp26
S"(13, u'\\\\bagonist')"
p27
aS"(54, u'\\\\bautoradiography')"
p28
atp29
Rp30
sS'regions'
p31
g3
((lp32
S"(11, u'(?i)\\\\b(cerebrals|cerebral)\\\\b')"
p33
aS"(19, u'(?i)\\\\b(cortexes|cortex)\\\\b')"
p34
atp35
Rp36
sS'year'
p37
V1993
p38
sS'species'
p39
g3
((lp40
S"(4, u'(?i)\\\\b(rats|rat)\\\\b')"
p41
atp42
Rp43
sb.