(ifile_types
ParseObject
p0
(dp1
S'antagonists'
p2
c__builtin__
set
p3
((lp4
S"(23, u'\\\\brisperidone')"
p5
aS"(59, u'\\\\brisperidone')"
p6
aS"(123, u'\\\\bclozapine')"
p7
aS"(56, u'\\\\bclozapine')"
p8
atp9
Rp10
sS'methods'
p11
g3
((lp12
S'Method.AGONIST'
p13
atp14
Rp15
sS'topics'
p16
g3
((lp17
S"(33, u'\\\\balzheimers')"
p18
aS"(9, u'\\\\bdepress')"
p19
aS"(34, u'\\\\bdementia')"
p20
aS"(10, u'\\\\banxiety')"
p21
atp22
Rp23
sS'receptors'
p24
g3
((lp25
S'5ht5'
p26
aS'5ht1a'
p27
atp28
Rp29
sS'regions'
p30
g3
((lp31
S"(34, u'(?i)(pon|pons)')"
p32
atp33
Rp34
sS'year'
p35
V1995
p36
sS'agonists'
p37
g3
((lp38
S"(24, u'\\\\bbuspirone')"
p39
aS"(27, u'\\\\bclozapine')"
p40
atp41
Rp42
sS'species'
p43
g3
((lp44
S"(4624, u'(?i)(apes|ape)')"
p45
aS"(4163, u'(?i)(ermines|ermine)')"
p46
aS"(3812, u'(?i)(studs|stud)')"
p47
aS"(5958, u'(?i)(rats|rat)')"
p48
aS"(6356, u'(?i)(ais|ai)')"
p49
aS"(468, u'(?i)(oxen|ox)')"
p50
aS"(1349, u'(?i)(rams|ram)')"
p51
aS"(5743, u'(?i)(bots|bot)')"
p52
aS"(7127, u'(?i)(monitors|monitor)')"
p53
aS"(3247, u'(?i)(youngs|young)')"
p54
aS"(2809, u'(?i)(toms|tom)')"
p55
aS"(6249, u'(?i)(ants|ant)')"
p56
aS"(7609, u'(?i)(erns|ern)')"
p57
aS"(4201, u'(?i)(kines|kine)')"
p58
aS"(1055, u'(?i)(men|man)')"
p59
aS"(6753, u'(?i)(da|das)')"
p60
aS"(1961, u'(?i)(pens|pen)')"
p61
aS"(2323, u'(?i)(bees|bee)')"
p62
aS"(1628, u'(?i)(cod|cod)')"
p63
aS"(4979, u'(?i)(cats|cat)')"
p64
aS"(1683, u'(?i)(terns|tern)')"
p65
aS"(5674, u'(?i)(ewes|ewe)')"
p66
atp67
Rp68
sb.