(ifile_types
ParseObject
p0
(dp1
S'methods'
p2
c__builtin__
set
p3
((lp4
S'Method.AGONIST'
p5
atp6
Rp7
sS'topics'
p8
g3
((lp9
S"(13, u'\\\\bantidepress')"
p10
aS"(4, u'\\\\btreatment')"
p11
atp12
Rp13
sS'receptors'
p14
g3
((lp15
(S'5ht1a'
p16
I1321
I1327
tp17
a(S'5ht1a'
p18
I243
I249
tp19
a(S'5ht1a'
p20
I1466
I1472
tp21
a(S'5ht1a'
p22
I500
I506
tp23
a(S'5ht1a'
p24
I30
I41
tp25
a(S'5ht1a'
p26
I1056
I1062
tp27
a(S'5ht1a'
p28
I1819
I1825
tp29
a(S'5ht1a'
p30
I765
I771
tp31
a(S'5ht1a'
p32
I229
I240
tp33
a(S'5ht1a'
p34
I573
I579
tp35
a(S'5ht1a'
p36
I1122
I1128
tp37
a(S'5ht1a'
p38
I1607
I1613
tp39
atp40
Rp41
sS'raw_text_methods'
p42
g3
((lp43
S"(13, u'\\\\bagonist')"
p44
aS"(15, u'\\\\b8ohdpat')"
p45
aS"(11, u'\\\\bfluoxetine')"
p46
aS"(38, u'\\\\bssri')"
p47
aS"(39, u'\\\\bselective serotonin reuptake inhibitor')"
p48
atp49
Rp50
sS'regions'
p51
g3
((lp52
S"(16, u'(?i)\\\\b(drns|drn)\\\\b')"
p53
atp54
Rp55
sS'year'
p56
V2008
p57
sS'species'
p58
g3
((lp59
S"(4, u'(?i)\\\\b(rats|rat)\\\\b')"
p60
atp61
Rp62
sb.