(ifile_types
ParseObject
p0
(dp1
S'antagonists'
p2
c__builtin__
set
p3
((lp4
tp5
Rp6
sS'methods'
p7
g3
((lp8
S'Method.KNOCKOUT'
p9
aS'Method.AGONIST'
p10
atp11
Rp12
sS'topics'
p13
g3
((lp14
S"(12, u'\\\\banxiogen')"
p15
aS"(35, u'\\\\bstress')"
p16
aS"(11, u'\\\\banxiolyt')"
p17
aS"(10, u'\\\\banxiety')"
p18
atp19
Rp20
sS'receptors'
p21
g3
((lp22
S'5ht2b'
p23
aS'5ht2c'
p24
atp25
Rp26
sS'regions'
p27
g3
((lp28
S"(209, u'(?i)\\\\b(amygdalas|amygdala)\\\\b')"
p29
atp30
Rp31
sS'year'
p32
V2011
p33
sS'agonists'
p34
g3
((lp35
S"(155, u'\\\\bmcpp')"
p36
atp37
Rp38
sS'species'
p39
g3
((lp40
S"(5799, u'(?i)\\\\b(rodents|rodent)\\\\b')"
p41
aS"(1057, u'(?i)\\\\b(humans|human)\\\\b')"
p42
aS"(163, u'(?i)\\\\b(mice|mouse)\\\\b')"
p43
aS"(3196, u'(?i)\\\\b(human|humans)\\\\b')"
p44
atp45
Rp46
sb.