(ifile_types
ParseObject
p0
(dp1
S'antagonists'
p2
c__builtin__
set
p3
((lp4
S"(133, u'\\\\bmianserin')"
p5
atp6
Rp7
sS'methods'
p8
g3
((lp9
S'Method.ANTAGONIST'
p10
aS'Method.AGONIST'
p11
atp12
Rp13
sS'topics'
p14
g3
((lp15
tp16
Rp17
sS'receptors'
p18
g3
((lp19
S'5ht3'
p20
aS'5ht3a'
p21
aS'5ht2b'
p22
aS'5ht2c'
p23
atp24
Rp25
sS'regions'
p26
g3
((lp27
S"(190, u'(?i)\\\\b(zonas|zona)(-|\\\\s+)?(incertas|incerta)\\\\b')"
p28
aS"(219, u'(?i)\\\\b(basals|basal)(-|\\\\s+)?(ganglias|ganglia)\\\\b')"
p29
aS"(316, u'(?i)\\\\b(nigrostriatals|nigrostriatal)(-|\\\\s+)?(pathways|pathway)\\\\b')"
p30
aS"(105, u'(?i)\\\\b(par|pars)(-|\\\\s+)?(reticulatas|reticulata)\\\\b')"
p31
aS"(103, u'(?i)\\\\b(substantias|substantia)(-|\\\\s+)?(nigras|nigra)\\\\b')"
p32
aS"(189, u'(?i)\\\\b(subthalamics|subthalamic)(-|\\\\s+)?(nuclei|nucleus)\\\\b')"
p33
atp34
Rp35
sS'year'
p36
V2004
p37
sS'agonists'
p38
g3
((lp39
S"(166, u'\\\\bmk ?212')"
p40
aS"(192, u'\\\\bquipazine')"
p41
atp42
Rp43
sS'species'
p44
g3
((lp45
S"(5958, u'(?i)\\\\b(rats|rat)\\\\b')"
p46
atp47
Rp48
sb.