(ifile_types
ParseObject
p0
(dp1
S'methods'
p2
c__builtin__
set
p3
((lp4
S'Method.ANTAGONIST'
p5
atp6
Rp7
sS'topics'
p8
g3
((lp9
S"(14, u'\\\\bcogniti')"
p10
aS"(26, u'\\\\bbehav')"
p11
aS"(17, u'\\\\balzheimer')"
p12
aS"(15, u'\\\\bmemory')"
p13
aS"(5, u'\\\\btherap')"
p14
aS"(4, u'\\\\btreatment')"
p15
aS"(3, u'\\\\bclinical')"
p16
atp17
Rp18
sS'receptors'
p19
g3
((lp20
(S'5ht3'
p21
I1541
I1546
tp22
atp23
Rp24
sS'raw_text_methods'
p25
g3
((lp26
S"(12, u'\\\\bantagonist')"
p27
atp28
Rp29
sS'regions'
p30
g3
((lp31
S"(11, u'(?i)\\\\b(cerebrals|cerebral)\\\\b')"
p32
atp33
Rp34
sS'year'
p35
V2004
p36
sS'species'
p37
g3
((lp38
tp39
Rp40
sb.