(ifile_types
ParseObject
p0
(dp1
S'methods'
p2
c__builtin__
set
p3
((lp4
S'Method.ANTAGONIST'
p5
aS'Method.AGONIST'
p6
atp7
Rp8
sS'topics'
p9
g3
((lp10
S"(13, u'\\\\bantidepress')"
p11
aS"(2, u'\\\\bdisorder')"
p12
aS"(7, u'\\\\bdepressi')"
p13
aS"(20, u'\\\\bmood')"
p14
aS"(5, u'\\\\btherap')"
p15
aS"(12, u'\\\\bsleep')"
p16
aS"(4, u'\\\\btreatment')"
p17
aS"(3, u'\\\\bclinical')"
p18
atp19
Rp20
sS'receptors'
p21
g3
((lp22
(S'5ht2c'
p23
I1099
I1105
tp24
a(S'5ht2c'
p25
I1577
I1583
tp26
a(S'5ht2c'
p27
I826
I832
tp28
atp29
Rp30
sS'raw_text_methods'
p31
g3
((lp32
S"(13, u'\\\\bagonist')"
p33
aS"(43, u'\\\\bagomelatine')"
p34
aS"(12, u'\\\\bantagonist')"
p35
atp36
Rp37
sS'regions'
p38
g3
((lp39
S"(19, u'(?i)\\\\b(cortexes|cortex)\\\\b')"
p40
atp41
Rp42
sS'year'
p43
V2007
p44
sS'species'
p45
g3
((lp46
tp47
Rp48
sb.