(ifile_types
ParseObject
p0
(dp1
S'methods'
p2
c__builtin__
set
p3
((lp4
S'Method.AGONIST'
p5
atp6
Rp7
sS'topics'
p8
g3
((lp9
S"(24, u'\\\\banxiolytic')"
p10
aS"(8, u'\\\\banxi')"
p11
aS"(13, u'\\\\bantidepress')"
p12
aS"(4, u'\\\\btreatment')"
p13
atp14
Rp15
sS'receptors'
p16
g3
((lp17
(S'5ht1a'
p18
I1137
I1143
tp19
a(S'5ht1a'
p20
I1063
I1069
tp21
a(S'5ht3'
p22
I942
I947
tp23
a(S'5ht1a'
p24
I306
I312
tp25
a(S'5ht1a'
p26
I1950
I1956
tp27
a(S'5ht1a'
p28
I795
I801
tp29
a(S'5ht2'
p30
I919
I924
tp31
atp32
Rp33
sS'raw_text_methods'
p34
g3
((lp35
S"(13, u'\\\\bagonist')"
p36
aS"(21, u'\\\\bipsapirone')"
p37
aS"(54, u'\\\\bautoradiography')"
p38
atp39
Rp40
sS'regions'
p41
g3
((lp42
S"(19, u'(?i)\\\\b(cortexes|cortex)\\\\b')"
p43
aS"(11, u'(?i)\\\\b(cerebrals|cerebral)\\\\b')"
p44
aS"(13, u'(?i)\\\\b(septums|septum)\\\\b')"
p45
aS"(3, u'(?i)\\\\b(postsynaptics|postsynaptic)\\\\b')"
p46
atp47
Rp48
sS'year'
p49
V1990
p50
sS'species'
p51
g3
((lp52
S"(4, u'(?i)\\\\b(rats|rat)\\\\b')"
p53
atp54
Rp55
sb.