(ifile_types
ParseObject
p0
(dp1
S'methods'
p2
c__builtin__
set
p3
((lp4
tp5
Rp6
sS'topics'
p7
g3
((lp8
tp9
Rp10
sS'receptors'
p11
g3
((lp12
(S'5ht2a'
p13
I964
I970
tp14
a(S'5ht2a'
p15
I1146
I1152
tp16
a(S'5ht2'
p17
I361
I366
tp18
a(S'5ht2a'
p19
I874
I880
tp20
a(S'5ht2a'
p21
I730
I736
tp22
a(S'5ht2a'
p23
I398
I404
tp24
a(S'5ht2a'
p25
I91
I97
tp26
a(S'5ht2a'
p27
I511
I517
tp28
atp29
Rp30
sS'raw_text_methods'
p31
g3
((lp32
S"(48, u'\\\\bmdma')"
p33
atp34
Rp35
sS'regions'
p36
g3
((lp37
S"(11, u'(?i)\\\\b(cerebrals|cerebral)\\\\b')"
p38
aS"(19, u'(?i)\\\\b(cortexes|cortex)\\\\b')"
p39
atp40
Rp41
sS'year'
p42
V2002
p43
sS'species'
p44
g3
((lp45
S"(4, u'(?i)\\\\b(rats|rat)\\\\b')"
p46
atp47
Rp48
sb.