(ifile_types
ParseObject
p0
(dp1
S'antagonists'
p2
c__builtin__
set
p3
((lp4
S"(53, u'\\\\bketanserin')"
p5
aS"(128, u'\\\\bketanserin')"
p6
aS"(61, u'\\\\bmdl ?100907')"
p7
aS"(50, u'\\\\btrazodone')"
p8
atp9
Rp10
sS'methods'
p11
g3
((lp12
S'Method.ANTAGONIST'
p13
aS'Method.AGONIST'
p14
atp15
Rp16
sS'topics'
p17
g3
((lp18
tp19
Rp20
sS'receptors'
p21
g3
((lp22
S'5ht3'
p23
aS'5ht2a'
p24
atp25
Rp26
sS'regions'
p27
g3
((lp28
tp29
Rp30
sS'year'
p31
V2018
p32
sS'agonists'
p33
g3
((lp34
S"(82, u'\\\\btrazodone')"
p35
aS"(33, u'\\\\bdoi')"
p36
atp37
Rp38
sS'species'
p39
g3
((lp40
S"(6249, u'(?i)(ants|ant)')"
p41
aS"(2568, u'(?i)(hens|hen)')"
p42
aS"(7609, u'(?i)(erns|ern)')"
p43
aS"(5958, u'(?i)(rats|rat)')"
p44
aS"(4964, u'(?i)(serins|serin)')"
p45
aS"(479, u'(?i)(lings|ling)')"
p46
aS"(81, u'(?i)(asps|asp)')"
p47
aS"(6682, u'(?i)(tera|teras)')"
p48
aS"(1055, u'(?i)(men|man)')"
p49
aS"(3726, u'(?i)(mates|mate)')"
p50
aS"(853, u'(?i)(minas|mina)')"
p51
aS"(3550, u'(?i)(anis|ani)')"
p52
aS"(6356, u'(?i)(ais|ai)')"
p53
aS"(391, u'(?i)(alli|allis)')"
p54
aS"(1683, u'(?i)(terns|tern)')"
p55
atp56
Rp57
sb.