(ifile_types
ParseObject
p0
(dp1
S'methods'
p2
c__builtin__
set
p3
((lp4
S'Method.STIMULATION'
p5
aS'Method.AGONIST'
p6
atp7
Rp8
sS'topics'
p9
g3
((lp10
tp11
Rp12
sS'receptors'
p13
g3
((lp14
(S'5ht1a'
p15
I1997
I2003
tp16
a(S'5ht1b'
p17
I1986
I1992
tp18
a(S'5ht1b'
p19
I1473
I1479
tp20
a(S'5ht1a'
p21
I1783
I1789
tp22
atp23
Rp24
sS'raw_text_methods'
p25
g3
((lp26
S"(13, u'\\\\bagonist')"
p27
aS"(44, u'\\\\btetrodotoxin')"
p28
atp29
Rp30
sS'regions'
p31
g3
((lp32
S"(4, u'(?i)\\\\b(presynaptics|presynaptic)\\\\b')"
p33
atp34
Rp35
sS'year'
p36
V2007
p37
sS'species'
p38
g3
((lp39
S"(4, u'(?i)\\\\b(rats|rat)\\\\b')"
p40
atp41
Rp42
sb.