(ifile_types
ParseObject
p0
(dp1
S'methods'
p2
c__builtin__
set
p3
((lp4
S'Method.AGONIST'
p5
atp6
Rp7
sS'topics'
p8
g3
((lp9
S"(26, u'\\\\bbehav')"
p10
aS"(2, u'\\\\bdisorder')"
p11
aS"(7, u'\\\\bdepressi')"
p12
aS"(20, u'\\\\bmood')"
p13
aS"(6, u'\\\\baggressi')"
p14
aS"(8, u'\\\\banxi')"
p15
atp16
Rp17
sS'receptors'
p18
g3
((lp19
(S'5ht1b'
p20
I542
I550
tp21
a(S'5ht1b'
p22
I73
I79
tp23
a(S'5ht1b'
p24
I364
I370
tp25
a(S'5ht1a'
p26
I542
I548
tp27
a(S'5ht5'
p28
I143
I153
tp29
a(S'5ht1b'
p30
I638
I644
tp31
a(S'5ht1b'
p32
I817
I823
tp33
atp34
Rp35
sS'raw_text_methods'
p36
g3
((lp37
S"(13, u'\\\\bagonist')"
p38
aS"(8, u'\\\\bru24969')"
p39
atp40
Rp41
sS'regions'
p42
g3
((lp43
tp44
Rp45
sS'year'
p46
V1994
p47
sS'species'
p48
g3
((lp49
S"(1, u'(?i)\\\\b(mice|mouse)\\\\b')"
p50
aS"(5, u'(?i)\\\\b(mices|mice)\\\\b')"
p51
atp52
Rp53
sb.