(ifile_types
ParseObject
p0
(dp1
S'antagonists'
p2
c__builtin__
set
p3
((lp4
S"(131, u'\\\\bm1')"
p5
atp6
Rp7
sS'methods'
p8
g3
((lp9
tp10
Rp11
sS'topics'
p12
g3
((lp13
tp14
Rp15
sS'receptors'
p16
g3
((lp17
S'5ht2a'
p18
atp19
Rp20
sS'regions'
p21
g3
((lp22
S"(248, u'(?i)\\\\b(cerebrals|cerebral)(-|\\\\s+)?(cortexes|cortex)\\\\b')"
p23
atp24
Rp25
sS'year'
p26
V2014
p27
sS'agonists'
p28
g3
((lp29
S"(149, u'\\\\bmem')"
p30
atp31
Rp32
sS'species'
p33
g3
((lp34
S"(5958, u'(?i)\\\\b(rats|rat)\\\\b')"
p35
atp36
Rp37
sb.