(ifile_types
ParseObject
p0
(dp1
S'antagonists'
p2
c__builtin__
set
p3
((lp4
S"(67, u'\\\\bhaloperidol')"
p5
aS"(61, u'\\\\bmdl ?100907')"
p6
atp7
Rp8
sS'methods'
p9
g3
((lp10
S'Method.ANTAGONIST'
p11
aS'Method.AGONIST'
p12
atp13
Rp14
sS'topics'
p15
g3
((lp16
S"(10, u'\\\\banxiety')"
p17
atp18
Rp19
sS'receptors'
p20
g3
((lp21
S'5ht5'
p22
aS'5ht2a'
p23
atp24
Rp25
sS'regions'
p26
g3
((lp27
tp28
Rp29
sS'year'
p30
V2018
p31
sS'agonists'
p32
g3
((lp33
S"(48, u'\\\\bhaloperidol')"
p34
atp35
Rp36
sS'species'
p37
g3
((lp38
S"(81, u'(?i)(asps|asp)')"
p39
aS"(3722, u'(?i)(pups|pup)')"
p40
aS"(6249, u'(?i)(ants|ant)')"
p41
aS"(5229, u'(?i)(moles|mole)')"
p42
aS"(3812, u'(?i)(studs|stud)')"
p43
aS"(1070, u'(?i)(pets|pet)')"
p44
aS"(6125, u'(?i)(females|female)')"
p45
aS"(5967, u'(?i)(males|male)')"
p46
aS"(3404, u'(?i)(titis|titi)')"
p47
aS"(2942, u'(?i)(daws|daw)')"
p48
aS"(3550, u'(?i)(anis|ani)')"
p49
aS"(5958, u'(?i)(rats|rat)')"
p50
aS"(7609, u'(?i)(erns|ern)')"
p51
aS"(867, u'(?i)(tits|tit)')"
p52
aS"(6682, u'(?i)(tera|teras)')"
p53
aS"(1055, u'(?i)(men|man)')"
p54
aS"(6753, u'(?i)(da|das)')"
p55
aS"(1961, u'(?i)(pens|pen)')"
p56
aS"(4979, u'(?i)(cats|cat)')"
p57
aS"(3726, u'(?i)(mates|mate)')"
p58
aS"(7552, u'(?i)(bats|bat)')"
p59
aS"(1683, u'(?i)(terns|tern)')"
p60
atp61
Rp62
sb.