(ifile_types
ParseObject
p0
(dp1
S'methods'
p2
c__builtin__
set
p3
((lp4
S'Method.AGONIST'
p5
atp6
Rp7
sS'topics'
p8
g3
((lp9
S"(24, u'\\\\banxiolytic')"
p10
aS"(8, u'\\\\banxi')"
p11
atp12
Rp13
sS'receptors'
p14
g3
((lp15
(S'5ht3'
p16
I385
I390
tp17
a(S'5ht3'
p18
I715
I720
tp19
a(S'5ht3'
p20
I67
I72
tp21
atp22
Rp23
sS'raw_text_methods'
p24
g3
((lp25
S"(13, u'\\\\bagonist')"
p26
aS"(37, u'\\\\bpiperazine')"
p27
atp28
Rp29
sS'regions'
p30
g3
((lp31
tp32
Rp33
sS'year'
p34
V1996
p35
sS'species'
p36
g3
((lp37
tp38
Rp39
sb.