(ifile_types
ParseObject
p0
(dp1
S'methods'
p2
c__builtin__
set
p3
((lp4
S'Method.ANTAGONIST'
p5
atp6
Rp7
sS'topics'
p8
g3
((lp9
S"(32, u'\\\\bvomit')"
p10
aS"(4, u'\\\\btreatment')"
p11
atp12
Rp13
sS'receptors'
p14
g3
((lp15
(S'5ht3'
p16
I1313
I1318
tp17
a(S'5ht3'
p18
I1746
I1751
tp19
a(S'5ht3'
p20
I1019
I1024
tp21
a(S'5ht3'
p22
I1437
I1442
tp23
a(S'5ht3'
p24
I1638
I1643
tp25
a(S'5ht3'
p26
I935
I940
tp27
a(S'5ht3'
p28
I421
I426
tp29
atp30
Rp31
sS'raw_text_methods'
p32
g3
((lp33
S"(12, u'\\\\bantagonist')"
p34
atp35
Rp36
sS'regions'
p37
g3
((lp38
tp39
Rp40
sS'year'
p41
V2012
p42
sS'species'
p43
g3
((lp44
tp45
Rp46
sb.