(ifile_types
ParseObject
p0
(dp1
S'antagonists'
p2
c__builtin__
set
p3
((lp4
S"(45, u'\\\\bgr ?127935')"
p5
atp6
Rp7
sS'methods'
p8
g3
((lp9
S'Method.ANTAGONIST'
p10
aS'Method.AGONIST'
p11
atp12
Rp13
sS'topics'
p14
g3
((lp15
S"(8, u'\\\\blearning')"
p16
aS"(7, u'\\\\bmemory')"
p17
atp18
Rp19
sS'receptors'
p20
g3
((lp21
S'5ht1b'
p22
aS'5ht1a'
p23
aS'5ht2b'
p24
aS'5ht2'
p25
aS'5ht2a'
p26
aS'5ht1d'
p27
aS'5ht2d'
p28
atp29
Rp30
sS'regions'
p31
g3
((lp32
S"(271, u'(?i)(v2s|v2)')"
p33
aS"(34, u'(?i)(pon|pons)')"
p34
atp35
Rp36
sS'year'
p37
V2015
p38
sS'agonists'
p39
g3
((lp40
S"(108, u'\\\\bcp ?94253')"
p41
aS"(155, u'\\\\bmem')"
p42
atp43
Rp44
sS'species'
p45
g3
((lp46
S"(5958, u'(?i)(rats|rat)')"
p47
aS"(6753, u'(?i)(da|das)')"
p48
aS"(4091, u'(?i)(adults|adult)')"
p49
aS"(5967, u'(?i)(males|male)')"
p50
aS"(1055, u'(?i)(men|man)')"
p51
aS"(6249, u'(?i)(ants|ant)')"
p52
aS"(4979, u'(?i)(cats|cat)')"
p53
aS"(3550, u'(?i)(anis|ani)')"
p54
aS"(7604, u'(?i)(cyclop|cyclops)')"
p55
aS"(3812, u'(?i)(studs|stud)')"
p56
aS"(6391, u'(?i)(asses|ass)')"
p57
aS"(6356, u'(?i)(ais|ai)')"
p58
atp59
Rp60
sb.