(ifile_types
ParseObject
p0
(dp1
S'antagonists'
p2
c__builtin__
set
p3
((lp4
S"(84, u'\\\\bsb ?206553')"
p5
aS"(121, u'\\\\bsb ?243213')"
p6
atp7
Rp8
sS'methods'
p9
g3
((lp10
S'Method.ANTAGONIST'
p11
aS'Method.AGONIST'
p12
atp13
Rp14
sS'topics'
p15
g3
((lp16
tp17
Rp18
sS'receptors'
p19
g3
((lp20
S'5ht2b'
p21
aS'5ht2c'
p22
aS'5ht2a'
p23
atp24
Rp25
sS'regions'
p26
g3
((lp27
S"(219, u'(?i)\\\\b(basals|basal)(-|\\\\s+)?(ganglias|ganglia)\\\\b')"
p28
aS"(220, u'(?i)\\\\b(striatums|striatum)\\\\b')"
p29
aS"(103, u'(?i)\\\\b(substantias|substantia)(-|\\\\s+)?(nigras|nigra)\\\\b')"
p30
aS"(189, u'(?i)\\\\b(subthalamics|subthalamic)(-|\\\\s+)?(nuclei|nucleus)\\\\b')"
p31
atp32
Rp33
sS'year'
p34
V2013
p35
sS'agonists'
p36
g3
((lp37
S"(155, u'\\\\bmcpp')"
p38
atp39
Rp40
sS'species'
p41
g3
((lp42
S"(2401, u'(?i)\\\\b(primates|primate)\\\\b')"
p43
aS"(5958, u'(?i)\\\\b(rats|rat)\\\\b')"
p44
atp45
Rp46
sb.