(ifile_types
ParseObject
p0
(dp1
S'methods'
p2
c__builtin__
set
p3
((lp4
tp5
Rp6
sS'topics'
p7
g3
((lp8
S"(14, u'\\\\bcogniti')"
p9
atp10
Rp11
sS'receptors'
p12
g3
((lp13
(S'5ht2a'
p14
I748
I754
tp15
a(S'5ht1a'
p16
I77
I83
tp17
a(S'5ht1a'
p18
I875
I881
tp19
a(S'5ht2c'
p20
I758
I764
tp21
a(S'5ht1a'
p22
I490
I496
tp23
atp24
Rp25
sS'raw_text_methods'
p26
g3
((lp27
tp28
Rp29
sS'regions'
p30
g3
((lp31
tp32
Rp33
sS'year'
p34
V1998
p35
sS'species'
p36
g3
((lp37
S"(3, u'(?i)\\\\b(males|male)\\\\b')"
p38
aS"(4, u'(?i)\\\\b(rats|rat)\\\\b')"
p39
atp40
Rp41
sb.