(ifile_types
ParseObject
p0
(dp1
S'antagonists'
p2
c__builtin__
set
p3
((lp4
S"(134, u'\\\\bgranisetron')"
p5
aS"(54, u'\\\\britanserin')"
p6
aS"(130, u'\\\\britanserin')"
p7
atp8
Rp9
sS'methods'
p10
g3
((lp11
S'Method.ANTAGONIST'
p12
atp13
Rp14
sS'topics'
p15
g3
((lp16
S"(8, u'\\\\blearning')"
p17
aS"(6, u'\\\\bcognit')"
p18
aS"(7, u'\\\\bmemory')"
p19
atp20
Rp21
sS'receptors'
p22
g3
((lp23
S'5ht3'
p24
aS'5ht3a'
p25
aS'5ht2c'
p26
aS'5ht2a'
p27
atp28
Rp29
sS'regions'
p30
g3
((lp31
tp32
Rp33
sS'year'
p34
V2005
p35
sS'agonists'
p36
g3
((lp37
S"(155, u'\\\\bmem')"
p38
atp39
Rp40
sS'species'
p41
g3
((lp42
S"(4624, u'(?i)(apes|ape)')"
p43
aS"(5537, u'(?i)(hippos|hippo)')"
p44
aS"(5958, u'(?i)(rats|rat)')"
p45
aS"(7609, u'(?i)(erns|ern)')"
p46
aS"(4964, u'(?i)(serins|serin)')"
p47
aS"(2389, u'(?i)(spats|spat)')"
p48
aS"(4663, u'(?i)(nags|nag)')"
p49
aS"(6682, u'(?i)(tera|teras)')"
p50
aS"(1055, u'(?i)(men|man)')"
p51
aS"(6249, u'(?i)(ants|ant)')"
p52
aS"(1349, u'(?i)(rams|ram)')"
p53
aS"(853, u'(?i)(minas|mina)')"
p54
aS"(3550, u'(?i)(anis|ani)')"
p55
aS"(3812, u'(?i)(studs|stud)')"
p56
aS"(6391, u'(?i)(asses|ass)')"
p57
aS"(5743, u'(?i)(bots|bot)')"
p58
aS"(6356, u'(?i)(ais|ai)')"
p59
atp60
Rp61
sb.