(ifile_types
ParseObject
p0
(dp1
S'antagonists'
p2
c__builtin__
set
p3
((lp4
S"(5, u'\\\\bcyanopindolol')"
p5
aS"(14, u'\\\\bmethiothepin')"
p6
aS"(21, u'\\\\bpindolol')"
p7
aS"(22, u'\\\\bpropranolol')"
p8
aS"(52, u'\\\\bmetergoline')"
p9
aS"(35, u'\\\\bmetergoline')"
p10
aS"(11, u'\\\\bisamoltane')"
p11
atp12
Rp13
sS'methods'
p14
g3
((lp15
S'Method.ANTAGONIST'
p16
aS'Method.AGONIST'
p17
atp18
Rp19
sS'topics'
p20
g3
((lp21
tp22
Rp23
sS'receptors'
p24
g3
((lp25
S'5ht1b'
p26
atp27
Rp28
sS'regions'
p29
g3
((lp30
S"(34, u'(?i)(pon|pons)')"
p31
atp32
Rp33
sS'year'
p34
V1994
p35
sS'agonists'
p36
g3
((lp37
S"(103, u'\\\\bsumatriptan')"
p38
aS"(74, u'\\\\bru ?24969')"
p39
aS"(105, u'\\\\b5 ?carboxamidotryptamine')"
p40
aS"(5, u'\\\\b5 ?ct')"
p41
aS"(107, u'\\\\bcp ?93129')"
p42
atp43
Rp44
sS'species'
p45
g3
((lp46
S"(1688, u'(?i)(ounces|ounce)')"
p47
aS"(6753, u'(?i)(da|das)')"
p48
aS"(5721, u'(?i)(opossums|opossum)')"
p49
aS"(5743, u'(?i)(bots|bot)')"
p50
aS"(6249, u'(?i)(ants|ant)')"
p51
aS"(468, u'(?i)(oxen|ox)')"
p52
aS"(937, u'(?i)(kids|kid)')"
p53
aS"(5722, u'(?i)(possums|possum)')"
p54
aS"(4979, u'(?i)(cats|cat)')"
p55
aS"(4099, u'(?i)(hamsters|hamster)')"
p56
aS"(5958, u'(?i)(rats|rat)')"
p57
aS"(3522, u'(?i)(tetras|tetra)')"
p58
aS"(3812, u'(?i)(studs|stud)')"
p59
aS"(6356, u'(?i)(ais|ai)')"
p60
atp61
Rp62
sb.