(ifile_types
ParseObject
p0
(dp1
S'methods'
p2
c__builtin__
set
p3
((lp4
S'Method.ANTAGONIST'
p5
aS'Method.AGONIST'
p6
atp7
Rp8
sS'topics'
p9
g3
((lp10
S"(7, u'\\\\bdepressi')"
p11
aS"(26, u'\\\\bbehav')"
p12
aS"(4, u'\\\\btreatment')"
p13
atp14
Rp15
sS'receptors'
p16
g3
((lp17
(S'5ht1a'
p18
I673
I678
tp19
a(S'5ht1'
p20
I527
I532
tp21
a(S'5ht1a'
p22
I1178
I1184
tp23
a(S'5ht1'
p24
I647
I652
tp25
a(S'5ht1a'
p26
I800
I806
tp27
atp28
Rp29
sS'raw_text_methods'
p30
g3
((lp31
S"(13, u'\\\\bagonist')"
p32
aS"(7, u'\\\\bpropranolol')"
p33
aS"(11, u'\\\\bfluoxetine')"
p34
aS"(15, u'\\\\b8ohdpat')"
p35
aS"(12, u'\\\\bantagonist')"
p36
atp37
Rp38
sS'regions'
p39
g3
((lp40
tp41
Rp42
sS'year'
p43
V1993
p44
sS'species'
p45
g3
((lp46
S"(4, u'(?i)\\\\b(rats|rat)\\\\b')"
p47
atp48
Rp49
sb.