(ifile_types
ParseObject
p0
(dp1
S'methods'
p2
c__builtin__
set
p3
((lp4
S'Method.AGONIST'
p5
atp6
Rp7
sS'topics'
p8
g3
((lp9
S"(22, u'\\\\bschizophreni')"
p10
aS"(26, u'\\\\bbehav')"
p11
aS"(19, u'\\\\bpsychosis')"
p12
aS"(23, u'\\\\bantipsychotic')"
p13
aS"(4, u'\\\\btreatment')"
p14
aS"(3, u'\\\\bclinical')"
p15
atp16
Rp17
sS'receptors'
p18
g3
((lp19
(S'5ht2'
p20
I1839
I1844
tp21
a(S'5ht1'
p22
I1454
I1459
tp23
a(S'5ht2a'
p24
I52
I63
tp25
a(S'5ht2'
p26
I234
I239
tp27
a(S'5ht2'
p28
I810
I815
tp29
a(S'5ht2'
p30
I784
I789
tp31
a(S'5ht2'
p32
I845
I850
tp33
a(S'5ht2'
p34
I1416
I1421
tp35
a(S'5ht2'
p36
I346
I351
tp37
a(S'5ht2a'
p38
I210
I221
tp39
a(S'5ht2a'
p40
I400
I406
tp41
atp42
Rp43
sS'raw_text_methods'
p44
g3
((lp45
S"(13, u'\\\\bagonist')"
p46
aS"(27, u'\\\\blsd')"
p47
aS"(49, u'\\\\bdoi')"
p48
aS"(29, u'\\\\bdiethylamide')"
p49
atp50
Rp51
sS'regions'
p52
g3
((lp53
S"(20, u'(?i)\\\\b(prefrontals|prefrontal)\\\\b')"
p54
aS"(19, u'(?i)\\\\b(cortexes|cortex)\\\\b')"
p55
atp56
Rp57
sS'year'
p58
V2013
p59
sS'species'
p60
g3
((lp61
S"(1, u'(?i)\\\\b(mice|mouse)\\\\b')"
p62
aS"(6, u'(?i)\\\\b(rodents|rodent)\\\\b')"
p63
aS"(5, u'(?i)\\\\b(mices|mice)\\\\b')"
p64
atp65
Rp66
sb.