(ifile_types
ParseObject
p0
(dp1
S'methods'
p2
c__builtin__
set
p3
((lp4
S'Method.ANTAGONIST'
p5
aS'Method.AGONIST'
p6
atp7
Rp8
sS'topics'
p9
g3
((lp10
tp11
Rp12
sS'receptors'
p13
g3
((lp14
(S'5ht1a'
p15
I1351
I1357
tp16
a(S'5ht1a'
p17
I1652
I1658
tp18
a(S'5ht1a'
p19
I36
I42
tp20
a(S'5ht1a'
p21
I1096
I1102
tp22
a(S'5ht1a'
p23
I347
I353
tp24
a(S'5ht1a'
p25
I578
I584
tp26
a(S'5ht1a'
p27
I381
I387
tp28
a(S'5ht1a'
p29
I1696
I1702
tp30
a(S'5ht1a'
p31
I1527
I1533
tp32
a(S'5ht1a'
p33
I959
I965
tp34
atp35
Rp36
sS'raw_text_methods'
p37
g3
((lp38
S"(13, u'\\\\bagonist')"
p39
aS"(15, u'\\\\b8ohdpat')"
p40
aS"(12, u'\\\\bantagonist')"
p41
atp42
Rp43
sS'regions'
p44
g3
((lp45
tp46
Rp47
sS'year'
p48
V1990
p49
sS'species'
p50
g3
((lp51
tp52
Rp53
sb.