(ifile_types
ParseObject
p0
(dp1
S'methods'
p2
c__builtin__
set
p3
((lp4
S'Method.ANTAGONIST'
p5
aS'Method.AGONIST'
p6
atp7
Rp8
sS'topics'
p9
g3
((lp10
S"(26, u'\\\\bbehav')"
p11
aS"(32, u'\\\\bvomit')"
p12
atp13
Rp14
sS'receptors'
p15
g3
((lp16
(S'5ht1a'
p17
I609
I615
tp18
a(S'5ht1a'
p19
I2106
I2112
tp20
a(S'5ht1a'
p21
I346
I352
tp22
a(S'5ht1a'
p23
I1024
I1030
tp24
a(S'5ht1a'
p25
I154
I160
tp26
a(S'5ht1a'
p27
I1076
I1082
tp28
atp29
Rp30
sS'raw_text_methods'
p31
g3
((lp32
S"(13, u'\\\\bagonist')"
p33
aS"(15, u'\\\\b8ohdpat')"
p34
aS"(51, u'\\\\bway100635')"
p35
aS"(12, u'\\\\bantagonist')"
p36
atp37
Rp38
sS'regions'
p39
g3
((lp40
S"(16, u'(?i)\\\\b(drns|drn)\\\\b')"
p41
atp42
Rp43
sS'year'
p44
V2012
p45
sS'species'
p46
g3
((lp47
S"(4, u'(?i)\\\\b(rats|rat)\\\\b')"
p48
atp49
Rp50
sb.