(ifile_types
ParseObject
p0
(dp1
S'antagonists'
p2
c__builtin__
set
p3
((lp4
S"(84, u'\\\\bsb ?206553')"
p5
aS"(14, u'\\\\bmethiothepin')"
p6
aS"(38, u'\\\\bsb ?224289')"
p7
aS"(83, u'\\\\bsb ?204741')"
p8
aS"(198, u'\\\\bsb ?269970')"
p9
aS"(117, u'\\\\bketanserin')"
p10
aS"(194, u'\\\\bmethysergide')"
p11
atp12
Rp13
sS'methods'
p14
g3
((lp15
S'Method.ANTAGONIST'
p16
aS'Method.AGONIST'
p17
atp18
Rp19
sS'topics'
p20
g3
((lp21
tp22
Rp23
sS'receptors'
p24
g3
((lp25
S'5ht7'
p26
aS'5ht1b'
p27
aS'5ht1a'
p28
aS'5ht4'
p29
aS'5ht2b'
p30
aS'5ht5'
p31
aS'5ht5b'
p32
aS'5ht5a'
p33
atp34
Rp35
sS'regions'
p36
g3
((lp37
tp38
Rp39
sS'year'
p40
V2007
p41
sS'agonists'
p42
g3
((lp43
S"(96, u'\\\\bsumatriptan')"
p44
aS"(140, u'\\\\bbw ?723c86')"
p45
aS"(53, u'\\\\bmethysergide')"
p46
aS"(100, u'\\\\bcp ?93129')"
p47
atp48
Rp49
sS'species'
p50
g3
((lp51
S"(5958, u'(?i)\\\\b(rats|rat)\\\\b')"
p52
atp53
Rp54
sb.