(ifile_types
ParseObject
p0
(dp1
S'methods'
p2
c__builtin__
set
p3
((lp4
S'Method.PET'
p5
aS'Method.ANTAGONIST'
p6
atp7
Rp8
sS'topics'
p9
g3
((lp10
S"(2, u'\\\\bdisorder')"
p11
aS"(7, u'\\\\bdepressi')"
p12
aS"(20, u'\\\\bmood')"
p13
aS"(5, u'\\\\btherap')"
p14
aS"(8, u'\\\\banxi')"
p15
aS"(4, u'\\\\btreatment')"
p16
aS"(3, u'\\\\bclinical')"
p17
atp18
Rp19
sS'receptors'
p20
g3
((lp21
(S'5ht1a'
p22
I1713
I1719
tp23
a(S'5ht1a'
p24
I1836
I1842
tp25
a(S'5ht1a'
p26
I748
I754
tp27
atp28
Rp29
sS'raw_text_methods'
p30
g3
((lp31
S"(51, u'\\\\bway100635')"
p32
aS"(17, u'\\\\bpet')"
p33
aS"(19, u'\\\\bpositron emission tomography')"
p34
aS"(12, u'\\\\bantagonist')"
p35
atp36
Rp37
sS'regions'
p38
g3
((lp39
S"(3, u'(?i)\\\\b(postsynaptics|postsynaptic)\\\\b')"
p40
atp41
Rp42
sS'year'
p43
V2002
p44
sS'species'
p45
g3
((lp46
S"(3, u'(?i)\\\\b(males|male)\\\\b')"
p47
atp48
Rp49
sb.