(ifile_types
ParseObject
p0
(dp1
S'antagonists'
p2
c__builtin__
set
p3
((lp4
S"(84, u'\\\\bsarpogrelate')"
p5
aS"(54, u'\\\\britanserin')"
p6
aS"(130, u'\\\\britanserin')"
p7
aS"(142, u'\\\\bm1')"
p8
atp9
Rp10
sS'methods'
p11
g3
((lp12
S'Method.ANTAGONIST'
p13
atp14
Rp15
sS'topics'
p16
g3
((lp17
tp18
Rp19
sS'receptors'
p20
g3
((lp21
S'5ht1b'
p22
aS'5ht1a'
p23
aS'5ht4'
p24
aS'5ht3'
p25
aS'5ht2'
p26
aS'5ht2a'
p27
atp28
Rp29
sS'regions'
p30
g3
((lp31
tp32
Rp33
sS'year'
p34
V1996
p35
sS'agonists'
p36
g3
((lp37
S"(155, u'\\\\bmem')"
p38
atp39
Rp40
sS'species'
p41
g3
((lp42
S"(5958, u'(?i)(rats|rat)')"
p43
aS"(5743, u'(?i)(bots|bot)')"
p44
aS"(468, u'(?i)(oxen|ox)')"
p45
aS"(1055, u'(?i)(men|man)')"
p46
aS"(5131, u'(?i)(hags|hag)')"
p47
aS"(4964, u'(?i)(serins|serin)')"
p48
aS"(6249, u'(?i)(ants|ant)')"
p49
aS"(6356, u'(?i)(ais|ai)')"
p50
aS"(1628, u'(?i)(cod|cod)')"
p51
atp52
Rp53
sb.