(ifile_types
ParseObject
p0
(dp1
S'antagonists'
p2
c__builtin__
set
p3
((lp4
S"(17, u'\\\\bnan ?190')"
p5
aS"(58, u'\\\\bhaloperidol')"
p6
atp7
Rp8
sS'methods'
p9
g3
((lp10
S'Method.ANTAGONIST'
p11
aS'Method.AGONIST'
p12
atp13
Rp14
sS'topics'
p15
g3
((lp16
tp17
Rp18
sS'receptors'
p19
g3
((lp20
S'5ht1a'
p21
atp22
Rp23
sS'regions'
p24
g3
((lp25
S"(219, u'(?i)\\\\b(basals|basal)(-|\\\\s+)?(ganglias|ganglia)\\\\b')"
p26
atp27
Rp28
sS'year'
p29
V2010
p30
sS'agonists'
p31
g3
((lp32
S"(20, u'\\\\bbuspirone')"
p33
aS"(85, u'\\\\b8 ?oh ?dpat')"
p34
aS"(43, u'\\\\bhaloperidol')"
p35
atp36
Rp37
sS'species'
p38
g3
((lp39
S"(5967, u'(?i)\\\\b(males|male)\\\\b')"
p40
aS"(163, u'(?i)\\\\b(mice|mouse)\\\\b')"
p41
atp42
Rp43
sb.