(ifile_types
ParseObject
p0
(dp1
S'antagonists'
p2
c__builtin__
set
p3
((lp4
tp5
Rp6
sS'methods'
p7
g3
((lp8
tp9
Rp10
sS'topics'
p11
g3
((lp12
S"(29, u'\\\\bsex')"
p13
atp14
Rp15
sS'receptors'
p16
g3
((lp17
S'5ht1b'
p18
aS'5ht1a'
p19
aS'5ht3a'
p20
aS'5ht2c'
p21
aS'5ht1d'
p22
aS'5ht2a'
p23
atp24
Rp25
sS'regions'
p26
g3
((lp27
tp28
Rp29
sS'year'
p30
V2009
p31
sS'agonists'
p32
g3
((lp33
tp34
Rp35
sS'species'
p36
g3
((lp37
tp38
Rp39
sb.