(ifile_types
ParseObject
p0
(dp1
S'antagonists'
p2
c__builtin__
set
p3
((lp4
S"(32, u'\\\\bway ?100635')"
p5
aS"(202, u'\\\\bsb ?258719')"
p6
atp7
Rp8
sS'methods'
p9
g3
((lp10
S'Method.STIMULATION'
p11
aS'Method.ANTAGONIST'
p12
aS'Method.AGONIST'
p13
atp14
Rp15
sS'topics'
p16
g3
((lp17
S"(26, u'\\\\bcardiovascular')"
p18
atp19
Rp20
sS'receptors'
p21
g3
((lp22
S'5ht7'
p23
aS'5ht7a'
p24
aS'5ht1a'
p25
atp26
Rp27
sS'regions'
p28
g3
((lp29
S"(34, u'(?i)(pon|pons)')"
p30
atp31
Rp32
sS'year'
p33
V2009
p34
sS'agonists'
p35
g3
((lp36
S"(195, u'\\\\bphenylbiguanide')"
p37
aS"(92, u'\\\\b8 ?oh ?dpat')"
p38
aS"(105, u'\\\\b5 ?carboxamidotryptamine')"
p39
aS"(5, u'\\\\b5 ?ct')"
p40
atp41
Rp42
sS'species'
p43
g3
((lp44
S"(2568, u'(?i)(hens|hen)')"
p45
aS"(3137, u'(?i)(iguanids|iguanid)')"
p46
aS"(5958, u'(?i)(rats|rat)')"
p47
aS"(5176, u'(?i)(tegs|teg)')"
p48
aS"(5967, u'(?i)(males|male)')"
p49
aS"(468, u'(?i)(oxen|ox)')"
p50
aS"(1055, u'(?i)(men|man)')"
p51
aS"(6249, u'(?i)(ants|ant)')"
p52
aS"(4979, u'(?i)(cats|cat)')"
p53
aS"(3550, u'(?i)(anis|ani)')"
p54
aS"(5917, u'(?i)(roaches|roach)')"
p55
aS"(6356, u'(?i)(ais|ai)')"
p56
aS"(6878, u'(?i)(guans|guan)')"
p57
atp58
Rp59
sb.