(ifile_types
ParseObject
p0
(dp1
S'antagonists'
p2
c__builtin__
set
p3
((lp4
S"(17, u'\\\\bnan ?190')"
p5
atp6
Rp7
sS'methods'
p8
g3
((lp9
S'Method.ANTAGONIST'
p10
aS'Method.AGONIST'
p11
atp12
Rp13
sS'topics'
p14
g3
((lp15
S"(6, u'\\\\bcognit')"
p16
aS"(11, u'\\\\banxiolyt')"
p17
atp18
Rp19
sS'receptors'
p20
g3
((lp21
S'5ht1a'
p22
aS'5ht4'
p23
aS'5ht3'
p24
aS'5ht2'
p25
aS'5ht5'
p26
aS'5ht3a'
p27
atp28
Rp29
sS'regions'
p30
g3
((lp31
tp32
Rp33
sS'year'
p34
V1994
p35
sS'agonists'
p36
g3
((lp37
S"(149, u'\\\\bmem')"
p38
aS"(186, u'\\\\b2 ?methyl ?5 ?ht')"
p39
atp40
Rp41
sS'species'
p42
g3
((lp43
S"(5958, u'(?i)\\\\b(rats|rat)\\\\b')"
p44
aS"(468, u'(?i)\\\\b(oxen|ox)\\\\b')"
p45
atp46
Rp47
sb.