(ifile_types
ParseObject
p0
(dp1
S'methods'
p2
c__builtin__
set
p3
((lp4
S'Method.ANTAGONIST'
p5
aS'Method.AGONIST'
p6
atp7
Rp8
sS'topics'
p9
g3
((lp10
S"(26, u'\\\\bbehav')"
p11
atp12
Rp13
sS'receptors'
p14
g3
((lp15
(S'5ht1a'
p16
I1576
I1582
tp17
a(S'5ht1a'
p18
I942
I948
tp19
a(S'5ht1b'
p20
I385
I391
tp21
a(S'5ht1a'
p22
I71
I77
tp23
a(S'5ht1a'
p24
I374
I380
tp25
atp26
Rp27
sS'raw_text_methods'
p28
g3
((lp29
S"(13, u'\\\\bagonist')"
p30
aS"(32, u'\\\\blesions')"
p31
aS"(12, u'\\\\bantagonist')"
p32
atp33
Rp34
sS'regions'
p35
g3
((lp36
S"(3, u'(?i)\\\\b(postsynaptics|postsynaptic)\\\\b')"
p37
atp38
Rp39
sS'year'
p40
V1994
p41
sS'species'
p42
g3
((lp43
S"(4, u'(?i)\\\\b(rats|rat)\\\\b')"
p44
atp45
Rp46
sb.