(ifile_types
ParseObject
p0
(dp1
S'antagonists'
p2
c__builtin__
set
p3
((lp4
tp5
Rp6
sS'methods'
p7
g3
((lp8
S'Method.ANTAGONIST'
p9
atp10
Rp11
sS'topics'
p12
g3
((lp13
tp14
Rp15
sS'receptors'
p16
g3
((lp17
S'5ht3a'
p18
aS'5ht3'
p19
atp20
Rp21
sS'regions'
p22
g3
((lp23
S"(362, u'(?i)(brains|brain)(-|\\\\s+)?(stems|stem)')"
p24
aS"(34, u'(?i)(pon|pons)')"
p25
aS"(313, u'(?i)(solitaries|solitary)(-|\\\\s+)?(tracts|tract)')"
p26
aS"(27, u'(?i)(areas|area)(-|\\\\s+)?(postremas|postrema)')"
p27
atp28
Rp29
sS'year'
p30
V1994
p31
sS'agonists'
p32
g3
((lp33
tp34
Rp35
sS'species'
p36
g3
((lp37
S"(6249, u'(?i)(ants|ant)')"
p38
aS"(6753, u'(?i)(da|das)')"
p39
aS"(1055, u'(?i)(men|man)')"
p40
aS"(853, u'(?i)(minas|mina)')"
p41
aS"(1057, u'(?i)(humans|human)')"
p42
aS"(6356, u'(?i)(ais|ai)')"
p43
aS"(3196, u'(?i)(human|humans)')"
p44
atp45
Rp46
sb.