(ifile_types
ParseObject
p0
(dp1
S'methods'
p2
c__builtin__
set
p3
((lp4
tp5
Rp6
sS'topics'
p7
g3
((lp8
S"(8, u'\\\\banxi')"
p9
aS"(7, u'\\\\bdepressi')"
p10
aS"(4, u'\\\\btreatment')"
p11
atp12
Rp13
sS'receptors'
p14
g3
((lp15
(S'5ht7'
p16
I731
I736
tp17
a(S'5ht7'
p18
I452
I457
tp19
a(S'5ht7'
p20
I592
I597
tp21
a(S'5ht1'
p22
I672
I677
tp23
a(S'5ht1'
p24
I505
I510
tp25
a(S'5ht7'
p26
I886
I891
tp27
a(S'5ht1a'
p28
I488
I494
tp29
a(S'5ht7'
p30
I436
I441
tp31
a(S'5ht1'
p32
I893
I898
tp33
atp34
Rp35
sS'raw_text_methods'
p36
g3
((lp37
tp38
Rp39
sS'regions'
p40
g3
((lp41
tp42
Rp43
sS'year'
p44
V2019
p45
sS'species'
p46
g3
((lp47
tp48
Rp49
sb.