(ifile_types
ParseObject
p0
(dp1
S'methods'
p2
c__builtin__
set
p3
((lp4
S'Method.KNOCKOUT'
p5
atp6
Rp7
sS'topics'
p8
g3
((lp9
S"(26, u'\\\\bbehav')"
p10
aS"(2, u'\\\\bdisorder')"
p11
aS"(13, u'\\\\bantidepress')"
p12
aS"(9, u'\\\\bstress')"
p13
aS"(20, u'\\\\bmood')"
p14
aS"(8, u'\\\\banxi')"
p15
aS"(4, u'\\\\btreatment')"
p16
atp17
Rp18
sS'receptors'
p19
g3
((lp20
(S'5ht1a'
p21
I481
I487
tp22
a(S'5ht1a'
p23
I1293
I1299
tp24
a(S'5ht1a'
p25
I999
I1005
tp26
a(S'5ht1a'
p27
I762
I768
tp28
a(S'5ht1a'
p29
I608
I614
tp30
a(S'5ht5'
p31
I256
I266
tp32
a(S'5ht1a'
p33
I1172
I1178
tp34
a(S'5ht1a'
p35
I845
I851
tp36
a(S'5ht1b'
p37
I964
I970
tp38
atp39
Rp40
sS'raw_text_methods'
p41
g3
((lp42
tp43
Rp44
sS'regions'
p45
g3
((lp46
tp47
Rp48
sS'year'
p49
V1998
p50
sS'species'
p51
g3
((lp52
S"(1, u'(?i)\\\\b(mice|mouse)\\\\b')"
p53
aS"(5, u'(?i)\\\\b(mices|mice)\\\\b')"
p54
atp55
Rp56
sb.