(ifile_types
ParseObject
p0
(dp1
S'antagonists'
p2
c__builtin__
set
p3
((lp4
tp5
Rp6
sS'methods'
p7
g3
((lp8
tp9
Rp10
sS'topics'
p11
g3
((lp12
tp13
Rp14
sS'receptors'
p15
g3
((lp16
S'5ht1a'
p17
atp18
Rp19
sS'regions'
p20
g3
((lp21
S"(286, u'(?i)\\\\b(perirhinals|perirhinal)(-|\\\\s+)?(cortexes|cortex)\\\\b')"
p22
aS"(209, u'(?i)\\\\b(amygdalas|amygdala)\\\\b')"
p23
aS"(294, u'(?i)\\\\b(retrosplenials|retrosplenial)(-|\\\\s+)?(cortexes|cortex)\\\\b')"
p24
aS"(157, u'(?i)\\\\b(limbics|limbic)(-|\\\\s+)?(systems|system)\\\\b')"
p25
aS"(244, u'(?i)\\\\b(piriforms|piriform)(-|\\\\s+)?(cortexes|cortex)\\\\b')"
p26
atp27
Rp28
sS'year'
p29
V1998
p30
sS'agonists'
p31
g3
((lp32
tp33
Rp34
sS'species'
p35
g3
((lp36
S"(5958, u'(?i)\\\\b(rats|rat)\\\\b')"
p37
aS"(6125, u'(?i)\\\\b(females|female)\\\\b')"
p38
atp39
Rp40
sb.