(ifile_types
ParseObject
p0
(dp1
S'methods'
p2
c__builtin__
set
p3
((lp4
S'Method.PET'
p5
atp6
Rp7
sS'topics'
p8
g3
((lp9
tp10
Rp11
sS'receptors'
p12
g3
((lp13
(S'5ht2a'
p14
I834
I840
tp15
a(S'5ht2a'
p16
I766
I772
tp17
a(S'5ht2a'
p18
I281
I287
tp19
a(S'5ht2a'
p20
I53
I59
tp21
atp22
Rp23
sS'raw_text_methods'
p24
g3
((lp25
S"(17, u'\\\\bpet')"
p26
aS"(19, u'\\\\bpositron emission tomography')"
p27
aS"(18, u'\\\\bimaging')"
p28
atp29
Rp30
sS'regions'
p31
g3
((lp32
S"(19, u'(?i)\\\\b(cortexes|cortex)\\\\b')"
p33
aS"(11, u'(?i)\\\\b(cerebrals|cerebral)\\\\b')"
p34
aS"(9, u'(?i)\\\\b(cerebellums|cerebellum)\\\\b')"
p35
atp36
Rp37
sS'year'
p38
V1996
p39
sS'species'
p40
g3
((lp41
tp42
Rp43
sb.