(ifile_types
ParseObject
p0
(dp1
S'methods'
p2
c__builtin__
set
p3
((lp4
S'Method.PET'
p5
atp6
Rp7
sS'topics'
p8
g3
((lp9
tp10
Rp11
sS'receptors'
p12
g3
((lp13
(S'5ht2a'
p14
I1700
I1706
tp15
a(S'5ht1a'
p16
I1162
I1168
tp17
a(S'5ht1a'
p18
I538
I544
tp19
a(S'5ht2a'
p20
I1118
I1124
tp21
a(S'5ht1a'
p22
I1748
I1754
tp23
a(S'5ht2a'
p24
I527
I533
tp25
atp26
Rp27
sS'raw_text_methods'
p28
g3
((lp29
S"(19, u'\\\\bpositron emission tomography')"
p30
atp31
Rp32
sS'regions'
p33
g3
((lp34
tp35
Rp36
sS'year'
p37
V2001
p38
sS'species'
p39
g3
((lp40
S"(1, u'(?i)\\\\b(mice|mouse)\\\\b')"
p41
aS"(5, u'(?i)\\\\b(mices|mice)\\\\b')"
p42
atp43
Rp44
sb.