(ifile_types
ParseObject
p0
(dp1
S'methods'
p2
c__builtin__
set
p3
((lp4
S'Method.STIMULATION'
p5
aS'Method.ANTAGONIST'
p6
atp7
Rp8
sS'topics'
p9
g3
((lp10
S"(22, u'\\\\bschizophreni')"
p11
aS"(7, u'\\\\bdepressi')"
p12
aS"(2, u'\\\\bdisorder')"
p13
atp14
Rp15
sS'receptors'
p16
g3
((lp17
(S'5ht1a'
p18
I1086
I1092
tp19
a(S'5ht1a'
p20
I912
I918
tp21
atp22
Rp23
sS'raw_text_methods'
p24
g3
((lp25
S"(51, u'\\\\bway100635')"
p26
aS"(12, u'\\\\bantagonist')"
p27
atp28
Rp29
sS'regions'
p30
g3
((lp31
S"(20, u'(?i)\\\\b(prefrontals|prefrontal)\\\\b')"
p32
aS"(21, u'(?i)\\\\b(mpfcs|mpfc)\\\\b')"
p33
aS"(19, u'(?i)\\\\b(cortexes|cortex)\\\\b')"
p34
atp35
Rp36
sS'year'
p37
V2005
p38
sS'species'
p39
g3
((lp40
S"(4, u'(?i)\\\\b(rats|rat)\\\\b')"
p41
atp42
Rp43
sb.