(ifile_types
ParseObject
p0
(dp1
S'methods'
p2
c__builtin__
set
p3
((lp4
tp5
Rp6
sS'topics'
p7
g3
((lp8
S"(26, u'\\\\bbehav')"
p9
atp10
Rp11
sS'receptors'
p12
g3
((lp13
(S'5ht2a'
p14
I1348
I1354
tp15
a(S'5ht2a'
p16
I1636
I1642
tp17
a(S'5ht2a'
p18
I45
I51
tp19
a(S'5ht2a'
p20
I969
I975
tp21
a(S'5ht2a'
p22
I1262
I1268
tp23
a(S'5ht2a'
p24
I796
I802
tp25
a(S'5ht2a'
p26
I1125
I1131
tp27
atp28
Rp29
sS'raw_text_methods'
p30
g3
((lp31
tp32
Rp33
sS'regions'
p34
g3
((lp35
S"(20, u'(?i)\\\\b(prefrontals|prefrontal)\\\\b')"
p36
aS"(19, u'(?i)\\\\b(cortexes|cortex)\\\\b')"
p37
aS"(4, u'(?i)\\\\b(presynaptics|presynaptic)\\\\b')"
p38
aS"(3, u'(?i)\\\\b(postsynaptics|postsynaptic)\\\\b')"
p39
atp40
Rp41
sS'year'
p42
V2006
p43
sS'species'
p44
g3
((lp45
S"(1, u'(?i)\\\\b(mice|mouse)\\\\b')"
p46
aS"(5, u'(?i)\\\\b(mices|mice)\\\\b')"
p47
atp48
Rp49
sb.