(ifile_types
ParseObject
p0
(dp1
S'methods'
p2
c__builtin__
set
p3
((lp4
S'Method.AGONIST'
p5
atp6
Rp7
sS'topics'
p8
g3
((lp9
S"(26, u'\\\\bbehav')"
p10
aS"(2, u'\\\\bdisorder')"
p11
aS"(7, u'\\\\bdepressi')"
p12
aS"(9, u'\\\\bstress')"
p13
aS"(8, u'\\\\banxi')"
p14
aS"(1, u'\\\\bpatient')"
p15
atp16
Rp17
sS'receptors'
p18
g3
((lp19
(S'5ht7'
p20
I2425
I2430
tp21
a(S'5ht1a'
p22
I1446
I1452
tp23
a(S'5ht1a'
p24
I1674
I1680
tp25
a(S'5ht1a'
p26
I2380
I2386
tp27
a(S'5ht1a'
p28
I1528
I1534
tp29
a(S'5ht1a'
p30
I1952
I1958
tp31
a(S'5ht1a'
p32
I898
I904
tp33
a(S'5ht1a'
p34
I2126
I2132
tp35
atp36
Rp37
sS'raw_text_methods'
p38
g3
((lp39
S"(13, u'\\\\bagonist')"
p40
aS"(15, u'\\\\b8ohdpat')"
p41
atp42
Rp43
sS'regions'
p44
g3
((lp45
tp46
Rp47
sS'year'
p48
V2013
p49
sS'species'
p50
g3
((lp51
S"(1, u'(?i)\\\\b(mice|mouse)\\\\b')"
p52
aS"(2, u'(?i)\\\\b(females|female)\\\\b')"
p53
aS"(5, u'(?i)\\\\b(mices|mice)\\\\b')"
p54
atp55
Rp56
sb.