(ifile_types
ParseObject
p0
(dp1
S'methods'
p2
c__builtin__
set
p3
((lp4
S'Method.ANTAGONIST'
p5
aS'Method.AGONIST'
p6
atp7
Rp8
sS'topics'
p9
g3
((lp10
S"(22, u'\\\\bschizophreni')"
p11
aS"(14, u'\\\\bcogniti')"
p12
aS"(13, u'\\\\bantidepress')"
p13
aS"(23, u'\\\\bantipsychotic')"
p14
aS"(4, u'\\\\btreatment')"
p15
aS"(3, u'\\\\bclinical')"
p16
atp17
Rp18
sS'receptors'
p19
g3
((lp20
(S'5ht2c'
p21
I455
I461
tp22
a(S'5ht1b'
p23
I466
I472
tp24
a(S'5ht1d'
p25
I466
I474
tp26
a(S'5ht2a'
p27
I447
I453
tp28
a(S'5ht1a'
p29
I402
I408
tp30
atp31
Rp32
sS'raw_text_methods'
p33
g3
((lp34
S"(13, u'\\\\bagonist')"
p35
aS"(12, u'\\\\bantagonist')"
p36
atp37
Rp38
sS'regions'
p39
g3
((lp40
tp41
Rp42
sS'year'
p43
V2001
p44
sS'species'
p45
g3
((lp46
tp47
Rp48
sb.