(ifile_types
ParseObject
p0
(dp1
S'methods'
p2
c__builtin__
set
p3
((lp4
S'Method.AGONIST'
p5
atp6
Rp7
sS'topics'
p8
g3
((lp9
S"(20, u'\\\\bmood')"
p10
atp11
Rp12
sS'receptors'
p13
g3
((lp14
(S'5ht1a'
p15
I105
I111
tp16
a(S'5ht1a'
p17
I355
I361
tp18
a(S'5ht1a'
p19
I218
I224
tp20
a(S'5ht1a'
p21
I405
I411
tp22
a(S'5ht1a'
p23
I28
I34
tp24
a(S'5ht1a'
p25
I1152
I1158
tp26
a(S'5ht1a'
p27
I546
I552
tp28
a(S'5ht1a'
p29
I917
I923
tp30
a(S'5ht1a'
p31
I1436
I1442
tp32
atp33
Rp34
sS'raw_text_methods'
p35
g3
((lp36
S"(13, u'\\\\bagonist')"
p37
aS"(2, u'\\\\blabeling')"
p38
aS"(15, u'\\\\b8ohdpat')"
p39
atp40
Rp41
sS'regions'
p42
g3
((lp43
tp44
Rp45
sS'year'
p46
V1997
p47
sS'species'
p48
g3
((lp49
tp50
Rp51
sb.