(ifile_types
ParseObject
p0
(dp1
S'methods'
p2
c__builtin__
set
p3
((lp4
S'Method.AGONIST'
p5
atp6
Rp7
sS'topics'
p8
g3
((lp9
tp10
Rp11
sS'receptors'
p12
g3
((lp13
(S'5ht1a'
p14
I432
I438
tp15
a(S'5ht1a'
p16
I227
I233
tp17
a(S'5ht1a'
p18
I830
I836
tp19
a(S'5ht1a'
p20
I63
I69
tp21
a(S'5ht1a'
p22
I1538
I1544
tp23
a(S'5ht1a'
p24
I1710
I1716
tp25
atp26
Rp27
sS'raw_text_methods'
p28
g3
((lp29
S"(13, u'\\\\bagonist')"
p30
aS"(15, u'\\\\b8ohdpat')"
p31
atp32
Rp33
sS'regions'
p34
g3
((lp35
S"(19, u'(?i)\\\\b(cortexes|cortex)\\\\b')"
p36
aS"(7, u'(?i)\\\\b(entorhinals|entorhinal)\\\\b')"
p37
atp38
Rp39
sS'year'
p40
V1994
p41
sS'species'
p42
g3
((lp43
S"(4, u'(?i)\\\\b(rats|rat)\\\\b')"
p44
atp45
Rp46
sb.