(ifile_types
ParseObject
p0
(dp1
S'antagonists'
p2
c__builtin__
set
p3
((lp4
S"(67, u'\\\\bhaloperidol')"
p5
aS"(135, u'\\\\bondansetron')"
p6
aS"(136, u'\\\\btropisetron')"
p7
atp8
Rp9
sS'methods'
p10
g3
((lp11
S'Method.ANTAGONIST'
p12
atp13
Rp14
sS'topics'
p15
g3
((lp16
tp17
Rp18
sS'receptors'
p19
g3
((lp20
S'5ht3'
p21
atp22
Rp23
sS'regions'
p24
g3
((lp25
tp26
Rp27
sS'year'
p28
V2001
p29
sS'agonists'
p30
g3
((lp31
S"(48, u'\\\\bhaloperidol')"
p32
atp33
Rp34
sS'species'
p35
g3
((lp36
S"(4624, u'(?i)(apes|ape)')"
p37
aS"(6753, u'(?i)(da|das)')"
p38
aS"(5958, u'(?i)(rats|rat)')"
p39
aS"(4201, u'(?i)(kines|kine)')"
p40
aS"(1055, u'(?i)(men|man)')"
p41
aS"(7094, u'(?i)(curs|cur)')"
p42
aS"(5743, u'(?i)(bots|bot)')"
p43
aS"(6249, u'(?i)(ants|ant)')"
p44
aS"(1961, u'(?i)(pens|pen)')"
p45
aS"(3812, u'(?i)(studs|stud)')"
p46
aS"(6356, u'(?i)(ais|ai)')"
p47
atp48
Rp49
sb.