(ifile_types
ParseObject
p0
(dp1
S'methods'
p2
c__builtin__
set
p3
((lp4
S'Method.ANTAGONIST'
p5
aS'Method.AGONIST'
p6
atp7
Rp8
sS'topics'
p9
g3
((lp10
tp11
Rp12
sS'receptors'
p13
g3
((lp14
(S'5ht7'
p15
I1196
I1201
tp16
a(S'5ht1a'
p17
I1196
I1203
tp18
a(S'5ht7'
p19
I1569
I1574
tp20
a(S'5ht7'
p21
I1391
I1396
tp22
a(S'5ht2'
p23
I1391
I1397
tp24
a(S'5ht1c'
p25
I1391
I1399
tp26
atp27
Rp28
sS'raw_text_methods'
p29
g3
((lp30
S"(13, u'\\\\bagonist')"
p31
aS"(15, u'\\\\b8ohdpat')"
p32
aS"(9, u'\\\\britanserin')"
p33
aS"(44, u'\\\\btetrodotoxin')"
p34
aS"(12, u'\\\\bantagonist')"
p35
atp36
Rp37
sS'regions'
p38
g3
((lp39
tp40
Rp41
sS'year'
p42
V1999
p43
sS'species'
p44
g3
((lp45
S"(4, u'(?i)\\\\b(rats|rat)\\\\b')"
p46
atp47
Rp48
sb.