(ifile_types
ParseObject
p0
(dp1
S'methods'
p2
c__builtin__
set
p3
((lp4
S'Method.STAINING'
p5
aS'Method.AGONIST'
p6
atp7
Rp8
sS'topics'
p9
g3
((lp10
S"(31, u'\\\\brespiratory')"
p11
atp12
Rp13
sS'receptors'
p14
g3
((lp15
(S'5ht2a'
p16
I1289
I1295
tp17
atp18
Rp19
sS'raw_text_methods'
p20
g3
((lp21
S"(13, u'\\\\bagonist')"
p22
atp23
Rp24
sS'regions'
p25
g3
((lp26
tp27
Rp28
sS'year'
p29
V2008
p30
sS'species'
p31
g3
((lp32
tp33
Rp34
sb.