(ifile_types
ParseObject
p0
(dp1
S'methods'
p2
c__builtin__
set
p3
((lp4
S'Method.AGONIST'
p5
atp6
Rp7
sS'topics'
p8
g3
((lp9
S"(13, u'\\\\bantidepress')"
p10
aS"(3, u'\\\\bclinical')"
p11
atp12
Rp13
sS'receptors'
p14
g3
((lp15
(S'5ht1a'
p16
I1221
I1227
tp17
a(S'5ht1a'
p18
I359
I365
tp19
a(S'5ht1a'
p20
I1179
I1185
tp21
a(S'5ht1a'
p22
I928
I934
tp23
atp24
Rp25
sS'raw_text_methods'
p26
g3
((lp27
S"(13, u'\\\\bagonist')"
p28
aS"(15, u'\\\\b8ohdpat')"
p29
aS"(11, u'\\\\bfluoxetine')"
p30
atp31
Rp32
sS'regions'
p33
g3
((lp34
S"(20, u'(?i)\\\\b(prefrontals|prefrontal)\\\\b')"
p35
aS"(19, u'(?i)\\\\b(cortexes|cortex)\\\\b')"
p36
atp37
Rp38
sS'year'
p39
V2003
p40
sS'species'
p41
g3
((lp42
S"(4, u'(?i)\\\\b(rats|rat)\\\\b')"
p43
atp44
Rp45
sb.