(ifile_types
ParseObject
p0
(dp1
S'methods'
p2
c__builtin__
set
p3
((lp4
tp5
Rp6
sS'topics'
p7
g3
((lp8
S"(5, u'\\\\btherap')"
p9
aS"(34, u'\\\\bparkinson')"
p10
aS"(4, u'\\\\btreatment')"
p11
atp12
Rp13
sS'receptors'
p14
g3
((lp15
(S'5ht3'
p16
I673
I678
tp17
a(S'5ht5'
p18
I596
I606
tp19
atp20
Rp21
sS'raw_text_methods'
p22
g3
((lp23
tp24
Rp25
sS'regions'
p26
g3
((lp27
S"(11, u'(?i)\\\\b(cerebrals|cerebral)\\\\b')"
p28
atp29
Rp30
sS'year'
p31
V1988
p32
sS'species'
p33
g3
((lp34
tp35
Rp36
sb.