(ifile_types
ParseObject
p0
(dp1
S'methods'
p2
c__builtin__
set
p3
((lp4
tp5
Rp6
sS'topics'
p7
g3
((lp8
S"(7, u'\\\\bdepressi')"
p9
aS"(2, u'\\\\bdisorder')"
p10
atp11
Rp12
sS'receptors'
p13
g3
((lp14
(S'5ht2a'
p15
I1212
I1218
tp16
a(S'5ht2c'
p17
I487
I495
tp18
a(S'5ht2c'
p19
I1212
I1220
tp20
a(S'5ht5'
p21
I225
I235
tp22
a(S'5ht2a'
p23
I487
I493
tp24
atp25
Rp26
sS'raw_text_methods'
p27
g3
((lp28
S"(11, u'\\\\bfluoxetine')"
p29
aS"(18, u'\\\\bimaging')"
p30
atp31
Rp32
sS'regions'
p33
g3
((lp34
S"(19, u'(?i)\\\\b(cortexes|cortex)\\\\b')"
p35
aS"(20, u'(?i)\\\\b(prefrontals|prefrontal)\\\\b')"
p36
aS"(9, u'(?i)\\\\b(cerebellums|cerebellum)\\\\b')"
p37
aS"(4, u'(?i)\\\\b(presynaptics|presynaptic)\\\\b')"
p38
aS"(3, u'(?i)\\\\b(postsynaptics|postsynaptic)\\\\b')"
p39
atp40
Rp41
sS'year'
p42
V2003
p43
sS'species'
p44
g3
((lp45
S"(4, u'(?i)\\\\b(rats|rat)\\\\b')"
p46
atp47
Rp48
sb.