(ifile_types
ParseObject
p0
(dp1
S'methods'
p2
c__builtin__
set
p3
((lp4
S'Method.ANTAGONIST'
p5
aS'Method.AGONIST'
p6
atp7
Rp8
sS'topics'
p9
g3
((lp10
tp11
Rp12
sS'receptors'
p13
g3
((lp14
(S'5ht3'
p15
I1245
I1250
tp16
a(S'5ht3'
p17
I2336
I2341
tp18
a(S'5ht1'
p19
I645
I650
tp20
a(S'5ht3'
p21
I35
I40
tp22
a(S'5ht3'
p23
I294
I299
tp24
a(S'5ht3'
p25
I584
I589
tp26
atp27
Rp28
sS'raw_text_methods'
p29
g3
((lp30
S"(13, u'\\\\bagonist')"
p31
aS"(30, u'\\\\b2methyl')"
p32
aS"(34, u'\\\\b5ct')"
p33
aS"(12, u'\\\\bantagonist')"
p34
atp35
Rp36
sS'regions'
p37
g3
((lp38
S"(19, u'(?i)\\\\b(cortexes|cortex)\\\\b')"
p39
atp40
Rp41
sS'year'
p42
V1994
p43
sS'species'
p44
g3
((lp45
S"(1, u'(?i)\\\\b(mice|mouse)\\\\b')"
p46
aS"(4, u'(?i)\\\\b(rats|rat)\\\\b')"
p47
atp48
Rp49
sb.