(ifile_types
ParseObject
p0
(dp1
S'methods'
p2
c__builtin__
set
p3
((lp4
S'Method.PET'
p5
atp6
Rp7
sS'topics'
p8
g3
((lp9
S"(2, u'\\\\bdisorder')"
p10
atp11
Rp12
sS'receptors'
p13
g3
((lp14
(S'5ht2a'
p15
I900
I906
tp16
a(S'5ht2a'
p17
I1992
I1998
tp18
atp19
Rp20
sS'raw_text_methods'
p21
g3
((lp22
S"(1, u'\\\\bneuroimag')"
p23
aS"(17, u'\\\\bpet')"
p24
aS"(19, u'\\\\bpositron emission tomography')"
p25
atp26
Rp27
sS'regions'
p28
g3
((lp29
S"(20, u'(?i)\\\\b(prefrontals|prefrontal)\\\\b')"
p30
aS"(19, u'(?i)\\\\b(cortexes|cortex)\\\\b')"
p31
atp32
Rp33
sS'year'
p34
V2012
p35
sS'species'
p36
g3
((lp37
S"(3, u'(?i)\\\\b(males|male)\\\\b')"
p38
atp39
Rp40
sb.