(ifile_types
ParseObject
p0
(dp1
S'methods'
p2
c__builtin__
set
p3
((lp4
tp5
Rp6
sS'topics'
p7
g3
((lp8
S"(14, u'\\\\bcogniti')"
p9
aS"(20, u'\\\\bmood')"
p10
aS"(4, u'\\\\btreatment')"
p11
atp12
Rp13
sS'receptors'
p14
g3
((lp15
(S'5ht1a'
p16
I1073
I1079
tp17
a(S'5ht1a'
p18
I41
I47
tp19
a(S'5ht1a'
p20
I1419
I1425
tp21
a(S'5ht1a'
p22
I760
I766
tp23
a(S'5ht1a'
p24
I575
I581
tp25
a(S'5ht1a'
p26
I925
I931
tp27
a(S'5ht1a'
p28
I360
I366
tp29
a(S'5ht1a'
p30
I1291
I1297
tp31
atp32
Rp33
sS'raw_text_methods'
p34
g3
((lp35
tp36
Rp37
sS'regions'
p38
g3
((lp39
S"(19, u'(?i)\\\\b(cortexes|cortex)\\\\b')"
p40
aS"(7, u'(?i)\\\\b(entorhinals|entorhinal)\\\\b')"
p41
atp42
Rp43
sS'year'
p44
V2001
p45
sS'species'
p46
g3
((lp47
S"(2, u'(?i)\\\\b(females|female)\\\\b')"
p48
aS"(4, u'(?i)\\\\b(rats|rat)\\\\b')"
p49
atp50
Rp51
sb.