(ifile_types
ParseObject
p0
(dp1
S'antagonists'
p2
c__builtin__
set
p3
((lp4
S"(23, u'\\\\brisperidone')"
p5
aS"(211, u'\\\\bzotepine')"
p6
aS"(123, u'\\\\bclozapine')"
p7
aS"(56, u'\\\\bclozapine')"
p8
aS"(57, u'\\\\bolanzapine')"
p9
aS"(120, u'\\\\bfluphenazine')"
p10
aS"(122, u'\\\\bthioridazine')"
p11
aS"(124, u'\\\\bolanzapine')"
p12
aS"(125, u'\\\\bquetiapine')"
p13
aS"(59, u'\\\\brisperidone')"
p14
aS"(68, u'\\\\bchlorpromazine')"
p15
aS"(67, u'\\\\bhaloperidol')"
p16
aS"(58, u'\\\\bquetiapine')"
p17
aS"(27, u'\\\\bspiperone')"
p18
aS"(201, u'\\\\bpimozide')"
p19
atp20
Rp21
sS'methods'
p22
g3
((lp23
S'Method.ANTAGONIST'
p24
aS'Method.IMMUNOHISTOCHEMISTRY'
p25
atp26
Rp27
sS'topics'
p28
g3
((lp29
tp30
Rp31
sS'receptors'
p32
g3
((lp33
S'5ht2a'
p34
atp35
Rp36
sS'regions'
p37
g3
((lp38
S"(220, u'(?i)(striatums|striatum)')"
p39
aS"(226, u'(?i)(nuclei|nucleus)(-|\\\\s+)?(accumben|accumbens)')"
p40
atp41
Rp42
sS'year'
p43
V2004
p44
sS'agonists'
p45
g3
((lp46
S"(48, u'\\\\bhaloperidol')"
p47
aS"(214, u'\\\\bsulpiride')"
p48
aS"(71, u'\\\\bquetiapine')"
p49
aS"(27, u'\\\\bclozapine')"
p50
aS"(66, u'\\\\bperospirone')"
p51
aS"(64, u'\\\\bolanzapine')"
p52
atp53
Rp54
sS'species'
p55
g3
((lp56
S"(2323, u'(?i)(bees|bee)')"
p57
aS"(2568, u'(?i)(hens|hen)')"
p58
aS"(6356, u'(?i)(ais|ai)')"
p59
aS"(7609, u'(?i)(erns|ern)')"
p60
aS"(6753, u'(?i)(da|das)')"
p61
aS"(6682, u'(?i)(tera|teras)')"
p62
aS"(468, u'(?i)(oxen|ox)')"
p63
aS"(1349, u'(?i)(rams|ram)')"
p64
aS"(6249, u'(?i)(ants|ant)')"
p65
aS"(1249, u'(?i)(carp|carp)')"
p66
aS"(4964, u'(?i)(serins|serin)')"
p67
aS"(5958, u'(?i)(rats|rat)')"
p68
aS"(3812, u'(?i)(studs|stud)')"
p69
aS"(6391, u'(?i)(asses|ass)')"
p70
aS"(1683, u'(?i)(terns|tern)')"
p71
atp72
Rp73
sb.