(ifile_types
ParseObject
p0
(dp1
S'methods'
p2
c__builtin__
set
p3
((lp4
S'Method.AGONIST'
p5
atp6
Rp7
sS'topics'
p8
g3
((lp9
tp10
Rp11
sS'receptors'
p12
g3
((lp13
(S'5ht1b'
p14
I755
I761
tp15
a(S'5ht1'
p16
I689
I694
tp17
a(S'5ht2'
p18
I873
I878
tp19
a(S'5ht3'
p20
I955
I965
tp21
a(S'5ht3'
p22
I933
I938
tp23
a(S'5ht1b'
p24
I1199
I1205
tp25
a(S'5ht3'
p26
I899
I909
tp27
atp28
Rp29
sS'raw_text_methods'
p30
g3
((lp31
S"(13, u'\\\\bagonist')"
p32
aS"(30, u'\\\\b2methyl')"
p33
aS"(33, u'\\\\bmcpp')"
p34
atp35
Rp36
sS'regions'
p37
g3
((lp38
tp39
Rp40
sS'year'
p41
V1997
p42
sS'species'
p43
g3
((lp44
S"(4, u'(?i)\\\\b(rats|rat)\\\\b')"
p45
atp46
Rp47
sb.