(ifile_types
ParseObject
p0
(dp1
S'methods'
p2
c__builtin__
set
p3
((lp4
S'Method.ANTAGONIST'
p5
atp6
Rp7
sS'topics'
p8
g3
((lp9
tp10
Rp11
sS'receptors'
p12
g3
((lp13
(S'5ht3'
p14
I1393
I1398
tp15
a(S'5ht3'
p16
I79
I84
tp17
a(S'5ht3'
p18
I1037
I1042
tp19
a(S'5ht3'
p20
I1771
I1776
tp21
a(S'5ht3'
p22
I311
I316
tp23
a(S'5ht3'
p24
I715
I720
tp25
a(S'5ht3'
p26
I576
I581
tp27
atp28
Rp29
sS'raw_text_methods'
p30
g3
((lp31
S"(12, u'\\\\bantagonist')"
p32
atp33
Rp34
sS'regions'
p35
g3
((lp36
S"(19, u'(?i)\\\\b(cortexes|cortex)\\\\b')"
p37
aS"(7, u'(?i)\\\\b(entorhinals|entorhinal)\\\\b')"
p38
atp39
Rp40
sS'year'
p41
V1993
p42
sS'species'
p43
g3
((lp44
S"(7, u'(?i)\\\\b(guineas|guinea)(-|\\\\s+)?(pigs|pig)\\\\b')"
p45
aS"(4, u'(?i)\\\\b(rats|rat)\\\\b')"
p46
atp47
Rp48
sb.