(ifile_types
ParseObject
p0
(dp1
S'antagonists'
p2
c__builtin__
set
p3
((lp4
S"(34, u'\\\\byohimbine')"
p5
atp6
Rp7
sS'methods'
p8
g3
((lp9
S'Method.ANTAGONIST'
p10
aS'Method.AGONIST'
p11
atp12
Rp13
sS'topics'
p14
g3
((lp15
tp16
Rp17
sS'receptors'
p18
g3
((lp19
S'5ht2a'
p20
atp21
Rp22
sS'regions'
p23
g3
((lp24
S"(220, u'(?i)(striatums|striatum)')"
p25
aS"(248, u'(?i)(cerebrals|cerebral)(-|\\\\s+)?(cortexes|cortex)')"
p26
aS"(34, u'(?i)(pon|pons)')"
p27
atp28
Rp29
sS'year'
p30
V2019
p31
sS'agonists'
p32
g3
((lp33
S"(89, u'\\\\byohimbine')"
p34
aS"(102, u'\\\\boxymetazoline')"
p35
aS"(155, u'\\\\bmem')"
p36
atp37
Rp38
sS'species'
p39
g3
((lp40
S"(2323, u'(?i)(bees|bee)')"
p41
aS"(5537, u'(?i)(hippos|hippo)')"
p42
aS"(1438, u'(?i)(ceroes|cero)')"
p43
aS"(2568, u'(?i)(hens|hen)')"
p44
aS"(931, u'(?i)(divers|diver)')"
p45
aS"(5958, u'(?i)(rats|rat)')"
p46
aS"(4979, u'(?i)(cats|cat)')"
p47
aS"(6753, u'(?i)(da|das)')"
p48
aS"(479, u'(?i)(lings|ling)')"
p49
aS"(468, u'(?i)(oxen|ox)')"
p50
aS"(1055, u'(?i)(men|man)')"
p51
aS"(6249, u'(?i)(ants|ant)')"
p52
aS"(3812, u'(?i)(studs|stud)')"
p53
aS"(3550, u'(?i)(anis|ani)')"
p54
aS"(7094, u'(?i)(curs|cur)')"
p55
aS"(1961, u'(?i)(pens|pen)')"
p56
aS"(1414, u'(?i)(chars|char)')"
p57
aS"(6391, u'(?i)(asses|ass)')"
p58
aS"(6356, u'(?i)(ais|ai)')"
p59
atp60
Rp61
sb.