(ifile_types
ParseObject
p0
(dp1
S'methods'
p2
c__builtin__
set
p3
((lp4
S'Method.ANTAGONIST'
p5
aS'Method.AGONIST'
p6
atp7
Rp8
sS'topics'
p9
g3
((lp10
S"(5, u'\\\\btherap')"
p11
aS"(4, u'\\\\btreatment')"
p12
atp13
Rp14
sS'receptors'
p15
g3
((lp16
(S'5ht1b'
p17
I1787
I1793
tp18
a(S'5ht1c'
p19
I2466
I2472
tp20
a(S'5ht2'
p21
I2161
I2166
tp22
a(S'5ht1c'
p23
I1426
I1432
tp24
a(S'5ht1c'
p25
I1969
I1975
tp26
a(S'5ht1b'
p27
I1054
I1060
tp28
a(S'5ht1a'
p29
I450
I456
tp30
a(S'5ht1b'
p31
I1419
I1425
tp32
atp33
Rp34
sS'raw_text_methods'
p35
g3
((lp36
S"(33, u'\\\\bmcpp')"
p37
aS"(15, u'\\\\b8ohdpat')"
p38
aS"(32, u'\\\\blesions')"
p39
aS"(13, u'\\\\bagonist')"
p40
aS"(9, u'\\\\britanserin')"
p41
aS"(12, u'\\\\bantagonist')"
p42
atp43
Rp44
sS'regions'
p45
g3
((lp46
tp47
Rp48
sS'year'
p49
V1994
p50
sS'species'
p51
g3
((lp52
S"(4, u'(?i)\\\\b(rats|rat)\\\\b')"
p53
atp54
Rp55
sb.