(ifile_types
ParseObject
p0
(dp1
S'methods'
p2
c__builtin__
set
p3
((lp4
tp5
Rp6
sS'topics'
p7
g3
((lp8
S"(5, u'\\\\btherap')"
p9
aS"(9, u'\\\\bstress')"
p10
aS"(4, u'\\\\btreatment')"
p11
atp12
Rp13
sS'receptors'
p14
g3
((lp15
(S'5ht1a'
p16
I2609
I2614
tp17
a(S'5ht1a'
p18
I2586
I2597
tp19
a(S'5ht1'
p20
I2609
I2614
tp21
atp22
Rp23
sS'raw_text_methods'
p24
g3
((lp25
tp26
Rp27
sS'regions'
p28
g3
((lp29
tp30
Rp31
sS'year'
p32
V2015
p33
sS'species'
p34
g3
((lp35
S"(8, u'(?i)\\\\b(primates|primate)\\\\b')"
p36
atp37
Rp38
sb.