(ifile_types
ParseObject
p0
(dp1
S'antagonists'
p2
c__builtin__
set
p3
((lp4
tp5
Rp6
sS'methods'
p7
g3
((lp8
S'Method.PET'
p9
aS'Method.ANTAGONIST'
p10
atp11
Rp12
sS'topics'
p13
g3
((lp14
S"(29, u'\\\\bsex')"
p15
aS"(21, u'\\\\bpain')"
p16
atp17
Rp18
sS'receptors'
p19
g3
((lp20
S'5ht3a'
p21
atp22
Rp23
sS'regions'
p24
g3
((lp25
tp26
Rp27
sS'year'
p28
V2003
p29
sS'agonists'
p30
g3
((lp31
tp32
Rp33
sS'species'
p34
g3
((lp35
S"(5967, u'(?i)\\\\b(males|male)\\\\b')"
p36
aS"(6125, u'(?i)\\\\b(females|female)\\\\b')"
p37
atp38
Rp39
sb.