(ifile_types
ParseObject
p0
(dp1
S'methods'
p2
c__builtin__
set
p3
((lp4
S'Method.PET'
p5
aS'Method.ANTAGONIST'
p6
atp7
Rp8
sS'topics'
p9
g3
((lp10
tp11
Rp12
sS'receptors'
p13
g3
((lp14
(S'5ht2a'
p15
I184
I190
tp16
a(S'5ht2a'
p17
I1104
I1110
tp18
a(S'5ht2a'
p19
I409
I415
tp20
atp21
Rp22
sS'raw_text_methods'
p23
g3
((lp24
S"(17, u'\\\\bpet')"
p25
aS"(19, u'\\\\bpositron emission tomography')"
p26
aS"(18, u'\\\\bimaging')"
p27
aS"(12, u'\\\\bantagonist')"
p28
atp29
Rp30
sS'regions'
p31
g3
((lp32
tp33
Rp34
sS'year'
p35
V2006
p36
sS'species'
p37
g3
((lp38
tp39
Rp40
sb.