(ifile_types
ParseObject
p0
(dp1
S'methods'
p2
c__builtin__
set
p3
((lp4
S'Method.ANTAGONIST'
p5
aS'Method.AGONIST'
p6
atp7
Rp8
sS'topics'
p9
g3
((lp10
S"(26, u'\\\\bbehav')"
p11
atp12
Rp13
sS'receptors'
p14
g3
((lp15
(S'5ht1a'
p16
I1772
I1778
tp17
a(S'5ht1a'
p18
I2387
I2393
tp19
a(S'5ht2'
p20
I1181
I1186
tp21
atp22
Rp23
sS'raw_text_methods'
p24
g3
((lp25
S"(13, u'\\\\bagonist')"
p26
aS"(15, u'\\\\b8ohdpat')"
p27
aS"(4, u'\\\\bpcpa')"
p28
aS"(12, u'\\\\bantagonist')"
p29
atp30
Rp31
sS'regions'
p32
g3
((lp33
S"(11, u'(?i)\\\\b(cerebrals|cerebral)\\\\b')"
p34
aS"(19, u'(?i)\\\\b(cortexes|cortex)\\\\b')"
p35
aS"(4, u'(?i)\\\\b(presynaptics|presynaptic)\\\\b')"
p36
atp37
Rp38
sS'year'
p39
V1993
p40
sS'species'
p41
g3
((lp42
S"(4, u'(?i)\\\\b(rats|rat)\\\\b')"
p43
atp44
Rp45
sb.