(ifile_types
ParseObject
p0
(dp1
S'antagonists'
p2
c__builtin__
set
p3
((lp4
tp5
Rp6
sS'methods'
p7
g3
((lp8
S'Method.KNOCKOUT'
p9
atp10
Rp11
sS'topics'
p12
g3
((lp13
S"(37, u'\\\\baddict')"
p14
aS"(19, u'\\\\bimpulsiv')"
p15
aS"(20, u'\\\\baggressi')"
p16
atp17
Rp18
sS'receptors'
p19
g3
((lp20
S'5ht1b'
p21
atp22
Rp23
sS'regions'
p24
g3
((lp25
S"(226, u'(?i)\\\\b(nuclei|nucleus)(-|\\\\s+)?(accumben|accumbens)\\\\b')"
p26
atp27
Rp28
sS'year'
p29
V2015
p30
sS'agonists'
p31
g3
((lp32
tp33
Rp34
sS'species'
p35
g3
((lp36
S"(1057, u'(?i)\\\\b(humans|human)\\\\b')"
p37
aS"(4091, u'(?i)\\\\b(adults|adult)\\\\b')"
p38
aS"(163, u'(?i)\\\\b(mice|mouse)\\\\b')"
p39
aS"(3196, u'(?i)\\\\b(human|humans)\\\\b')"
p40
atp41
Rp42
sb.