(ifile_types
ParseObject
p0
(dp1
S'methods'
p2
c__builtin__
set
p3
((lp4
S'Method.ANTAGONIST'
p5
aS'Method.AGONIST'
p6
atp7
Rp8
sS'topics'
p9
g3
((lp10
S"(24, u'\\\\banxiolytic')"
p11
aS"(8, u'\\\\banxi')"
p12
aS"(12, u'\\\\bsleep')"
p13
aS"(9, u'\\\\bstress')"
p14
aS"(30, u'\\\\bpain')"
p15
atp16
Rp17
sS'receptors'
p18
g3
((lp19
(S'5ht1a'
p20
I37
I43
tp21
a(S'5ht1a'
p22
I811
I817
tp23
a(S'5ht1a'
p24
I917
I923
tp25
atp26
Rp27
sS'raw_text_methods'
p28
g3
((lp29
S"(16, u'\\\\bdiazepam')"
p30
aS"(15, u'\\\\b8ohdpat')"
p31
aS"(36, u'\\\\bbenzodiazepine')"
p32
aS"(13, u'\\\\bagonist')"
p33
aS"(51, u'\\\\bway100635')"
p34
aS"(12, u'\\\\bantagonist')"
p35
atp36
Rp37
sS'regions'
p38
g3
((lp39
tp40
Rp41
sS'year'
p42
V2020
p43
sS'species'
p44
g3
((lp45
S"(6, u'(?i)\\\\b(rodents|rodent)\\\\b')"
p46
atp47
Rp48
sb.