(ifile_types
ParseObject
p0
(dp1
S'methods'
p2
c__builtin__
set
p3
((lp4
S'Method.ANTAGONIST'
p5
atp6
Rp7
sS'topics'
p8
g3
((lp9
S"(8, u'\\\\banxi')"
p10
aS"(13, u'\\\\bantidepress')"
p11
aS"(2, u'\\\\bdisorder')"
p12
atp13
Rp14
sS'receptors'
p15
g3
((lp16
(S'5ht2a'
p17
I1055
I1060
tp18
a(S'5ht2a'
p19
I1454
I1459
tp20
a(S'5ht2a'
p21
I42
I53
tp22
a(S'5ht2a'
p23
I929
I934
tp24
a(S'5ht2a'
p25
I767
I778
tp26
a(S'5ht2a'
p27
I1293
I1298
tp28
a(S'5ht2a'
p29
I1590
I1595
tp30
a(S'5ht2a'
p31
I1731
I1736
tp32
a(S'5ht2a'
p33
I2006
I2011
tp34
a(S'5ht2a'
p35
I820
I825
tp36
a(S'5ht2a'
p37
I790
I795
tp38
atp39
Rp40
sS'raw_text_methods'
p41
g3
((lp42
tp43
Rp44
sS'regions'
p45
g3
((lp46
tp47
Rp48
sS'year'
p49
V2019
p50
sS'species'
p51
g3
((lp52
S"(8, u'(?i)\\\\b(primates|primate)\\\\b')"
p53
atp54
Rp55
sb.