(ifile_types
ParseObject
p0
(dp1
S'antagonists'
p2
c__builtin__
set
p3
((lp4
S"(14, u'\\\\bmethiothepin')"
p5
aS"(45, u'\\\\bgr ?127935')"
p6
atp7
Rp8
sS'methods'
p9
g3
((lp10
S'Method.AGONIST'
p11
atp12
Rp13
sS'topics'
p14
g3
((lp15
tp16
Rp17
sS'receptors'
p18
g3
((lp19
S'5ht1b'
p20
aS'5ht5'
p21
aS'5ht2'
p22
aS'5ht1'
p23
aS'5ht2a'
p24
aS'5ht1d'
p25
aS'5ht1a'
p26
atp27
Rp28
sS'regions'
p29
g3
((lp30
tp31
Rp32
sS'year'
p33
V1996
p34
sS'agonists'
p35
g3
((lp36
S"(103, u'\\\\bsumatriptan')"
p37
aS"(33, u'\\\\bdoi')"
p38
atp39
Rp40
sS'species'
p41
g3
((lp42
S"(2568, u'(?i)(hens|hen)')"
p43
aS"(867, u'(?i)(tits|tit)')"
p44
aS"(4163, u'(?i)(ermines|ermine)')"
p45
aS"(468, u'(?i)(oxen|ox)')"
p46
aS"(1055, u'(?i)(men|man)')"
p47
aS"(4979, u'(?i)(cats|cat)')"
p48
aS"(5958, u'(?i)(rats|rat)')"
p49
aS"(1057, u'(?i)(humans|human)')"
p50
aS"(6356, u'(?i)(ais|ai)')"
p51
aS"(3196, u'(?i)(human|humans)')"
p52
aS"(1628, u'(?i)(cod|cod)')"
p53
atp54
Rp55
sb.