(ifile_types
ParseObject
p0
(dp1
S'methods'
p2
c__builtin__
set
p3
((lp4
S'Method.ANTAGONIST'
p5
atp6
Rp7
sS'topics'
p8
g3
((lp9
tp10
Rp11
sS'receptors'
p12
g3
((lp13
(S'5ht3'
p14
I249
I254
tp15
a(S'5ht3'
p16
I1345
I1350
tp17
a(S'5ht3'
p18
I1502
I1507
tp19
a(S'5ht3'
p20
I852
I857
tp21
a(S'5ht3'
p22
I1220
I1225
tp23
a(S'5ht3'
p24
I583
I588
tp25
a(S'5ht3'
p26
I1046
I1051
tp27
a(S'5ht3'
p28
I448
I453
tp29
atp30
Rp31
sS'raw_text_methods'
p32
g3
((lp33
S"(23, u'\\\\bmdl')"
p34
aS"(12, u'\\\\bantagonist')"
p35
atp36
Rp37
sS'regions'
p38
g3
((lp39
tp40
Rp41
sS'year'
p42
V2005
p43
sS'species'
p44
g3
((lp45
tp46
Rp47
sb.