(ifile_types
ParseObject
p0
(dp1
S'methods'
p2
c__builtin__
set
p3
((lp4
S'Method.ANTAGONIST'
p5
aS'Method.AGONIST'
p6
atp7
Rp8
sS'topics'
p9
g3
((lp10
S"(1, u'\\\\bpatient')"
p11
aS"(28, u'\\\\bgastrointestin')"
p12
aS"(2, u'\\\\bdisorder')"
p13
atp14
Rp15
sS'receptors'
p16
g3
((lp17
(S'5ht3'
p18
I1062
I1067
tp19
a(S'5ht4'
p20
I1118
I1123
tp21
atp22
Rp23
sS'raw_text_methods'
p24
g3
((lp25
S"(13, u'\\\\bagonist')"
p26
aS"(18, u'\\\\bimaging')"
p27
aS"(39, u'\\\\bselective serotonin reuptake inhibitor')"
p28
aS"(12, u'\\\\bantagonist')"
p29
atp30
Rp31
sS'regions'
p32
g3
((lp33
tp34
Rp35
sS'year'
p36
V2003
p37
sS'species'
p38
g3
((lp39
tp40
Rp41
sb.