(ifile_types
ParseObject
p0
(dp1
S'antagonists'
p2
c__builtin__
set
p3
((lp4
S"(130, u'\\\\bzacopride')"
p5
aS"(125, u'\\\\btropisetron')"
p6
aS"(22, u'\\\\bpropranolol')"
p7
aS"(104, u'\\\\bimipramine')"
p8
aS"(124, u'\\\\bondansetron')"
p9
aS"(123, u'\\\\bgranisetron')"
p10
atp11
Rp12
sS'methods'
p13
g3
((lp14
S'Method.ANTAGONIST'
p15
aS'Method.AGONIST'
p16
atp17
Rp18
sS'topics'
p19
g3
((lp20
tp21
Rp22
sS'receptors'
p23
g3
((lp24
S'5ht1b'
p25
aS'5ht3'
p26
atp27
Rp28
sS'regions'
p29
g3
((lp30
tp31
Rp32
sS'year'
p33
V1996
p34
sS'agonists'
p35
g3
((lp36
S"(198, u'\\\\bcisapride')"
p37
aS"(208, u'\\\\bzacopride')"
p38
atp39
Rp40
sS'species'
p41
g3
((lp42
S"(3051, u'(?i)\\\\b(pigs|pig)\\\\b')"
p43
aS"(4480, u'(?i)\\\\b(guineas|guinea)(-|\\\\s+)?(pigs|pig)\\\\b')"
p44
aS"(3062, u'(?i)\\\\b(guineas|guinea)\\\\b')"
p45
atp46
Rp47
sb.