(ifile_types
ParseObject
p0
(dp1
S'methods'
p2
c__builtin__
set
p3
((lp4
S'Method.ANTAGONIST'
p5
atp6
Rp7
sS'topics'
p8
g3
((lp9
S"(12, u'\\\\bsleep')"
p10
aS"(13, u'\\\\bantidepress')"
p11
aS"(3, u'\\\\bclinical')"
p12
atp13
Rp14
sS'receptors'
p15
g3
((lp16
(S'5ht1d'
p17
I1045
I1053
tp18
a(S'5ht1b'
p19
I1045
I1051
tp20
a(S'5ht2a'
p21
I1159
I1165
tp22
a(S'5ht2a'
p23
I515
I521
tp24
atp25
Rp26
sS'raw_text_methods'
p27
g3
((lp28
S"(12, u'\\\\bantagonist')"
p29
atp30
Rp31
sS'regions'
p32
g3
((lp33
tp34
Rp35
sS'year'
p36
V2000
p37
sS'species'
p38
g3
((lp39
S"(7, u'(?i)\\\\b(guineas|guinea)(-|\\\\s+)?(pigs|pig)\\\\b')"
p40
aS"(4, u'(?i)\\\\b(rats|rat)\\\\b')"
p41
atp42
Rp43
sb.