(ifile_types
ParseObject
p0
(dp1
S'methods'
p2
c__builtin__
set
p3
((lp4
S'Method.IMMUNOHISTOCHEMISTRY'
p5
atp6
Rp7
sS'topics'
p8
g3
((lp9
S"(9, u'\\\\bstress')"
p10
aS"(20, u'\\\\bmood')"
p11
aS"(2, u'\\\\bdisorder')"
p12
atp13
Rp14
sS'receptors'
p15
g3
((lp16
(S'5ht2a'
p17
I1716
I1721
tp18
a(S'5ht2'
p19
I1625
I1630
tp20
a(S'5ht2'
p21
I1716
I1721
tp22
a(S'5ht2c'
p23
I1625
I1630
tp24
atp25
Rp26
sS'raw_text_methods'
p27
g3
((lp28
tp29
Rp30
sS'regions'
p31
g3
((lp32
S"(19, u'(?i)\\\\b(cortexes|cortex)\\\\b')"
p33
atp34
Rp35
sS'year'
p36
V2012
p37
sS'species'
p38
g3
((lp39
S"(6, u'(?i)\\\\b(rodents|rodent)\\\\b')"
p40
atp41
Rp42
sb.