(ifile_types
ParseObject
p0
(dp1
S'methods'
p2
c__builtin__
set
p3
((lp4
S'Method.ANTAGONIST'
p5
aS'Method.AGONIST'
p6
atp7
Rp8
sS'topics'
p9
g3
((lp10
S"(26, u'\\\\bbehav')"
p11
atp12
Rp13
sS'receptors'
p14
g3
((lp15
(S'5ht1d'
p16
I572
I578
tp17
a(S'5ht1b'
p18
I473
I479
tp19
a(S'5ht1'
p20
I736
I741
tp21
a(S'5ht1d'
p22
I641
I647
tp23
a(S'5ht1b'
p24
I255
I261
tp25
a(S'5ht1'
p26
I2737
I2743
tp27
a(S'5ht1d'
p28
I2561
I2567
tp29
a(S'5ht1d'
p30
I60
I66
tp31
a(S'5ht1d'
p32
I2598
I2604
tp33
a(S'5ht1d'
p34
I2849
I2855
tp35
a(S'5ht1d'
p36
I2737
I2743
tp37
a(S'5ht7'
p38
I1271
I1276
tp39
a(S'5ht1d'
p40
I262
I268
tp41
a(S'5ht1d'
p42
I2460
I2466
tp43
a(S'5ht1d'
p44
I2699
I2705
tp45
atp46
Rp47
sS'raw_text_methods'
p48
g3
((lp49
S"(53, u'\\\\bketanserin')"
p50
aS"(7, u'\\\\bpropranolol')"
p51
aS"(15, u'\\\\b8ohdpat')"
p52
aS"(13, u'\\\\bagonist')"
p53
aS"(6, u'\\\\bgr127935')"
p54
aS"(47, u'\\\\bsumatriptan')"
p55
aS"(37, u'\\\\bpiperazine')"
p56
aS"(12, u'\\\\bantagonist')"
p57
atp58
Rp59
sS'regions'
p60
g3
((lp61
tp62
Rp63
sS'year'
p64
V1995
p65
sS'species'
p66
g3
((lp67
tp68
Rp69
sb.