(ifile_types
ParseObject
p0
(dp1
S'antagonists'
p2
c__builtin__
set
p3
((lp4
S"(23, u'\\\\brisperidone')"
p5
aS"(59, u'\\\\brisperidone')"
p6
aS"(123, u'\\\\bclozapine')"
p7
aS"(142, u'\\\\bm1')"
p8
aS"(56, u'\\\\bclozapine')"
p9
atp10
Rp11
sS'methods'
p12
g3
((lp13
S'Method.ANTAGONIST'
p14
aS'Method.AGONIST'
p15
atp16
Rp17
sS'topics'
p18
g3
((lp19
S"(15, u'\\\\bschizophreni')"
p20
aS"(6, u'\\\\bcognit')"
p21
atp22
Rp23
sS'receptors'
p24
g3
((lp25
S'5ht7'
p26
aS'5ht6'
p27
aS'5ht5'
p28
aS'5ht2c'
p29
aS'5ht2a'
p30
aS'5ht2d'
p31
atp32
Rp33
sS'regions'
p34
g3
((lp35
S"(34, u'(?i)(pon|pons)')"
p36
atp37
Rp38
sS'year'
p39
V2000
p40
sS'agonists'
p41
g3
((lp42
S"(27, u'\\\\bclozapine')"
p43
atp44
Rp45
sS'species'
p46
g3
((lp47
S"(2323, u'(?i)(bees|bee)')"
p48
aS"(4624, u'(?i)(apes|ape)')"
p49
aS"(6753, u'(?i)(da|das)')"
p50
aS"(2568, u'(?i)(hens|hen)')"
p51
aS"(5743, u'(?i)(bots|bot)')"
p52
aS"(1885, u'(?i)(apars|apar)')"
p53
aS"(81, u'(?i)(asps|asp)')"
p54
aS"(468, u'(?i)(oxen|ox)')"
p55
aS"(1055, u'(?i)(men|man)')"
p56
aS"(3726, u'(?i)(mates|mate)')"
p57
aS"(107, u'(?i)(stags|stag)')"
p58
aS"(4979, u'(?i)(cats|cat)')"
p59
aS"(6249, u'(?i)(ants|ant)')"
p60
aS"(4604, u'(?i)(mites|mite)')"
p61
aS"(6356, u'(?i)(ais|ai)')"
p62
aS"(2809, u'(?i)(toms|tom)')"
p63
atp64
Rp65
sb.