(ifile_types
ParseObject
p0
(dp1
S'antagonists'
p2
c__builtin__
set
p3
((lp4
tp5
Rp6
sS'methods'
p7
g3
((lp8
S'Method.PET'
p9
atp10
Rp11
sS'topics'
p12
g3
((lp13
tp14
Rp15
sS'receptors'
p16
g3
((lp17
S'5ht1a'
p18
atp19
Rp20
sS'regions'
p21
g3
((lp22
tp23
Rp24
sS'year'
p25
V2008
p26
sS'agonists'
p27
g3
((lp28
tp29
Rp30
sS'species'
p31
g3
((lp32
S"(1070, u'(?i)(pets|pet)')"
p33
aS"(479, u'(?i)(lings|ling)')"
p34
aS"(7488, u'(?i)(molas|mola)')"
p35
aS"(7094, u'(?i)(curs|cur)')"
p36
aS"(6753, u'(?i)(da|das)')"
p37
aS"(3550, u'(?i)(anis|ani)')"
p38
aS"(6356, u'(?i)(ais|ai)')"
p39
aS"(6391, u'(?i)(asses|ass)')"
p40
aS"(2809, u'(?i)(toms|tom)')"
p41
atp42
Rp43
sb.