(ifile_types
ParseObject
p0
(dp1
S'methods'
p2
c__builtin__
set
p3
((lp4
S'Method.ANTAGONIST'
p5
atp6
Rp7
sS'topics'
p8
g3
((lp9
S"(24, u'\\\\banxiolytic')"
p10
aS"(8, u'\\\\banxi')"
p11
aS"(26, u'\\\\bbehav')"
p12
atp13
Rp14
sS'receptors'
p15
g3
((lp16
(S'5ht3'
p17
I70
I75
tp18
a(S'5ht3'
p19
I474
I479
tp20
a(S'5ht3'
p21
I196
I201
tp22
atp23
Rp24
sS'raw_text_methods'
p25
g3
((lp26
S"(36, u'\\\\bbenzodiazepine')"
p27
aS"(20, u'\\\\bondansetron')"
p28
aS"(28, u'\\\\bzacopride')"
p29
aS"(25, u'\\\\bics205930')"
p30
aS"(12, u'\\\\bantagonist')"
p31
atp32
Rp33
sS'regions'
p34
g3
((lp35
tp36
Rp37
sS'year'
p38
V1992
p39
sS'species'
p40
g3
((lp41
S"(1, u'(?i)\\\\b(mice|mouse)\\\\b')"
p42
aS"(5, u'(?i)\\\\b(mices|mice)\\\\b')"
p43
aS"(4, u'(?i)\\\\b(rats|rat)\\\\b')"
p44
atp45
Rp46
sb.