(ifile_types
ParseObject
p0
(dp1
S'methods'
p2
c__builtin__
set
p3
((lp4
S'Method.STIMULATION'
p5
aS'Method.ANTAGONIST'
p6
aS'Method.AGONIST'
p7
atp8
Rp9
sS'topics'
p10
g3
((lp11
tp12
Rp13
sS'receptors'
p14
g3
((lp15
(S'5ht1d'
p16
I937
I943
tp17
a(S'5ht1d'
p18
I567
I573
tp19
a(S'5ht1d'
p20
I508
I514
tp21
a(S'5ht1d'
p22
I1083
I1089
tp23
a(S'5ht1d'
p24
I448
I454
tp25
a(S'5ht5'
p26
I295
I300
tp27
atp28
Rp29
sS'raw_text_methods'
p30
g3
((lp31
S"(13, u'\\\\bagonist')"
p32
aS"(6, u'\\\\bgr127935')"
p33
aS"(47, u'\\\\bsumatriptan')"
p34
aS"(12, u'\\\\bantagonist')"
p35
atp36
Rp37
sS'regions'
p38
g3
((lp39
S"(11, u'(?i)\\\\b(cerebrals|cerebral)\\\\b')"
p40
aS"(19, u'(?i)\\\\b(cortexes|cortex)\\\\b')"
p41
atp42
Rp43
sS'year'
p44
V1996
p45
sS'species'
p46
g3
((lp47
S"(7, u'(?i)\\\\b(guineas|guinea)(-|\\\\s+)?(pigs|pig)\\\\b')"
p48
atp49
Rp50
sb.