(ifile_types
ParseObject
p0
(dp1
S'antagonists'
p2
c__builtin__
set
p3
((lp4
tp5
Rp6
sS'methods'
p7
g3
((lp8
S'Method.STAINING'
p9
aS'Method.IMMUNOHISTOCHEMISTRY'
p10
atp11
Rp12
sS'topics'
p13
g3
((lp14
S"(31, u'\\\\bobesity')"
p15
aS"(6, u'\\\\bcognit')"
p16
aS"(9, u'\\\\bdepress')"
p17
aS"(16, u'\\\\bfeed')"
p18
atp19
Rp20
sS'receptors'
p21
g3
((lp22
S'5ht5'
p23
aS'5ht1a'
p24
atp25
Rp26
sS'regions'
p27
g3
((lp28
tp29
Rp30
sS'year'
p31
V2019
p32
sS'agonists'
p33
g3
((lp34
tp35
Rp36
sS'species'
p37
g3
((lp38
S"(2323, u'(?i)(bees|bee)')"
p39
aS"(4624, u'(?i)(apes|ape)')"
p40
aS"(6753, u'(?i)(da|das)')"
p41
aS"(2568, u'(?i)(hens|hen)')"
p42
aS"(867, u'(?i)(tits|tit)')"
p43
aS"(163, u'(?i)(mice|mouse)')"
p44
aS"(4163, u'(?i)(ermines|ermine)')"
p45
aS"(6249, u'(?i)(ants|ant)')"
p46
aS"(468, u'(?i)(oxen|ox)')"
p47
aS"(1349, u'(?i)(rams|ram)')"
p48
aS"(4462, u'(?i)(monals|monal)')"
p49
aS"(1055, u'(?i)(men|man)')"
p50
aS"(5176, u'(?i)(tegs|teg)')"
p51
aS"(3550, u'(?i)(anis|ani)')"
p52
aS"(6682, u'(?i)(tera|teras)')"
p53
aS"(5958, u'(?i)(rats|rat)')"
p54
aS"(1961, u'(?i)(pens|pen)')"
p55
aS"(6356, u'(?i)(ais|ai)')"
p56
aS"(5537, u'(?i)(hippos|hippo)')"
p57
atp58
Rp59
sb.