(ifile_types
ParseObject
p0
(dp1
S'antagonists'
p2
c__builtin__
set
p3
((lp4
S"(112, u'\\\\bquetiapine')"
p5
aS"(110, u'\\\\bclozapine')"
p6
aS"(59, u'\\\\bchlorpromazine')"
p7
aS"(195, u'\\\\bpimozide')"
p8
aS"(113, u'\\\\brisperidone')"
p9
aS"(50, u'\\\\bquetiapine')"
p10
aS"(111, u'\\\\bolanzapine')"
p11
aS"(108, u'\\\\bfluphenazine')"
p12
aS"(205, u'\\\\bzotepine')"
p13
aS"(109, u'\\\\bthioridazine')"
p14
aS"(26, u'\\\\bspiperone')"
p15
aS"(58, u'\\\\bhaloperidol')"
p16
atp17
Rp18
sS'methods'
p19
g3
((lp20
S'Method.ANTAGONIST'
p21
aS'Method.IMMUNOHISTOCHEMISTRY'
p22
atp23
Rp24
sS'topics'
p25
g3
((lp26
tp27
Rp28
sS'receptors'
p29
g3
((lp30
S'5ht2a'
p31
atp32
Rp33
sS'regions'
p34
g3
((lp35
S"(220, u'(?i)\\\\b(striatums|striatum)\\\\b')"
p36
aS"(226, u'(?i)\\\\b(nuclei|nucleus)(-|\\\\s+)?(accumben|accumbens)\\\\b')"
p37
atp38
Rp39
sS'year'
p40
V2004
p41
sS'agonists'
p42
g3
((lp43
S"(64, u'\\\\bquetiapine')"
p44
aS"(59, u'\\\\bperospirone')"
p45
aS"(57, u'\\\\bolanzapine')"
p46
aS"(210, u'\\\\bsulpiride')"
p47
aS"(43, u'\\\\bhaloperidol')"
p48
aS"(23, u'\\\\bclozapine')"
p49
atp50
Rp51
sS'species'
p52
g3
((lp53
S"(5958, u'(?i)\\\\b(rats|rat)\\\\b')"
p54
atp55
Rp56
sb.