(ifile_types
ParseObject
p0
(dp1
S'antagonists'
p2
c__builtin__
set
p3
((lp4
tp5
Rp6
sS'methods'
p7
g3
((lp8
S'Method.PET'
p9
atp10
Rp11
sS'topics'
p12
g3
((lp13
S"(36, u'\\\\bcompulsiv')"
p14
aS"(35, u'\\\\bstress')"
p15
aS"(10, u'\\\\banxiety')"
p16
atp17
Rp18
sS'receptors'
p19
g3
((lp20
S'5ht1a'
p21
aS'5ht2'
p22
aS'5ht2a'
p23
atp24
Rp25
sS'regions'
p26
g3
((lp27
S"(157, u'(?i)\\\\b(limbics|limbic)(-|\\\\s+)?(systems|system)\\\\b')"
p28
aS"(71, u'(?i)\\\\b(cerebellums|cerebellum)\\\\b')"
p29
aS"(220, u'(?i)\\\\b(striatums|striatum)\\\\b')"
p30
aS"(126, u'(?i)\\\\b(thalamuses|thalamus)\\\\b')"
p31
aS"(222, u'(?i)\\\\b(neostriatums|neostriatum)\\\\b')"
p32
aS"(225, u'(?i)\\\\b(ventrals|ventral)(-|\\\\s+)?(striatums|striatum)\\\\b')"
p33
aS"(34, u'(?i)\\\\b(pon|pons)\\\\b')"
p34
atp35
Rp36
sS'year'
p37
V2010
p38
sS'agonists'
p39
g3
((lp40
tp41
Rp42
sS'species'
p43
g3
((lp44
S"(6753, u'(?i)\\\\b(da|das)\\\\b')"
p45
aS"(1070, u'(?i)\\\\b(pets|pet)\\\\b')"
p46
atp47
Rp48
sb.