(ifile_types
ParseObject
p0
(dp1
S'antagonists'
p2
c__builtin__
set
p3
((lp4
S"(67, u'\\\\bhaloperidol')"
p5
atp6
Rp7
sS'methods'
p8
g3
((lp9
S'Method.ANTAGONIST'
p10
atp11
Rp12
sS'topics'
p13
g3
((lp14
S"(15, u'\\\\bschizophreni')"
p15
atp16
Rp17
sS'receptors'
p18
g3
((lp19
S'5ht5'
p20
aS'5ht2a'
p21
atp22
Rp23
sS'regions'
p24
g3
((lp25
tp26
Rp27
sS'year'
p28
V2001
p29
sS'agonists'
p30
g3
((lp31
S"(66, u'\\\\bperospirone')"
p32
aS"(48, u'\\\\bhaloperidol')"
p33
atp34
Rp35
sS'species'
p36
g3
((lp37
S"(6249, u'(?i)(ants|ant)')"
p38
aS"(1055, u'(?i)(men|man)')"
p39
aS"(7094, u'(?i)(curs|cur)')"
p40
aS"(1349, u'(?i)(rams|ram)')"
p41
aS"(6753, u'(?i)(da|das)')"
p42
aS"(5958, u'(?i)(rats|rat)')"
p43
aS"(6356, u'(?i)(ais|ai)')"
p44
aS"(6391, u'(?i)(asses|ass)')"
p45
aS"(2809, u'(?i)(toms|tom)')"
p46
atp47
Rp48
sb.