(ifile_types
ParseObject
p0
(dp1
S'antagonists'
p2
c__builtin__
set
p3
((lp4
S"(53, u'\\\\bketanserin')"
p5
aS"(128, u'\\\\bketanserin')"
p6
atp7
Rp8
sS'methods'
p9
g3
((lp10
S'Method.ANTAGONIST'
p11
aS'Method.AGONIST'
p12
atp13
Rp14
sS'topics'
p15
g3
((lp16
S"(9, u'\\\\bdepress')"
p17
aS"(14, u'\\\\bpsychosis')"
p18
aS"(30, u'\\\\bparkinsons')"
p19
aS"(4, u'\\\\blocomot')"
p20
atp21
Rp22
sS'receptors'
p23
g3
((lp24
S'5ht2c'
p25
aS'5ht2a'
p26
atp27
Rp28
sS'regions'
p29
g3
((lp30
S"(219, u'(?i)(basals|basal)(-|\\\\s+)?(ganglias|ganglia)')"
p31
aS"(222, u'(?i)(neostriatums|neostriatum)')"
p32
aS"(220, u'(?i)(striatums|striatum)')"
p33
atp34
Rp35
sS'year'
p36
V2006
p37
sS'agonists'
p38
g3
((lp39
S"(14, u'\\\\bamphetamine')"
p40
atp41
Rp42
sS'species'
p43
g3
((lp44
S"(4163, u'(?i)(ermines|ermine)')"
p45
aS"(7094, u'(?i)(curs|cur)')"
p46
aS"(6580, u'(?i)(dams|dam)')"
p47
aS"(6249, u'(?i)(ants|ant)')"
p48
aS"(3196, u'(?i)(human|humans)')"
p49
aS"(3812, u'(?i)(studs|stud)')"
p50
aS"(6391, u'(?i)(asses|ass)')"
p51
aS"(479, u'(?i)(lings|ling)')"
p52
aS"(468, u'(?i)(oxen|ox)')"
p53
aS"(3550, u'(?i)(anis|ani)')"
p54
aS"(5958, u'(?i)(rats|rat)')"
p55
aS"(4201, u'(?i)(kines|kine)')"
p56
aS"(1055, u'(?i)(men|man)')"
p57
aS"(6753, u'(?i)(da|das)')"
p58
aS"(1057, u'(?i)(humans|human)')"
p59
aS"(1961, u'(?i)(pens|pen)')"
p60
aS"(7058, u'(?i)(does|doe)')"
p61
aS"(5799, u'(?i)(rodents|rodent)')"
p62
aS"(2568, u'(?i)(hens|hen)')"
p63
aS"(4979, u'(?i)(cats|cat)')"
p64
aS"(4964, u'(?i)(serins|serin)')"
p65
aS"(5917, u'(?i)(roaches|roach)')"
p66
atp67
Rp68
sb.