(ifile_types
ParseObject
p0
(dp1
S'methods'
p2
c__builtin__
set
p3
((lp4
S'Method.PET'
p5
aS'Method.ANTAGONIST'
p6
atp7
Rp8
sS'topics'
p9
g3
((lp10
tp11
Rp12
sS'receptors'
p13
g3
((lp14
(S'5ht2a'
p15
I69
I75
tp16
a(S'5ht2'
p17
I138
I143
tp18
a(S'5ht2a'
p19
I1850
I1856
tp20
a(S'5ht2a'
p21
I467
I473
tp22
a(S'5ht2'
p23
I2093
I2098
tp24
a(S'5ht2a'
p25
I748
I754
tp26
a(S'5ht2a'
p27
I952
I958
tp28
a(S'5ht2'
p29
I2316
I2321
tp30
atp31
Rp32
sS'raw_text_methods'
p33
g3
((lp34
S"(17, u'\\\\bpet')"
p35
aS"(9, u'\\\\britanserin')"
p36
aS"(18, u'\\\\bimaging')"
p37
aS"(19, u'\\\\bpositron emission tomography')"
p38
aS"(12, u'\\\\bantagonist')"
p39
atp40
Rp41
sS'regions'
p42
g3
((lp43
S"(19, u'(?i)\\\\b(cortexes|cortex)\\\\b')"
p44
aS"(9, u'(?i)\\\\b(cerebellums|cerebellum)\\\\b')"
p45
atp46
Rp47
sS'year'
p48
V1998
p49
sS'species'
p50
g3
((lp51
S"(1, u'(?i)\\\\b(mice|mouse)\\\\b')"
p52
aS"(5, u'(?i)\\\\b(mices|mice)\\\\b')"
p53
atp54
Rp55
sb.