(ifile_types
ParseObject
p0
(dp1
S'methods'
p2
c__builtin__
set
p3
((lp4
S'Method.AGONIST'
p5
atp6
Rp7
sS'topics'
p8
g3
((lp9
tp10
Rp11
sS'receptors'
p12
g3
((lp13
(S'5ht1b'
p14
I1521
I1527
tp15
a(S'5ht1b'
p16
I53
I59
tp17
a(S'5ht1b'
p18
I442
I448
tp19
a(S'5ht1b'
p20
I1020
I1026
tp21
a(S'5ht1b'
p22
I170
I176
tp23
a(S'5ht1b'
p24
I340
I346
tp25
a(S'5ht1b'
p26
I656
I662
tp27
a(S'5ht1b'
p28
I964
I970
tp29
atp30
Rp31
sS'raw_text_methods'
p32
g3
((lp33
S"(13, u'\\\\bagonist')"
p34
atp35
Rp36
sS'regions'
p37
g3
((lp38
tp39
Rp40
sS'year'
p41
V2008
p42
sS'species'
p43
g3
((lp44
S"(4, u'(?i)\\\\b(rats|rat)\\\\b')"
p45
atp46
Rp47
sb.