(ifile_types
ParseObject
p0
(dp1
S'methods'
p2
c__builtin__
set
p3
((lp4
S'Method.ANTAGONIST'
p5
atp6
Rp7
sS'topics'
p8
g3
((lp9
tp10
Rp11
sS'receptors'
p12
g3
((lp13
(S'5ht1'
p14
I1386
I1391
tp15
a(S'5ht1a'
p16
I1284
I1290
tp17
atp18
Rp19
sS'raw_text_methods'
p20
g3
((lp21
S"(46, u'\\\\bspiperone')"
p22
aS"(11, u'\\\\bfluoxetine')"
p23
aS"(12, u'\\\\bantagonist')"
p24
atp25
Rp26
sS'regions'
p27
g3
((lp28
S"(16, u'(?i)\\\\b(drns|drn)\\\\b')"
p29
atp30
Rp31
sS'year'
p32
V1995
p33
sS'species'
p34
g3
((lp35
S"(4, u'(?i)\\\\b(rats|rat)\\\\b')"
p36
atp37
Rp38
sb.