(ifile_types
ParseObject
p0
(dp1
S'antagonists'
p2
c__builtin__
set
p3
((lp4
S"(43, u'\\\\bgr ?127935')"
p5
aS"(14, u'\\\\bmethiothepin')"
p6
aS"(117, u'\\\\bketanserin')"
p7
aS"(34, u'\\\\bmetergoline')"
p8
aS"(119, u'\\\\britanserin')"
p9
atp10
Rp11
sS'methods'
p12
g3
((lp13
S'Method.ANTAGONIST'
p14
aS'Method.AGONIST'
p15
atp16
Rp17
sS'topics'
p18
g3
((lp19
tp20
Rp21
sS'receptors'
p22
g3
((lp23
S'5ht1b'
p24
aS'5ht1a'
p25
aS'5ht1f'
p26
aS'5ht1d'
p27
atp28
Rp29
sS'regions'
p30
g3
((lp31
S"(103, u'(?i)\\\\b(substantias|substantia)(-|\\\\s+)?(nigras|nigra)\\\\b')"
p32
atp33
Rp34
sS'year'
p35
V1997
p36
sS'agonists'
p37
g3
((lp38
S"(149, u'\\\\bmem')"
p39
atp40
Rp41
sS'species'
p42
g3
((lp43
S"(1056, u'(?i)\\\\b(humans|human)(-|\\\\s+)?(beings|being)\\\\b')"
p44
aS"(3062, u'(?i)\\\\b(guineas|guinea)\\\\b')"
p45
aS"(3196, u'(?i)\\\\b(human|humans)\\\\b')"
p46
aS"(3195, u'(?i)\\\\b(humans|human)(-|\\\\s+)?(being|beings)\\\\b')"
p47
aS"(1057, u'(?i)\\\\b(humans|human)\\\\b')"
p48
aS"(3051, u'(?i)\\\\b(pigs|pig)\\\\b')"
p49
aS"(4480, u'(?i)\\\\b(guineas|guinea)(-|\\\\s+)?(pigs|pig)\\\\b')"
p50
aS"(5958, u'(?i)\\\\b(rats|rat)\\\\b')"
p51
atp52
Rp53
sb.