(ifile_types
ParseObject
p0
(dp1
S'methods'
p2
c__builtin__
set
p3
((lp4
S'Method.ANTAGONIST'
p5
aS'Method.AGONIST'
p6
atp7
Rp8
sS'topics'
p9
g3
((lp10
tp11
Rp12
sS'receptors'
p13
g3
((lp14
(S'5ht1a'
p15
I433
I439
tp16
a(S'5ht1a'
p17
I1251
I1257
tp18
a(S'5ht1a'
p19
I873
I879
tp20
a(S'5ht1a'
p21
I732
I738
tp22
a(S'5ht1a'
p23
I938
I944
tp24
a(S'5ht1a'
p25
I1094
I1100
tp26
a(S'5ht1a'
p27
I178
I184
tp28
a(S'5ht1a'
p29
I1464
I1470
tp30
a(S'5ht1a'
p31
I36
I42
tp32
atp33
Rp34
sS'raw_text_methods'
p35
g3
((lp36
S"(21, u'\\\\bipsapirone')"
p37
aS"(22, u'\\\\bbuspirone')"
p38
aS"(15, u'\\\\b8ohdpat')"
p39
aS"(13, u'\\\\bagonist')"
p40
aS"(24, u'\\\\bgepirone')"
p41
aS"(27, u'\\\\blsd')"
p42
aS"(51, u'\\\\bway100635')"
p43
aS"(29, u'\\\\bdiethylamide')"
p44
aS"(12, u'\\\\bantagonist')"
p45
atp46
Rp47
sS'regions'
p48
g3
((lp49
tp50
Rp51
sS'year'
p52
V2005
p53
sS'species'
p54
g3
((lp55
S"(3, u'(?i)\\\\b(males|male)\\\\b')"
p56
aS"(4, u'(?i)\\\\b(rats|rat)\\\\b')"
p57
atp58
Rp59
sb.