(ifile_types
ParseObject
p0
(dp1
S'methods'
p2
c__builtin__
set
p3
((lp4
S'Method.ANTAGONIST'
p5
atp6
Rp7
sS'topics'
p8
g3
((lp9
S"(30, u'\\\\bpain')"
p10
aS"(26, u'\\\\bbehav')"
p11
atp12
Rp13
sS'receptors'
p14
g3
((lp15
(S'5ht2c'
p16
I1483
I1491
tp17
a(S'5ht2a'
p18
I1534
I1540
tp19
a(S'5ht2a'
p20
I1483
I1489
tp21
atp22
Rp23
sS'raw_text_methods'
p24
g3
((lp25
S"(53, u'\\\\bketanserin')"
p26
aS"(12, u'\\\\bantagonist')"
p27
atp28
Rp29
sS'regions'
p30
g3
((lp31
S"(16, u'(?i)\\\\b(drns|drn)\\\\b')"
p32
atp33
Rp34
sS'year'
p35
V2013
p36
sS'species'
p37
g3
((lp38
tp39
Rp40
sb.