(ifile_types
ParseObject
p0
(dp1
S'methods'
p2
c__builtin__
set
p3
((lp4
tp5
Rp6
sS'topics'
p7
g3
((lp8
S"(26, u'\\\\bbehav')"
p9
aS"(2, u'\\\\bdisorder')"
p10
aS"(7, u'\\\\bdepressi')"
p11
aS"(9, u'\\\\bstress')"
p12
aS"(5, u'\\\\btherap')"
p13
aS"(8, u'\\\\banxi')"
p14
atp15
Rp16
sS'receptors'
p17
g3
((lp18
(S'5ht1a'
p19
I41
I52
tp20
a(S'5ht1a'
p21
I409
I420
tp22
a(S'5ht1a'
p23
I423
I429
tp24
a(S'5ht1a'
p25
I1017
I1023
tp26
a(S'5ht1a'
p27
I944
I950
tp28
a(S'5ht1a'
p29
I877
I883
tp30
a(S'5ht1a'
p31
I1294
I1300
tp32
atp33
Rp34
sS'raw_text_methods'
p35
g3
((lp36
tp37
Rp38
sS'regions'
p39
g3
((lp40
tp41
Rp42
sS'year'
p43
V2011
p44
sS'species'
p45
g3
((lp46
S"(1, u'(?i)\\\\b(mice|mouse)\\\\b')"
p47
atp48
Rp49
sb.