(ifile_types
ParseObject
p0
(dp1
S'antagonists'
p2
c__builtin__
set
p3
((lp4
tp5
Rp6
sS'methods'
p7
g3
((lp8
S'Method.AGONIST'
p9
atp10
Rp11
sS'topics'
p12
g3
((lp13
S"(8, u'\\\\blearning')"
p14
atp15
Rp16
sS'receptors'
p17
g3
((lp18
S'5ht1a'
p19
aS'5ht5'
p20
atp21
Rp22
sS'regions'
p23
g3
((lp24
S"(234, u'(?i)(nuclei|nucleus)(-|\\\\s+)?(basali|basalis)')"
p25
atp26
Rp27
sS'year'
p28
V2003
p29
sS'agonists'
p30
g3
((lp31
S"(92, u'\\\\b8 ?oh ?dpat')"
p32
atp33
Rp34
sS'species'
p35
g3
((lp36
S"(6753, u'(?i)(da|das)')"
p37
aS"(2568, u'(?i)(hens|hen)')"
p38
aS"(5743, u'(?i)(bots|bot)')"
p39
aS"(468, u'(?i)(oxen|ox)')"
p40
aS"(1055, u'(?i)(men|man)')"
p41
aS"(6249, u'(?i)(ants|ant)')"
p42
aS"(6580, u'(?i)(dams|dam)')"
p43
aS"(4979, u'(?i)(cats|cat)')"
p44
aS"(5958, u'(?i)(rats|rat)')"
p45
aS"(3522, u'(?i)(tetras|tetra)')"
p46
aS"(6391, u'(?i)(asses|ass)')"
p47
aS"(6356, u'(?i)(ais|ai)')"
p48
aS"(3431, u'(?i)(roans|roan)')"
p49
aS"(2809, u'(?i)(toms|tom)')"
p50
atp51
Rp52
sb.