(ifile_types
ParseObject
p0
(dp1
S'methods'
p2
c__builtin__
set
p3
((lp4
S'Method.PET'
p5
aS'Method.AGONIST'
p6
atp7
Rp8
sS'topics'
p9
g3
((lp10
tp11
Rp12
sS'receptors'
p13
g3
((lp14
(S'5ht2a'
p15
I404
I410
tp16
a(S'5ht2c'
p17
I122
I130
tp18
a(S'5ht2'
p19
I729
I734
tp20
a(S'5ht2c'
p21
I1163
I1169
tp22
a(S'5ht2'
p23
I754
I759
tp24
a(S'5ht2a'
p25
I122
I128
tp26
a(S'5ht2c'
p27
I404
I412
tp28
a(S'5ht2a'
p29
I1152
I1158
tp30
a(S'5ht2c'
p31
I1314
I1322
tp32
a(S'5ht2a'
p33
I1314
I1320
tp34
atp35
Rp36
sS'raw_text_methods'
p37
g3
((lp38
S"(13, u'\\\\bagonist')"
p39
aS"(17, u'\\\\bpet')"
p40
aS"(18, u'\\\\bimaging')"
p41
aS"(54, u'\\\\bautoradiography')"
p42
atp43
Rp44
sS'regions'
p45
g3
((lp46
tp47
Rp48
sS'year'
p49
V2015
p50
sS'species'
p51
g3
((lp52
tp53
Rp54
sb.