(ifile_types
ParseObject
p0
(dp1
S'antagonists'
p2
c__builtin__
set
p3
((lp4
S"(5, u'\\\\bcyanopindolol')"
p5
aS"(53, u'\\\\bketanserin')"
p6
aS"(130, u'\\\\britanserin')"
p7
aS"(14, u'\\\\bmethiothepin')"
p8
aS"(128, u'\\\\bketanserin')"
p9
aS"(54, u'\\\\britanserin')"
p10
aS"(39, u'\\\\bsb ?224289')"
p11
aS"(45, u'\\\\bgr ?127935')"
p12
atp13
Rp14
sS'methods'
p15
g3
((lp16
S'Method.ANTAGONIST'
p17
aS'Method.AGONIST'
p18
atp19
Rp20
sS'topics'
p21
g3
((lp22
tp23
Rp24
sS'receptors'
p25
g3
((lp26
S'5ht1b'
p27
atp28
Rp29
sS'regions'
p30
g3
((lp31
S"(34, u'(?i)(pon|pons)')"
p32
atp33
Rp34
sS'year'
p35
V1998
p36
sS'agonists'
p37
g3
((lp38
S"(103, u'\\\\bsumatriptan')"
p39
aS"(155, u'\\\\bmem')"
p40
aS"(5, u'\\\\b5 ?ct')"
p41
aS"(104, u'\\\\bzolmitriptan')"
p42
aS"(29, u'\\\\bdihydroergotamine')"
p43
atp44
Rp45
sS'species'
p46
g3
((lp47
S"(4163, u'(?i)(ermines|ermine)')"
p48
aS"(7094, u'(?i)(curs|cur)')"
p49
aS"(3404, u'(?i)(titis|titi)')"
p50
aS"(5958, u'(?i)(rats|rat)')"
p51
aS"(3196, u'(?i)(human|humans)')"
p52
aS"(1070, u'(?i)(pets|pet)')"
p53
aS"(468, u'(?i)(oxen|ox)')"
p54
aS"(3062, u'(?i)(guineas|guinea)')"
p55
aS"(3522, u'(?i)(tetras|tetra)')"
p56
aS"(3426, u'(?i)(hares|hare)')"
p57
aS"(7127, u'(?i)(monitors|monitor)')"
p58
aS"(2670, u'(?i)(arabs|arab)')"
p59
aS"(6249, u'(?i)(ants|ant)')"
p60
aS"(867, u'(?i)(tits|tit)')"
p61
aS"(3767, u'(?i)(olms|olm)')"
p62
aS"(1055, u'(?i)(men|man)')"
p63
aS"(1057, u'(?i)(humans|human)')"
p64
aS"(1414, u'(?i)(chars|char)')"
p65
aS"(4480, u'(?i)(guineas|guinea)(-|\\\\s+)?(pigs|pig)')"
p66
aS"(2568, u'(?i)(hens|hen)')"
p67
aS"(3051, u'(?i)(pigs|pig)')"
p68
aS"(3726, u'(?i)(mates|mate)')"
p69
aS"(4964, u'(?i)(serins|serin)')"
p70
atp71
Rp72
sb.