(ifile_types
ParseObject
p0
(dp1
S'antagonists'
p2
c__builtin__
set
p3
((lp4
S"(112, u'\\\\bquetiapine')"
p5
aS"(110, u'\\\\bclozapine')"
p6
aS"(114, u'\\\\bziprasidone')"
p7
aS"(31, u'\\\\bway ?100635')"
p8
aS"(59, u'\\\\bchlorpromazine')"
p9
aS"(113, u'\\\\brisperidone')"
p10
aS"(50, u'\\\\bquetiapine')"
p11
aS"(111, u'\\\\bolanzapine')"
p12
aS"(109, u'\\\\bthioridazine')"
p13
aS"(58, u'\\\\bhaloperidol')"
p14
atp15
Rp16
sS'methods'
p17
g3
((lp18
S'Method.ANTAGONIST'
p19
aS'Method.AGONIST'
p20
atp21
Rp22
sS'topics'
p23
g3
((lp24
S"(15, u'\\\\bschizophreni')"
p25
atp26
Rp27
sS'receptors'
p28
g3
((lp29
S'5ht1a'
p30
atp31
Rp32
sS'regions'
p33
g3
((lp34
tp35
Rp36
sS'year'
p37
V2001
p38
sS'agonists'
p39
g3
((lp40
S"(64, u'\\\\bquetiapine')"
p41
aS"(57, u'\\\\bolanzapine')"
p42
aS"(84, u'\\\\bziprasidone')"
p43
aS"(43, u'\\\\bhaloperidol')"
p44
aS"(10, u'\\\\baet')"
p45
aS"(23, u'\\\\bclozapine')"
p46
atp47
Rp48
sS'species'
p49
g3
((lp50
S"(1057, u'(?i)\\\\b(humans|human)\\\\b')"
p51
aS"(4099, u'(?i)\\\\b(hamsters|hamster)\\\\b')"
p52
aS"(3196, u'(?i)\\\\b(human|humans)\\\\b')"
p53
atp54
Rp55
sb.