(ifile_types
ParseObject
p0
(dp1
S'antagonists'
p2
c__builtin__
set
p3
((lp4
tp5
Rp6
sS'methods'
p7
g3
((lp8
S'Method.AGONIST'
p9
atp10
Rp11
sS'topics'
p12
g3
((lp13
S"(16, u'\\\\bfeed')"
p14
atp15
Rp16
sS'receptors'
p17
g3
((lp18
S'5ht1b'
p19
aS'5ht5'
p20
aS'5ht2c'
p21
atp22
Rp23
sS'regions'
p24
g3
((lp25
tp26
Rp27
sS'year'
p28
V2009
p29
sS'agonists'
p30
g3
((lp31
S"(161, u'\\\\bmcpp')"
p32
aS"(155, u'\\\\bmem')"
p33
atp34
Rp35
sS'species'
p36
g3
((lp37
S"(2568, u'(?i)(hens|hen)')"
p38
aS"(5958, u'(?i)(rats|rat)')"
p39
aS"(163, u'(?i)(mice|mouse)')"
p40
aS"(6249, u'(?i)(ants|ant)')"
p41
aS"(3550, u'(?i)(anis|ani)')"
p42
aS"(1961, u'(?i)(pens|pen)')"
p43
aS"(577, u'(?i)(orphans|orphan)')"
p44
atp45
Rp46
sb.