(ifile_types
ParseObject
p0
(dp1
S'methods'
p2
c__builtin__
set
p3
((lp4
S'Method.PET'
p5
atp6
Rp7
sS'topics'
p8
g3
((lp9
S"(22, u'\\\\bschizophreni')"
p10
aS"(26, u'\\\\bbehav')"
p11
aS"(17, u'\\\\balzheimer')"
p12
aS"(11, u'\\\\bobsessive compulsive disorder')"
p13
aS"(2, u'\\\\bdisorder')"
p14
aS"(9, u'\\\\bstress')"
p15
aS"(12, u'\\\\bsleep')"
p16
aS"(8, u'\\\\banxi')"
p17
atp18
Rp19
sS'receptors'
p20
g3
((lp21
(S'5ht1b'
p22
I889
I895
tp23
a(S'5ht2'
p24
I1906
I1912
tp25
a(S'5ht2a'
p26
I913
I919
tp27
a(S'5ht1a'
p28
I1861
I1867
tp29
a(S'5ht1a'
p30
I878
I884
tp31
a(S'5ht1b'
p32
I1883
I1889
tp33
a(S'5ht2a'
p34
I1906
I1912
tp35
atp36
Rp37
sS'raw_text_methods'
p38
g3
((lp39
S"(1, u'\\\\bneuroimag')"
p40
aS"(2, u'\\\\blabeling')"
p41
aS"(17, u'\\\\bpet')"
p42
atp43
Rp44
sS'regions'
p45
g3
((lp46
S"(3, u'(?i)\\\\b(postsynaptics|postsynaptic)\\\\b')"
p47
atp48
Rp49
sS'year'
p50
V2012
p51
sS'species'
p52
g3
((lp53
S"(3, u'(?i)\\\\b(males|male)\\\\b')"
p54
atp55
Rp56
sb.