(ifile_types
ParseObject
p0
(dp1
S'antagonists'
p2
c__builtin__
set
p3
((lp4
S"(198, u'\\\\bsb ?269970')"
p5
aS"(133, u'\\\\bmianserin')"
p6
aS"(110, u'\\\\bclozapine')"
p7
aS"(21, u'\\\\bpindolol')"
p8
aS"(195, u'\\\\bpimozide')"
p9
atp10
Rp11
sS'methods'
p12
g3
((lp13
S'Method.AGONIST'
p14
aS'Method.IMMUNOHISTOCHEMISTRY'
p15
aS'Method.ANTAGONIST'
p16
atp17
Rp18
sS'topics'
p19
g3
((lp20
tp21
Rp22
sS'receptors'
p23
g3
((lp24
S'5ht7'
p25
aS'5ht7a'
p26
aS'5ht1'
p27
atp28
Rp29
sS'regions'
p30
g3
((lp31
S"(230, u'(?i)\\\\b(ventrals|ventral)(-|\\\\s+)?(pallidums|pallidum)\\\\b')"
p32
aS"(231, u'(?i)\\\\b(basals|basal)(-|\\\\s+)?(forebrains|forebrain)\\\\b')"
p33
atp34
Rp35
sS'year'
p36
V2004
p37
sS'agonists'
p38
g3
((lp39
S"(98, u'\\\\b5 ?carboxamidotryptamine')"
p40
aS"(220, u'\\\\b5 ?methoxytryptamine')"
p41
aS"(23, u'\\\\bclozapine')"
p42
aS"(85, u'\\\\b8 ?oh ?dpat')"
p43
aS"(219, u'\\\\b5 ?ct')"
p44
atp45
Rp46
sS'species'
p47
g3
((lp48
S"(5958, u'(?i)\\\\b(rats|rat)\\\\b')"
p49
atp50
Rp51
sb.