(ifile_types
ParseObject
p0
(dp1
S'methods'
p2
c__builtin__
set
p3
((lp4
tp5
Rp6
sS'topics'
p7
g3
((lp8
S"(30, u'\\\\bpain')"
p9
aS"(9, u'\\\\bstress')"
p10
atp11
Rp12
sS'receptors'
p13
g3
((lp14
(S'5ht3'
p15
I1017
I1022
tp16
a(S'5ht3'
p17
I1704
I1709
tp18
atp19
Rp20
sS'raw_text_methods'
p21
g3
((lp22
S"(3, u'\\\\bimmunoreactiv')"
p23
atp24
Rp25
sS'regions'
p26
g3
((lp27
tp28
Rp29
sS'year'
p30
V2007
p31
sS'species'
p32
g3
((lp33
S"(3, u'(?i)\\\\b(males|male)\\\\b')"
p34
aS"(4, u'(?i)\\\\b(rats|rat)\\\\b')"
p35
atp36
Rp37
sb.