(ifile_types
ParseObject
p0
(dp1
S'antagonists'
p2
c__builtin__
set
p3
((lp4
tp5
Rp6
sS'methods'
p7
g3
((lp8
S'Method.AGONIST'
p9
atp10
Rp11
sS'topics'
p12
g3
((lp13
S"(4, u'\\\\blocomot')"
p14
atp15
Rp16
sS'receptors'
p17
g3
((lp18
S'5ht1b'
p19
aS'5ht1a'
p20
atp21
Rp22
sS'regions'
p23
g3
((lp24
S"(226, u'(?i)(nuclei|nucleus)(-|\\\\s+)?(accumben|accumbens)')"
p25
aS"(34, u'(?i)(pon|pons)')"
p26
atp27
Rp28
sS'year'
p29
V2006
p30
sS'agonists'
p31
g3
((lp32
S"(74, u'\\\\bru ?24969')"
p33
atp34
Rp35
sS'species'
p36
g3
((lp37
S"(6249, u'(?i)(ants|ant)')"
p38
aS"(5958, u'(?i)(rats|rat)')"
p39
aS"(6753, u'(?i)(da|das)')"
p40
aS"(6682, u'(?i)(tera|teras)')"
p41
aS"(1055, u'(?i)(men|man)')"
p42
aS"(4604, u'(?i)(mites|mite)')"
p43
aS"(5743, u'(?i)(bots|bot)')"
p44
aS"(3550, u'(?i)(anis|ani)')"
p45
aS"(6356, u'(?i)(ais|ai)')"
p46
atp47
Rp48
sb.