(ifile_types
ParseObject
p0
(dp1
S'methods'
p2
c__builtin__
set
p3
((lp4
S'Method.AGONIST'
p5
atp6
Rp7
sS'topics'
p8
g3
((lp9
S"(26, u'\\\\bbehav')"
p10
atp11
Rp12
sS'receptors'
p13
g3
((lp14
(S'5ht7'
p15
I763
I768
tp16
a(S'5ht7'
p17
I984
I989
tp18
a(S'5ht7'
p19
I626
I631
tp20
a(S'5ht7'
p21
I846
I851
tp22
a(S'5ht7'
p23
I35
I40
tp24
a(S'5ht7'
p25
I577
I582
tp26
a(S'5ht7'
p27
I669
I674
tp28
atp29
Rp30
sS'raw_text_methods'
p31
g3
((lp32
S"(13, u'\\\\bagonist')"
p33
aS"(35, u'\\\\badenosine')"
p34
atp35
Rp36
sS'regions'
p37
g3
((lp38
tp39
Rp40
sS'year'
p41
V2006
p42
sS'species'
p43
g3
((lp44
tp45
Rp46
sb.