(ifile_types
ParseObject
p0
(dp1
S'antagonists'
p2
c__builtin__
set
p3
((lp4
S"(111, u'\\\\bolanzapine')"
p5
atp6
Rp7
sS'methods'
p8
g3
((lp9
S'Method.ANTAGONIST'
p10
atp11
Rp12
sS'topics'
p13
g3
((lp14
S"(32, u'\\\\bnausea')"
p15
aS"(28, u'\\\\bemesis')"
p16
atp17
Rp18
sS'receptors'
p19
g3
((lp20
S'5ht6'
p21
aS'5ht3'
p22
aS'5ht2c'
p23
aS'5ht2a'
p24
atp25
Rp26
sS'regions'
p27
g3
((lp28
tp29
Rp30
sS'year'
p31
V2015
p32
sS'agonists'
p33
g3
((lp34
S"(57, u'\\\\bolanzapine')"
p35
aS"(149, u'\\\\bmem')"
p36
atp37
Rp38
sS'species'
p39
g3
((lp40
tp41
Rp42
sb.