(ifile_types
ParseObject
p0
(dp1
S'antagonists'
p2
c__builtin__
set
p3
((lp4
tp5
Rp6
sS'methods'
p7
g3
((lp8
S'Method.AGONIST'
p9
atp10
Rp11
sS'topics'
p12
g3
((lp13
S"(25, u'\\\\bvasoconstrict')"
p14
aS"(21, u'\\\\bpain')"
p15
aS"(24, u'\\\\banalgesi')"
p16
atp17
Rp18
sS'receptors'
p19
g3
((lp20
S'5ht1b'
p21
aS'5ht1a'
p22
atp23
Rp24
sS'regions'
p25
g3
((lp26
S"(362, u'(?i)\\\\b(brains|brain)(-|\\\\s+)?(stems|stem)\\\\b')"
p27
aS"(27, u'(?i)\\\\b(areas|area)(-|\\\\s+)?(postremas|postrema)\\\\b')"
p28
aS"(386, u'(?i)\\\\b(cisternas|cisterna)(-|\\\\s+)?(magnas|magna)\\\\b')"
p29
aS"(313, u'(?i)\\\\b(solitaries|solitary)(-|\\\\s+)?(tracts|tract)\\\\b')"
p30
atp31
Rp32
sS'year'
p33
V1992
p34
sS'agonists'
p35
g3
((lp36
S"(25, u'\\\\bdihydroergotamine')"
p37
aS"(96, u'\\\\bsumatriptan')"
p38
aS"(100, u'\\\\bcp ?93129')"
p39
atp40
Rp41
sS'species'
p42
g3
((lp43
S"(1055, u'(?i)\\\\b(men|man)\\\\b')"
p44
aS"(4091, u'(?i)\\\\b(adults|adult)\\\\b')"
p45
aS"(5958, u'(?i)\\\\b(rats|rat)\\\\b')"
p46
atp47
Rp48
sb.