(ifile_types
ParseObject
p0
(dp1
S'antagonists'
p2
c__builtin__
set
p3
((lp4
tp5
Rp6
sS'methods'
p7
g3
((lp8
S'Method.KNOCKOUT'
p9
aS'Method.AGONIST'
p10
aS'Method.OPTOGENETICS'
p11
atp12
Rp13
sS'topics'
p14
g3
((lp15
S"(9, u'\\\\bdepress')"
p16
aS"(10, u'\\\\banxiety')"
p17
atp18
Rp19
sS'receptors'
p20
g3
((lp21
S'5ht1b'
p22
aS'5ht1a'
p23
atp24
Rp25
sS'regions'
p26
g3
((lp27
S"(34, u'(?i)(pon|pons)')"
p28
atp29
Rp30
sS'year'
p31
V2010
p32
sS'agonists'
p33
g3
((lp34
S"(181, u'\\\\bdom')"
p35
aS"(155, u'\\\\bmem')"
p36
atp37
Rp38
sS'species'
p39
g3
((lp40
S"(3048, u'(?i)(hogs|hog)')"
p41
aS"(6356, u'(?i)(ais|ai)')"
p42
aS"(3196, u'(?i)(human|humans)')"
p43
aS"(1070, u'(?i)(pets|pet)')"
p44
aS"(702, u'(?i)(genets|genet)')"
p45
aS"(479, u'(?i)(lings|ling)')"
p46
aS"(5743, u'(?i)(bots|bot)')"
p47
aS"(3550, u'(?i)(anis|ani)')"
p48
aS"(2621, u'(?i)(vertebrates|vertebrate)')"
p49
aS"(821, u'(?i)(lice|louse)')"
p50
aS"(5537, u'(?i)(hippos|hippo)')"
p51
aS"(5958, u'(?i)(rats|rat)')"
p52
aS"(867, u'(?i)(tits|tit)')"
p53
aS"(163, u'(?i)(mice|mouse)')"
p54
aS"(6682, u'(?i)(tera|teras)')"
p55
aS"(1055, u'(?i)(men|man)')"
p56
aS"(4979, u'(?i)(cats|cat)')"
p57
aS"(1057, u'(?i)(humans|human)')"
p58
aS"(1961, u'(?i)(pens|pen)')"
p59
aS"(5949, u'(?i)(dogs|dog)')"
p60
aS"(2323, u'(?i)(bees|bee)')"
p61
aS"(853, u'(?i)(minas|mina)')"
p62
atp63
Rp64
sb.