(ifile_types
ParseObject
p0
(dp1
S'methods'
p2
c__builtin__
set
p3
((lp4
S'Method.AGONIST'
p5
atp6
Rp7
sS'topics'
p8
g3
((lp9
S"(26, u'\\\\bbehav')"
p10
aS"(7, u'\\\\bdepressi')"
p11
aS"(13, u'\\\\bantidepress')"
p12
aS"(1, u'\\\\bpatient')"
p13
aS"(4, u'\\\\btreatment')"
p14
aS"(3, u'\\\\bclinical')"
p15
atp16
Rp17
sS'receptors'
p18
g3
((lp19
(S'5ht2a'
p20
I1263
I1269
tp21
atp22
Rp23
sS'raw_text_methods'
p24
g3
((lp25
S"(13, u'\\\\bagonist')"
p26
aS"(49, u'\\\\bdoi')"
p27
atp28
Rp29
sS'regions'
p30
g3
((lp31
S"(11, u'(?i)\\\\b(cerebrals|cerebral)\\\\b')"
p32
aS"(19, u'(?i)\\\\b(cortexes|cortex)\\\\b')"
p33
atp34
Rp35
sS'year'
p36
V2005
p37
sS'species'
p38
g3
((lp39
S"(3, u'(?i)\\\\b(males|male)\\\\b')"
p40
aS"(4, u'(?i)\\\\b(rats|rat)\\\\b')"
p41
atp42
Rp43
sb.