(ifile_types
ParseObject
p0
(dp1
S'antagonists'
p2
c__builtin__
set
p3
((lp4
S"(197, u'\\\\blurasidone')"
p5
aS"(57, u'\\\\bolanzapine')"
p6
aS"(61, u'\\\\bmdl ?100907')"
p7
aS"(124, u'\\\\bolanzapine')"
p8
atp9
Rp10
sS'methods'
p11
g3
((lp12
S'Method.PET'
p13
atp14
Rp15
sS'topics'
p16
g3
((lp17
tp18
Rp19
sS'receptors'
p20
g3
((lp21
S'5ht7'
p22
aS'5ht7a'
p23
aS'5ht5'
p24
aS'5ht1a'
p25
aS'5ht2a'
p26
atp27
Rp28
sS'regions'
p29
g3
((lp30
S"(220, u'(?i)(striatums|striatum)')"
p31
atp32
Rp33
sS'year'
p34
V2013
p35
sS'agonists'
p36
g3
((lp37
S"(53, u'\\\\blurasidone')"
p38
aS"(64, u'\\\\bolanzapine')"
p39
atp40
Rp41
sS'species'
p42
g3
((lp43
S"(1070, u'(?i)(pets|pet)')"
p44
aS"(2670, u'(?i)(arabs|arab)')"
p45
aS"(6753, u'(?i)(da|das)')"
p46
aS"(2568, u'(?i)(hens|hen)')"
p47
aS"(5958, u'(?i)(rats|rat)')"
p48
aS"(5743, u'(?i)(bots|bot)')"
p49
aS"(468, u'(?i)(oxen|ox)')"
p50
aS"(1349, u'(?i)(rams|ram)')"
p51
aS"(6249, u'(?i)(ants|ant)')"
p52
aS"(1055, u'(?i)(men|man)')"
p53
aS"(4979, u'(?i)(cats|cat)')"
p54
aS"(3550, u'(?i)(anis|ani)')"
p55
aS"(3812, u'(?i)(studs|stud)')"
p56
aS"(2809, u'(?i)(toms|tom)')"
p57
aS"(6356, u'(?i)(ais|ai)')"
p58
aS"(675, u'(?i)(marmosets|marmoset)')"
p59
atp60
Rp61
sb.