(ifile_types
ParseObject
p0
(dp1
S'antagonists'
p2
c__builtin__
set
p3
((lp4
S"(110, u'\\\\bclozapine')"
p5
aS"(114, u'\\\\bziprasidone')"
p6
aS"(113, u'\\\\brisperidone')"
p7
aS"(111, u'\\\\bolanzapine')"
p8
aS"(35, u'\\\\baripiprazole')"
p9
aS"(109, u'\\\\bthioridazine')"
p10
aS"(58, u'\\\\bhaloperidol')"
p11
atp12
Rp13
sS'methods'
p14
g3
((lp15
S'Method.AGONIST'
p16
atp17
Rp18
sS'topics'
p19
g3
((lp20
S"(15, u'\\\\bschizophreni')"
p21
atp22
Rp23
sS'receptors'
p24
g3
((lp25
S'5ht1a'
p26
aS'5ht1d'
p27
atp28
Rp29
sS'regions'
p30
g3
((lp31
tp32
Rp33
sS'year'
p34
V2005
p35
sS'agonists'
p36
g3
((lp37
S"(71, u'\\\\bssr ?181507')"
p38
aS"(57, u'\\\\bolanzapine')"
p39
aS"(74, u'\\\\btiospirone')"
p40
aS"(84, u'\\\\bziprasidone')"
p41
aS"(69, u'\\\\bsarizotan')"
p42
aS"(43, u'\\\\bhaloperidol')"
p43
aS"(223, u'\\\\baripiprazole')"
p44
aS"(23, u'\\\\bclozapine')"
p45
atp46
Rp47
sS'species'
p48
g3
((lp49
S"(1057, u'(?i)\\\\b(humans|human)\\\\b')"
p50
aS"(5958, u'(?i)\\\\b(rats|rat)\\\\b')"
p51
aS"(3196, u'(?i)\\\\b(human|humans)\\\\b')"
p52
atp53
Rp54
sb.