(ifile_types
ParseObject
p0
(dp1
S'methods'
p2
c__builtin__
set
p3
((lp4
S'Method.ANTAGONIST'
p5
aS'Method.AGONIST'
p6
atp7
Rp8
sS'topics'
p9
g3
((lp10
S"(3, u'\\\\bclinical')"
p11
aS"(4, u'\\\\btreatment')"
p12
aS"(2, u'\\\\bdisorder')"
p13
atp14
Rp15
sS'receptors'
p16
g3
((lp17
(S'5ht2'
p18
I1283
I1288
tp19
a(S'5ht2a'
p20
I109
I120
tp21
a(S'5ht2'
p22
I936
I941
tp23
atp24
Rp25
sS'raw_text_methods'
p26
g3
((lp27
S"(13, u'\\\\bagonist')"
p28
aS"(27, u'\\\\blsd')"
p29
aS"(53, u'\\\\bketanserin')"
p30
aS"(29, u'\\\\bdiethylamide')"
p31
aS"(12, u'\\\\bantagonist')"
p32
atp33
Rp34
sS'regions'
p35
g3
((lp36
tp37
Rp38
sS'year'
p39
V2017
p40
sS'species'
p41
g3
((lp42
tp43
Rp44
sb.