(ifile_types
ParseObject
p0
(dp1
S'antagonists'
p2
c__builtin__
set
p3
((lp4
tp5
Rp6
sS'methods'
p7
g3
((lp8
S'Method.ANTAGONIST'
p9
aS'Method.AGONIST'
p10
atp11
Rp12
sS'topics'
p13
g3
((lp14
tp15
Rp16
sS'receptors'
p17
g3
((lp18
S'5ht3a'
p19
aS'5ht5'
p20
aS'5ht3'
p21
atp22
Rp23
sS'regions'
p24
g3
((lp25
tp26
Rp27
sS'year'
p28
V2019
p29
sS'agonists'
p30
g3
((lp31
S"(194, u'\\\\bsr ?57227')"
p32
atp33
Rp34
sS'species'
p35
g3
((lp36
S"(5685, u'(?i)\\\\b(xenopuses|xenopus)(-|\\\\s+)?(laevi|laevis)\\\\b')"
p37
aS"(1057, u'(?i)\\\\b(humans|human)\\\\b')"
p38
aS"(3196, u'(?i)\\\\b(human|humans)\\\\b')"
p39
atp40
Rp41
sb.