(ifile_types
ParseObject
p0
(dp1
S'antagonists'
p2
c__builtin__
set
p3
((lp4
S"(102, u'\\\\bfluoxetine')"
p5
atp6
Rp7
sS'methods'
p8
g3
((lp9
S'Method.AGONIST'
p10
atp11
Rp12
sS'topics'
p13
g3
((lp14
S"(29, u'\\\\bsex')"
p15
aS"(9, u'\\\\bdepress')"
p16
aS"(16, u'\\\\bfeed')"
p17
aS"(10, u'\\\\banxiety')"
p18
atp19
Rp20
sS'receptors'
p21
g3
((lp22
S'5ht1a'
p23
atp24
Rp25
sS'regions'
p26
g3
((lp27
S"(34, u'(?i)(pon|pons)')"
p28
atp29
Rp30
sS'year'
p31
V2011
p32
sS'agonists'
p33
g3
((lp34
S"(44, u'\\\\bflesinoxan')"
p35
atp36
Rp37
sS'species'
p38
g3
((lp39
S"(2323, u'(?i)(bees|bee)')"
p40
aS"(3248, u'(?i)(offspring|offspring)')"
p41
aS"(5958, u'(?i)(rats|rat)')"
p42
aS"(6753, u'(?i)(da|das)')"
p43
aS"(479, u'(?i)(lings|ling)')"
p44
aS"(4091, u'(?i)(adults|adult)')"
p45
aS"(7552, u'(?i)(bats|bat)')"
p46
aS"(468, u'(?i)(oxen|ox)')"
p47
aS"(1055, u'(?i)(men|man)')"
p48
aS"(6249, u'(?i)(ants|ant)')"
p49
aS"(6580, u'(?i)(dams|dam)')"
p50
aS"(3812, u'(?i)(studs|stud)')"
p51
aS"(5864, u'(?i)(fetuses|fetus)')"
p52
aS"(6981, u'(?i)(moths|moth)')"
p53
aS"(3722, u'(?i)(pups|pup)')"
p54
aS"(6356, u'(?i)(ais|ai)')"
p55
aS"(7127, u'(?i)(monitors|monitor)')"
p56
atp57
Rp58
sb.