(ifile_types
ParseObject
p0
(dp1
S'methods'
p2
c__builtin__
set
p3
((lp4
S'Method.ANTAGONIST'
p5
aS'Method.AGONIST'
p6
atp7
Rp8
sS'topics'
p9
g3
((lp10
S"(26, u'\\\\bbehav')"
p11
atp12
Rp13
sS'receptors'
p14
g3
((lp15
(S'5ht1a'
p16
I1255
I1261
tp17
a(S'5ht1a'
p18
I378
I384
tp19
a(S'5ht1a'
p20
I96
I102
tp21
a(S'5ht1a'
p22
I1005
I1011
tp23
a(S'5ht1a'
p24
I493
I499
tp25
a(S'5ht1a'
p26
I2296
I2302
tp27
a(S'5ht1a'
p28
I1927
I1933
tp29
atp30
Rp31
sS'raw_text_methods'
p32
g3
((lp33
S"(7, u'\\\\bpropranolol')"
p34
aS"(23, u'\\\\bmdl')"
p35
aS"(22, u'\\\\bbuspirone')"
p36
aS"(15, u'\\\\b8ohdpat')"
p37
aS"(13, u'\\\\bagonist')"
p38
aS"(12, u'\\\\bantagonist')"
p39
atp40
Rp41
sS'regions'
p42
g3
((lp43
tp44
Rp45
sS'year'
p46
V1997
p47
sS'species'
p48
g3
((lp49
tp50
Rp51
sb.