(ifile_types
ParseObject
p0
(dp1
S'antagonists'
p2
c__builtin__
set
p3
((lp4
tp5
Rp6
sS'methods'
p7
g3
((lp8
S'Method.PET'
p9
atp10
Rp11
sS'topics'
p12
g3
((lp13
tp14
Rp15
sS'receptors'
p16
g3
((lp17
S'5ht1b'
p18
atp19
Rp20
sS'regions'
p21
g3
((lp22
S"(220, u'(?i)(striatums|striatum)')"
p23
aS"(225, u'(?i)(ventrals|ventral)(-|\\\\s+)?(striatums|striatum)')"
p24
aS"(224, u'(?i)(caudates|caudate)(-|\\\\s+)?(nuclei|nucleus)')"
p25
aS"(223, u'(?i)(putamens|putamen)')"
p26
atp27
Rp28
sS'year'
p29
V2014
p30
sS'agonists'
p31
g3
((lp32
tp33
Rp34
sS'species'
p35
g3
((lp36
S"(1070, u'(?i)(pets|pet)')"
p37
aS"(2323, u'(?i)(bees|bee)')"
p38
aS"(5958, u'(?i)(rats|rat)')"
p39
aS"(6753, u'(?i)(da|das)')"
p40
aS"(1055, u'(?i)(men|man)')"
p41
aS"(4979, u'(?i)(cats|cat)')"
p42
aS"(6249, u'(?i)(ants|ant)')"
p43
aS"(1057, u'(?i)(humans|human)')"
p44
aS"(6391, u'(?i)(asses|ass)')"
p45
aS"(3812, u'(?i)(studs|stud)')"
p46
aS"(3196, u'(?i)(human|humans)')"
p47
aS"(2809, u'(?i)(toms|tom)')"
p48
aS"(6325, u'(?i)(caudates|caudate)')"
p49
aS"(6356, u'(?i)(ais|ai)')"
p50
atp51
Rp52
sb.