(ifile_types
ParseObject
p0
(dp1
S'methods'
p2
c__builtin__
set
p3
((lp4
S'Method.PET'
p5
atp6
Rp7
sS'topics'
p8
g3
((lp9
S"(1, u'\\\\bpatient')"
p10
aS"(3, u'\\\\bclinical')"
p11
atp12
Rp13
sS'receptors'
p14
g3
((lp15
(S'5ht2a'
p16
I1220
I1225
tp17
a(S'5ht2a'
p18
I976
I981
tp19
a(S'5ht2a'
p20
I461
I466
tp21
a(S'5ht2a'
p22
I1129
I1134
tp23
a(S'5ht2'
p24
I976
I981
tp25
atp26
Rp27
sS'raw_text_methods'
p28
g3
((lp29
S"(17, u'\\\\bpet')"
p30
aS"(19, u'\\\\bpositron emission tomography')"
p31
aS"(18, u'\\\\bimaging')"
p32
aS"(23, u'\\\\bmdl')"
p33
atp34
Rp35
sS'regions'
p36
g3
((lp37
tp38
Rp39
sS'year'
p40
V2014
p41
sS'species'
p42
g3
((lp43
S"(8, u'(?i)\\\\b(primates|primate)\\\\b')"
p44
atp45
Rp46
sb.