(ifile_types
ParseObject
p0
(dp1
S'antagonists'
p2
c__builtin__
set
p3
((lp4
tp5
Rp6
sS'methods'
p7
g3
((lp8
tp9
Rp10
sS'topics'
p11
g3
((lp12
S"(35, u'\\\\bstress')"
p13
aS"(12, u'\\\\banxiogen')"
p14
aS"(10, u'\\\\banxiety')"
p15
aS"(16, u'\\\\bfeed')"
p16
atp17
Rp18
sS'receptors'
p19
g3
((lp20
S'5ht1a'
p21
atp22
Rp23
sS'regions'
p24
g3
((lp25
tp26
Rp27
sS'year'
p28
V1998
p29
sS'agonists'
p30
g3
((lp31
tp32
Rp33
sS'species'
p34
g3
((lp35
S"(1057, u'(?i)\\\\b(humans|human)\\\\b')"
p36
aS"(163, u'(?i)\\\\b(mice|mouse)\\\\b')"
p37
aS"(3196, u'(?i)\\\\b(human|humans)\\\\b')"
p38
atp39
Rp40
sb.