(ifile_types
ParseObject
p0
(dp1
S'antagonists'
p2
c__builtin__
set
p3
((lp4
S"(32, u'\\\\bway ?100635')"
p5
aS"(105, u'\\\\bmethysergide')"
p6
atp7
Rp8
sS'methods'
p9
g3
((lp10
S'Method.ANTAGONIST'
p11
atp12
Rp13
sS'topics'
p14
g3
((lp15
S"(11, u'\\\\banxiolyt')"
p16
atp17
Rp18
sS'receptors'
p19
g3
((lp20
S'5ht1a'
p21
aS'5ht5'
p22
aS'5ht2'
p23
atp24
Rp25
sS'regions'
p26
g3
((lp27
S"(34, u'(?i)(pon|pons)')"
p28
atp29
Rp30
sS'year'
p31
V2015
p32
sS'agonists'
p33
g3
((lp34
S"(60, u'\\\\bmethysergide')"
p35
atp36
Rp37
sS'species'
p38
g3
((lp39
S"(2323, u'(?i)(bees|bee)')"
p40
aS"(5958, u'(?i)(rats|rat)')"
p41
aS"(4657, u'(?i)(fish|fish)')"
p42
aS"(4979, u'(?i)(cats|cat)')"
p43
aS"(6682, u'(?i)(tera|teras)')"
p44
aS"(4163, u'(?i)(ermines|ermine)')"
p45
aS"(1055, u'(?i)(men|man)')"
p46
aS"(6249, u'(?i)(ants|ant)')"
p47
aS"(853, u'(?i)(minas|mina)')"
p48
aS"(3550, u'(?i)(anis|ani)')"
p49
aS"(1014, u'(?i)(zebras|zebra)')"
p50
aS"(6391, u'(?i)(asses|ass)')"
p51
aS"(3812, u'(?i)(studs|stud)')"
p52
atp53
Rp54
sb.