(ifile_types
ParseObject
p0
(dp1
S'antagonists'
p2
c__builtin__
set
p3
((lp4
tp5
Rp6
sS'methods'
p7
g3
((lp8
S'Method.ANTAGONIST'
p9
atp10
Rp11
sS'topics'
p12
g3
((lp13
S"(8, u'\\\\blearning')"
p14
atp15
Rp16
sS'receptors'
p17
g3
((lp18
S'5ht3'
p19
atp20
Rp21
sS'regions'
p22
g3
((lp23
S"(34, u'(?i)(pon|pons)')"
p24
atp25
Rp26
sS'year'
p27
V1993
p28
sS'agonists'
p29
g3
((lp30
tp31
Rp32
sS'species'
p33
g3
((lp34
S"(2568, u'(?i)(hens|hen)')"
p35
aS"(6753, u'(?i)(da|das)')"
p36
aS"(479, u'(?i)(lings|ling)')"
p37
aS"(6249, u'(?i)(ants|ant)')"
p38
aS"(5944, u'(?i)(soles|sole)')"
p39
aS"(6356, u'(?i)(ais|ai)')"
p40
aS"(5958, u'(?i)(rats|rat)')"
p41
aS"(5131, u'(?i)(hags|hag)')"
p42
aS"(3812, u'(?i)(studs|stud)')"
p43
aS"(4074, u'(?i)(bulls|bull)')"
p44
atp45
Rp46
sb.