(ifile_types
ParseObject
p0
(dp1
S'antagonists'
p2
c__builtin__
set
p3
((lp4
S"(67, u'\\\\bhaloperidol')"
p5
aS"(100, u'\\\\beltoprazine')"
p6
aS"(68, u'\\\\bchlorpromazine')"
p7
atp8
Rp9
sS'methods'
p10
g3
((lp11
S'Method.AGONIST'
p12
atp13
Rp14
sS'topics'
p15
g3
((lp16
S"(18, u'\\\\bpsychostim')"
p17
aS"(20, u'\\\\baggressi')"
p18
aS"(4, u'\\\\blocomot')"
p19
atp20
Rp21
sS'receptors'
p22
g3
((lp23
S'5ht1a'
p24
atp25
Rp26
sS'regions'
p27
g3
((lp28
tp29
Rp30
sS'year'
p31
V1990
p32
sS'agonists'
p33
g3
((lp34
S"(48, u'\\\\bhaloperidol')"
p35
aS"(36, u'\\\\beltoprazine')"
p36
aS"(181, u'\\\\bdom')"
p37
aS"(24, u'\\\\bbuspirone')"
p38
atp39
Rp40
sS'species'
p41
g3
((lp42
S"(4624, u'(?i)(apes|ape)')"
p43
aS"(6753, u'(?i)(da|das)')"
p44
aS"(949, u'(?i)(cohoes|coho)')"
p45
aS"(5958, u'(?i)(rats|rat)')"
p46
aS"(163, u'(?i)(mice|mouse)')"
p47
aS"(6682, u'(?i)(tera|teras)')"
p48
aS"(5967, u'(?i)(males|male)')"
p49
aS"(468, u'(?i)(oxen|ox)')"
p50
aS"(1055, u'(?i)(men|man)')"
p51
aS"(6249, u'(?i)(ants|ant)')"
p52
aS"(853, u'(?i)(minas|mina)')"
p53
aS"(3550, u'(?i)(anis|ani)')"
p54
aS"(1553, u'(?i)(mews|mew)')"
p55
aS"(7094, u'(?i)(curs|cur)')"
p56
aS"(6356, u'(?i)(ais|ai)')"
p57
aS"(6115, u'(?i)(predators|predator)')"
p58
aS"(5743, u'(?i)(bots|bot)')"
p59
aS"(4979, u'(?i)(cats|cat)')"
p60
atp61
Rp62
sb.