(ifile_types
ParseObject
p0
(dp1
S'antagonists'
p2
c__builtin__
set
p3
((lp4
S"(32, u'\\\\bway ?100635')"
p5
atp6
Rp7
sS'methods'
p8
g3
((lp9
S'Method.ANTAGONIST'
p10
aS'Method.AGONIST'
p11
atp12
Rp13
sS'topics'
p14
g3
((lp15
tp16
Rp17
sS'receptors'
p18
g3
((lp19
S'5ht1a'
p20
aS'5ht5'
p21
atp22
Rp23
sS'regions'
p24
g3
((lp25
S"(106, u'(?i)(interpedunculars|interpeduncular)(-|\\\\s+)?(nuclei|nucleus)')"
p26
aS"(96, u'(?i)(ventrals|ventral)(-|\\\\s+)?(tegmentals|tegmental)(-|\\\\s+)?(areas|area)')"
p27
aS"(285, u'(?i)(entorhinals|entorhinal)(-|\\\\s+)?(cortexes|cortex)')"
p28
aS"(103, u'(?i)(substantias|substantia)(-|\\\\s+)?(nigras|nigra)')"
p29
aS"(224, u'(?i)(caudates|caudate)(-|\\\\s+)?(nuclei|nucleus)')"
p30
atp31
Rp32
sS'year'
p33
V1999
p34
sS'agonists'
p35
g3
((lp36
S"(92, u'\\\\b8 ?oh ?dpat')"
p37
aS"(44, u'\\\\bflesinoxan')"
p38
aS"(75, u'\\\\bs ?15535')"
p39
atp40
Rp41
sS'species'
p42
g3
((lp43
S"(5537, u'(?i)(hippos|hippo)')"
p44
aS"(4404, u'(?i)(duns|dun)')"
p45
aS"(5958, u'(?i)(rats|rat)')"
p46
aS"(6753, u'(?i)(da|das)')"
p47
aS"(479, u'(?i)(lings|ling)')"
p48
aS"(468, u'(?i)(oxen|ox)')"
p49
aS"(1055, u'(?i)(men|man)')"
p50
aS"(5176, u'(?i)(tegs|teg)')"
p51
aS"(6249, u'(?i)(ants|ant)')"
p52
aS"(3522, u'(?i)(tetras|tetra)')"
p53
aS"(3812, u'(?i)(studs|stud)')"
p54
aS"(6878, u'(?i)(guans|guan)')"
p55
aS"(6325, u'(?i)(caudates|caudate)')"
p56
aS"(6356, u'(?i)(ais|ai)')"
p57
aS"(6682, u'(?i)(tera|teras)')"
p58
atp59
Rp60
sb.