(ifile_types
ParseObject
p0
(dp1
S'methods'
p2
c__builtin__
set
p3
((lp4
tp5
Rp6
sS'topics'
p7
g3
((lp8
S"(14, u'\\\\bcogniti')"
p9
aS"(1, u'\\\\bpatient')"
p10
aS"(34, u'\\\\bparkinson')"
p11
aS"(17, u'\\\\balzheimer')"
p12
atp13
Rp14
sS'receptors'
p15
g3
((lp16
(S'5ht4'
p17
I363
I368
tp18
a(S'5ht4'
p19
I1367
I1372
tp20
a(S'5ht4'
p21
I2867
I2872
tp22
a(S'5ht4'
p23
I54
I59
tp24
a(S'5ht7'
p25
I999
I1004
tp26
a(S'5ht4'
p27
I291
I296
tp28
a(S'5ht4'
p29
I1912
I1917
tp30
a(S'5ht4'
p31
I3135
I3140
tp32
a(S'5ht4'
p33
I3440
I3445
tp34
atp35
Rp36
sS'raw_text_methods'
p37
g3
((lp38
tp39
Rp40
sS'regions'
p41
g3
((lp42
S"(15, u'(?i)\\\\b(substantias|substantia)(-|\\\\s+)?(nigras|nigra)\\\\b')"
p43
aS"(19, u'(?i)\\\\b(cortexes|cortex)\\\\b')"
p44
aS"(12, u'(?i)\\\\b(amygdalas|amygdala)\\\\b')"
p45
aS"(17, u'(?i)\\\\b(caudates|caudate)\\\\b')"
p46
aS"(18, u'(?i)\\\\b(putamens|putamen)\\\\b')"
p47
atp48
Rp49
sS'year'
p50
V1995
p51
sS'species'
p52
g3
((lp53
S"(7, u'(?i)\\\\b(guineas|guinea)(-|\\\\s+)?(pigs|pig)\\\\b')"
p54
atp55
Rp56
sb.