(ifile_types
ParseObject
p0
(dp1
S'methods'
p2
c__builtin__
set
p3
((lp4
S'Method.AGONIST'
p5
atp6
Rp7
sS'topics'
p8
g3
((lp9
S"(30, u'\\\\bpain')"
p10
aS"(26, u'\\\\bbehav')"
p11
aS"(4, u'\\\\btreatment')"
p12
atp13
Rp14
sS'receptors'
p15
g3
((lp16
(S'5ht3'
p17
I1778
I1783
tp18
a(S'5ht1a'
p19
I1235
I1241
tp20
a(S'5ht3'
p21
I158
I163
tp22
a(S'5ht1a'
p23
I1829
I1835
tp24
a(S'5ht3'
p25
I1124
I1129
tp26
a(S'5ht1a'
p27
I1408
I1414
tp28
a(S'5ht1a'
p29
I168
I174
tp30
atp31
Rp32
sS'raw_text_methods'
p33
g3
((lp34
S"(13, u'\\\\bagonist')"
p35
aS"(15, u'\\\\b8ohdpat')"
p36
aS"(20, u'\\\\bondansetron')"
p37
aS"(5, u'\\\\bmk801')"
p38
aS"(51, u'\\\\bway100635')"
p39
atp40
Rp41
sS'regions'
p42
g3
((lp43
S"(12, u'(?i)\\\\b(amygdalas|amygdala)\\\\b')"
p44
atp45
Rp46
sS'year'
p47
V2015
p48
sS'species'
p49
g3
((lp50
S"(4, u'(?i)\\\\b(rats|rat)\\\\b')"
p51
atp52
Rp53
sb.