(ifile_types
ParseObject
p0
(dp1
S'methods'
p2
c__builtin__
set
p3
((lp4
S'Method.ANTAGONIST'
p5
aS'Method.AGONIST'
p6
atp7
Rp8
sS'topics'
p9
g3
((lp10
S"(35, u'\\\\bnocicept')"
p11
atp12
Rp13
sS'receptors'
p14
g3
((lp15
(S'5ht2a'
p16
I885
I891
tp17
a(S'5ht2c'
p18
I1022
I1030
tp19
a(S'5ht2a'
p20
I673
I679
tp21
a(S'5ht2a'
p22
I409
I415
tp23
a(S'5ht2'
p24
I498
I503
tp25
a(S'5ht2'
p26
I58
I63
tp27
a(S'5ht2a'
p28
I1022
I1028
tp29
a(S'5ht2'
p30
I1822
I1827
tp31
a(S'5ht2c'
p32
I885
I893
tp33
a(S'5ht2a'
p34
I1873
I1879
tp35
a(S'5ht2b'
p36
I409
I416
tp37
a(S'5ht2a'
p38
I587
I593
tp39
a(S'5ht2'
p40
I356
I361
tp41
atp42
Rp43
sS'raw_text_methods'
p44
g3
((lp45
S"(13, u'\\\\bagonist')"
p46
aS"(53, u'\\\\bketanserin')"
p47
aS"(9, u'\\\\britanserin')"
p48
aS"(49, u'\\\\bdoi')"
p49
aS"(12, u'\\\\bantagonist')"
p50
atp51
Rp52
sS'regions'
p53
g3
((lp54
tp55
Rp56
sS'year'
p57
V2011
p58
sS'species'
p59
g3
((lp60
S"(4, u'(?i)\\\\b(rats|rat)\\\\b')"
p61
atp62
Rp63
sb.