(ifile_types
ParseObject
p0
(dp1
S'methods'
p2
c__builtin__
set
p3
((lp4
S'Method.ANTAGONIST'
p5
aS'Method.AGONIST'
p6
atp7
Rp8
sS'topics'
p9
g3
((lp10
S"(12, u'\\\\bsleep')"
p11
atp12
Rp13
sS'receptors'
p14
g3
((lp15
(S'5ht2a'
p16
I132
I138
tp17
a(S'5ht2a'
p18
I1124
I1130
tp19
a(S'5ht2a'
p20
I1821
I1827
tp21
a(S'5ht2a'
p22
I748
I754
tp23
a(S'5ht2a'
p24
I1688
I1694
tp25
a(S'5ht2c'
p26
I982
I990
tp27
a(S'5ht2a'
p28
I440
I446
tp29
a(S'5ht2c'
p30
I1124
I1132
tp31
a(S'5ht2a'
p32
I982
I988
tp33
a(S'5ht2a'
p34
I235
I241
tp35
atp36
Rp37
sS'raw_text_methods'
p38
g3
((lp39
S"(13, u'\\\\bagonist')"
p40
aS"(9, u'\\\\britanserin')"
p41
aS"(49, u'\\\\bdoi')"
p42
aS"(12, u'\\\\bantagonist')"
p43
atp44
Rp45
sS'regions'
p46
g3
((lp47
tp48
Rp49
sS'year'
p50
V2000
p51
sS'species'
p52
g3
((lp53
S"(4, u'(?i)\\\\b(rats|rat)\\\\b')"
p54
atp55
Rp56
sb.