(ifile_types
ParseObject
p0
(dp1
S'methods'
p2
c__builtin__
set
p3
((lp4
S'Method.ANTAGONIST'
p5
aS'Method.AGONIST'
p6
atp7
Rp8
sS'topics'
p9
g3
((lp10
S"(6, u'\\\\baggressi')"
p11
aS"(26, u'\\\\bbehav')"
p12
atp13
Rp14
sS'receptors'
p15
g3
((lp16
(S'5ht3'
p17
I1289
I1294
tp18
a(S'5ht1a'
p19
I377
I383
tp20
a(S'5ht1a'
p21
I977
I983
tp22
a(S'5ht2'
p23
I1472
I1477
tp24
a(S'5ht1a'
p25
I1771
I1777
tp26
a(S'5ht1a'
p27
I747
I753
tp28
a(S'5ht2'
p29
I1572
I1577
tp30
a(S'5ht2'
p31
I1253
I1258
tp32
a(S'5ht1'
p33
I653
I658
tp34
a(S'5ht2'
p35
I1174
I1179
tp36
atp37
Rp38
sS'raw_text_methods'
p39
g3
((lp40
S"(53, u'\\\\bketanserin')"
p41
aS"(33, u'\\\\bmcpp')"
p42
aS"(21, u'\\\\bipsapirone')"
p43
aS"(22, u'\\\\bbuspirone')"
p44
aS"(15, u'\\\\b8ohdpat')"
p45
aS"(20, u'\\\\bondansetron')"
p46
aS"(13, u'\\\\bagonist')"
p47
aS"(24, u'\\\\bgepirone')"
p48
aS"(49, u'\\\\bdoi')"
p49
aS"(45, u'\\\\bmetergoline')"
p50
aS"(9, u'\\\\britanserin')"
p51
aS"(40, u'\\\\bclozapine')"
p52
aS"(12, u'\\\\bantagonist')"
p53
atp54
Rp55
sS'regions'
p56
g3
((lp57
tp58
Rp59
sS'year'
p60
V1993
p61
sS'species'
p62
g3
((lp63
S"(1, u'(?i)\\\\b(mice|mouse)\\\\b')"
p64
aS"(5, u'(?i)\\\\b(mices|mice)\\\\b')"
p65
aS"(3, u'(?i)\\\\b(males|male)\\\\b')"
p66
atp67
Rp68
sb.