(ifile_types
ParseObject
p0
(dp1
S'antagonists'
p2
c__builtin__
set
p3
((lp4
tp5
Rp6
sS'methods'
p7
g3
((lp8
S'Method.ANTAGONIST'
p9
atp10
Rp11
sS'topics'
p12
g3
((lp13
S"(15, u'\\\\bschizophreni')"
p14
atp15
Rp16
sS'receptors'
p17
g3
((lp18
S'5ht5'
p19
aS'5ht1a'
p20
aS'5ht2'
p21
aS'5ht5a'
p22
aS'5ht2a'
p23
atp24
Rp25
sS'regions'
p26
g3
((lp27
S"(34, u'(?i)(pon|pons)')"
p28
atp29
Rp30
sS'year'
p31
V1994
p32
sS'agonists'
p33
g3
((lp34
tp35
Rp36
sS'species'
p37
g3
((lp38
S"(6753, u'(?i)(da|das)')"
p39
aS"(5958, u'(?i)(rats|rat)')"
p40
aS"(163, u'(?i)(mice|mouse)')"
p41
aS"(468, u'(?i)(oxen|ox)')"
p42
aS"(1349, u'(?i)(rams|ram)')"
p43
aS"(1055, u'(?i)(men|man)')"
p44
aS"(1054, u'(?i)(homoes|homo)')"
p45
aS"(4979, u'(?i)(cats|cat)')"
p46
aS"(6249, u'(?i)(ants|ant)')"
p47
aS"(1961, u'(?i)(pens|pen)')"
p48
aS"(6391, u'(?i)(asses|ass)')"
p49
atp50
Rp51
sb.