(ifile_types
ParseObject
p0
(dp1
S'antagonists'
p2
c__builtin__
set
p3
((lp4
S"(84, u'\\\\bsarpogrelate')"
p5
atp6
Rp7
sS'methods'
p8
g3
((lp9
S'Method.ANTAGONIST'
p10
atp11
Rp12
sS'topics'
p13
g3
((lp14
S"(31, u'\\\\bobesity')"
p15
aS"(2, u'\\\\bappetite')"
p16
atp17
Rp18
sS'receptors'
p19
g3
((lp20
S'5ht1b'
p21
aS'5ht5'
p22
aS'5ht2c'
p23
aS'5ht2a'
p24
atp25
Rp26
sS'regions'
p27
g3
((lp28
S"(34, u'(?i)(pon|pons)')"
p29
atp30
Rp31
sS'year'
p32
V2006
p33
sS'agonists'
p34
g3
((lp35
S"(14, u'\\\\bamphetamine')"
p36
atp37
Rp38
sS'species'
p39
g3
((lp40
S"(1070, u'(?i)(pets|pet)')"
p41
aS"(5958, u'(?i)(rats|rat)')"
p42
aS"(867, u'(?i)(tits|tit)')"
p43
aS"(4201, u'(?i)(kines|kine)')"
p44
aS"(163, u'(?i)(mice|mouse)')"
p45
aS"(468, u'(?i)(oxen|ox)')"
p46
aS"(2453, u'(?i)(topis|topi)')"
p47
aS"(6249, u'(?i)(ants|ant)')"
p48
aS"(6356, u'(?i)(ais|ai)')"
p49
aS"(6391, u'(?i)(asses|ass)')"
p50
aS"(4520, u'(?i)(agoutis|agouti)')"
p51
atp52
Rp53
sb.