(ifile_types
ParseObject
p0
(dp1
S'methods'
p2
c__builtin__
set
p3
((lp4
tp5
Rp6
sS'topics'
p7
g3
((lp8
S"(31, u'\\\\brespiratory')"
p9
atp10
Rp11
sS'receptors'
p12
g3
((lp13
(S'5ht2c'
p14
I794
I802
tp15
a(S'5ht5'
p16
I794
I803
tp17
a(S'5ht2a'
p18
I794
I800
tp19
a(S'5ht4'
p20
I807
I812
tp21
atp22
Rp23
sS'raw_text_methods'
p24
g3
((lp25
tp26
Rp27
sS'regions'
p28
g3
((lp29
tp30
Rp31
sS'year'
p32
V2009
p33
sS'species'
p34
g3
((lp35
S"(4, u'(?i)\\\\b(rats|rat)\\\\b')"
p36
atp37
Rp38
sb.