(ifile_types
ParseObject
p0
(dp1
S'methods'
p2
c__builtin__
set
p3
((lp4
tp5
Rp6
sS'topics'
p7
g3
((lp8
S"(26, u'\\\\bbehav')"
p9
aS"(9, u'\\\\bstress')"
p10
aS"(4, u'\\\\btreatment')"
p11
atp12
Rp13
sS'receptors'
p14
g3
((lp15
(S'5ht3'
p16
I1053
I1058
tp17
a(S'5ht2'
p18
I1046
I1051
tp19
atp20
Rp21
sS'raw_text_methods'
p22
g3
((lp23
S"(1, u'\\\\bneuroimag')"
p24
aS"(35, u'\\\\badenosine')"
p25
aS"(48, u'\\\\bmdma')"
p26
atp27
Rp28
sS'regions'
p29
g3
((lp30
tp31
Rp32
sS'year'
p33
V2016
p34
sS'species'
p35
g3
((lp36
S"(6, u'(?i)\\\\b(rodents|rodent)\\\\b')"
p37
atp38
Rp39
sb.