(ifile_types
ParseObject
p0
(dp1
S'methods'
p2
c__builtin__
set
p3
((lp4
tp5
Rp6
sS'topics'
p7
g3
((lp8
tp9
Rp10
sS'receptors'
p11
g3
((lp12
(S'5ht1a'
p13
I609
I615
tp14
a(S'5ht1a'
p15
I1011
I1017
tp16
a(S'5ht1a'
p17
I1130
I1136
tp18
a(S'5ht1a'
p19
I245
I251
tp20
a(S'5ht1a'
p21
I944
I950
tp22
a(S'5ht1a'
p23
I767
I773
tp24
a(S'5ht1a'
p25
I1190
I1196
tp26
a(S'5ht1a'
p27
I308
I314
tp28
a(S'5ht1a'
p29
I62
I68
tp30
atp31
Rp32
sS'raw_text_methods'
p33
g3
((lp34
S"(32, u'\\\\blesions')"
p35
atp36
Rp37
sS'regions'
p38
g3
((lp39
S"(19, u'(?i)\\\\b(cortexes|cortex)\\\\b')"
p40
aS"(9, u'(?i)\\\\b(cerebellums|cerebellum)\\\\b')"
p41
atp42
Rp43
sS'year'
p44
V1994
p45
sS'species'
p46
g3
((lp47
S"(4, u'(?i)\\\\b(rats|rat)\\\\b')"
p48
atp49
Rp50
sb.