(ifile_types
ParseObject
p0
(dp1
S'antagonists'
p2
c__builtin__
set
p3
((lp4
S"(53, u'\\\\bketanserin')"
p5
aS"(52, u'\\\\bmetergoline')"
p6
aS"(128, u'\\\\bketanserin')"
p7
aS"(14, u'\\\\bmethiothepin')"
p8
aS"(27, u'\\\\bspiperone')"
p9
aS"(35, u'\\\\bmetergoline')"
p10
atp11
Rp12
sS'methods'
p13
g3
((lp14
S'Method.AGONIST'
p15
atp16
Rp17
sS'topics'
p18
g3
((lp19
tp20
Rp21
sS'receptors'
p22
g3
((lp23
S'5ht1a'
p24
aS'5ht2'
p25
aS'5ht1'
p26
atp27
Rp28
sS'regions'
p29
g3
((lp30
tp31
Rp32
sS'year'
p33
V1995
p34
sS'agonists'
p35
g3
((lp36
S"(24, u'\\\\bbuspirone')"
p37
aS"(50, u'\\\\bipsapirone')"
p38
aS"(155, u'\\\\bmem')"
p39
atp40
Rp41
sS'species'
p42
g3
((lp43
S"(3062, u'(?i)(guineas|guinea)')"
p44
aS"(3812, u'(?i)(studs|stud)')"
p45
aS"(5958, u'(?i)(rats|rat)')"
p46
aS"(6356, u'(?i)(ais|ai)')"
p47
aS"(6391, u'(?i)(asses|ass)')"
p48
aS"(1070, u'(?i)(pets|pet)')"
p49
aS"(468, u'(?i)(oxen|ox)')"
p50
aS"(3404, u'(?i)(titis|titi)')"
p51
aS"(3522, u'(?i)(tetras|tetra)')"
p52
aS"(5537, u'(?i)(hippos|hippo)')"
p53
aS"(6249, u'(?i)(ants|ant)')"
p54
aS"(867, u'(?i)(tits|tit)')"
p55
aS"(6682, u'(?i)(tera|teras)')"
p56
aS"(1055, u'(?i)(men|man)')"
p57
aS"(6753, u'(?i)(da|das)')"
p58
aS"(1961, u'(?i)(pens|pen)')"
p59
aS"(1414, u'(?i)(chars|char)')"
p60
aS"(4480, u'(?i)(guineas|guinea)(-|\\\\s+)?(pigs|pig)')"
p61
aS"(2568, u'(?i)(hens|hen)')"
p62
aS"(4979, u'(?i)(cats|cat)')"
p63
aS"(3051, u'(?i)(pigs|pig)')"
p64
aS"(4964, u'(?i)(serins|serin)')"
p65
atp66
Rp67
sb.