(ifile_types
ParseObject
p0
(dp1
S'methods'
p2
c__builtin__
set
p3
((lp4
S'Method.AGONIST'
p5
atp6
Rp7
sS'topics'
p8
g3
((lp9
S"(4, u'\\\\btreatment')"
p10
atp11
Rp12
sS'receptors'
p13
g3
((lp14
(S'5ht1a'
p15
I57
I68
tp16
a(S'5ht1a'
p17
I586
I592
tp18
a(S'5ht1a'
p19
I421
I427
tp20
a(S'5ht1a'
p21
I296
I302
tp22
a(S'5ht1a'
p23
I671
I677
tp24
a(S'5ht1a'
p25
I1202
I1208
tp26
atp27
Rp28
sS'raw_text_methods'
p29
g3
((lp30
S"(13, u'\\\\bagonist')"
p31
atp32
Rp33
sS'regions'
p34
g3
((lp35
tp36
Rp37
sS'year'
p38
V2008
p39
sS'species'
p40
g3
((lp41
tp42
Rp43
sb.