(ifile_types
ParseObject
p0
(dp1
S'methods'
p2
c__builtin__
set
p3
((lp4
S'Method.ANTAGONIST'
p5
atp6
Rp7
sS'topics'
p8
g3
((lp9
S"(24, u'\\\\banxiolytic')"
p10
aS"(8, u'\\\\banxi')"
p11
atp12
Rp13
sS'receptors'
p14
g3
((lp15
(S'5ht1a'
p16
I693
I699
tp17
a(S'5ht1a'
p18
I296
I302
tp19
a(S'5ht1a'
p20
I1115
I1121
tp21
a(S'5ht1a'
p22
I62
I68
tp23
atp24
Rp25
sS'raw_text_methods'
p26
g3
((lp27
S"(32, u'\\\\blesions')"
p28
aS"(21, u'\\\\bipsapirone')"
p29
aS"(12, u'\\\\bantagonist')"
p30
atp31
Rp32
sS'regions'
p33
g3
((lp34
S"(3, u'(?i)\\\\b(postsynaptics|postsynaptic)\\\\b')"
p35
atp36
Rp37
sS'year'
p38
V1992
p39
sS'species'
p40
g3
((lp41
S"(4, u'(?i)\\\\b(rats|rat)\\\\b')"
p42
atp43
Rp44
sb.