(ifile_types
ParseObject
p0
(dp1
S'methods'
p2
c__builtin__
set
p3
((lp4
S'Method.ANTAGONIST'
p5
atp6
Rp7
sS'topics'
p8
g3
((lp9
S"(26, u'\\\\bbehav')"
p10
aS"(9, u'\\\\bstress')"
p11
aS"(13, u'\\\\bantidepress')"
p12
aS"(33, u'\\\\blocomot')"
p13
aS"(7, u'\\\\bdepressi')"
p14
aS"(4, u'\\\\btreatment')"
p15
atp16
Rp17
sS'receptors'
p18
g3
((lp19
(S'5ht3'
p20
I488
I493
tp21
a(S'5ht3'
p22
I668
I673
tp23
a(S'5ht3'
p24
I64
I69
tp25
atp26
Rp27
sS'raw_text_methods'
p28
g3
((lp29
S"(11, u'\\\\bfluoxetine')"
p30
aS"(12, u'\\\\bantagonist')"
p31
atp32
Rp33
sS'regions'
p34
g3
((lp35
tp36
Rp37
sS'year'
p38
V2014
p39
sS'species'
p40
g3
((lp41
S"(1, u'(?i)\\\\b(mice|mouse)\\\\b')"
p42
aS"(5, u'(?i)\\\\b(mices|mice)\\\\b')"
p43
atp44
Rp45
sb.