(ifile_types
ParseObject
p0
(dp1
S'antagonists'
p2
c__builtin__
set
p3
((lp4
S"(31, u'\\\\bway ?100635')"
p5
aS"(196, u'\\\\bsb ?258719')"
p6
atp7
Rp8
sS'methods'
p9
g3
((lp10
S'Method.STIMULATION'
p11
aS'Method.ANTAGONIST'
p12
aS'Method.AGONIST'
p13
atp14
Rp15
sS'topics'
p16
g3
((lp17
S"(26, u'\\\\bcardiovascular')"
p18
atp19
Rp20
sS'receptors'
p21
g3
((lp22
S'5ht7'
p23
aS'5ht7a'
p24
aS'5ht1a'
p25
atp26
Rp27
sS'regions'
p28
g3
((lp29
tp30
Rp31
sS'year'
p32
V2009
p33
sS'agonists'
p34
g3
((lp35
S"(98, u'\\\\b5 ?carboxamidotryptamine')"
p36
aS"(191, u'\\\\bphenylbiguanide')"
p37
aS"(85, u'\\\\b8 ?oh ?dpat')"
p38
aS"(219, u'\\\\b5 ?ct')"
p39
atp40
Rp41
sS'species'
p42
g3
((lp43
S"(5958, u'(?i)\\\\b(rats|rat)\\\\b')"
p44
atp45
Rp46
sb.