(ifile_types
ParseObject
p0
(dp1
S'methods'
p2
c__builtin__
set
p3
((lp4
S'Method.KNOCKOUT'
p5
atp6
Rp7
sS'topics'
p8
g3
((lp9
S"(8, u'\\\\banxi')"
p10
aS"(26, u'\\\\bbehav')"
p11
aS"(9, u'\\\\bstress')"
p12
atp13
Rp14
sS'receptors'
p15
g3
((lp16
(S'5ht3a'
p17
I132
I138
tp18
a(S'5ht3a'
p19
I201
I207
tp20
a(S'5ht3'
p21
I188
I198
tp22
a(S'5ht3a'
p23
I514
I520
tp24
a(S'5ht3a'
p25
I1742
I1748
tp26
a(S'5ht3a'
p27
I1662
I1668
tp28
a(S'5ht3a'
p29
I1516
I1522
tp30
atp31
Rp32
sS'raw_text_methods'
p33
g3
((lp34
tp35
Rp36
sS'regions'
p37
g3
((lp38
S"(12, u'(?i)\\\\b(amygdalas|amygdala)\\\\b')"
p39
atp40
Rp41
sS'year'
p42
V2004
p43
sS'species'
p44
g3
((lp45
S"(1, u'(?i)\\\\b(mice|mouse)\\\\b')"
p46
aS"(5, u'(?i)\\\\b(mices|mice)\\\\b')"
p47
aS"(3, u'(?i)\\\\b(males|male)\\\\b')"
p48
atp49
Rp50
sb.