(ifile_types
ParseObject
p0
(dp1
S'antagonists'
p2
c__builtin__
set
p3
((lp4
S"(53, u'\\\\bketanserin')"
p5
aS"(130, u'\\\\britanserin')"
p6
aS"(123, u'\\\\bclozapine')"
p7
aS"(56, u'\\\\bclozapine')"
p8
aS"(128, u'\\\\bketanserin')"
p9
aS"(67, u'\\\\bhaloperidol')"
p10
aS"(54, u'\\\\britanserin')"
p11
atp12
Rp13
sS'methods'
p14
g3
((lp15
S'Method.ANTAGONIST'
p16
aS'Method.AGONIST'
p17
atp18
Rp19
sS'topics'
p20
g3
((lp21
tp22
Rp23
sS'receptors'
p24
g3
((lp25
S'5ht1a'
p26
aS'5ht5'
p27
aS'5ht2c'
p28
aS'5ht2a'
p29
atp30
Rp31
sS'regions'
p32
g3
((lp33
tp34
Rp35
sS'year'
p36
V2001
p37
sS'agonists'
p38
g3
((lp39
S"(92, u'\\\\b8 ?oh ?dpat')"
p40
aS"(48, u'\\\\bhaloperidol')"
p41
aS"(27, u'\\\\bclozapine')"
p42
atp43
Rp44
sS'species'
p45
g3
((lp46
S"(2054, u'(?i)(heads|head)')"
p47
aS"(6753, u'(?i)(da|das)')"
p48
aS"(5958, u'(?i)(rats|rat)')"
p49
aS"(6356, u'(?i)(ais|ai)')"
p50
aS"(4201, u'(?i)(kines|kine)')"
p51
aS"(468, u'(?i)(oxen|ox)')"
p52
aS"(1055, u'(?i)(men|man)')"
p53
aS"(6249, u'(?i)(ants|ant)')"
p54
aS"(1349, u'(?i)(rams|ram)')"
p55
aS"(4964, u'(?i)(serins|serin)')"
p56
aS"(3550, u'(?i)(anis|ani)')"
p57
aS"(3522, u'(?i)(tetras|tetra)')"
p58
aS"(1961, u'(?i)(pens|pen)')"
p59
aS"(3812, u'(?i)(studs|stud)')"
p60
aS"(6391, u'(?i)(asses|ass)')"
p61
aS"(5568, u'(?i)(hakes|hake)')"
p62
aS"(5743, u'(?i)(bots|bot)')"
p63
aS"(4979, u'(?i)(cats|cat)')"
p64
atp65
Rp66
sb.