(ifile_types
ParseObject
p0
(dp1
S'methods'
p2
c__builtin__
set
p3
((lp4
tp5
Rp6
sS'topics'
p7
g3
((lp8
tp9
Rp10
sS'receptors'
p11
g3
((lp12
(S'5ht2'
p13
I882
I886
tp14
a(S'5ht2'
p15
I542
I546
tp16
a(S'5ht2'
p17
I1109
I1113
tp18
a(S'5ht2'
p19
I1417
I1421
tp20
a(S'5ht2'
p21
I1323
I1327
tp22
a(S'5ht2a'
p23
I1685
I1690
tp24
a(S'5ht2'
p25
I1542
I1546
tp26
a(S'5ht2'
p27
I1161
I1165
tp28
a(S'5ht2'
p29
I1428
I1432
tp30
a(S'5ht2'
p31
I429
I433
tp32
atp33
Rp34
sS'raw_text_methods'
p35
g3
((lp36
S"(2, u'\\\\blabeling')"
p37
aS"(3, u'\\\\bimmunoreactiv')"
p38
atp39
Rp40
sS'regions'
p41
g3
((lp42
S"(17, u'(?i)\\\\b(caudates|caudate)\\\\b')"
p43
aS"(18, u'(?i)\\\\b(putamens|putamen)\\\\b')"
p44
atp45
Rp46
sS'year'
p47
V1999
p48
sS'species'
p49
g3
((lp50
S"(4, u'(?i)\\\\b(rats|rat)\\\\b')"
p51
atp52
Rp53
sb.