(ifile_types
ParseObject
p0
(dp1
S'methods'
p2
c__builtin__
set
p3
((lp4
S'Method.ANTAGONIST'
p5
aS'Method.AGONIST'
p6
atp7
Rp8
sS'topics'
p9
g3
((lp10
tp11
Rp12
sS'receptors'
p13
g3
((lp14
(S'5ht1d'
p15
I1530
I1536
tp16
a(S'5ht1b'
p17
I726
I732
tp18
a(S'5ht1b'
p19
I44
I50
tp20
a(S'5ht1b'
p21
I1351
I1357
tp22
a(S'5ht1a'
p23
I1690
I1696
tp24
a(S'5ht1b'
p25
I341
I347
tp26
a(S'5ht1d'
p27
I739
I745
tp28
a(S'5ht1b'
p29
I670
I676
tp30
a(S'5ht1b'
p31
I236
I242
tp32
a(S'5ht1d'
p33
I1622
I1628
tp34
a(S'5ht1d'
p35
I1839
I1845
tp36
atp37
Rp38
sS'raw_text_methods'
p39
g3
((lp40
S"(13, u'\\\\bagonist')"
p41
aS"(12, u'\\\\bantagonist')"
p42
atp43
Rp44
sS'regions'
p45
g3
((lp46
S"(19, u'(?i)\\\\b(cortexes|cortex)\\\\b')"
p47
atp48
Rp49
sS'year'
p50
V1997
p51
sS'species'
p52
g3
((lp53
S"(7, u'(?i)\\\\b(guineas|guinea)(-|\\\\s+)?(pigs|pig)\\\\b')"
p54
atp55
Rp56
sb.