(ifile_types
ParseObject
p0
(dp1
S'methods'
p2
c__builtin__
set
p3
((lp4
tp5
Rp6
sS'topics'
p7
g3
((lp8
S"(1, u'\\\\bpatient')"
p9
atp10
Rp11
sS'receptors'
p12
g3
((lp13
(S'5ht1a'
p14
I745
I751
tp15
a(S'5ht1a'
p16
I1260
I1266
tp17
a(S'5ht1a'
p18
I1637
I1643
tp19
a(S'5ht1a'
p20
I60
I66
tp21
a(S'5ht1a'
p22
I472
I478
tp23
a(S'5ht1a'
p24
I1442
I1448
tp25
a(S'5ht1a'
p26
I1309
I1315
tp27
atp28
Rp29
sS'raw_text_methods'
p30
g3
((lp31
S"(15, u'\\\\b8ohdpat')"
p32
aS"(11, u'\\\\bfluoxetine')"
p33
aS"(54, u'\\\\bautoradiography')"
p34
atp35
Rp36
sS'regions'
p37
g3
((lp38
S"(19, u'(?i)\\\\b(cortexes|cortex)\\\\b')"
p39
aS"(4, u'(?i)\\\\b(presynaptics|presynaptic)\\\\b')"
p40
aS"(3, u'(?i)\\\\b(postsynaptics|postsynaptic)\\\\b')"
p41
aS"(7, u'(?i)\\\\b(entorhinals|entorhinal)\\\\b')"
p42
atp43
Rp44
sS'year'
p45
V1999
p46
sS'species'
p47
g3
((lp48
S"(7, u'(?i)\\\\b(guineas|guinea)(-|\\\\s+)?(pigs|pig)\\\\b')"
p49
aS"(6, u'(?i)\\\\b(rodents|rodent)\\\\b')"
p50
aS"(8, u'(?i)\\\\b(primates|primate)\\\\b')"
p51
aS"(4, u'(?i)\\\\b(rats|rat)\\\\b')"
p52
atp53
Rp54
sb.