(ifile_types
ParseObject
p0
(dp1
S'methods'
p2
c__builtin__
set
p3
((lp4
tp5
Rp6
sS'topics'
p7
g3
((lp8
tp9
Rp10
sS'receptors'
p11
g3
((lp12
(S'5ht1a'
p13
I2081
I2086
tp14
a(S'5ht1a'
p15
I1196
I1201
tp16
a(S'5ht1a'
p17
I1890
I1895
tp18
a(S'5ht1a'
p19
I1421
I1426
tp20
a(S'5ht1a'
p21
I558
I563
tp22
atp23
Rp24
sS'raw_text_methods'
p25
g3
((lp26
tp27
Rp28
sS'regions'
p29
g3
((lp30
tp31
Rp32
sS'year'
p33
V2011
p34
sS'species'
p35
g3
((lp36
S"(2, u'(?i)\\\\b(females|female)\\\\b')"
p37
atp38
Rp39
sb.