(ifile_types
ParseObject
p0
(dp1
S'antagonists'
p2
c__builtin__
set
p3
((lp4
S"(54, u'\\\\britanserin')"
p5
aS"(102, u'\\\\bfluoxetine')"
p6
aS"(135, u'\\\\bondansetron')"
p7
aS"(130, u'\\\\britanserin')"
p8
atp9
Rp10
sS'methods'
p11
g3
((lp12
S'Method.ANTAGONIST'
p13
aS'Method.AGONIST'
p14
atp15
Rp16
sS'topics'
p17
g3
((lp18
S"(9, u'\\\\bdepress')"
p19
aS"(10, u'\\\\banxiety')"
p20
atp21
Rp22
sS'receptors'
p23
g3
((lp24
S'5ht1a'
p25
aS'5ht3a'
p26
aS'5ht2a'
p27
atp28
Rp29
sS'regions'
p30
g3
((lp31
tp32
Rp33
sS'year'
p34
V1994
p35
sS'agonists'
p36
g3
((lp37
S"(161, u'\\\\bmcpp')"
p38
aS"(24, u'\\\\bbuspirone')"
p39
atp40
Rp41
sS'species'
p42
g3
((lp43
S"(2323, u'(?i)(bees|bee)')"
p44
aS"(4624, u'(?i)(apes|ape)')"
p45
aS"(6753, u'(?i)(da|das)')"
p46
aS"(949, u'(?i)(cohoes|coho)')"
p47
aS"(2933, u'(?i)(sires|sire)')"
p48
aS"(5958, u'(?i)(rats|rat)')"
p49
aS"(4979, u'(?i)(cats|cat)')"
p50
aS"(4163, u'(?i)(ermines|ermine)')"
p51
aS"(1961, u'(?i)(pens|pen)')"
p52
aS"(468, u'(?i)(oxen|ox)')"
p53
aS"(1349, u'(?i)(rams|ram)')"
p54
aS"(6249, u'(?i)(ants|ant)')"
p55
aS"(1055, u'(?i)(men|man)')"
p56
aS"(4964, u'(?i)(serins|serin)')"
p57
aS"(3550, u'(?i)(anis|ani)')"
p58
aS"(1057, u'(?i)(humans|human)')"
p59
aS"(1291, u'(?i)(ratels|ratel)')"
p60
aS"(3812, u'(?i)(studs|stud)')"
p61
aS"(3196, u'(?i)(human|humans)')"
p62
aS"(6356, u'(?i)(ais|ai)')"
p63
atp64
Rp65
sb.