(ifile_types
ParseObject
p0
(dp1
S'antagonists'
p2
c__builtin__
set
p3
((lp4
S"(123, u'\\\\bclozapine')"
p5
aS"(56, u'\\\\bclozapine')"
p6
aS"(67, u'\\\\bhaloperidol')"
p7
aS"(132, u'\\\\bsb ?243213')"
p8
aS"(110, u'\\\\bsb ?242084')"
p9
aS"(95, u'\\\\bsb ?206553')"
p10
atp11
Rp12
sS'methods'
p13
g3
((lp14
S'Method.ANTAGONIST'
p15
aS'Method.AGONIST'
p16
atp17
Rp18
sS'topics'
p19
g3
((lp20
tp21
Rp22
sS'receptors'
p23
g3
((lp24
S'5ht2c'
p25
atp26
Rp27
sS'regions'
p28
g3
((lp29
S"(220, u'(?i)(striatums|striatum)')"
p30
aS"(226, u'(?i)(nuclei|nucleus)(-|\\\\s+)?(accumben|accumbens)')"
p31
atp32
Rp33
sS'year'
p34
V2006
p35
sS'agonists'
p36
g3
((lp37
S"(48, u'\\\\bhaloperidol')"
p38
aS"(27, u'\\\\bclozapine')"
p39
atp40
Rp41
sS'species'
p42
g3
((lp43
S"(5958, u'(?i)(rats|rat)')"
p44
aS"(867, u'(?i)(tits|tit)')"
p45
aS"(6753, u'(?i)(da|das)')"
p46
aS"(1055, u'(?i)(men|man)')"
p47
aS"(6249, u'(?i)(ants|ant)')"
p48
aS"(5743, u'(?i)(bots|bot)')"
p49
aS"(3550, u'(?i)(anis|ani)')"
p50
aS"(1961, u'(?i)(pens|pen)')"
p51
aS"(6356, u'(?i)(ais|ai)')"
p52
aS"(6391, u'(?i)(asses|ass)')"
p53
atp54
Rp55
sb.