(ifile_types
ParseObject
p0
(dp1
S'methods'
p2
c__builtin__
set
p3
((lp4
S'Method.AGONIST'
p5
atp6
Rp7
sS'topics'
p8
g3
((lp9
S"(14, u'\\\\bcogniti')"
p10
aS"(26, u'\\\\bbehav')"
p11
aS"(33, u'\\\\blocomot')"
p12
aS"(5, u'\\\\btherap')"
p13
aS"(8, u'\\\\banxi')"
p14
aS"(1, u'\\\\bpatient')"
p15
aS"(4, u'\\\\btreatment')"
p16
atp17
Rp18
sS'receptors'
p19
g3
((lp20
(S'5ht1a'
p21
I45
I51
tp22
a(S'5ht1a'
p23
I484
I490
tp24
a(S'5ht5'
p25
I297
I307
tp26
a(S'5ht1a'
p27
I2380
I2386
tp28
a(S'5ht1a'
p29
I332
I338
tp30
atp31
Rp32
sS'raw_text_methods'
p33
g3
((lp34
S"(13, u'\\\\bagonist')"
p35
aS"(39, u'\\\\bselective serotonin reuptake inhibitor')"
p36
atp37
Rp38
sS'regions'
p39
g3
((lp40
S"(20, u'(?i)\\\\b(prefrontals|prefrontal)\\\\b')"
p41
aS"(19, u'(?i)\\\\b(cortexes|cortex)\\\\b')"
p42
aS"(3, u'(?i)\\\\b(postsynaptics|postsynaptic)\\\\b')"
p43
atp44
Rp45
sS'year'
p46
V2020
p47
sS'species'
p48
g3
((lp49
S"(1, u'(?i)\\\\b(mice|mouse)\\\\b')"
p50
aS"(6, u'(?i)\\\\b(rodents|rodent)\\\\b')"
p51
aS"(5, u'(?i)\\\\b(mices|mice)\\\\b')"
p52
atp53
Rp54
sb.