(ifile_types
ParseObject
p0
(dp1
S'methods'
p2
c__builtin__
set
p3
((lp4
S'Method.AGONIST'
p5
atp6
Rp7
sS'topics'
p8
g3
((lp9
S"(12, u'\\\\bsleep')"
p10
aS"(7, u'\\\\bdepressi')"
p11
atp12
Rp13
sS'receptors'
p14
g3
((lp15
(S'5ht1a'
p16
I1044
I1050
tp17
a(S'5ht1a'
p18
I324
I330
tp19
atp20
Rp21
sS'raw_text_methods'
p22
g3
((lp23
S"(13, u'\\\\bagonist')"
p24
aS"(22, u'\\\\bbuspirone')"
p25
atp26
Rp27
sS'regions'
p28
g3
((lp29
S"(4, u'(?i)\\\\b(presynaptics|presynaptic)\\\\b')"
p30
atp31
Rp32
sS'year'
p33
V2000
p34
sS'species'
p35
g3
((lp36
tp37
Rp38
sb.