(ifile_types
ParseObject
p0
(dp1
S'methods'
p2
c__builtin__
set
p3
((lp4
S'Method.ANTAGONIST'
p5
aS'Method.AGONIST'
p6
atp7
Rp8
sS'topics'
p9
g3
((lp10
S"(14, u'\\\\bcogniti')"
p11
aS"(3, u'\\\\bclinical')"
p12
aS"(26, u'\\\\bbehav')"
p13
aS"(4, u'\\\\btreatment')"
p14
aS"(2, u'\\\\bdisorder')"
p15
atp16
Rp17
sS'receptors'
p18
g3
((lp19
(S'5ht2'
p20
I1329
I1334
tp21
a(S'5ht1a'
p22
I1150
I1156
tp23
atp24
Rp25
sS'raw_text_methods'
p26
g3
((lp27
S"(13, u'\\\\bagonist')"
p28
aS"(9, u'\\\\britanserin')"
p29
aS"(22, u'\\\\bbuspirone')"
p30
aS"(12, u'\\\\bantagonist')"
p31
aS"(11, u'\\\\bfluoxetine')"
p32
atp33
Rp34
sS'regions'
p35
g3
((lp36
S"(8, u'(?i)\\\\b(centrals|central)(-|\\\\s+)?(nervouses|nervous)(-|\\\\s+)?(systems|system)\\\\b')"
p37
atp38
Rp39
sS'year'
p40
V1991
p41
sS'species'
p42
g3
((lp43
tp44
Rp45
sb.