(ifile_types
ParseObject
p0
(dp1
S'antagonists'
p2
c__builtin__
set
p3
((lp4
S"(156, u'\\\\brs ?39604')"
p5
atp6
Rp7
sS'methods'
p8
g3
((lp9
S'Method.ANTAGONIST'
p10
aS'Method.AGONIST'
p11
atp12
Rp13
sS'topics'
p14
g3
((lp15
S"(6, u'\\\\bcognit')"
p16
aS"(7, u'\\\\bmemory')"
p17
atp18
Rp19
sS'receptors'
p20
g3
((lp21
S'5ht4a'
p22
aS'5ht5'
p23
aS'5ht4'
p24
atp25
Rp26
sS'regions'
p27
g3
((lp28
S"(234, u'(?i)(nuclei|nucleus)(-|\\\\s+)?(basali|basalis)')"
p29
aS"(34, u'(?i)(pon|pons)')"
p30
atp31
Rp32
sS'year'
p33
V2003
p34
sS'agonists'
p35
g3
((lp36
S"(155, u'\\\\bmem')"
p37
aS"(209, u'\\\\brs ?67333')"
p38
atp39
Rp40
sS'species'
p41
g3
((lp42
S"(6753, u'(?i)(da|das)')"
p43
aS"(5958, u'(?i)(rats|rat)')"
p44
aS"(4979, u'(?i)(cats|cat)')"
p45
aS"(2389, u'(?i)(spats|spat)')"
p46
aS"(1055, u'(?i)(men|man)')"
p47
aS"(7094, u'(?i)(curs|cur)')"
p48
aS"(853, u'(?i)(minas|mina)')"
p49
aS"(6249, u'(?i)(ants|ant)')"
p50
aS"(3812, u'(?i)(studs|stud)')"
p51
aS"(2809, u'(?i)(toms|tom)')"
p52
atp53
Rp54
sb.