(ifile_types
ParseObject
p0
(dp1
S'antagonists'
p2
c__builtin__
set
p3
((lp4
S"(53, u'\\\\bketanserin')"
p5
aS"(67, u'\\\\bhaloperidol')"
p6
aS"(128, u'\\\\bketanserin')"
p7
aS"(139, u'\\\\bmetoclopramide')"
p8
atp9
Rp10
sS'methods'
p11
g3
((lp12
S'Method.ANTAGONIST'
p13
atp14
Rp15
sS'topics'
p16
g3
((lp17
S"(9, u'\\\\bdepress')"
p18
aS"(35, u'\\\\bstress')"
p19
atp20
Rp21
sS'receptors'
p22
g3
((lp23
S'5ht3a'
p24
aS'5ht1a'
p25
aS'5ht3'
p26
aS'5ht2'
p27
aS'5ht3b'
p28
atp29
Rp30
sS'regions'
p31
g3
((lp32
S"(34, u'(?i)(pon|pons)')"
p33
atp34
Rp35
sS'year'
p36
V1994
p37
sS'agonists'
p38
g3
((lp39
S"(48, u'\\\\bhaloperidol')"
p40
aS"(214, u'\\\\bsulpiride')"
p41
aS"(213, u'\\\\bmetoclopramide')"
p42
atp43
Rp44
sS'species'
p45
g3
((lp46
S"(4624, u'(?i)(apes|ape)')"
p47
aS"(6753, u'(?i)(da|das)')"
p48
aS"(2568, u'(?i)(hens|hen)')"
p49
aS"(5958, u'(?i)(rats|rat)')"
p50
aS"(163, u'(?i)(mice|mouse)')"
p51
aS"(468, u'(?i)(oxen|ox)')"
p52
aS"(1349, u'(?i)(rams|ram)')"
p53
aS"(6249, u'(?i)(ants|ant)')"
p54
aS"(1055, u'(?i)(men|man)')"
p55
aS"(4964, u'(?i)(serins|serin)')"
p56
aS"(3550, u'(?i)(anis|ani)')"
p57
aS"(3522, u'(?i)(tetras|tetra)')"
p58
aS"(1961, u'(?i)(pens|pen)')"
p59
aS"(6356, u'(?i)(ais|ai)')"
p60
aS"(2809, u'(?i)(toms|tom)')"
p61
aS"(4979, u'(?i)(cats|cat)')"
p62
atp63
Rp64
sb.