(ifile_types
ParseObject
p0
(dp1
S'methods'
p2
c__builtin__
set
p3
((lp4
tp5
Rp6
sS'topics'
p7
g3
((lp8
tp9
Rp10
sS'receptors'
p11
g3
((lp12
(S'5ht7'
p13
I584
I589
tp14
a(S'5ht7'
p15
I911
I916
tp16
a(S'5ht7'
p17
I98
I103
tp18
a(S'5ht2'
p19
I633
I638
tp20
a(S'5ht7'
p21
I1141
I1146
tp22
a(S'5ht7'
p23
I1391
I1396
tp24
a(S'5ht2'
p25
I1127
I1132
tp26
a(S'5ht7'
p27
I645
I650
tp28
a(S'5ht2'
p29
I574
I579
tp30
a(S'5ht7'
p31
I1468
I1473
tp32
a(S'5ht5'
p33
I292
I302
tp34
a(S'5ht2'
p35
I87
I92
tp36
a(S'5ht2'
p37
I1318
I1323
tp38
a(S'5ht2'
p39
I788
I793
tp40
atp41
Rp42
sS'raw_text_methods'
p43
g3
((lp44
S"(40, u'\\\\bclozapine')"
p45
aS"(35, u'\\\\badenosine')"
p46
atp47
Rp48
sS'regions'
p49
g3
((lp50
tp51
Rp52
sS'year'
p53
V2012
p54
sS'species'
p55
g3
((lp56
tp57
Rp58
sb.