(ifile_types
ParseObject
p0
(dp1
S'antagonists'
p2
c__builtin__
set
p3
((lp4
S"(34, u'\\\\byohimbine')"
p5
atp6
Rp7
sS'methods'
p8
g3
((lp9
S'Method.ANTAGONIST'
p10
aS'Method.AGONIST'
p11
atp12
Rp13
sS'topics'
p14
g3
((lp15
tp16
Rp17
sS'receptors'
p18
g3
((lp19
S'5ht1a'
p20
atp21
Rp22
sS'regions'
p23
g3
((lp24
S"(34, u'(?i)(pon|pons)')"
p25
atp26
Rp27
sS'year'
p28
V2008
p29
sS'agonists'
p30
g3
((lp31
S"(72, u'\\\\brauwolscine')"
p32
aS"(89, u'\\\\byohimbine')"
p33
aS"(155, u'\\\\bmem')"
p34
atp35
Rp36
sS'species'
p37
g3
((lp38
S"(2323, u'(?i)(bees|bee)')"
p39
aS"(6753, u'(?i)(da|das)')"
p40
aS"(5958, u'(?i)(rats|rat)')"
p41
aS"(3601, u'(?i)(efts|eft)')"
p42
aS"(5176, u'(?i)(tegs|teg)')"
p43
aS"(6682, u'(?i)(tera|teras)')"
p44
aS"(7552, u'(?i)(bats|bat)')"
p45
aS"(468, u'(?i)(oxen|ox)')"
p46
aS"(1055, u'(?i)(men|man)')"
p47
aS"(7094, u'(?i)(curs|cur)')"
p48
aS"(7488, u'(?i)(molas|mola)')"
p49
aS"(4979, u'(?i)(cats|cat)')"
p50
aS"(5838, u'(?i)(cubs|cub)')"
p51
aS"(6249, u'(?i)(ants|ant)')"
p52
aS"(7170, u'(?i)(toys|toy)')"
p53
aS"(1961, u'(?i)(pens|pen)')"
p54
aS"(1414, u'(?i)(chars|char)')"
p55
aS"(6391, u'(?i)(asses|ass)')"
p56
aS"(6878, u'(?i)(guans|guan)')"
p57
aS"(5949, u'(?i)(dogs|dog)')"
p58
atp59
Rp60
sb.