(ifile_types
ParseObject
p0
(dp1
S'antagonists'
p2
c__builtin__
set
p3
((lp4
S"(40, u'\\\\bergotamine')"
p5
atp6
Rp7
sS'methods'
p8
g3
((lp9
tp10
Rp11
sS'topics'
p12
g3
((lp13
tp14
Rp15
sS'receptors'
p16
g3
((lp17
S'5ht2c'
p18
aS'5ht2a'
p19
atp20
Rp21
sS'regions'
p22
g3
((lp23
tp24
Rp25
sS'year'
p26
V1996
p27
sS'agonists'
p28
g3
((lp29
S"(158, u'\\\\blsd')"
p30
aS"(50, u'\\\\bmescaline')"
p31
aS"(33, u'\\\\bergotamine')"
p32
aS"(192, u'\\\\bquipazine')"
p33
aS"(175, u'\\\\bdoi')"
p34
atp35
Rp36
sS'species'
p37
g3
((lp38
S"(1057, u'(?i)\\\\b(humans|human)\\\\b')"
p39
aS"(3196, u'(?i)\\\\b(human|humans)\\\\b')"
p40
atp41
Rp42
sb.