(ifile_types
ParseObject
p0
(dp1
S'methods'
p2
c__builtin__
set
p3
((lp4
S'Method.ANTAGONIST'
p5
aS'Method.AGONIST'
p6
atp7
Rp8
sS'topics'
p9
g3
((lp10
S"(18, u'\\\\bavoidan')"
p11
aS"(8, u'\\\\banxi')"
p12
aS"(24, u'\\\\banxiolytic')"
p13
aS"(13, u'\\\\bantidepress')"
p14
aS"(26, u'\\\\bbehav')"
p15
atp16
Rp17
sS'receptors'
p18
g3
((lp19
(S'5ht2c'
p20
I41
I47
tp21
a(S'5ht2c'
p22
I209
I215
tp23
a(S'5ht2'
p24
I849
I854
tp25
a(S'5ht2'
p26
I689
I694
tp27
a(S'5ht2'
p28
I1654
I1659
tp29
a(S'5ht2'
p30
I1099
I1104
tp31
a(S'5ht2'
p32
I227
I232
tp33
a(S'5ht2'
p34
I451
I456
tp35
atp36
Rp37
sS'raw_text_methods'
p38
g3
((lp39
S"(13, u'\\\\bagonist')"
p40
aS"(33, u'\\\\bmcpp')"
p41
aS"(52, u'\\\\bmk212')"
p42
aS"(12, u'\\\\bantagonist')"
p43
atp44
Rp45
sS'regions'
p46
g3
((lp47
tp48
Rp49
sS'year'
p50
V2019
p51
sS'species'
p52
g3
((lp53
S"(3, u'(?i)\\\\b(males|male)\\\\b')"
p54
aS"(4, u'(?i)\\\\b(rats|rat)\\\\b')"
p55
atp56
Rp57
sb.