(ifile_types
ParseObject
p0
(dp1
S'methods'
p2
c__builtin__
set
p3
((lp4
S'Method.ANTAGONIST'
p5
aS'Method.AGONIST'
p6
atp7
Rp8
sS'topics'
p9
g3
((lp10
S"(33, u'\\\\blocomot')"
p11
aS"(26, u'\\\\bbehav')"
p12
aS"(13, u'\\\\bantidepress')"
p13
aS"(9, u'\\\\bstress')"
p14
atp15
Rp16
sS'receptors'
p17
g3
((lp18
(S'5ht1a'
p19
I963
I969
tp20
a(S'5ht1a'
p21
I1338
I1344
tp22
a(S'5ht1a'
p23
I149
I155
tp24
a(S'5ht1a'
p25
I1082
I1088
tp26
a(S'5ht1a'
p27
I446
I452
tp28
a(S'5ht1a'
p29
I1954
I1960
tp30
atp31
Rp32
sS'raw_text_methods'
p33
g3
((lp34
S"(13, u'\\\\bagonist')"
p35
aS"(15, u'\\\\b8ohdpat')"
p36
aS"(51, u'\\\\bway100635')"
p37
aS"(12, u'\\\\bantagonist')"
p38
atp39
Rp40
sS'regions'
p41
g3
((lp42
S"(20, u'(?i)\\\\b(prefrontals|prefrontal)\\\\b')"
p43
aS"(19, u'(?i)\\\\b(cortexes|cortex)\\\\b')"
p44
atp45
Rp46
sS'year'
p47
V2016
p48
sS'species'
p49
g3
((lp50
S"(4, u'(?i)\\\\b(rats|rat)\\\\b')"
p51
atp52
Rp53
sb.