(ifile_types
ParseObject
p0
(dp1
S'methods'
p2
c__builtin__
set
p3
((lp4
S'Method.ANTAGONIST'
p5
atp6
Rp7
sS'topics'
p8
g3
((lp9
S"(26, u'\\\\bbehav')"
p10
aS"(23, u'\\\\bantipsychotic')"
p11
atp12
Rp13
sS'receptors'
p14
g3
((lp15
(S'5ht2a'
p16
I526
I532
tp17
a(S'5ht2a'
p18
I1683
I1689
tp19
a(S'5ht2a'
p20
I1628
I1634
tp21
a(S'5ht5'
p22
I471
I481
tp23
a(S'5ht2a'
p24
I1208
I1214
tp25
a(S'5ht2a'
p26
I735
I741
tp27
atp28
Rp29
sS'raw_text_methods'
p30
g3
((lp31
S"(3, u'\\\\bimmunoreactiv')"
p32
aS"(12, u'\\\\bantagonist')"
p33
atp34
Rp35
sS'regions'
p36
g3
((lp37
tp38
Rp39
sS'year'
p40
V2000
p41
sS'species'
p42
g3
((lp43
S"(4, u'(?i)\\\\b(rats|rat)\\\\b')"
p44
atp45
Rp46
sb.