(ifile_types
ParseObject
p0
(dp1
S'methods'
p2
c__builtin__
set
p3
((lp4
S'Method.AGONIST'
p5
aS'Method.IMMUNOHISTOCHEMISTRY'
p6
aS'Method.ANTAGONIST'
p7
atp8
Rp9
sS'topics'
p10
g3
((lp11
tp12
Rp13
sS'receptors'
p14
g3
((lp15
(S'5ht4'
p16
I625
I630
tp17
a(S'5ht2b'
p18
I1244
I1250
tp19
a(S'5ht2b'
p20
I788
I794
tp21
a(S'5ht2c'
p22
I1010
I1016
tp23
a(S'5ht2b'
p24
I239
I245
tp25
a(S'5ht2b'
p26
I1405
I1411
tp27
a(S'5ht2'
p28
I1059
I1064
tp29
a(S'5ht2b'
p30
I343
I349
tp31
a(S'5ht2a'
p32
I1003
I1009
tp33
a(S'5ht2b'
p34
I597
I603
tp35
atp36
Rp37
sS'raw_text_methods'
p38
g3
((lp39
S"(13, u'\\\\bagonist')"
p40
aS"(12, u'\\\\bantagonist')"
p41
atp42
Rp43
sS'regions'
p44
g3
((lp45
S"(11, u'(?i)\\\\b(cerebrals|cerebral)\\\\b')"
p46
aS"(19, u'(?i)\\\\b(cortexes|cortex)\\\\b')"
p47
atp48
Rp49
sS'year'
p50
V2000
p51
sS'species'
p52
g3
((lp53
S"(4, u'(?i)\\\\b(rats|rat)\\\\b')"
p54
atp55
Rp56
sb.