(ifile_types
ParseObject
p0
(dp1
S'antagonists'
p2
c__builtin__
set
p3
((lp4
S"(45, u'\\\\bgr ?127935')"
p5
atp6
Rp7
sS'methods'
p8
g3
((lp9
S'Method.ANTAGONIST'
p10
aS'Method.AGONIST'
p11
atp12
Rp13
sS'topics'
p14
g3
((lp15
S"(7, u'\\\\bmemory')"
p16
aS"(4, u'\\\\blocomot')"
p17
atp18
Rp19
sS'receptors'
p20
g3
((lp21
S'5ht1b'
p22
aS'5ht2b'
p23
aS'5ht2c'
p24
aS'5ht2a'
p25
aS'5ht1d'
p26
aS'5ht2'
p27
atp28
Rp29
sS'regions'
p30
g3
((lp31
tp32
Rp33
sS'year'
p34
V2014
p35
sS'agonists'
p36
g3
((lp37
S"(108, u'\\\\bcp ?94253')"
p38
aS"(155, u'\\\\bmem')"
p39
atp40
Rp41
sS'species'
p42
g3
((lp43
S"(5537, u'(?i)(hippos|hippo)')"
p44
aS"(6753, u'(?i)(da|das)')"
p45
aS"(5958, u'(?i)(rats|rat)')"
p46
aS"(163, u'(?i)(mice|mouse)')"
p47
aS"(4091, u'(?i)(adults|adult)')"
p48
aS"(5967, u'(?i)(males|male)')"
p49
aS"(1055, u'(?i)(men|man)')"
p50
aS"(6249, u'(?i)(ants|ant)')"
p51
aS"(4979, u'(?i)(cats|cat)')"
p52
aS"(3550, u'(?i)(anis|ani)')"
p53
aS"(3812, u'(?i)(studs|stud)')"
p54
aS"(6391, u'(?i)(asses|ass)')"
p55
aS"(6356, u'(?i)(ais|ai)')"
p56
atp57
Rp58
sb.