(ifile_types
ParseObject
p0
(dp1
S'methods'
p2
c__builtin__
set
p3
((lp4
S'Method.PET'
p5
atp6
Rp7
sS'topics'
p8
g3
((lp9
S"(1, u'\\\\bpatient')"
p10
aS"(7, u'\\\\bdepressi')"
p11
aS"(4, u'\\\\btreatment')"
p12
atp13
Rp14
sS'receptors'
p15
g3
((lp16
(S'5ht1a'
p17
I1575
I1581
tp18
a(S'5ht1a'
p19
I84
I95
tp20
a(S'5ht1a'
p21
I1320
I1326
tp22
a(S'5ht1a'
p23
I539
I545
tp24
a(S'5ht1a'
p25
I1218
I1224
tp26
a(S'5ht1a'
p27
I325
I336
tp28
a(S'5ht1a'
p29
I1374
I1380
tp30
a(S'5ht1a'
p31
I792
I803
tp32
atp33
Rp34
sS'raw_text_methods'
p35
g3
((lp36
S"(51, u'\\\\bway100635')"
p37
aS"(19, u'\\\\bpositron emission tomography')"
p38
atp39
Rp40
sS'regions'
p41
g3
((lp42
tp43
Rp44
sS'year'
p45
V2003
p46
sS'species'
p47
g3
((lp48
S"(2, u'(?i)\\\\b(females|female)\\\\b')"
p49
aS"(3, u'(?i)\\\\b(males|male)\\\\b')"
p50
atp51
Rp52
sb.