(ifile_types
ParseObject
p0
(dp1
S'methods'
p2
c__builtin__
set
p3
((lp4
S'Method.STIMULATION'
p5
atp6
Rp7
sS'topics'
p8
g3
((lp9
S"(22, u'\\\\bschizophreni')"
p10
aS"(1, u'\\\\bpatient')"
p11
aS"(7, u'\\\\bdepressi')"
p12
aS"(2, u'\\\\bdisorder')"
p13
atp14
Rp15
sS'receptors'
p16
g3
((lp17
(S'5ht1'
p18
I1277
I1282
tp19
a(S'5ht2'
p20
I1625
I1630
tp21
a(S'5ht1'
p22
I793
I798
tp23
a(S'5ht2'
p24
I808
I813
tp25
a(S'5ht2'
p26
I1166
I1171
tp27
a(S'5ht2'
p28
I1146
I1151
tp29
a(S'5ht1'
p30
I1640
I1645
tp31
a(S'5ht2a'
p32
I691
I697
tp33
a(S'5ht1a'
p34
I136
I142
tp35
a(S'5ht2'
p36
I1342
I1347
tp37
a(S'5ht2a'
p38
I147
I153
tp39
a(S'5ht2'
p40
I1534
I1539
tp41
a(S'5ht2'
p42
I711
I716
tp43
a(S'5ht2'
p44
I1292
I1297
tp45
a(S'5ht2'
p46
I828
I833
tp47
a(S'5ht1'
p48
I1101
I1106
tp49
atp50
Rp51
sS'raw_text_methods'
p52
g3
((lp53
tp54
Rp55
sS'regions'
p56
g3
((lp57
S"(20, u'(?i)\\\\b(prefrontals|prefrontal)\\\\b')"
p58
aS"(19, u'(?i)\\\\b(cortexes|cortex)\\\\b')"
p59
aS"(16, u'(?i)\\\\b(drns|drn)\\\\b')"
p60
atp61
Rp62
sS'year'
p63
V2010
p64
sS'species'
p65
g3
((lp66
S"(4, u'(?i)\\\\b(rats|rat)\\\\b')"
p67
atp68
Rp69
sb.