(ifile_types
ParseObject
p0
(dp1
S'antagonists'
p2
c__builtin__
set
p3
((lp4
tp5
Rp6
sS'methods'
p7
g3
((lp8
tp9
Rp10
sS'topics'
p11
g3
((lp12
tp13
Rp14
sS'receptors'
p15
g3
((lp16
S'5ht2d'
p17
aS'5ht5'
p18
aS'5ht2'
p19
aS'5ht2a'
p20
atp21
Rp22
sS'regions'
p23
g3
((lp24
tp25
Rp26
sS'year'
p27
V2002
p28
sS'agonists'
p29
g3
((lp30
tp31
Rp32
sS'species'
p33
g3
((lp34
S"(2568, u'(?i)(hens|hen)')"
p35
aS"(5958, u'(?i)(rats|rat)')"
p36
aS"(6753, u'(?i)(da|das)')"
p37
aS"(479, u'(?i)(lings|ling)')"
p38
aS"(468, u'(?i)(oxen|ox)')"
p39
aS"(1055, u'(?i)(men|man)')"
p40
aS"(6249, u'(?i)(ants|ant)')"
p41
aS"(4979, u'(?i)(cats|cat)')"
p42
aS"(3550, u'(?i)(anis|ani)')"
p43
aS"(6682, u'(?i)(tera|teras)')"
p44
aS"(6356, u'(?i)(ais|ai)')"
p45
atp46
Rp47
sb.