(ifile_types
ParseObject
p0
(dp1
S'methods'
p2
c__builtin__
set
p3
((lp4
S'Method.STIMULATION'
p5
aS'Method.AGONIST'
p6
atp7
Rp8
sS'topics'
p9
g3
((lp10
S"(17, u'\\\\balzheimer')"
p11
aS"(2, u'\\\\bdisorder')"
p12
aS"(32, u'\\\\bvomit')"
p13
aS"(34, u'\\\\bparkinson')"
p14
aS"(5, u'\\\\btherap')"
p15
aS"(1, u'\\\\bpatient')"
p16
aS"(4, u'\\\\btreatment')"
p17
atp18
Rp19
sS'receptors'
p20
g3
((lp21
(S'5ht2b'
p22
I362
I367
tp23
a(S'5ht2'
p24
I362
I367
tp25
a(S'5ht2'
p26
I375
I380
tp27
a(S'5ht2a'
p28
I353
I358
tp29
a(S'5ht2c'
p30
I375
I380
tp31
a(S'5ht1a'
p32
I344
I349
tp33
atp34
Rp35
sS'raw_text_methods'
p36
g3
((lp37
S"(13, u'\\\\bagonist')"
p38
atp39
Rp40
sS'regions'
p41
g3
((lp42
tp43
Rp44
sS'year'
p45
V2012
p46
sS'species'
p47
g3
((lp48
S"(2, u'(?i)\\\\b(females|female)\\\\b')"
p49
aS"(3, u'(?i)\\\\b(males|male)\\\\b')"
p50
atp51
Rp52
sb.