(ifile_types
ParseObject
p0
(dp1
S'antagonists'
p2
c__builtin__
set
p3
((lp4
S"(100, u'\\\\beltoprazine')"
p5
atp6
Rp7
sS'methods'
p8
g3
((lp9
S'Method.AGONIST'
p10
atp11
Rp12
sS'topics'
p13
g3
((lp14
tp15
Rp16
sS'receptors'
p17
g3
((lp18
S'5ht1b'
p19
aS'5ht5'
p20
aS'5ht1a'
p21
atp22
Rp23
sS'regions'
p24
g3
((lp25
S"(220, u'(?i)(striatums|striatum)')"
p26
atp27
Rp28
sS'year'
p29
V2015
p30
sS'agonists'
p31
g3
((lp32
S"(36, u'\\\\beltoprazine')"
p33
atp34
Rp35
sS'species'
p36
g3
((lp37
S"(2323, u'(?i)(bees|bee)')"
p38
aS"(5958, u'(?i)(rats|rat)')"
p39
aS"(7609, u'(?i)(erns|ern)')"
p40
aS"(4201, u'(?i)(kines|kine)')"
p41
aS"(6682, u'(?i)(tera|teras)')"
p42
aS"(6249, u'(?i)(ants|ant)')"
p43
aS"(468, u'(?i)(oxen|ox)')"
p44
aS"(1055, u'(?i)(men|man)')"
p45
aS"(2453, u'(?i)(topis|topi)')"
p46
aS"(5743, u'(?i)(bots|bot)')"
p47
aS"(3550, u'(?i)(anis|ani)')"
p48
aS"(3726, u'(?i)(mates|mate)')"
p49
aS"(6391, u'(?i)(asses|ass)')"
p50
aS"(2809, u'(?i)(toms|tom)')"
p51
aS"(1683, u'(?i)(terns|tern)')"
p52
aS"(7127, u'(?i)(monitors|monitor)')"
p53
atp54
Rp55
sb.