(ifile_types
ParseObject
p0
(dp1
S'antagonists'
p2
c__builtin__
set
p3
((lp4
S"(14, u'\\\\bmethiothepin')"
p5
aS"(146, u'\\\\bgr ?125487')"
p6
aS"(43, u'\\\\bgr ?127935')"
p7
aS"(124, u'\\\\bondansetron')"
p8
aS"(193, u'\\\\bmesulergine')"
p9
aS"(30, u'\\\\bway ?100135')"
p10
atp11
Rp12
sS'methods'
p13
g3
((lp14
S'Method.ANTAGONIST'
p15
atp16
Rp17
sS'topics'
p18
g3
((lp19
tp20
Rp21
sS'receptors'
p22
g3
((lp23
S'5ht1b'
p24
aS'5ht5'
p25
aS'5ht4'
p26
aS'5ht2b'
p27
aS'5ht2'
p28
aS'5ht1'
p29
aS'5ht1d'
p30
aS'5ht2a'
p31
aS'5ht1a'
p32
aS'5ht3'
p33
atp34
Rp35
sS'regions'
p36
g3
((lp37
tp38
Rp39
sS'year'
p40
V1999
p41
sS'agonists'
p42
g3
((lp43
S"(165, u'\\\\bmesulergine')"
p44
atp45
Rp46
sS'species'
p47
g3
((lp48
S"(5958, u'(?i)\\\\b(rats|rat)\\\\b')"
p49
atp50
Rp51
sb.