(ifile_types
ParseObject
p0
(dp1
S'antagonists'
p2
c__builtin__
set
p3
((lp4
S"(200, u'\\\\bmesulergine')"
p5
aS"(21, u'\\\\bpindolol')"
p6
aS"(54, u'\\\\britanserin')"
p7
aS"(17, u'\\\\bnan ?190')"
p8
aS"(130, u'\\\\britanserin')"
p9
atp10
Rp11
sS'methods'
p12
g3
((lp13
S'Method.ANTAGONIST'
p14
aS'Method.AGONIST'
p15
atp16
Rp17
sS'topics'
p18
g3
((lp19
tp20
Rp21
sS'receptors'
p22
g3
((lp23
S'5ht7'
p24
atp25
Rp26
sS'regions'
p27
g3
((lp28
tp29
Rp30
sS'year'
p31
V1995
p32
sS'agonists'
p33
g3
((lp34
S"(92, u'\\\\b8 ?oh ?dpat')"
p35
aS"(224, u'\\\\b5 ?methoxytryptamine')"
p36
aS"(171, u'\\\\bmesulergine')"
p37
atp38
Rp39
sS'species'
p40
g3
((lp41
S"(2323, u'(?i)(bees|bee)')"
p42
aS"(5958, u'(?i)(rats|rat)')"
p43
aS"(7539, u'(?i)(mammals|mammal)')"
p44
aS"(479, u'(?i)(lings|ling)')"
p45
aS"(468, u'(?i)(oxen|ox)')"
p46
aS"(937, u'(?i)(kids|kid)')"
p47
aS"(1054, u'(?i)(homoes|homo)')"
p48
aS"(4964, u'(?i)(serins|serin)')"
p49
aS"(6249, u'(?i)(ants|ant)')"
p50
aS"(7540, u'(?i)(mammalians|mammalian)')"
p51
aS"(6356, u'(?i)(ais|ai)')"
p52
aS"(1628, u'(?i)(cod|cod)')"
p53
aS"(5685, u'(?i)(xenopuses|xenopus)(-|\\\\s+)?(laevi|laevis)')"
p54
atp55
Rp56
sb.