(ifile_types
ParseObject
p0
(dp1
S'antagonists'
p2
c__builtin__
set
p3
((lp4
S"(53, u'\\\\bketanserin')"
p5
aS"(128, u'\\\\bketanserin')"
p6
atp7
Rp8
sS'methods'
p9
g3
((lp10
tp11
Rp12
sS'topics'
p13
g3
((lp14
S"(7, u'\\\\bmemory')"
p15
atp16
Rp17
sS'receptors'
p18
g3
((lp19
S'5ht1a'
p20
aS'5ht2a'
p21
atp22
Rp23
sS'regions'
p24
g3
((lp25
tp26
Rp27
sS'year'
p28
V2013
p29
sS'agonists'
p30
g3
((lp31
S"(155, u'\\\\bmem')"
p32
atp33
Rp34
sS'species'
p35
g3
((lp36
S"(5958, u'(?i)(rats|rat)')"
p37
aS"(867, u'(?i)(tits|tit)')"
p38
aS"(6753, u'(?i)(da|das)')"
p39
aS"(81, u'(?i)(asps|asp)')"
p40
aS"(1055, u'(?i)(men|man)')"
p41
aS"(3726, u'(?i)(mates|mate)')"
p42
aS"(1349, u'(?i)(rams|ram)')"
p43
aS"(4964, u'(?i)(serins|serin)')"
p44
aS"(6249, u'(?i)(ants|ant)')"
p45
aS"(5229, u'(?i)(moles|mole)')"
p46
aS"(6356, u'(?i)(ais|ai)')"
p47
aS"(1628, u'(?i)(cod|cod)')"
p48
atp49
Rp50
sb.