(ifile_types
ParseObject
p0
(dp1
S'methods'
p2
c__builtin__
set
p3
((lp4
S'Method.STAINING'
p5
atp6
Rp7
sS'topics'
p8
g3
((lp9
tp10
Rp11
sS'receptors'
p12
g3
((lp13
(S'5ht7'
p14
I287
I292
tp15
a(S'5ht4'
p16
I673
I678
tp17
a(S'5ht4a'
p18
I1792
I1798
tp19
a(S'5ht1a'
p20
I777
I783
tp21
a(S'5ht4'
p22
I819
I824
tp23
a(S'5ht1a'
p24
I549
I555
tp25
a(S'5ht7'
p26
I1939
I1944
tp27
a(S'5ht4'
p28
I277
I282
tp29
a(S'5ht7'
p30
I1263
I1268
tp31
a(S'5ht1a'
p32
I1113
I1119
tp33
a(S'5ht1a'
p34
I269
I275
tp35
a(S'5ht4'
p36
I1253
I1258
tp37
a(S'5ht4'
p38
I1372
I1377
tp39
atp40
Rp41
sS'raw_text_methods'
p42
g3
((lp43
tp44
Rp45
sS'regions'
p46
g3
((lp47
tp48
Rp49
sS'year'
p50
V2002
p51
sS'species'
p52
g3
((lp53
S"(1, u'(?i)\\\\b(mice|mouse)\\\\b')"
p54
atp55
Rp56
sb.