(ifile_types
ParseObject
p0
(dp1
S'antagonists'
p2
c__builtin__
set
p3
((lp4
tp5
Rp6
sS'methods'
p7
g3
((lp8
tp9
Rp10
sS'topics'
p11
g3
((lp12
tp13
Rp14
sS'receptors'
p15
g3
((lp16
S'5ht2a'
p17
atp18
Rp19
sS'regions'
p20
g3
((lp21
S"(313, u'(?i)(solitaries|solitary)(-|\\\\s+)?(tracts|tract)')"
p22
aS"(32, u'(?i)(hypoglossals|hypoglossal)(-|\\\\s+)?(nuclei|nucleus)')"
p23
aS"(171, u'(?i)(arcuates|arcuate)(-|\\\\s+)?(nuclei|nucleus)')"
p24
aS"(2, u'(?i)(medullas|medulla)(-|\\\\s+)?(oblongatas|oblongata)')"
p25
atp26
Rp27
sS'year'
p28
V2009
p29
sS'agonists'
p30
g3
((lp31
tp32
Rp33
sS'species'
p34
g3
((lp35
S"(513, u'(?i)(uruses|urus)')"
p36
aS"(2568, u'(?i)(hens|hen)')"
p37
aS"(6356, u'(?i)(ais|ai)')"
p38
aS"(7609, u'(?i)(erns|ern)')"
p39
aS"(6753, u'(?i)(da|das)')"
p40
aS"(6682, u'(?i)(tera|teras)')"
p41
aS"(1686, u'(?i)(gibs|gib)')"
p42
aS"(468, u'(?i)(oxen|ox)')"
p43
aS"(1349, u'(?i)(rams|ram)')"
p44
aS"(6249, u'(?i)(ants|ant)')"
p45
aS"(1055, u'(?i)(men|man)')"
p46
aS"(5743, u'(?i)(bots|bot)')"
p47
aS"(7094, u'(?i)(curs|cur)')"
p48
aS"(5958, u'(?i)(rats|rat)')"
p49
aS"(1057, u'(?i)(humans|human)')"
p50
aS"(3812, u'(?i)(studs|stud)')"
p51
aS"(3196, u'(?i)(human|humans)')"
p52
aS"(6642, u'(?i)(lions|lion)')"
p53
aS"(1683, u'(?i)(terns|tern)')"
p54
atp55
Rp56
sb.