(ifile_types
ParseObject
p0
(dp1
S'methods'
p2
c__builtin__
set
p3
((lp4
S'Method.AGONIST'
p5
atp6
Rp7
sS'topics'
p8
g3
((lp9
tp10
Rp11
sS'receptors'
p12
g3
((lp13
(S'5ht1b'
p14
I665
I671
tp15
a(S'5ht2c'
p16
I665
I673
tp17
atp18
Rp19
sS'raw_text_methods'
p20
g3
((lp21
S"(11, u'\\\\bfluoxetine')"
p22
aS"(32, u'\\\\blesions')"
p23
aS"(13, u'\\\\bagonist')"
p24
aS"(3, u'\\\\bimmunoreactiv')"
p25
aS"(4, u'\\\\bpcpa')"
p26
aS"(37, u'\\\\bpiperazine')"
p27
atp28
Rp29
sS'regions'
p30
g3
((lp31
S"(3, u'(?i)\\\\b(postsynaptics|postsynaptic)\\\\b')"
p32
atp33
Rp34
sS'year'
p35
V2000
p36
sS'species'
p37
g3
((lp38
S"(4, u'(?i)\\\\b(rats|rat)\\\\b')"
p39
atp40
Rp41
sb.