(ifile_types
ParseObject
p0
(dp1
S'methods'
p2
c__builtin__
set
p3
((lp4
S'Method.ANTAGONIST'
p5
atp6
Rp7
sS'topics'
p8
g3
((lp9
S"(12, u'\\\\bsleep')"
p10
aS"(26, u'\\\\bbehav')"
p11
atp12
Rp13
sS'receptors'
p14
g3
((lp15
(S'5ht1a'
p16
I908
I914
tp17
a(S'5ht3'
p18
I1118
I1123
tp19
a(S'5ht2'
p20
I280
I285
tp21
a(S'5ht1d'
p22
I926
I932
tp23
a(S'5ht2'
p24
I524
I529
tp25
a(S'5ht1'
p26
I926
I932
tp27
a(S'5ht1b'
p28
I916
I922
tp29
a(S'5ht2'
p30
I1391
I1396
tp31
a(S'5ht1c'
p32
I842
I848
tp33
a(S'5ht2'
p34
I766
I771
tp35
a(S'5ht1'
p36
I892
I897
tp37
a(S'5ht2'
p38
I1684
I1689
tp39
atp40
Rp41
sS'raw_text_methods'
p42
g3
((lp43
S"(12, u'\\\\bantagonist')"
p44
atp45
Rp46
sS'regions'
p47
g3
((lp48
S"(14, u'(?i)\\\\b(caudals|caudal)\\\\b')"
p49
atp50
Rp51
sS'year'
p52
V1992
p53
sS'species'
p54
g3
((lp55
S"(1, u'(?i)\\\\b(mice|mouse)\\\\b')"
p56
aS"(5, u'(?i)\\\\b(mices|mice)\\\\b')"
p57
aS"(7, u'(?i)\\\\b(guineas|guinea)(-|\\\\s+)?(pigs|pig)\\\\b')"
p58
aS"(4, u'(?i)\\\\b(rats|rat)\\\\b')"
p59
atp60
Rp61
sb.