(ifile_types
ParseObject
p0
(dp1
S'methods'
p2
c__builtin__
set
p3
((lp4
S'Method.STIMULATION'
p5
aS'Method.ANTAGONIST'
p6
aS'Method.AGONIST'
p7
atp8
Rp9
sS'topics'
p10
g3
((lp11
tp12
Rp13
sS'receptors'
p14
g3
((lp15
(S'5ht1'
p16
I1898
I1903
tp17
a(S'5ht3'
p18
I1435
I1440
tp19
a(S'5ht1'
p20
I1488
I1493
tp21
a(S'5ht1'
p22
I1545
I1550
tp23
a(S'5ht2'
p24
I1361
I1366
tp25
a(S'5ht1'
p26
I1957
I1962
tp27
a(S'5ht1'
p28
I1972
I1977
tp29
a(S'5ht2'
p30
I1551
I1556
tp31
atp32
Rp33
sS'raw_text_methods'
p34
g3
((lp35
S"(13, u'\\\\bagonist')"
p36
aS"(15, u'\\\\b8ohdpat')"
p37
aS"(23, u'\\\\bmdl')"
p38
aS"(53, u'\\\\bketanserin')"
p39
aS"(12, u'\\\\bantagonist')"
p40
atp41
Rp42
sS'regions'
p43
g3
((lp44
tp45
Rp46
sS'year'
p47
V1988
p48
sS'species'
p49
g3
((lp50
S"(4, u'(?i)\\\\b(rats|rat)\\\\b')"
p51
atp52
Rp53
sb.