(ifile_types
ParseObject
p0
(dp1
S'methods'
p2
c__builtin__
set
p3
((lp4
S'Method.AGONIST'
p5
atp6
Rp7
sS'topics'
p8
g3
((lp9
tp10
Rp11
sS'receptors'
p12
g3
((lp13
(S'5ht2'
p14
I1185
I1190
tp15
a(S'5ht2c'
p16
I347
I353
tp17
a(S'5ht2c'
p18
I1028
I1034
tp19
a(S'5ht2'
p20
I1130
I1135
tp21
a(S'5ht2c'
p22
I324
I335
tp23
a(S'5ht2'
p24
I347
I353
tp25
a(S'5ht2c'
p26
I1340
I1346
tp27
atp28
Rp29
sS'raw_text_methods'
p30
g3
((lp31
S"(13, u'\\\\bagonist')"
p32
atp33
Rp34
sS'regions'
p35
g3
((lp36
tp37
Rp38
sS'year'
p39
V2013
p40
sS'species'
p41
g3
((lp42
tp43
Rp44
sb.