(ifile_types
ParseObject
p0
(dp1
S'methods'
p2
c__builtin__
set
p3
((lp4
S'Method.ANTAGONIST'
p5
aS'Method.AGONIST'
p6
atp7
Rp8
sS'topics'
p9
g3
((lp10
S"(30, u'\\\\bpain')"
p11
aS"(13, u'\\\\bantidepress')"
p12
atp13
Rp14
sS'receptors'
p15
g3
((lp16
(S'5ht1b'
p17
I1100
I1106
tp18
a(S'5ht1a'
p19
I934
I940
tp20
a(S'5ht1b'
p21
I58
I64
tp22
a(S'5ht5'
p23
I432
I442
tp24
a(S'5ht1a'
p25
I47
I53
tp26
a(S'5ht1b'
p27
I1296
I1302
tp28
a(S'5ht1a'
p29
I672
I678
tp30
a(S'5ht1b'
p31
I1647
I1653
tp32
a(S'5ht1a'
p33
I1771
I1777
tp34
atp35
Rp36
sS'raw_text_methods'
p37
g3
((lp38
S"(13, u'\\\\bagonist')"
p39
aS"(15, u'\\\\b8ohdpat')"
p40
aS"(51, u'\\\\bway100635')"
p41
aS"(12, u'\\\\bantagonist')"
p42
atp43
Rp44
sS'regions'
p45
g3
((lp46
tp47
Rp48
sS'year'
p49
V2005
p50
sS'species'
p51
g3
((lp52
S"(1, u'(?i)\\\\b(mice|mouse)\\\\b')"
p53
aS"(5, u'(?i)\\\\b(mices|mice)\\\\b')"
p54
atp55
Rp56
sb.