(ifile_types
ParseObject
p0
(dp1
S'antagonists'
p2
c__builtin__
set
p3
((lp4
tp5
Rp6
sS'methods'
p7
g3
((lp8
S'Method.PET'
p9
aS'Method.ANTAGONIST'
p10
atp11
Rp12
sS'topics'
p13
g3
((lp14
S"(29, u'\\\\bsex')"
p15
aS"(9, u'\\\\bdepress')"
p16
aS"(20, u'\\\\baggressi')"
p17
atp18
Rp19
sS'receptors'
p20
g3
((lp21
S'5ht1a'
p22
atp23
Rp24
sS'regions'
p25
g3
((lp26
tp27
Rp28
sS'year'
p29
V2005
p30
sS'agonists'
p31
g3
((lp32
tp33
Rp34
sS'species'
p35
g3
((lp36
S"(1070, u'(?i)\\\\b(pets|pet)\\\\b')"
p37
aS"(6125, u'(?i)\\\\b(females|female)\\\\b')"
p38
aS"(3196, u'(?i)\\\\b(human|humans)\\\\b')"
p39
aS"(1055, u'(?i)\\\\b(men|man)\\\\b')"
p40
aS"(1057, u'(?i)\\\\b(humans|human)\\\\b')"
p41
aS"(5958, u'(?i)\\\\b(rats|rat)\\\\b')"
p42
aS"(5967, u'(?i)\\\\b(males|male)\\\\b')"
p43
atp44
Rp45
sb.