(ifile_types
ParseObject
p0
(dp1
S'antagonists'
p2
c__builtin__
set
p3
((lp4
tp5
Rp6
sS'methods'
p7
g3
((lp8
tp9
Rp10
sS'topics'
p11
g3
((lp12
S"(22, u'\\\\bsuicide')"
p13
atp14
Rp15
sS'receptors'
p16
g3
((lp17
S'5ht1a'
p18
atp19
Rp20
sS'regions'
p21
g3
((lp22
tp23
Rp24
sS'year'
p25
V2002
p26
sS'agonists'
p27
g3
((lp28
tp29
Rp30
sS'species'
p31
g3
((lp32
S"(2323, u'(?i)(bees|bee)')"
p33
aS"(6753, u'(?i)(da|das)')"
p34
aS"(6249, u'(?i)(ants|ant)')"
p35
aS"(702, u'(?i)(genets|genet)')"
p36
aS"(4979, u'(?i)(cats|cat)')"
p37
aS"(81, u'(?i)(asps|asp)')"
p38
aS"(853, u'(?i)(minas|mina)')"
p39
aS"(1961, u'(?i)(pens|pen)')"
p40
aS"(6356, u'(?i)(ais|ai)')"
p41
aS"(6391, u'(?i)(asses|ass)')"
p42
aS"(5743, u'(?i)(bots|bot)')"
p43
atp44
Rp45
sb.