(ifile_types
ParseObject
p0
(dp1
S'methods'
p2
c__builtin__
set
p3
((lp4
S'Method.IMMUNOHISTOCHEMISTRY'
p5
atp6
Rp7
sS'topics'
p8
g3
((lp9
S"(9, u'\\\\bstress')"
p10
atp11
Rp12
sS'receptors'
p13
g3
((lp14
(S'5ht2a'
p15
I68
I74
tp16
a(S'5ht1a'
p17
I57
I63
tp18
a(S'5ht2a'
p19
I465
I471
tp20
a(S'5ht1'
p21
I873
I878
tp22
a(S'5ht2'
p23
I953
I958
tp24
a(S'5ht1'
p25
I1205
I1210
tp26
a(S'5ht1a'
p27
I454
I460
tp28
a(S'5ht2'
p29
I1308
I1313
tp30
a(S'5ht1'
p31
I1085
I1090
tp32
atp33
Rp34
sS'raw_text_methods'
p35
g3
((lp36
tp37
Rp38
sS'regions'
p39
g3
((lp40
S"(19, u'(?i)\\\\b(cortexes|cortex)\\\\b')"
p41
atp42
Rp43
sS'year'
p44
V2013
p45
sS'species'
p46
g3
((lp47
S"(1, u'(?i)\\\\b(mice|mouse)\\\\b')"
p48
aS"(5, u'(?i)\\\\b(mices|mice)\\\\b')"
p49
atp50
Rp51
sb.