(ifile_types
ParseObject
p0
(dp1
S'antagonists'
p2
c__builtin__
set
p3
((lp4
tp5
Rp6
sS'methods'
p7
g3
((lp8
S'Method.ANTAGONIST'
p9
aS'Method.AGONIST'
p10
atp11
Rp12
sS'topics'
p13
g3
((lp14
S"(21, u'\\\\bpain')"
p15
aS"(9, u'\\\\bdepress')"
p16
aS"(24, u'\\\\banalgesi')"
p17
atp18
Rp19
sS'receptors'
p20
g3
((lp21
S'5ht1a'
p22
atp23
Rp24
sS'regions'
p25
g3
((lp26
S"(49, u'(?i)\\\\b(loci|locus)(-|\\\\s+)?(coeruleuses|coeruleus)\\\\b')"
p27
atp28
Rp29
sS'year'
p30
V2007
p31
sS'agonists'
p32
g3
((lp33
S"(85, u'\\\\b8 ?oh ?dpat')"
p34
atp35
Rp36
sS'species'
p37
g3
((lp38
tp39
Rp40
sb.