(ifile_types
ParseObject
p0
(dp1
S'antagonists'
p2
c__builtin__
set
p3
((lp4
tp5
Rp6
sS'methods'
p7
g3
((lp8
tp9
Rp10
sS'topics'
p11
g3
((lp12
tp13
Rp14
sS'receptors'
p15
g3
((lp16
S'5ht1a'
p17
aS'5ht2c'
p18
atp19
Rp20
sS'regions'
p21
g3
((lp22
S"(34, u'(?i)(pon|pons)')"
p23
atp24
Rp25
sS'year'
p26
V1997
p27
sS'agonists'
p28
g3
((lp29
S"(92, u'\\\\b8 ?oh ?dpat')"
p30
aS"(155, u'\\\\bmem')"
p31
atp32
Rp33
sS'species'
p34
g3
((lp35
S"(2568, u'(?i)(hens|hen)')"
p36
aS"(5743, u'(?i)(bots|bot)')"
p37
aS"(479, u'(?i)(lings|ling)')"
p38
aS"(468, u'(?i)(oxen|ox)')"
p39
aS"(1055, u'(?i)(men|man)')"
p40
aS"(3726, u'(?i)(mates|mate)')"
p41
aS"(4979, u'(?i)(cats|cat)')"
p42
aS"(7094, u'(?i)(curs|cur)')"
p43
aS"(5958, u'(?i)(rats|rat)')"
p44
aS"(3522, u'(?i)(tetras|tetra)')"
p45
aS"(1057, u'(?i)(humans|human)')"
p46
aS"(1961, u'(?i)(pens|pen)')"
p47
aS"(1414, u'(?i)(chars|char)')"
p48
aS"(3196, u'(?i)(human|humans)')"
p49
aS"(1628, u'(?i)(cod|cod)')"
p50
aS"(6356, u'(?i)(ais|ai)')"
p51
aS"(5949, u'(?i)(dogs|dog)')"
p52
atp53
Rp54
sb.