(ifile_types
ParseObject
p0
(dp1
S'antagonists'
p2
c__builtin__
set
p3
((lp4
S"(123, u'\\\\bgranisetron')"
p5
atp6
Rp7
sS'methods'
p8
g3
((lp9
tp10
Rp11
sS'topics'
p12
g3
((lp13
tp14
Rp15
sS'receptors'
p16
g3
((lp17
S'5ht3'
p18
atp19
Rp20
sS'regions'
p21
g3
((lp22
S"(203, u'(?i)\\\\b(dentates|dentate)(-|\\\\s+)?(gyruses|gyrus)\\\\b')"
p23
aS"(226, u'(?i)\\\\b(nuclei|nucleus)(-|\\\\s+)?(accumben|accumbens)\\\\b')"
p24
aS"(27, u'(?i)\\\\b(areas|area)(-|\\\\s+)?(postremas|postrema)\\\\b')"
p25
aS"(362, u'(?i)\\\\b(brains|brain)(-|\\\\s+)?(stems|stem)\\\\b')"
p26
aS"(322, u'(?i)\\\\b(extrapyramidals|extrapyramidal)(-|\\\\s+)?(systems|system)\\\\b')"
p27
aS"(223, u'(?i)\\\\b(putamens|putamen)\\\\b')"
p28
atp29
Rp30
sS'year'
p31
V1996
p32
sS'agonists'
p33
g3
((lp34
tp35
Rp36
sS'species'
p37
g3
((lp38
S"(3152, u'(?i)\\\\b(layers|layer)\\\\b')"
p39
aS"(6325, u'(?i)\\\\b(caudates|caudate)\\\\b')"
p40
aS"(1057, u'(?i)\\\\b(humans|human)\\\\b')"
p41
aS"(3196, u'(?i)\\\\b(human|humans)\\\\b')"
p42
atp43
Rp44
sb.