(ifile_types
ParseObject
p0
(dp1
S'antagonists'
p2
c__builtin__
set
p3
((lp4
S"(84, u'\\\\bsb ?206553')"
p5
aS"(6, u'\\\\bcyproheptadine')"
p6
aS"(53, u'\\\\bcyproheptadine')"
p7
aS"(72, u'\\\\bagomelatine')"
p8
aS"(193, u'\\\\bmesulergine')"
p9
atp10
Rp11
sS'methods'
p12
g3
((lp13
S'Method.ANTAGONIST'
p14
aS'Method.AGONIST'
p15
atp16
Rp17
sS'topics'
p18
g3
((lp19
S"(37, u'\\\\baddict')"
p20
aS"(15, u'\\\\bschizophreni')"
p21
aS"(22, u'\\\\bsuicide')"
p22
aS"(9, u'\\\\bdepress')"
p23
aS"(29, u'\\\\bsex')"
p24
aS"(31, u'\\\\bobesity')"
p25
atp26
Rp27
sS'receptors'
p28
g3
((lp29
S'5ht1c'
p30
aS'5ht2b'
p31
aS'5ht2c'
p32
aS'5ht1'
p33
atp34
Rp35
sS'regions'
p36
g3
((lp37
tp38
Rp39
sS'year'
p40
V2017
p41
sS'agonists'
p42
g3
((lp43
S"(165, u'\\\\bmesulergine')"
p44
aS"(180, u'\\\\bvabicaserin')"
p45
aS"(164, u'\\\\blorcaserin')"
p46
aS"(149, u'\\\\bmem')"
p47
atp48
Rp49
sS'species'
p50
g3
((lp51
S"(1057, u'(?i)\\\\b(humans|human)\\\\b')"
p52
aS"(5958, u'(?i)\\\\b(rats|rat)\\\\b')"
p53
aS"(3196, u'(?i)\\\\b(human|humans)\\\\b')"
p54
atp55
Rp56
sb.