(ifile_types
ParseObject
p0
(dp1
S'methods'
p2
c__builtin__
set
p3
((lp4
tp5
Rp6
sS'topics'
p7
g3
((lp8
tp9
Rp10
sS'receptors'
p11
g3
((lp12
(S'5ht2'
p13
I134
I144
tp14
a(S'5ht2a'
p15
I259
I265
tp16
a(S'5ht2'
p17
I1214
I1219
tp18
a(S'5ht2c'
p19
I463
I469
tp20
a(S'5ht2c'
p21
I1008
I1014
tp22
a(S'5ht2'
p23
I655
I660
tp24
a(S'5ht2'
p25
I1260
I1265
tp26
a(S'5ht2'
p27
I1605
I1610
tp28
a(S'5ht2c'
p29
I236
I247
tp30
a(S'5ht2'
p31
I259
I264
tp32
atp33
Rp34
sS'raw_text_methods'
p35
g3
((lp36
S"(35, u'\\\\badenosine')"
p37
atp38
Rp39
sS'regions'
p40
g3
((lp41
S"(23, u'(?i)\\\\b(forebrains|forebrain)\\\\b')"
p42
atp43
Rp44
sS'year'
p45
V2010
p46
sS'species'
p47
g3
((lp48
S"(1, u'(?i)\\\\b(mice|mouse)\\\\b')"
p49
aS"(5, u'(?i)\\\\b(mices|mice)\\\\b')"
p50
atp51
Rp52
sb.