(ifile_types
ParseObject
p0
(dp1
S'antagonists'
p2
c__builtin__
set
p3
((lp4
tp5
Rp6
sS'methods'
p7
g3
((lp8
S'Method.ANTAGONIST'
p9
aS'Method.AGONIST'
p10
atp11
Rp12
sS'topics'
p13
g3
((lp14
tp15
Rp16
sS'receptors'
p17
g3
((lp18
S'5ht1a'
p19
aS'5ht5'
p20
aS'5ht2a'
p21
atp22
Rp23
sS'regions'
p24
g3
((lp25
tp26
Rp27
sS'year'
p28
V1993
p29
sS'agonists'
p30
g3
((lp31
tp32
Rp33
sS'species'
p34
g3
((lp35
S"(2323, u'(?i)(bees|bee)')"
p36
aS"(2054, u'(?i)(heads|head)')"
p37
aS"(2568, u'(?i)(hens|hen)')"
p38
aS"(468, u'(?i)(oxen|ox)')"
p39
aS"(6249, u'(?i)(ants|ant)')"
p40
aS"(4979, u'(?i)(cats|cat)')"
p41
aS"(5958, u'(?i)(rats|rat)')"
p42
aS"(1961, u'(?i)(pens|pen)')"
p43
aS"(6356, u'(?i)(ais|ai)')"
p44
atp45
Rp46
sb.