(ifile_types
ParseObject
p0
(dp1
S'antagonists'
p2
c__builtin__
set
p3
((lp4
S"(209, u'\\\\btfmpp')"
p5
aS"(21, u'\\\\bpindolol')"
p6
aS"(102, u'\\\\bfluoxetine')"
p7
atp8
Rp9
sS'methods'
p10
g3
((lp11
S'Method.ANTAGONIST'
p12
aS'Method.AGONIST'
p13
atp14
Rp15
sS'topics'
p16
g3
((lp17
tp18
Rp19
sS'receptors'
p20
g3
((lp21
S'5ht5'
p22
aS'5ht1a'
p23
atp24
Rp25
sS'regions'
p26
g3
((lp27
S"(220, u'(?i)(striatums|striatum)')"
p28
atp29
Rp30
sS'year'
p31
V1991
p32
sS'agonists'
p33
g3
((lp34
S"(74, u'\\\\bru ?24969')"
p35
aS"(83, u'\\\\btrifluoromethylphenylpiperazine')"
p36
aS"(183, u'\\\\btfmpp')"
p37
aS"(161, u'\\\\bmcpp')"
p38
aS"(92, u'\\\\b8 ?oh ?dpat')"
p39
aS"(169, u'\\\\bfenfluramine')"
p40
atp41
Rp42
sS'species'
p43
g3
((lp44
S"(2278, u'(?i)(galloways|galloway)')"
p45
aS"(2568, u'(?i)(hens|hen)')"
p46
aS"(6753, u'(?i)(da|das)')"
p47
aS"(468, u'(?i)(oxen|ox)')"
p48
aS"(1055, u'(?i)(men|man)')"
p49
aS"(6249, u'(?i)(ants|ant)')"
p50
aS"(1349, u'(?i)(rams|ram)')"
p51
aS"(4979, u'(?i)(cats|cat)')"
p52
aS"(5958, u'(?i)(rats|rat)')"
p53
aS"(3522, u'(?i)(tetras|tetra)')"
p54
aS"(7094, u'(?i)(curs|cur)')"
p55
aS"(1961, u'(?i)(pens|pen)')"
p56
aS"(3812, u'(?i)(studs|stud)')"
p57
aS"(7127, u'(?i)(monitors|monitor)')"
p58
aS"(5949, u'(?i)(dogs|dog)')"
p59
atp60
Rp61
sb.