(ifile_types
ParseObject
p0
(dp1
S'methods'
p2
c__builtin__
set
p3
((lp4
S'Method.AGONIST'
p5
atp6
Rp7
sS'topics'
p8
g3
((lp9
S"(22, u'\\\\bschizophreni')"
p10
aS"(23, u'\\\\bantipsychotic')"
p11
atp12
Rp13
sS'receptors'
p14
g3
((lp15
(S'5ht2a'
p16
I1287
I1293
tp17
a(S'5ht1a'
p18
I1276
I1282
tp19
atp20
Rp21
sS'raw_text_methods'
p22
g3
((lp23
S"(13, u'\\\\bagonist')"
p24
aS"(41, u'\\\\bhaloperidol')"
p25
aS"(40, u'\\\\bclozapine')"
p26
aS"(18, u'\\\\bimaging')"
p27
aS"(49, u'\\\\bdoi')"
p28
atp29
Rp30
sS'regions'
p31
g3
((lp32
S"(20, u'(?i)\\\\b(prefrontals|prefrontal)\\\\b')"
p33
aS"(21, u'(?i)\\\\b(mpfcs|mpfc)\\\\b')"
p34
aS"(19, u'(?i)\\\\b(cortexes|cortex)\\\\b')"
p35
atp36
Rp37
sS'year'
p38
V2014
p39
sS'species'
p40
g3
((lp41
S"(6, u'(?i)\\\\b(rodents|rodent)\\\\b')"
p42
aS"(4, u'(?i)\\\\b(rats|rat)\\\\b')"
p43
atp44
Rp45
sb.