(ifile_types
ParseObject
p0
(dp1
S'methods'
p2
c__builtin__
set
p3
((lp4
S'Method.ANTAGONIST'
p5
aS'Method.AGONIST'
p6
atp7
Rp8
sS'topics'
p9
g3
((lp10
tp11
Rp12
sS'receptors'
p13
g3
((lp14
(S'5ht1b'
p15
I299
I305
tp16
a(S'5ht1a'
p17
I883
I889
tp18
a(S'5ht1'
p19
I825
I830
tp20
a(S'5ht1b'
p21
I952
I958
tp22
a(S'5ht1b'
p23
I1054
I1060
tp24
a(S'5ht1b'
p25
I574
I580
tp26
a(S'5ht1b'
p27
I40
I46
tp28
a(S'5ht1b'
p29
I452
I458
tp30
atp31
Rp32
sS'raw_text_methods'
p33
g3
((lp34
S"(13, u'\\\\bagonist')"
p35
aS"(12, u'\\\\bantagonist')"
p36
atp37
Rp38
sS'regions'
p39
g3
((lp40
S"(4, u'(?i)\\\\b(presynaptics|presynaptic)\\\\b')"
p41
atp42
Rp43
sS'year'
p44
V2000
p45
sS'species'
p46
g3
((lp47
tp48
Rp49
sb.