(ifile_types
ParseObject
p0
(dp1
S'antagonists'
p2
c__builtin__
set
p3
((lp4
tp5
Rp6
sS'methods'
p7
g3
((lp8
tp9
Rp10
sS'topics'
p11
g3
((lp12
tp13
Rp14
sS'receptors'
p15
g3
((lp16
S'5ht1a'
p17
atp18
Rp19
sS'regions'
p20
g3
((lp21
S"(34, u'(?i)(pon|pons)')"
p22
atp23
Rp24
sS'year'
p25
V1991
p26
sS'agonists'
p27
g3
((lp28
S"(155, u'\\\\bmem')"
p29
atp30
Rp31
sS'species'
p32
g3
((lp33
S"(5537, u'(?i)(hippos|hippo)')"
p34
aS"(5958, u'(?i)(rats|rat)')"
p35
aS"(479, u'(?i)(lings|ling)')"
p36
aS"(1055, u'(?i)(men|man)')"
p37
aS"(1349, u'(?i)(rams|ram)')"
p38
aS"(5743, u'(?i)(bots|bot)')"
p39
aS"(3812, u'(?i)(studs|stud)')"
p40
aS"(821, u'(?i)(lice|louse)')"
p41
atp42
Rp43
sb.