(ifile_types
ParseObject
p0
(dp1
S'methods'
p2
c__builtin__
set
p3
((lp4
S'Method.STAINING'
p5
aS'Method.IMMUNOHISTOCHEMISTRY'
p6
atp7
Rp8
sS'topics'
p9
g3
((lp10
tp11
Rp12
sS'receptors'
p13
g3
((lp14
(S'5ht1'
p15
I1765
I1770
tp16
a(S'5ht1'
p17
I722
I727
tp18
a(S'5ht1'
p19
I1071
I1076
tp20
a(S'5ht1'
p21
I1577
I1582
tp22
atp23
Rp24
sS'raw_text_methods'
p25
g3
((lp26
S"(3, u'\\\\bimmunoreactiv')"
p27
atp28
Rp29
sS'regions'
p30
g3
((lp31
tp32
Rp33
sS'year'
p34
V2005
p35
sS'species'
p36
g3
((lp37
S"(4, u'(?i)\\\\b(rats|rat)\\\\b')"
p38
atp39
Rp40
sb.