(ifile_types
ParseObject
p0
(dp1
S'antagonists'
p2
c__builtin__
set
p3
((lp4
S"(53, u'\\\\bketanserin')"
p5
aS"(123, u'\\\\bclozapine')"
p6
aS"(56, u'\\\\bclozapine')"
p7
aS"(128, u'\\\\bketanserin')"
p8
aS"(67, u'\\\\bhaloperidol')"
p9
aS"(61, u'\\\\bmdl ?100907')"
p10
atp11
Rp12
sS'methods'
p13
g3
((lp14
S'Method.ANTAGONIST'
p15
atp16
Rp17
sS'topics'
p18
g3
((lp19
S"(4, u'\\\\blocomot')"
p20
atp21
Rp22
sS'receptors'
p23
g3
((lp24
S'5ht2c'
p25
aS'5ht2a'
p26
atp27
Rp28
sS'regions'
p29
g3
((lp30
S"(34, u'(?i)(pon|pons)')"
p31
atp32
Rp33
sS'year'
p34
V2011
p35
sS'agonists'
p36
g3
((lp37
S"(48, u'\\\\bhaloperidol')"
p38
aS"(27, u'\\\\bclozapine')"
p39
atp40
Rp41
sS'species'
p42
g3
((lp43
S"(2323, u'(?i)(bees|bee)')"
p44
aS"(2054, u'(?i)(heads|head)')"
p45
aS"(5799, u'(?i)(rodents|rodent)')"
p46
aS"(2568, u'(?i)(hens|hen)')"
p47
aS"(3601, u'(?i)(efts|eft)')"
p48
aS"(5958, u'(?i)(rats|rat)')"
p49
aS"(163, u'(?i)(mice|mouse)')"
p50
aS"(6753, u'(?i)(da|das)')"
p51
aS"(4163, u'(?i)(ermines|ermine)')"
p52
aS"(468, u'(?i)(oxen|ox)')"
p53
aS"(1055, u'(?i)(men|man)')"
p54
aS"(6249, u'(?i)(ants|ant)')"
p55
aS"(6215, u'(?i)(racers|racer)')"
p56
aS"(4964, u'(?i)(serins|serin)')"
p57
aS"(3550, u'(?i)(anis|ani)')"
p58
aS"(6682, u'(?i)(tera|teras)')"
p59
aS"(1961, u'(?i)(pens|pen)')"
p60
aS"(6356, u'(?i)(ais|ai)')"
p61
atp62
Rp63
sb.