(ifile_types
ParseObject
p0
(dp1
S'methods'
p2
c__builtin__
set
p3
((lp4
S'Method.ANTAGONIST'
p5
atp6
Rp7
sS'topics'
p8
g3
((lp9
S"(28, u'\\\\bgastrointestin')"
p10
atp11
Rp12
sS'receptors'
p13
g3
((lp14
(S'5ht3'
p15
I309
I314
tp16
atp17
Rp18
sS'raw_text_methods'
p19
g3
((lp20
S"(12, u'\\\\bantagonist')"
p21
atp22
Rp23
sS'regions'
p24
g3
((lp25
tp26
Rp27
sS'year'
p28
V2016
p29
sS'species'
p30
g3
((lp31
S"(3, u'(?i)\\\\b(males|male)\\\\b')"
p32
aS"(4, u'(?i)\\\\b(rats|rat)\\\\b')"
p33
atp34
Rp35
sb.