(ifile_types
ParseObject
p0
(dp1
S'methods'
p2
c__builtin__
set
p3
((lp4
S'Method.PET'
p5
aS'Method.ANTAGONIST'
p6
atp7
Rp8
sS'topics'
p9
g3
((lp10
S"(1, u'\\\\bpatient')"
p11
aS"(17, u'\\\\balzheimer')"
p12
aS"(5, u'\\\\btherap')"
p13
aS"(4, u'\\\\btreatment')"
p14
aS"(3, u'\\\\bclinical')"
p15
atp16
Rp17
sS'receptors'
p18
g3
((lp19
(S'5ht1a'
p20
I1268
I1274
tp21
a(S'5ht1a'
p22
I532
I538
tp23
a(S'5ht1a'
p24
I807
I813
tp25
a(S'5ht1a'
p26
I447
I453
tp27
a(S'5ht1a'
p28
I154
I160
tp29
atp30
Rp31
sS'raw_text_methods'
p32
g3
((lp33
S"(51, u'\\\\bway100635')"
p34
aS"(17, u'\\\\bpet')"
p35
aS"(19, u'\\\\bpositron emission tomography')"
p36
aS"(12, u'\\\\bantagonist')"
p37
atp38
Rp39
sS'regions'
p40
g3
((lp41
tp42
Rp43
sS'year'
p44
V2008
p45
sS'species'
p46
g3
((lp47
tp48
Rp49
sb.