(ifile_types
ParseObject
p0
(dp1
S'methods'
p2
c__builtin__
set
p3
((lp4
S'Method.STIMULATION'
p5
aS'Method.AGONIST'
p6
aS'Method.IMMUNOHISTOCHEMISTRY'
p7
aS'Method.ANTAGONIST'
p8
atp9
Rp10
sS'topics'
p11
g3
((lp12
S"(22, u'\\\\bschizophreni')"
p13
aS"(27, u'\\\\bdyskinesia')"
p14
aS"(26, u'\\\\bbehav')"
p15
aS"(34, u'\\\\bparkinson')"
p16
atp17
Rp18
sS'receptors'
p19
g3
((lp20
(S'5ht2c'
p21
I225
I231
tp22
a(S'5ht2c'
p23
I514
I520
tp24
a(S'5ht2c'
p25
I212
I223
tp26
a(S'5ht2c'
p27
I767
I773
tp28
a(S'5ht2c'
p29
I2090
I2096
tp30
a(S'5ht2c'
p31
I1187
I1193
tp32
a(S'5ht2c'
p33
I44
I55
tp34
atp35
Rp36
sS'raw_text_methods'
p37
g3
((lp38
S"(13, u'\\\\bagonist')"
p39
aS"(2, u'\\\\blabeling')"
p40
aS"(12, u'\\\\bantagonist')"
p41
atp42
Rp43
sS'regions'
p44
g3
((lp45
S"(15, u'(?i)\\\\b(substantias|substantia)(-|\\\\s+)?(nigras|nigra)\\\\b')"
p46
aS"(20, u'(?i)\\\\b(prefrontals|prefrontal)\\\\b')"
p47
aS"(21, u'(?i)\\\\b(mpfcs|mpfc)\\\\b')"
p48
aS"(19, u'(?i)\\\\b(cortexes|cortex)\\\\b')"
p49
atp50
Rp51
sS'year'
p52
V2010
p53
sS'species'
p54
g3
((lp55
S"(4, u'(?i)\\\\b(rats|rat)\\\\b')"
p56
atp57
Rp58
sb.