(ifile_types
ParseObject
p0
(dp1
S'antagonists'
p2
c__builtin__
set
p3
((lp4
S"(20, u'\\\\bpindobind')"
p5
atp6
Rp7
sS'methods'
p8
g3
((lp9
S'Method.ANTAGONIST'
p10
atp11
Rp12
sS'topics'
p13
g3
((lp14
tp15
Rp16
sS'receptors'
p17
g3
((lp18
S'5ht1a'
p19
aS'5ht1'
p20
atp21
Rp22
sS'regions'
p23
g3
((lp24
S"(34, u'(?i)(pon|pons)')"
p25
atp26
Rp27
sS'year'
p28
V1995
p29
sS'agonists'
p30
g3
((lp31
S"(155, u'\\\\bmem')"
p32
atp33
Rp34
sS'species'
p35
g3
((lp36
S"(5958, u'(?i)(rats|rat)')"
p37
aS"(6356, u'(?i)(ais|ai)')"
p38
aS"(4979, u'(?i)(cats|cat)')"
p39
aS"(853, u'(?i)(minas|mina)')"
p40
aS"(6249, u'(?i)(ants|ant)')"
p41
aS"(1961, u'(?i)(pens|pen)')"
p42
aS"(3812, u'(?i)(studs|stud)')"
p43
aS"(821, u'(?i)(lice|louse)')"
p44
aS"(7552, u'(?i)(bats|bat)')"
p45
atp46
Rp47
sb.