(ifile_types
ParseObject
p0
(dp1
S'methods'
p2
c__builtin__
set
p3
((lp4
S'Method.AGONIST'
p5
atp6
Rp7
sS'topics'
p8
g3
((lp9
S"(24, u'\\\\banxiolytic')"
p10
aS"(8, u'\\\\banxi')"
p11
atp12
Rp13
sS'receptors'
p14
g3
((lp15
(S'5ht3'
p16
I69
I74
tp17
a(S'5ht3'
p18
I505
I510
tp19
a(S'5ht3'
p20
I967
I972
tp21
a(S'5ht3'
p22
I887
I892
tp23
a(S'5ht3'
p24
I683
I688
tp25
atp26
Rp27
sS'raw_text_methods'
p28
g3
((lp29
S"(13, u'\\\\bagonist')"
p30
atp31
Rp32
sS'regions'
p33
g3
((lp34
tp35
Rp36
sS'year'
p37
V1997
p38
sS'species'
p39
g3
((lp40
tp41
Rp42
sb.