(ifile_types
ParseObject
p0
(dp1
S'antagonists'
p2
c__builtin__
set
p3
((lp4
S"(200, u'\\\\bmesulergine')"
p5
aS"(14, u'\\\\bmethiothepin')"
p6
aS"(155, u'\\\\bgr ?125487')"
p7
aS"(135, u'\\\\bondansetron')"
p8
aS"(31, u'\\\\bway ?100135')"
p9
aS"(45, u'\\\\bgr ?127935')"
p10
atp11
Rp12
sS'methods'
p13
g3
((lp14
S'Method.ANTAGONIST'
p15
atp16
Rp17
sS'topics'
p18
g3
((lp19
tp20
Rp21
sS'receptors'
p22
g3
((lp23
S'5ht1b'
p24
aS'5ht5'
p25
aS'5ht4'
p26
aS'5ht2b'
p27
aS'5ht2'
p28
aS'5ht1'
p29
aS'5ht1d'
p30
aS'5ht2a'
p31
aS'5ht1a'
p32
aS'5ht3'
p33
atp34
Rp35
sS'regions'
p36
g3
((lp37
S"(34, u'(?i)(pon|pons)')"
p38
atp39
Rp40
sS'year'
p41
V1999
p42
sS'agonists'
p43
g3
((lp44
S"(171, u'\\\\bmesulergine')"
p45
atp46
Rp47
sS'species'
p48
g3
((lp49
S"(6753, u'(?i)(da|das)')"
p50
aS"(5958, u'(?i)(rats|rat)')"
p51
aS"(4979, u'(?i)(cats|cat)')"
p52
aS"(468, u'(?i)(oxen|ox)')"
p53
aS"(6249, u'(?i)(ants|ant)')"
p54
aS"(6580, u'(?i)(dams|dam)')"
p55
aS"(2942, u'(?i)(daws|daw)')"
p56
aS"(3550, u'(?i)(anis|ani)')"
p57
aS"(3812, u'(?i)(studs|stud)')"
p58
aS"(2809, u'(?i)(toms|tom)')"
p59
aS"(6356, u'(?i)(ais|ai)')"
p60
atp61
Rp62
sb.