(ifile_types
ParseObject
p0
(dp1
S'antagonists'
p2
c__builtin__
set
p3
((lp4
tp5
Rp6
sS'methods'
p7
g3
((lp8
S'Method.PET'
p9
atp10
Rp11
sS'topics'
p12
g3
((lp13
S"(35, u'\\\\bstress')"
p14
aS"(10, u'\\\\banxiety')"
p15
atp16
Rp17
sS'receptors'
p18
g3
((lp19
S'5ht5'
p20
aS'5ht1a'
p21
aS'5ht2'
p22
aS'5ht2a'
p23
atp24
Rp25
sS'regions'
p26
g3
((lp27
S"(157, u'(?i)(limbics|limbic)(-|\\\\s+)?(systems|system)')"
p28
aS"(71, u'(?i)(cerebellums|cerebellum)')"
p29
aS"(34, u'(?i)(pon|pons)')"
p30
aS"(126, u'(?i)(thalamuses|thalamus)')"
p31
aS"(225, u'(?i)(ventrals|ventral)(-|\\\\s+)?(striatums|striatum)')"
p32
aS"(222, u'(?i)(neostriatums|neostriatum)')"
p33
aS"(220, u'(?i)(striatums|striatum)')"
p34
atp35
Rp36
sS'year'
p37
V2010
p38
sS'agonists'
p39
g3
((lp40
tp41
Rp42
sS'species'
p43
g3
((lp44
S"(1070, u'(?i)(pets|pet)')"
p45
aS"(5958, u'(?i)(rats|rat)')"
p46
aS"(867, u'(?i)(tits|tit)')"
p47
aS"(6753, u'(?i)(da|das)')"
p48
aS"(479, u'(?i)(lings|ling)')"
p49
aS"(1055, u'(?i)(men|man)')"
p50
aS"(6249, u'(?i)(ants|ant)')"
p51
aS"(3152, u'(?i)(layers|layer)')"
p52
aS"(4979, u'(?i)(cats|cat)')"
p53
aS"(3550, u'(?i)(anis|ani)')"
p54
aS"(3812, u'(?i)(studs|stud)')"
p55
aS"(6391, u'(?i)(asses|ass)')"
p56
aS"(6356, u'(?i)(ais|ai)')"
p57
atp58
Rp59
sb.