(ifile_types
ParseObject
p0
(dp1
S'methods'
p2
c__builtin__
set
p3
((lp4
S'Method.ANTAGONIST'
p5
aS'Method.AGONIST'
p6
atp7
Rp8
sS'topics'
p9
g3
((lp10
S"(8, u'\\\\banxi')"
p11
aS"(26, u'\\\\bbehav')"
p12
aS"(4, u'\\\\btreatment')"
p13
atp14
Rp15
sS'receptors'
p16
g3
((lp17
(S'5ht2c'
p18
I1185
I1191
tp19
a(S'5ht3'
p20
I1039
I1044
tp21
a(S'5ht1a'
p22
I970
I976
tp23
a(S'5ht2b'
p24
I919
I927
tp25
a(S'5ht1b'
p26
I1004
I1010
tp27
a(S'5ht2c'
p28
I919
I925
tp29
a(S'5ht2c'
p30
I1628
I1634
tp31
atp32
Rp33
sS'raw_text_methods'
p34
g3
((lp35
S"(13, u'\\\\bagonist')"
p36
aS"(11, u'\\\\bfluoxetine')"
p37
aS"(52, u'\\\\bmk212')"
p38
aS"(39, u'\\\\bselective serotonin reuptake inhibitor')"
p39
aS"(12, u'\\\\bantagonist')"
p40
atp41
Rp42
sS'regions'
p43
g3
((lp44
tp45
Rp46
sS'year'
p47
V2006
p48
sS'species'
p49
g3
((lp50
S"(4, u'(?i)\\\\b(rats|rat)\\\\b')"
p51
atp52
Rp53
sb.