(ifile_types
ParseObject
p0
(dp1
S'methods'
p2
c__builtin__
set
p3
((lp4
S'Method.ANTAGONIST'
p5
aS'Method.AGONIST'
p6
atp7
Rp8
sS'topics'
p9
g3
((lp10
S"(8, u'\\\\banxi')"
p11
aS"(7, u'\\\\bdepressi')"
p12
aS"(26, u'\\\\bbehav')"
p13
aS"(4, u'\\\\btreatment')"
p14
atp15
Rp16
sS'receptors'
p17
g3
((lp18
(S'5ht1a'
p19
I803
I809
tp20
a(S'5ht2a'
p21
I669
I675
tp22
a(S'5ht2c'
p23
I1628
I1635
tp24
a(S'5ht2a'
p25
I1818
I1824
tp26
a(S'5ht2c'
p27
I929
I936
tp28
a(S'5ht2a'
p29
I2136
I2142
tp30
a(S'5ht2c'
p31
I1312
I1318
tp32
a(S'5ht2a'
p33
I405
I416
tp34
a(S'5ht2c'
p35
I442
I448
tp36
a(S'5ht2c'
p37
I2136
I2143
tp38
a(S'5ht1a'
p39
I454
I465
tp40
a(S'5ht2c'
p41
I1406
I1413
tp42
a(S'5ht2a'
p43
I145
I151
tp44
a(S'5ht2c'
p45
I758
I764
tp46
a(S'5ht1a'
p47
I1914
I1920
tp48
a(S'5ht1a'
p49
I1482
I1493
tp50
a(S'5ht2a'
p51
I1406
I1412
tp52
a(S'5ht2c'
p53
I1818
I1825
tp54
a(S'5ht2c'
p55
I1027
I1034
tp56
a(S'5ht2'
p57
I1985
I1995
tp58
a(S'5ht2c'
p59
I92
I99
tp60
a(S'5ht2a'
p61
I929
I935
tp62
a(S'5ht2a'
p63
I419
I425
tp64
a(S'5ht2c'
p65
I145
I152
tp66
a(S'5ht2a'
p67
I92
I98
tp68
a(S'5ht2a'
p69
I1027
I1033
tp70
a(S'5ht2a'
p71
I1213
I1219
tp72
a(S'5ht1a'
p73
I468
I474
tp74
a(S'5ht2'
p75
I419
I425
tp76
a(S'5ht1a'
p77
I2125
I2131
tp78
a(S'5ht2c'
p79
I1881
I1888
tp80
a(S'5ht2a'
p81
I715
I721
tp82
a(S'5ht2a'
p83
I1628
I1634
tp84
a(S'5ht2a'
p85
I1881
I1887
tp86
a(S'5ht2c'
p87
I428
I439
tp88
a(S'5ht2c'
p89
I669
I676
tp90
atp91
Rp92
sS'raw_text_methods'
p93
g3
((lp94
S"(53, u'\\\\bketanserin')"
p95
aS"(23, u'\\\\bmdl')"
p96
aS"(13, u'\\\\bagonist')"
p97
aS"(11, u'\\\\bfluoxetine')"
p98
aS"(49, u'\\\\bdoi')"
p99
aS"(51, u'\\\\bway100635')"
p100
aS"(39, u'\\\\bselective serotonin reuptake inhibitor')"
p101
aS"(12, u'\\\\bantagonist')"
p102
atp103
Rp104
sS'regions'
p105
g3
((lp106
S"(20, u'(?i)\\\\b(prefrontals|prefrontal)\\\\b')"
p107
aS"(19, u'(?i)\\\\b(cortexes|cortex)\\\\b')"
p108
atp109
Rp110
sS'year'
p111
V2014
p112
sS'species'
p113
g3
((lp114
S"(6, u'(?i)\\\\b(rodents|rodent)\\\\b')"
p115
aS"(4, u'(?i)\\\\b(rats|rat)\\\\b')"
p116
atp117
Rp118
sb.