(ifile_types
ParseObject
p0
(dp1
S'methods'
p2
c__builtin__
set
p3
((lp4
S'Method.KNOCKOUT'
p5
atp6
Rp7
sS'topics'
p8
g3
((lp9
S"(16, u'\\\\blearning')"
p10
aS"(26, u'\\\\bbehav')"
p11
atp12
Rp13
sS'receptors'
p14
g3
((lp15
(S'5ht7'
p16
I172
I177
tp17
a(S'5ht7'
p18
I403
I408
tp19
a(S'5ht7'
p20
I345
I350
tp21
a(S'5ht7'
p22
I702
I707
tp23
a(S'5ht7'
p24
I228
I233
tp25
a(S'5ht7'
p26
I868
I873
tp27
a(S'5ht7'
p28
I45
I50
tp29
atp30
Rp31
sS'raw_text_methods'
p32
g3
((lp33
tp34
Rp35
sS'regions'
p36
g3
((lp37
tp38
Rp39
sS'year'
p40
V2004
p41
sS'species'
p42
g3
((lp43
S"(1, u'(?i)\\\\b(mice|mouse)\\\\b')"
p44
aS"(5, u'(?i)\\\\b(mices|mice)\\\\b')"
p45
atp46
Rp47
sb.