(ifile_types
ParseObject
p0
(dp1
S'methods'
p2
c__builtin__
set
p3
((lp4
S'Method.ANTAGONIST'
p5
atp6
Rp7
sS'topics'
p8
g3
((lp9
S"(24, u'\\\\banxiolytic')"
p10
aS"(8, u'\\\\banxi')"
p11
aS"(26, u'\\\\bbehav')"
p12
aS"(7, u'\\\\bdepressi')"
p13
aS"(13, u'\\\\bantidepress')"
p14
atp15
Rp16
sS'receptors'
p17
g3
((lp18
(S'5ht7'
p19
I76
I81
tp20
a(S'5ht3'
p21
I305
I310
tp22
a(S'5ht7'
p23
I577
I582
tp24
a(S'5ht7'
p25
I294
I299
tp26
a(S'5ht3'
p27
I1185
I1190
tp28
a(S'5ht1a'
p29
I286
I292
tp30
a(S'5ht1a'
p31
I2160
I2166
tp32
a(S'5ht3'
p33
I87
I92
tp34
a(S'5ht1a'
p35
I68
I74
tp36
a(S'5ht3'
p37
I2179
I2184
tp38
a(S'5ht1a'
p39
I566
I572
tp40
a(S'5ht7'
p41
I2168
I2173
tp42
a(S'5ht3'
p43
I1274
I1279
tp44
atp45
Rp46
sS'raw_text_methods'
p47
g3
((lp48
S"(11, u'\\\\bfluoxetine')"
p49
aS"(12, u'\\\\bantagonist')"
p50
atp51
Rp52
sS'regions'
p53
g3
((lp54
tp55
Rp56
sS'year'
p57
V2018
p58
sS'species'
p59
g3
((lp60
S"(1, u'(?i)\\\\b(mice|mouse)\\\\b')"
p61
aS"(6, u'(?i)\\\\b(rodents|rodent)\\\\b')"
p62
aS"(5, u'(?i)\\\\b(mices|mice)\\\\b')"
p63
atp64
Rp65
sb.