(ifile_types
ParseObject
p0
(dp1
S'methods'
p2
c__builtin__
set
p3
((lp4
S'Method.STIMULATION'
p5
aS'Method.ANTAGONIST'
p6
atp7
Rp8
sS'topics'
p9
g3
((lp10
S"(22, u'\\\\bschizophreni')"
p11
aS"(23, u'\\\\bantipsychotic')"
p12
atp13
Rp14
sS'receptors'
p15
g3
((lp16
(S'5ht1'
p17
I1115
I1120
tp18
a(S'5ht1'
p19
I2049
I2054
tp20
a(S'5ht1'
p21
I937
I942
tp22
a(S'5ht1a'
p23
I83
I94
tp24
a(S'5ht1'
p25
I1334
I1339
tp26
a(S'5ht1'
p27
I1757
I1762
tp28
a(S'5ht1a'
p29
I757
I768
tp30
a(S'5ht1'
p31
I780
I785
tp32
atp33
Rp34
sS'raw_text_methods'
p35
g3
((lp36
S"(51, u'\\\\bway100635')"
p37
aS"(40, u'\\\\bclozapine')"
p38
aS"(12, u'\\\\bantagonist')"
p39
atp40
Rp41
sS'regions'
p42
g3
((lp43
S"(20, u'(?i)\\\\b(prefrontals|prefrontal)\\\\b')"
p44
aS"(19, u'(?i)\\\\b(cortexes|cortex)\\\\b')"
p45
atp46
Rp47
sS'year'
p48
V2012
p49
sS'species'
p50
g3
((lp51
tp52
Rp53
sb.