(ifile_types
ParseObject
p0
(dp1
S'methods'
p2
c__builtin__
set
p3
((lp4
tp5
Rp6
sS'topics'
p7
g3
((lp8
S"(23, u'\\\\bantipsychotic')"
p9
atp10
Rp11
sS'receptors'
p12
g3
((lp13
(S'5ht2c'
p14
I146
I152
tp15
a(S'5ht2a'
p16
I773
I779
tp17
a(S'5ht2b'
p18
I781
I787
tp19
a(S'5ht2a'
p20
I1141
I1147
tp21
a(S'5ht2'
p22
I789
I795
tp23
a(S'5ht2c'
p24
I789
I795
tp25
a(S'5ht2a'
p26
I130
I136
tp27
a(S'5ht2b'
p28
I138
I144
tp29
atp30
Rp31
sS'raw_text_methods'
p32
g3
((lp33
tp34
Rp35
sS'regions'
p36
g3
((lp37
tp38
Rp39
sS'year'
p40
V2000
p41
sS'species'
p42
g3
((lp43
tp44
Rp45
sb.