(ifile_types
ParseObject
p0
(dp1
S'methods'
p2
c__builtin__
set
p3
((lp4
S'Method.AGONIST'
p5
atp6
Rp7
sS'topics'
p8
g3
((lp9
S"(10, u'\\\\bocd')"
p10
aS"(26, u'\\\\bbehav')"
p11
aS"(9, u'\\\\bstress')"
p12
aS"(2, u'\\\\bdisorder')"
p13
atp14
Rp15
sS'receptors'
p16
g3
((lp17
(S'5ht1a'
p18
I683
I689
tp19
atp20
Rp21
sS'raw_text_methods'
p22
g3
((lp23
S"(13, u'\\\\bagonist')"
p24
aS"(15, u'\\\\b8ohdpat')"
p25
atp26
Rp27
sS'regions'
p28
g3
((lp29
tp30
Rp31
sS'year'
p32
V2005
p33
sS'species'
p34
g3
((lp35
S"(2, u'(?i)\\\\b(females|female)\\\\b')"
p36
aS"(3, u'(?i)\\\\b(males|male)\\\\b')"
p37
aS"(4, u'(?i)\\\\b(rats|rat)\\\\b')"
p38
atp39
Rp40
sb.