(ifile_types
ParseObject
p0
(dp1
S'antagonists'
p2
c__builtin__
set
p3
((lp4
S"(32, u'\\\\bway ?100635')"
p5
aS"(130, u'\\\\britanserin')"
p6
aS"(21, u'\\\\bpindolol')"
p7
aS"(54, u'\\\\britanserin')"
p8
aS"(22, u'\\\\bpropranolol')"
p9
aS"(201, u'\\\\bpimozide')"
p10
atp11
Rp12
sS'methods'
p13
g3
((lp14
S'Method.ANTAGONIST'
p15
atp16
Rp17
sS'topics'
p18
g3
((lp19
tp20
Rp21
sS'receptors'
p22
g3
((lp23
S'5ht1c'
p24
aS'5ht1b'
p25
aS'5ht5'
p26
aS'5ht1a'
p27
aS'5ht2'
p28
atp29
Rp30
sS'regions'
p31
g3
((lp32
S"(34, u'(?i)(pon|pons)')"
p33
atp34
Rp35
sS'year'
p36
V1999
p37
sS'agonists'
p38
g3
((lp39
tp40
Rp41
sS'species'
p42
g3
((lp43
S"(4624, u'(?i)(apes|ape)')"
p44
aS"(6753, u'(?i)(da|das)')"
p45
aS"(5958, u'(?i)(rats|rat)')"
p46
aS"(867, u'(?i)(tits|tit)')"
p47
aS"(4979, u'(?i)(cats|cat)')"
p48
aS"(4163, u'(?i)(ermines|ermine)')"
p49
aS"(1725, u'(?i)(clams|clam)')"
p50
aS"(468, u'(?i)(oxen|ox)')"
p51
aS"(1055, u'(?i)(men|man)')"
p52
aS"(3592, u'(?i)(ravens|raven)')"
p53
aS"(4964, u'(?i)(serins|serin)')"
p54
aS"(6249, u'(?i)(ants|ant)')"
p55
aS"(3522, u'(?i)(tetras|tetra)')"
p56
aS"(2809, u'(?i)(toms|tom)')"
p57
atp58
Rp59
sb.