(ifile_types
ParseObject
p0
(dp1
S'methods'
p2
c__builtin__
set
p3
((lp4
S'Method.STIMULATION'
p5
aS'Method.ANTAGONIST'
p6
atp7
Rp8
sS'topics'
p9
g3
((lp10
S"(6, u'\\\\baggressi')"
p11
aS"(26, u'\\\\bbehav')"
p12
atp13
Rp14
sS'receptors'
p15
g3
((lp16
(S'5ht2c'
p17
I1751
I1757
tp18
a(S'5ht2c'
p19
I1975
I1981
tp20
a(S'5ht2'
p21
I1584
I1589
tp22
a(S'5ht2c'
p23
I1626
I1632
tp24
a(S'5ht2'
p25
I49
I54
tp26
atp27
Rp28
sS'raw_text_methods'
p29
g3
((lp30
S"(2, u'\\\\blabeling')"
p31
aS"(12, u'\\\\bantagonist')"
p32
atp33
Rp34
sS'regions'
p35
g3
((lp36
tp37
Rp38
sS'year'
p39
V2008
p40
sS'species'
p41
g3
((lp42
tp43
Rp44
sb.