(ifile_types
ParseObject
p0
(dp1
S'methods'
p2
c__builtin__
set
p3
((lp4
S'Method.ANTAGONIST'
p5
aS'Method.AGONIST'
p6
atp7
Rp8
sS'topics'
p9
g3
((lp10
S"(4, u'\\\\btreatment')"
p11
atp12
Rp13
sS'receptors'
p14
g3
((lp15
(S'5ht1a'
p16
I369
I375
tp17
a(S'5ht1a'
p18
I1445
I1451
tp19
a(S'5ht1a'
p20
I1876
I1882
tp21
a(S'5ht1a'
p22
I1810
I1816
tp23
a(S'5ht1a'
p24
I616
I622
tp25
a(S'5ht1a'
p26
I228
I234
tp27
a(S'5ht1a'
p28
I61
I72
tp29
a(S'5ht1a'
p30
I214
I225
tp31
atp32
Rp33
sS'raw_text_methods'
p34
g3
((lp35
S"(13, u'\\\\bagonist')"
p36
aS"(2, u'\\\\blabeling')"
p37
aS"(15, u'\\\\b8ohdpat')"
p38
aS"(12, u'\\\\bantagonist')"
p39
atp40
Rp41
sS'regions'
p42
g3
((lp43
tp44
Rp45
sS'year'
p46
V2001
p47
sS'species'
p48
g3
((lp49
tp50
Rp51
sb.