(ifile_types
ParseObject
p0
(dp1
S'antagonists'
p2
c__builtin__
set
p3
((lp4
S"(209, u'\\\\btfmpp')"
p5
atp6
Rp7
sS'methods'
p8
g3
((lp9
S'Method.AGONIST'
p10
atp11
Rp12
sS'topics'
p13
g3
((lp14
S"(20, u'\\\\baggressi')"
p15
atp16
Rp17
sS'receptors'
p18
g3
((lp19
S'5ht1b'
p20
aS'5ht1a'
p21
aS'5ht5'
p22
aS'5ht2'
p23
aS'5ht1'
p24
atp25
Rp26
sS'regions'
p27
g3
((lp28
tp29
Rp30
sS'year'
p31
V1995
p32
sS'agonists'
p33
g3
((lp34
S"(92, u'\\\\b8 ?oh ?dpat')"
p35
aS"(183, u'\\\\btfmpp')"
p36
atp37
Rp38
sS'species'
p39
g3
((lp40
S"(1070, u'(?i)(pets|pet)')"
p41
aS"(5958, u'(?i)(rats|rat)')"
p42
aS"(867, u'(?i)(tits|tit)')"
p43
aS"(3404, u'(?i)(titis|titi)')"
p44
aS"(6249, u'(?i)(ants|ant)')"
p45
aS"(3812, u'(?i)(studs|stud)')"
p46
aS"(7058, u'(?i)(does|doe)')"
p47
atp48
Rp49
sb.