(ifile_types
ParseObject
p0
(dp1
S'methods'
p2
c__builtin__
set
p3
((lp4
S'Method.ANTAGONIST'
p5
atp6
Rp7
sS'topics'
p8
g3
((lp9
S"(32, u'\\\\bvomit')"
p10
aS"(4, u'\\\\btreatment')"
p11
atp12
Rp13
sS'receptors'
p14
g3
((lp15
(S'5ht3'
p16
I42
I47
tp17
a(S'5ht3'
p18
I210
I215
tp19
a(S'5ht3'
p20
I778
I783
tp21
a(S'5ht3'
p22
I1941
I1946
tp23
a(S'5ht3'
p24
I677
I681
tp25
atp26
Rp27
sS'raw_text_methods'
p28
g3
((lp29
S"(20, u'\\\\bondansetron')"
p30
aS"(12, u'\\\\bantagonist')"
p31
atp32
Rp33
sS'regions'
p34
g3
((lp35
tp36
Rp37
sS'year'
p38
V2010
p39
sS'species'
p40
g3
((lp41
S"(4, u'(?i)\\\\b(rats|rat)\\\\b')"
p42
atp43
Rp44
sb.