(ifile_types
ParseObject
p0
(dp1
S'methods'
p2
c__builtin__
set
p3
((lp4
S'Method.ANTAGONIST'
p5
aS'Method.AGONIST'
p6
atp7
Rp8
sS'topics'
p9
g3
((lp10
S"(26, u'\\\\bbehav')"
p11
aS"(17, u'\\\\balzheimer')"
p12
aS"(2, u'\\\\bdisorder')"
p13
aS"(7, u'\\\\bdepressi')"
p14
aS"(15, u'\\\\bmemory')"
p15
aS"(16, u'\\\\blearning')"
p16
atp17
Rp18
sS'receptors'
p19
g3
((lp20
(S'5ht6'
p21
I1229
I1234
tp22
a(S'5ht6'
p23
I400
I405
tp24
a(S'5ht7'
p25
I727
I731
tp26
a(S'5ht6'
p27
I602
I607
tp28
a(S'5ht6'
p29
I194
I199
tp30
a(S'5ht6'
p31
I124
I129
tp32
a(S'5ht6'
p33
I531
I536
tp34
a(S'5ht1a'
p35
I718
I723
tp36
a(S'5ht2b'
p37
I709
I714
tp38
a(S'5ht6'
p39
I1098
I1103
tp40
a(S'5ht6'
p41
I1037
I1042
tp42
a(S'5ht6'
p43
I801
I806
tp44
atp45
Rp46
sS'raw_text_methods'
p47
g3
((lp48
S"(13, u'\\\\bagonist')"
p49
aS"(12, u'\\\\bantagonist')"
p50
atp51
Rp52
sS'regions'
p53
g3
((lp54
tp55
Rp56
sS'year'
p57
V2011
p58
sS'species'
p59
g3
((lp60
tp61
Rp62
sb.