(ifile_types
ParseObject
p0
(dp1
S'antagonists'
p2
c__builtin__
set
p3
((lp4
tp5
Rp6
sS'methods'
p7
g3
((lp8
S'Method.AGONIST'
p9
atp10
Rp11
sS'topics'
p12
g3
((lp13
S"(9, u'\\\\bdepress')"
p14
aS"(10, u'\\\\banxiety')"
p15
atp16
Rp17
sS'receptors'
p18
g3
((lp19
S'5ht1a'
p20
atp21
Rp22
sS'regions'
p23
g3
((lp24
tp25
Rp26
sS'year'
p27
V2018
p28
sS'agonists'
p29
g3
((lp30
S"(80, u'\\\\btandospirone')"
p31
aS"(193, u'\\\\bethanol')"
p32
atp33
Rp34
sS'species'
p35
g3
((lp36
S"(5537, u'(?i)(hippos|hippo)')"
p37
aS"(5176, u'(?i)(tegs|teg)')"
p38
aS"(949, u'(?i)(cohoes|coho)')"
p39
aS"(5958, u'(?i)(rats|rat)')"
p40
aS"(163, u'(?i)(mice|mouse)')"
p41
aS"(6753, u'(?i)(da|das)')"
p42
aS"(479, u'(?i)(lings|ling)')"
p43
aS"(6682, u'(?i)(tera|teras)')"
p44
aS"(1055, u'(?i)(men|man)')"
p45
aS"(4979, u'(?i)(cats|cat)')"
p46
aS"(3550, u'(?i)(anis|ani)')"
p47
aS"(1961, u'(?i)(pens|pen)')"
p48
aS"(6356, u'(?i)(ais|ai)')"
p49
aS"(6391, u'(?i)(asses|ass)')"
p50
aS"(5863, u'(?i)(entires|entire)')"
p51
aS"(7552, u'(?i)(bats|bat)')"
p52
atp53
Rp54
sb.