(ifile_types
ParseObject
p0
(dp1
S'methods'
p2
c__builtin__
set
p3
((lp4
S'Method.AGONIST'
p5
atp6
Rp7
sS'topics'
p8
g3
((lp9
S"(26, u'\\\\bbehav')"
p10
aS"(9, u'\\\\bstress')"
p11
aS"(4, u'\\\\btreatment')"
p12
atp13
Rp14
sS'receptors'
p15
g3
((lp16
(S'5ht1a'
p17
I1865
I1871
tp18
a(S'5ht1a'
p19
I803
I809
tp20
a(S'5ht1a'
p21
I90
I96
tp22
a(S'5ht1a'
p23
I1756
I1762
tp24
a(S'5ht1a'
p25
I1980
I1986
tp26
a(S'5ht1a'
p27
I1238
I1244
tp28
a(S'5ht1a'
p29
I1474
I1480
tp30
a(S'5ht1a'
p31
I1640
I1646
tp32
a(S'5ht1a'
p33
I695
I701
tp34
atp35
Rp36
sS'raw_text_methods'
p37
g3
((lp38
S"(13, u'\\\\bagonist')"
p39
atp40
Rp41
sS'regions'
p42
g3
((lp43
S"(20, u'(?i)\\\\b(prefrontals|prefrontal)\\\\b')"
p44
aS"(19, u'(?i)\\\\b(cortexes|cortex)\\\\b')"
p45
aS"(16, u'(?i)\\\\b(drns|drn)\\\\b')"
p46
atp47
Rp48
sS'year'
p49
V2011
p50
sS'species'
p51
g3
((lp52
S"(4, u'(?i)\\\\b(rats|rat)\\\\b')"
p53
atp54
Rp55
sb.