(ifile_types
ParseObject
p0
(dp1
S'methods'
p2
c__builtin__
set
p3
((lp4
S'Method.ANTAGONIST'
p5
aS'Method.AGONIST'
p6
atp7
Rp8
sS'topics'
p9
g3
((lp10
tp11
Rp12
sS'receptors'
p13
g3
((lp14
(S'5ht1a'
p15
I1289
I1295
tp16
a(S'5ht7'
p17
I650
I655
tp18
a(S'5ht1a'
p19
I55
I61
tp20
a(S'5ht1a'
p21
I1365
I1371
tp22
a(S'5ht1a'
p23
I547
I553
tp24
a(S'5ht1a'
p25
I333
I339
tp26
a(S'5ht1a'
p27
I963
I969
tp28
atp29
Rp30
sS'raw_text_methods'
p31
g3
((lp32
S"(53, u'\\\\bketanserin')"
p33
aS"(41, u'\\\\bhaloperidol')"
p34
aS"(15, u'\\\\b8ohdpat')"
p35
aS"(13, u'\\\\bagonist')"
p36
aS"(11, u'\\\\bfluoxetine')"
p37
aS"(48, u'\\\\bmdma')"
p38
atp39
Rp40
sS'regions'
p41
g3
((lp42
S"(19, u'(?i)\\\\b(cortexes|cortex)\\\\b')"
p43
atp44
Rp45
sS'year'
p46
V1998
p47
sS'species'
p48
g3
((lp49
S"(4, u'(?i)\\\\b(rats|rat)\\\\b')"
p50
atp51
Rp52
sb.