(ifile_types
ParseObject
p0
(dp1
S'methods'
p2
c__builtin__
set
p3
((lp4
S'Method.ANTAGONIST'
p5
aS'Method.AGONIST'
p6
atp7
Rp8
sS'topics'
p9
g3
((lp10
tp11
Rp12
sS'receptors'
p13
g3
((lp14
(S'5ht3'
p15
I2221
I2226
tp16
a(S'5ht3'
p17
I1879
I1884
tp18
a(S'5ht3'
p19
I1783
I1788
tp20
atp21
Rp22
sS'raw_text_methods'
p23
g3
((lp24
S"(13, u'\\\\bagonist')"
p25
aS"(49, u'\\\\bdoi')"
p26
aS"(28, u'\\\\bzacopride')"
p27
aS"(12, u'\\\\bantagonist')"
p28
atp29
Rp30
sS'regions'
p31
g3
((lp32
tp33
Rp34
sS'year'
p35
V2009
p36
sS'species'
p37
g3
((lp38
tp39
Rp40
sb.