(ifile_types
ParseObject
p0
(dp1
S'methods'
p2
c__builtin__
set
p3
((lp4
S'Method.ANTAGONIST'
p5
aS'Method.AGONIST'
p6
atp7
Rp8
sS'topics'
p9
g3
((lp10
S"(22, u'\\\\bschizophreni')"
p11
aS"(2, u'\\\\bdisorder')"
p12
aS"(7, u'\\\\bdepressi')"
p13
aS"(5, u'\\\\btherap')"
p14
aS"(30, u'\\\\bpain')"
p15
aS"(8, u'\\\\banxi')"
p16
atp17
Rp18
sS'receptors'
p19
g3
((lp20
(S'5ht2a'
p21
I577
I583
tp22
a(S'5ht2'
p23
I530
I535
tp24
a(S'5ht2a'
p25
I938
I944
tp26
a(S'5ht2b'
p27
I587
I593
tp28
a(S'5ht2a'
p29
I814
I820
tp30
a(S'5ht2'
p31
I222
I227
tp32
a(S'5ht2c'
p33
I600
I606
tp34
a(S'5ht2'
p35
I83
I88
tp36
atp37
Rp38
sS'raw_text_methods'
p39
g3
((lp40
S"(13, u'\\\\bagonist')"
p41
aS"(12, u'\\\\bantagonist')"
p42
atp43
Rp44
sS'regions'
p45
g3
((lp46
tp47
Rp48
sS'year'
p49
V2001
p50
sS'species'
p51
g3
((lp52
tp53
Rp54
sb.