(ifile_types
ParseObject
p0
(dp1
S'antagonists'
p2
c__builtin__
set
p3
((lp4
S"(84, u'\\\\bsb ?206553')"
p5
aS"(99, u'\\\\bsb ?242084')"
p6
aS"(110, u'\\\\bclozapine')"
p7
aS"(121, u'\\\\bsb ?243213')"
p8
aS"(58, u'\\\\bhaloperidol')"
p9
atp10
Rp11
sS'methods'
p12
g3
((lp13
S'Method.ANTAGONIST'
p14
aS'Method.AGONIST'
p15
atp16
Rp17
sS'topics'
p18
g3
((lp19
tp20
Rp21
sS'receptors'
p22
g3
((lp23
S'5ht2c'
p24
atp25
Rp26
sS'regions'
p27
g3
((lp28
S"(220, u'(?i)\\\\b(striatums|striatum)\\\\b')"
p29
aS"(226, u'(?i)\\\\b(nuclei|nucleus)(-|\\\\s+)?(accumben|accumbens)\\\\b')"
p30
atp31
Rp32
sS'year'
p33
V2006
p34
sS'agonists'
p35
g3
((lp36
S"(23, u'\\\\bclozapine')"
p37
aS"(43, u'\\\\bhaloperidol')"
p38
atp39
Rp40
sS'species'
p41
g3
((lp42
S"(6753, u'(?i)\\\\b(da|das)\\\\b')"
p43
aS"(5958, u'(?i)\\\\b(rats|rat)\\\\b')"
p44
atp45
Rp46
sb.