(ifile_types
ParseObject
p0
(dp1
S'antagonists'
p2
c__builtin__
set
p3
((lp4
S"(23, u'\\\\brisperidone')"
p5
aS"(59, u'\\\\brisperidone')"
p6
atp7
Rp8
sS'methods'
p9
g3
((lp10
S'Method.KNOCKOUT'
p11
atp12
Rp13
sS'topics'
p14
g3
((lp15
S"(15, u'\\\\bschizophreni')"
p16
aS"(6, u'\\\\bcognit')"
p17
aS"(1, u'\\\\bmood')"
p18
atp19
Rp20
sS'receptors'
p21
g3
((lp22
S'5ht2c'
p23
aS'5ht2a'
p24
atp25
Rp26
sS'regions'
p27
g3
((lp28
S"(255, u'(?i)(pres|pre)(-|\\\\s+)?(frontals|frontal)(-|\\\\s+)?(cortexes|cortex)')"
p29
aS"(254, u'(?i)(prefrontals|prefrontal)(-|\\\\s+)?(cortexes|cortex)')"
p30
aS"(49, u'(?i)(loci|locus)(-|\\\\s+)?(coeruleuses|coeruleus)')"
p31
aS"(34, u'(?i)(pon|pons)')"
p32
atp33
Rp34
sS'year'
p35
V2011
p36
sS'agonists'
p37
g3
((lp38
S"(33, u'\\\\bdoi')"
p39
atp40
Rp41
sS'species'
p42
g3
((lp43
S"(2323, u'(?i)(bees|bee)')"
p44
aS"(4624, u'(?i)(apes|ape)')"
p45
aS"(6753, u'(?i)(da|das)')"
p46
aS"(5958, u'(?i)(rats|rat)')"
p47
aS"(3601, u'(?i)(efts|eft)')"
p48
aS"(163, u'(?i)(mice|mouse)')"
p49
aS"(6682, u'(?i)(tera|teras)')"
p50
aS"(468, u'(?i)(oxen|ox)')"
p51
aS"(1055, u'(?i)(men|man)')"
p52
aS"(5176, u'(?i)(tegs|teg)')"
p53
aS"(3550, u'(?i)(anis|ani)')"
p54
aS"(1961, u'(?i)(pens|pen)')"
p55
aS"(3812, u'(?i)(studs|stud)')"
p56
aS"(6356, u'(?i)(ais|ai)')"
p57
atp58
Rp59
sb.