(ifile_types
ParseObject
p0
(dp1
S'antagonists'
p2
c__builtin__
set
p3
((lp4
S"(111, u'\\\\bolanzapine')"
p5
atp6
Rp7
sS'methods'
p8
g3
((lp9
S'Method.ANTAGONIST'
p10
atp11
Rp12
sS'topics'
p13
g3
((lp14
S"(32, u'\\\\bnausea')"
p15
aS"(15, u'\\\\bschizophreni')"
p16
aS"(28, u'\\\\bemesis')"
p17
atp18
Rp19
sS'receptors'
p20
g3
((lp21
S'5ht6'
p22
aS'5ht3'
p23
aS'5ht2c'
p24
aS'5ht2'
p25
aS'5ht2a'
p26
atp27
Rp28
sS'regions'
p29
g3
((lp30
tp31
Rp32
sS'year'
p33
V2014
p34
sS'agonists'
p35
g3
((lp36
S"(57, u'\\\\bolanzapine')"
p37
atp38
Rp39
sS'species'
p40
g3
((lp41
tp42
Rp43
sb.