(ifile_types
ParseObject
p0
(dp1
S'antagonists'
p2
c__builtin__
set
p3
((lp4
S"(41, u'\\\\bbrl ?15572')"
p5
aS"(38, u'\\\\bsb ?224289')"
p6
atp7
Rp8
sS'methods'
p9
g3
((lp10
S'Method.ANTAGONIST'
p11
aS'Method.AGONIST'
p12
atp13
Rp14
sS'topics'
p15
g3
((lp16
tp17
Rp18
sS'receptors'
p19
g3
((lp20
S'5ht1b'
p21
aS'5ht1a'
p22
aS'5ht1'
p23
aS'5ht1d'
p24
atp25
Rp26
sS'regions'
p27
g3
((lp28
tp29
Rp30
sS'year'
p31
V2006
p32
sS'agonists'
p33
g3
((lp34
S"(110, u'\\\\bpnu ?142633')"
p35
aS"(108, u'\\\\bpnu ?109291')"
p36
aS"(96, u'\\\\bsumatriptan')"
p37
atp38
Rp39
sS'species'
p40
g3
((lp41
S"(4208, u'(?i)\\\\b(canines|canine)\\\\b')"
p42
aS"(5949, u'(?i)\\\\b(dogs|dog)\\\\b')"
p43
atp44
Rp45
sb.