(ifile_types
ParseObject
p0
(dp1
S'methods'
p2
c__builtin__
set
p3
((lp4
tp5
Rp6
sS'topics'
p7
g3
((lp8
S"(26, u'\\\\bbehav')"
p9
aS"(2, u'\\\\bdisorder')"
p10
aS"(7, u'\\\\bdepressi')"
p11
aS"(9, u'\\\\bstress')"
p12
aS"(8, u'\\\\banxi')"
p13
aS"(3, u'\\\\bclinical')"
p14
atp15
Rp16
sS'receptors'
p17
g3
((lp18
(S'5ht1a'
p19
I1448
I1454
tp20
atp21
Rp22
sS'raw_text_methods'
p23
g3
((lp24
tp25
Rp26
sS'regions'
p27
g3
((lp28
S"(4, u'(?i)\\\\b(presynaptics|presynaptic)\\\\b')"
p29
atp30
Rp31
sS'year'
p32
V2002
p33
sS'species'
p34
g3
((lp35
S"(1, u'(?i)\\\\b(mice|mouse)\\\\b')"
p36
aS"(5, u'(?i)\\\\b(mices|mice)\\\\b')"
p37
atp38
Rp39
sb.