(ifile_types
ParseObject
p0
(dp1
S'antagonists'
p2
c__builtin__
set
p3
((lp4
tp5
Rp6
sS'methods'
p7
g3
((lp8
S'Method.AGONIST'
p9
atp10
Rp11
sS'topics'
p12
g3
((lp13
S"(20, u'\\\\baggressi')"
p14
atp15
Rp16
sS'receptors'
p17
g3
((lp18
S'5ht1a'
p19
atp20
Rp21
sS'regions'
p22
g3
((lp23
S"(126, u'(?i)(thalamuses|thalamus)')"
p24
atp25
Rp26
sS'year'
p27
V1992
p28
sS'agonists'
p29
g3
((lp30
S"(181, u'\\\\bdom')"
p31
aS"(50, u'\\\\bipsapirone')"
p32
atp33
Rp34
sS'species'
p35
g3
((lp36
S"(6753, u'(?i)(da|das)')"
p37
aS"(5958, u'(?i)(rats|rat)')"
p38
aS"(4627, u'(?i)(domesticateds|domesticated)(-|\\\\s+)?(animals|animal)')"
p39
aS"(1055, u'(?i)(men|man)')"
p40
aS"(6249, u'(?i)(ants|ant)')"
p41
aS"(4979, u'(?i)(cats|cat)')"
p42
aS"(3550, u'(?i)(anis|ani)')"
p43
aS"(6115, u'(?i)(predators|predator)')"
p44
atp45
Rp46
sb.