(ifile_types
ParseObject
p0
(dp1
S'antagonists'
p2
c__builtin__
set
p3
((lp4
S"(21, u'\\\\bpindolol')"
p5
atp6
Rp7
sS'methods'
p8
g3
((lp9
tp10
Rp11
sS'topics'
p12
g3
((lp13
S"(9, u'\\\\bdepress')"
p14
aS"(16, u'\\\\bfeed')"
p15
atp16
Rp17
sS'receptors'
p18
g3
((lp19
S'5ht1b'
p20
aS'5ht1a'
p21
atp22
Rp23
sS'regions'
p24
g3
((lp25
tp26
Rp27
sS'year'
p28
V2009
p29
sS'agonists'
p30
g3
((lp31
tp32
Rp33
sS'species'
p34
g3
((lp35
S"(1057, u'(?i)\\\\b(humans|human)\\\\b')"
p36
aS"(5958, u'(?i)\\\\b(rats|rat)\\\\b')"
p37
aS"(3196, u'(?i)\\\\b(human|humans)\\\\b')"
p38
atp39
Rp40
sb.