(ifile_types
ParseObject
p0
(dp1
S'methods'
p2
c__builtin__
set
p3
((lp4
S'Method.AGONIST'
p5
atp6
Rp7
sS'topics'
p8
g3
((lp9
S"(12, u'\\\\bsleep')"
p10
aS"(3, u'\\\\bclinical')"
p11
aS"(20, u'\\\\bmood')"
p12
aS"(4, u'\\\\btreatment')"
p13
aS"(2, u'\\\\bdisorder')"
p14
atp15
Rp16
sS'receptors'
p17
g3
((lp18
(S'5ht7'
p19
I677
I682
tp20
a(S'5ht1a'
p21
I666
I672
tp22
atp23
Rp24
sS'raw_text_methods'
p25
g3
((lp26
S"(13, u'\\\\bagonist')"
p27
aS"(15, u'\\\\b8ohdpat')"
p28
aS"(48, u'\\\\bmdma')"
p29
atp30
Rp31
sS'regions'
p32
g3
((lp33
tp34
Rp35
sS'year'
p36
V2001
p37
sS'species'
p38
g3
((lp39
S"(4, u'(?i)\\\\b(rats|rat)\\\\b')"
p40
atp41
Rp42
sb.