(ifile_types
ParseObject
p0
(dp1
S'methods'
p2
c__builtin__
set
p3
((lp4
S'Method.PET'
p5
atp6
Rp7
sS'topics'
p8
g3
((lp9
tp10
Rp11
sS'receptors'
p12
g3
((lp13
(S'5ht1a'
p14
I1149
I1155
tp15
a(S'5ht1a'
p16
I213
I219
tp17
a(S'5ht1a'
p18
I1826
I1832
tp19
a(S'5ht1a'
p20
I1608
I1614
tp21
a(S'5ht1a'
p22
I1445
I1451
tp23
a(S'5ht1a'
p24
I1341
I1347
tp25
a(S'5ht1a'
p26
I1262
I1268
tp27
atp28
Rp29
sS'raw_text_methods'
p30
g3
((lp31
S"(17, u'\\\\bpet')"
p32
aS"(19, u'\\\\bpositron emission tomography')"
p33
atp34
Rp35
sS'regions'
p36
g3
((lp37
S"(8, u'(?i)\\\\b(centrals|central)(-|\\\\s+)?(nervouses|nervous)(-|\\\\s+)?(systems|system)\\\\b')"
p38
atp39
Rp40
sS'year'
p41
V2001
p42
sS'species'
p43
g3
((lp44
tp45
Rp46
sb.