(ifile_types
ParseObject
p0
(dp1
S'methods'
p2
c__builtin__
set
p3
((lp4
S'Method.ANTAGONIST'
p5
atp6
Rp7
sS'topics'
p8
g3
((lp9
S"(1, u'\\\\bpatient')"
p10
aS"(5, u'\\\\btherap')"
p11
aS"(4, u'\\\\btreatment')"
p12
aS"(32, u'\\\\bvomit')"
p13
atp14
Rp15
sS'receptors'
p16
g3
((lp17
(S'5ht3'
p18
I1042
I1047
tp19
a(S'5ht3'
p20
I1477
I1482
tp21
a(S'5ht3'
p22
I1300
I1305
tp23
a(S'5ht3'
p24
I1544
I1549
tp25
atp26
Rp27
sS'raw_text_methods'
p28
g3
((lp29
S"(12, u'\\\\bantagonist')"
p30
atp31
Rp32
sS'regions'
p33
g3
((lp34
tp35
Rp36
sS'year'
p37
V1998
p38
sS'species'
p39
g3
((lp40
tp41
Rp42
sb.