(ifile_types
ParseObject
p0
(dp1
S'methods'
p2
c__builtin__
set
p3
((lp4
tp5
Rp6
sS'topics'
p7
g3
((lp8
S"(5, u'\\\\btherap')"
p9
aS"(23, u'\\\\bantipsychotic')"
p10
aS"(3, u'\\\\bclinical')"
p11
atp12
Rp13
sS'receptors'
p14
g3
((lp15
(S'5ht2c'
p16
I881
I887
tp17
a(S'5ht2c'
p18
I1039
I1045
tp19
a(S'5ht2a'
p20
I1931
I1937
tp21
a(S'5ht1a'
p22
I1217
I1223
tp23
a(S'5ht2c'
p24
I1515
I1521
tp25
a(S'5ht1a'
p26
I2021
I2027
tp27
a(S'5ht2a'
p28
I1210
I1216
tp29
a(S'5ht2c'
p30
I1920
I1926
tp31
a(S'5ht2a'
p32
I1047
I1053
tp33
a(S'5ht1a'
p34
I1264
I1270
tp35
a(S'5ht2c'
p36
I751
I757
tp37
a(S'5ht2c'
p38
I1055
I1061
tp39
a(S'5ht2c'
p40
I1376
I1382
tp41
a(S'5ht2'
p42
I881
I887
tp43
a(S'5ht2'
p44
I1071
I1077
tp45
a(S'5ht2'
p46
I1055
I1061
tp47
a(S'5ht2c'
p48
I1257
I1263
tp49
a(S'5ht2a'
p50
I1071
I1077
tp51
atp52
Rp53
sS'raw_text_methods'
p54
g3
((lp55
tp56
Rp57
sS'regions'
p58
g3
((lp59
tp60
Rp61
sS'year'
p62
V2007
p63
sS'species'
p64
g3
((lp65
tp66
Rp67
sb.