(ifile_types
ParseObject
p0
(dp1
S'antagonists'
p2
c__builtin__
set
p3
((lp4
S"(14, u'\\\\bmethiothepin')"
p5
aS"(105, u'\\\\bmethysergide')"
p6
aS"(153, u'\\\\bgr ?113808')"
p7
atp8
Rp9
sS'methods'
p10
g3
((lp11
S'Method.ANTAGONIST'
p12
aS'Method.AGONIST'
p13
atp14
Rp15
sS'topics'
p16
g3
((lp17
tp18
Rp19
sS'receptors'
p20
g3
((lp21
S'5ht6'
p22
aS'5ht5'
p23
aS'5ht4'
p24
aS'5ht5a'
p25
atp26
Rp27
sS'regions'
p28
g3
((lp29
S"(34, u'(?i)(pon|pons)')"
p30
atp31
Rp32
sS'year'
p33
V2007
p34
sS'agonists'
p35
g3
((lp36
S"(202, u'\\\\bcisapride')"
p37
aS"(155, u'\\\\bmem')"
p38
aS"(60, u'\\\\bmethysergide')"
p39
atp40
Rp41
sS'species'
p42
g3
((lp43
S"(5958, u'(?i)(rats|rat)')"
p44
aS"(6753, u'(?i)(da|das)')"
p45
aS"(468, u'(?i)(oxen|ox)')"
p46
aS"(6356, u'(?i)(ais|ai)')"
p47
aS"(6249, u'(?i)(ants|ant)')"
p48
aS"(3812, u'(?i)(studs|stud)')"
p49
atp50
Rp51
sb.