(ifile_types
ParseObject
p0
(dp1
S'methods'
p2
c__builtin__
set
p3
((lp4
S'Method.ANTAGONIST'
p5
atp6
Rp7
sS'topics'
p8
g3
((lp9
S"(26, u'\\\\bbehav')"
p10
aS"(33, u'\\\\blocomot')"
p11
aS"(13, u'\\\\bantidepress')"
p12
aS"(9, u'\\\\bstress')"
p13
aS"(7, u'\\\\bdepressi')"
p14
aS"(4, u'\\\\btreatment')"
p15
aS"(3, u'\\\\bclinical')"
p16
atp17
Rp18
sS'receptors'
p19
g3
((lp20
(S'5ht3'
p21
I70
I75
tp22
a(S'5ht3'
p23
I804
I809
tp24
atp25
Rp26
sS'raw_text_methods'
p27
g3
((lp28
S"(11, u'\\\\bfluoxetine')"
p29
aS"(12, u'\\\\bantagonist')"
p30
atp31
Rp32
sS'regions'
p33
g3
((lp34
tp35
Rp36
sS'year'
p37
V2014
p38
sS'species'
p39
g3
((lp40
S"(1, u'(?i)\\\\b(mice|mouse)\\\\b')"
p41
aS"(5, u'(?i)\\\\b(mices|mice)\\\\b')"
p42
atp43
Rp44
sb.