(ifile_types
ParseObject
p0
(dp1
S'methods'
p2
c__builtin__
set
p3
((lp4
tp5
Rp6
sS'topics'
p7
g3
((lp8
S"(26, u'\\\\bbehav')"
p9
aS"(7, u'\\\\bdepressi')"
p10
aS"(13, u'\\\\bantidepress')"
p11
aS"(4, u'\\\\btreatment')"
p12
atp13
Rp14
sS'receptors'
p15
g3
((lp16
(S'5ht1a'
p17
I2135
I2141
tp18
a(S'5ht1a'
p19
I1882
I1888
tp20
a(S'5ht1a'
p21
I1125
I1131
tp22
a(S'5ht1a'
p23
I1722
I1728
tp24
a(S'5ht1a'
p25
I2535
I2541
tp26
a(S'5ht1a'
p27
I510
I516
tp28
a(S'5ht1a'
p29
I2194
I2200
tp30
a(S'5ht1a'
p31
I1573
I1579
tp32
a(S'5ht1a'
p33
I184
I190
tp34
a(S'5ht1a'
p35
I2311
I2317
tp36
atp37
Rp38
sS'raw_text_methods'
p39
g3
((lp40
S"(54, u'\\\\bautoradiography')"
p41
aS"(22, u'\\\\bbuspirone')"
p42
atp43
Rp44
sS'regions'
p45
g3
((lp46
tp47
Rp48
sS'year'
p49
V2008
p50
sS'species'
p51
g3
((lp52
S"(4, u'(?i)\\\\b(rats|rat)\\\\b')"
p53
atp54
Rp55
sb.