(ifile_types
ParseObject
p0
(dp1
S'methods'
p2
c__builtin__
set
p3
((lp4
S'Method.KNOCKOUT'
p5
atp6
Rp7
sS'topics'
p8
g3
((lp9
S"(33, u'\\\\blocomot')"
p10
aS"(8, u'\\\\banxi')"
p11
aS"(26, u'\\\\bbehav')"
p12
aS"(7, u'\\\\bdepressi')"
p13
aS"(13, u'\\\\bantidepress')"
p14
atp15
Rp16
sS'receptors'
p17
g3
((lp18
(S'5ht3'
p19
I810
I815
tp20
a(S'5ht3'
p21
I1409
I1414
tp22
a(S'5ht3'
p23
I47
I52
tp24
a(S'5ht3'
p25
I1725
I1730
tp26
a(S'5ht3'
p27
I484
I489
tp28
a(S'5ht2'
p29
I381
I386
tp30
a(S'5ht1'
p31
I371
I376
tp32
a(S'5ht3'
p33
I1571
I1576
tp34
a(S'5ht3'
p35
I1235
I1240
tp36
a(S'5ht3'
p37
I639
I644
tp38
atp39
Rp40
sS'raw_text_methods'
p41
g3
((lp42
tp43
Rp44
sS'regions'
p45
g3
((lp46
tp47
Rp48
sS'year'
p49
V2004
p50
sS'species'
p51
g3
((lp52
S"(1, u'(?i)\\\\b(mice|mouse)\\\\b')"
p53
aS"(2, u'(?i)\\\\b(females|female)\\\\b')"
p54
aS"(5, u'(?i)\\\\b(mices|mice)\\\\b')"
p55
aS"(3, u'(?i)\\\\b(males|male)\\\\b')"
p56
atp57
Rp58
sb.